ARM GAS  C:\Users\LENOVO\AppData\Local\Temp\ccNghrtz.s 			page 1


   1              		.cpu cortex-m33
   2              		.arch armv8-m.main
   3              		.fpu fpv5-sp-d16
   4              		.arch_extension dsp
   5              		.eabi_attribute 27, 1
   6              		.eabi_attribute 28, 1
   7              		.eabi_attribute 20, 1
   8              		.eabi_attribute 21, 1
   9              		.eabi_attribute 23, 3
  10              		.eabi_attribute 24, 1
  11              		.eabi_attribute 25, 1
  12              		.eabi_attribute 26, 1
  13              		.eabi_attribute 30, 1
  14              		.eabi_attribute 34, 1
  15              		.eabi_attribute 18, 4
  16              		.file	"adc.c"
  17              		.text
  18              	.Ltext0:
  19              		.cfi_sections	.debug_frame
  20              		.file 1 "Core/Src/adc.c"
  21              		.section	.text.MX_ADC1_Init,"ax",%progbits
  22              		.align	1
  23              		.global	MX_ADC1_Init
  24              		.syntax unified
  25              		.thumb
  26              		.thumb_func
  28              	MX_ADC1_Init:
  29              	.LFB496:
   1:Core/Src/adc.c **** /* USER CODE BEGIN Header */
   2:Core/Src/adc.c **** /**
   3:Core/Src/adc.c ****   ******************************************************************************
   4:Core/Src/adc.c ****   * @file    adc.c
   5:Core/Src/adc.c ****   * @brief   This file provides code for the configuration
   6:Core/Src/adc.c ****   *          of the ADC instances.
   7:Core/Src/adc.c ****   ******************************************************************************
   8:Core/Src/adc.c ****   * @attention
   9:Core/Src/adc.c ****   *
  10:Core/Src/adc.c ****   * Copyright (c) 2026 STMicroelectronics.
  11:Core/Src/adc.c ****   * All rights reserved.
  12:Core/Src/adc.c ****   *
  13:Core/Src/adc.c ****   * This software is licensed under terms that can be found in the LICENSE file
  14:Core/Src/adc.c ****   * in the root directory of this software component.
  15:Core/Src/adc.c ****   * If no LICENSE file comes with this software, it is provided AS-IS.
  16:Core/Src/adc.c ****   *
  17:Core/Src/adc.c ****   ******************************************************************************
  18:Core/Src/adc.c ****   */
  19:Core/Src/adc.c **** /* USER CODE END Header */
  20:Core/Src/adc.c **** /* Includes ------------------------------------------------------------------*/
  21:Core/Src/adc.c **** #include "adc.h"
  22:Core/Src/adc.c **** 
  23:Core/Src/adc.c **** /* USER CODE BEGIN 0 */
  24:Core/Src/adc.c **** 
  25:Core/Src/adc.c **** /* USER CODE END 0 */
  26:Core/Src/adc.c **** 
  27:Core/Src/adc.c **** ADC_HandleTypeDef hadc1;
  28:Core/Src/adc.c **** 
  29:Core/Src/adc.c **** /* ADC1 init function */
ARM GAS  C:\Users\LENOVO\AppData\Local\Temp\ccNghrtz.s 			page 2


  30:Core/Src/adc.c **** void MX_ADC1_Init(void)
  31:Core/Src/adc.c **** {
  30              		.loc 1 31 1 view -0
  31              		.cfi_startproc
  32              		@ args = 0, pretend = 0, frame = 32
  33              		@ frame_needed = 0, uses_anonymous_args = 0
  34 0000 00B5     		push	{lr}
  35              	.LCFI0:
  36              		.cfi_def_cfa_offset 4
  37              		.cfi_offset 14, -4
  38 0002 89B0     		sub	sp, sp, #36
  39              	.LCFI1:
  40              		.cfi_def_cfa_offset 40
  32:Core/Src/adc.c **** 
  33:Core/Src/adc.c ****   /* USER CODE BEGIN ADC1_Init 0 */
  34:Core/Src/adc.c **** 
  35:Core/Src/adc.c ****   /* USER CODE END ADC1_Init 0 */
  36:Core/Src/adc.c **** 
  37:Core/Src/adc.c ****   ADC_ChannelConfTypeDef sConfig = {0};
  41              		.loc 1 37 3 view .LVU1
  42              		.loc 1 37 26 is_stmt 0 view .LVU2
  43 0004 2022     		movs	r2, #32
  44 0006 0021     		movs	r1, #0
  45 0008 6846     		mov	r0, sp
  46 000a FFF7FEFF 		bl	memset
  47              	.LVL0:
  38:Core/Src/adc.c **** 
  39:Core/Src/adc.c ****   /* USER CODE BEGIN ADC1_Init 1 */
  40:Core/Src/adc.c **** 
  41:Core/Src/adc.c ****   /* USER CODE END ADC1_Init 1 */
  42:Core/Src/adc.c **** 
  43:Core/Src/adc.c ****   /** Common config
  44:Core/Src/adc.c ****   */
  45:Core/Src/adc.c ****   hadc1.Instance = ADC1;
  48              		.loc 1 45 3 is_stmt 1 view .LVU3
  49              		.loc 1 45 18 is_stmt 0 view .LVU4
  50 000e 1B48     		ldr	r0, .L7
  51 0010 1B4B     		ldr	r3, .L7+4
  52 0012 0360     		str	r3, [r0]
  46:Core/Src/adc.c ****   hadc1.Init.ClockPrescaler = ADC_CLOCK_ASYNC_DIV4;
  53              		.loc 1 46 3 is_stmt 1 view .LVU5
  54              		.loc 1 46 29 is_stmt 0 view .LVU6
  55 0014 4FF40023 		mov	r3, #524288
  56 0018 4360     		str	r3, [r0, #4]
  47:Core/Src/adc.c ****   hadc1.Init.Resolution = ADC_RESOLUTION_12B;
  57              		.loc 1 47 3 is_stmt 1 view .LVU7
  58              		.loc 1 47 25 is_stmt 0 view .LVU8
  59 001a 0023     		movs	r3, #0
  60 001c 8360     		str	r3, [r0, #8]
  48:Core/Src/adc.c ****   hadc1.Init.DataAlign = ADC_DATAALIGN_RIGHT;
  61              		.loc 1 48 3 is_stmt 1 view .LVU9
  62              		.loc 1 48 24 is_stmt 0 view .LVU10
  63 001e C360     		str	r3, [r0, #12]
  49:Core/Src/adc.c ****   hadc1.Init.ScanConvMode = ADC_SCAN_DISABLE;
  64              		.loc 1 49 3 is_stmt 1 view .LVU11
  65              		.loc 1 49 27 is_stmt 0 view .LVU12
  66 0020 0361     		str	r3, [r0, #16]
ARM GAS  C:\Users\LENOVO\AppData\Local\Temp\ccNghrtz.s 			page 3


  50:Core/Src/adc.c ****   hadc1.Init.EOCSelection = ADC_EOC_SINGLE_CONV;
  67              		.loc 1 50 3 is_stmt 1 view .LVU13
  68              		.loc 1 50 27 is_stmt 0 view .LVU14
  69 0022 0422     		movs	r2, #4
  70 0024 4261     		str	r2, [r0, #20]
  51:Core/Src/adc.c ****   hadc1.Init.LowPowerAutoWait = DISABLE;
  71              		.loc 1 51 3 is_stmt 1 view .LVU15
  72              		.loc 1 51 31 is_stmt 0 view .LVU16
  73 0026 0376     		strb	r3, [r0, #24]
  52:Core/Src/adc.c ****   hadc1.Init.ContinuousConvMode = ENABLE;
  74              		.loc 1 52 3 is_stmt 1 view .LVU17
  75              		.loc 1 52 33 is_stmt 0 view .LVU18
  76 0028 0122     		movs	r2, #1
  77 002a 4276     		strb	r2, [r0, #25]
  53:Core/Src/adc.c ****   hadc1.Init.NbrOfConversion = 1;
  78              		.loc 1 53 3 is_stmt 1 view .LVU19
  79              		.loc 1 53 30 is_stmt 0 view .LVU20
  80 002c C261     		str	r2, [r0, #28]
  54:Core/Src/adc.c ****   hadc1.Init.DiscontinuousConvMode = DISABLE;
  81              		.loc 1 54 3 is_stmt 1 view .LVU21
  82              		.loc 1 54 36 is_stmt 0 view .LVU22
  83 002e 80F82030 		strb	r3, [r0, #32]
  55:Core/Src/adc.c ****   hadc1.Init.ExternalTrigConv = ADC_SOFTWARE_START;
  84              		.loc 1 55 3 is_stmt 1 view .LVU23
  85              		.loc 1 55 31 is_stmt 0 view .LVU24
  86 0032 8362     		str	r3, [r0, #40]
  56:Core/Src/adc.c ****   hadc1.Init.ExternalTrigConvEdge = ADC_EXTERNALTRIGCONVEDGE_NONE;
  87              		.loc 1 56 3 is_stmt 1 view .LVU25
  88              		.loc 1 56 35 is_stmt 0 view .LVU26
  89 0034 C362     		str	r3, [r0, #44]
  57:Core/Src/adc.c ****   hadc1.Init.DMAContinuousRequests = DISABLE;
  90              		.loc 1 57 3 is_stmt 1 view .LVU27
  91              		.loc 1 57 36 is_stmt 0 view .LVU28
  92 0036 80F83430 		strb	r3, [r0, #52]
  58:Core/Src/adc.c ****   hadc1.Init.SamplingMode = ADC_SAMPLING_MODE_NORMAL;
  93              		.loc 1 58 3 is_stmt 1 view .LVU29
  94              		.loc 1 58 27 is_stmt 0 view .LVU30
  95 003a 0363     		str	r3, [r0, #48]
  59:Core/Src/adc.c ****   hadc1.Init.Overrun = ADC_OVR_DATA_PRESERVED;
  96              		.loc 1 59 3 is_stmt 1 view .LVU31
  97              		.loc 1 59 22 is_stmt 0 view .LVU32
  98 003c 8363     		str	r3, [r0, #56]
  60:Core/Src/adc.c ****   hadc1.Init.OversamplingMode = DISABLE;
  99              		.loc 1 60 3 is_stmt 1 view .LVU33
 100              		.loc 1 60 31 is_stmt 0 view .LVU34
 101 003e 80F83C30 		strb	r3, [r0, #60]
  61:Core/Src/adc.c ****   if (HAL_ADC_Init(&hadc1) != HAL_OK)
 102              		.loc 1 61 3 is_stmt 1 view .LVU35
 103              		.loc 1 61 7 is_stmt 0 view .LVU36
 104 0042 FFF7FEFF 		bl	HAL_ADC_Init
 105              	.LVL1:
 106              		.loc 1 61 6 discriminator 1 view .LVU37
 107 0046 98B9     		cbnz	r0, .L5
 108              	.L2:
  62:Core/Src/adc.c ****   {
  63:Core/Src/adc.c ****     Error_Handler();
  64:Core/Src/adc.c ****   }
ARM GAS  C:\Users\LENOVO\AppData\Local\Temp\ccNghrtz.s 			page 4


  65:Core/Src/adc.c **** 
  66:Core/Src/adc.c ****   /** Configure Regular Channel
  67:Core/Src/adc.c ****   */
  68:Core/Src/adc.c ****   sConfig.Channel = ADC_CHANNEL_12;
 109              		.loc 1 68 3 is_stmt 1 view .LVU38
 110              		.loc 1 68 19 is_stmt 0 view .LVU39
 111 0048 0E4B     		ldr	r3, .L7+8
 112 004a 0093     		str	r3, [sp]
  69:Core/Src/adc.c ****   sConfig.Rank = ADC_REGULAR_RANK_1;
 113              		.loc 1 69 3 is_stmt 1 view .LVU40
 114              		.loc 1 69 16 is_stmt 0 view .LVU41
 115 004c 0623     		movs	r3, #6
 116 004e 0193     		str	r3, [sp, #4]
  70:Core/Src/adc.c ****   sConfig.SamplingTime = ADC_SAMPLETIME_640CYCLES_5;
 117              		.loc 1 70 3 is_stmt 1 view .LVU42
 118              		.loc 1 70 24 is_stmt 0 view .LVU43
 119 0050 0723     		movs	r3, #7
 120 0052 0293     		str	r3, [sp, #8]
  71:Core/Src/adc.c ****   sConfig.SingleDiff = ADC_SINGLE_ENDED;
 121              		.loc 1 71 3 is_stmt 1 view .LVU44
 122              		.loc 1 71 22 is_stmt 0 view .LVU45
 123 0054 7F23     		movs	r3, #127
 124 0056 0393     		str	r3, [sp, #12]
  72:Core/Src/adc.c ****   sConfig.OffsetNumber = ADC_OFFSET_NONE;
 125              		.loc 1 72 3 is_stmt 1 view .LVU46
 126              		.loc 1 72 24 is_stmt 0 view .LVU47
 127 0058 0423     		movs	r3, #4
 128 005a 0493     		str	r3, [sp, #16]
  73:Core/Src/adc.c ****   sConfig.Offset = 0;
 129              		.loc 1 73 3 is_stmt 1 view .LVU48
 130              		.loc 1 73 18 is_stmt 0 view .LVU49
 131 005c 0023     		movs	r3, #0
 132 005e 0593     		str	r3, [sp, #20]
  74:Core/Src/adc.c ****   if (HAL_ADC_ConfigChannel(&hadc1, &sConfig) != HAL_OK)
 133              		.loc 1 74 3 is_stmt 1 view .LVU50
 134              		.loc 1 74 7 is_stmt 0 view .LVU51
 135 0060 6946     		mov	r1, sp
 136 0062 0648     		ldr	r0, .L7
 137 0064 FFF7FEFF 		bl	HAL_ADC_ConfigChannel
 138              	.LVL2:
 139              		.loc 1 74 6 discriminator 1 view .LVU52
 140 0068 28B9     		cbnz	r0, .L6
 141              	.L1:
  75:Core/Src/adc.c ****   {
  76:Core/Src/adc.c ****     Error_Handler();
  77:Core/Src/adc.c ****   }
  78:Core/Src/adc.c ****   /* USER CODE BEGIN ADC1_Init 2 */
  79:Core/Src/adc.c **** 
  80:Core/Src/adc.c ****   /* USER CODE END ADC1_Init 2 */
  81:Core/Src/adc.c **** 
  82:Core/Src/adc.c **** }
 142              		.loc 1 82 1 view .LVU53
 143 006a 09B0     		add	sp, sp, #36
 144              	.LCFI2:
 145              		.cfi_remember_state
 146              		.cfi_def_cfa_offset 4
 147              		@ sp needed
ARM GAS  C:\Users\LENOVO\AppData\Local\Temp\ccNghrtz.s 			page 5


 148 006c 5DF804FB 		ldr	pc, [sp], #4
 149              	.L5:
 150              	.LCFI3:
 151              		.cfi_restore_state
  63:Core/Src/adc.c ****   }
 152              		.loc 1 63 5 is_stmt 1 view .LVU54
 153 0070 FFF7FEFF 		bl	Error_Handler
 154              	.LVL3:
 155 0074 E8E7     		b	.L2
 156              	.L6:
  76:Core/Src/adc.c ****   }
 157              		.loc 1 76 5 view .LVU55
 158 0076 FFF7FEFF 		bl	Error_Handler
 159              	.LVL4:
 160              		.loc 1 82 1 is_stmt 0 view .LVU56
 161 007a F6E7     		b	.L1
 162              	.L8:
 163              		.align	2
 164              	.L7:
 165 007c 00000000 		.word	hadc1
 166 0080 00800242 		.word	1107460096
 167 0084 00106032 		.word	845156352
 168              		.cfi_endproc
 169              	.LFE496:
 171              		.section	.text.HAL_ADC_MspInit,"ax",%progbits
 172              		.align	1
 173              		.global	HAL_ADC_MspInit
 174              		.syntax unified
 175              		.thumb
 176              		.thumb_func
 178              	HAL_ADC_MspInit:
 179              	.LVL5:
 180              	.LFB497:
  83:Core/Src/adc.c **** 
  84:Core/Src/adc.c **** void HAL_ADC_MspInit(ADC_HandleTypeDef* adcHandle)
  85:Core/Src/adc.c **** {
 181              		.loc 1 85 1 is_stmt 1 view -0
 182              		.cfi_startproc
 183              		@ args = 0, pretend = 0, frame = 296
 184              		@ frame_needed = 0, uses_anonymous_args = 0
 185              		.loc 1 85 1 is_stmt 0 view .LVU58
 186 0000 10B5     		push	{r4, lr}
 187              	.LCFI4:
 188              		.cfi_def_cfa_offset 8
 189              		.cfi_offset 4, -8
 190              		.cfi_offset 14, -4
 191 0002 CAB0     		sub	sp, sp, #296
 192              	.LCFI5:
 193              		.cfi_def_cfa_offset 304
 194 0004 0446     		mov	r4, r0
  86:Core/Src/adc.c **** 
  87:Core/Src/adc.c ****   GPIO_InitTypeDef GPIO_InitStruct = {0};
 195              		.loc 1 87 3 is_stmt 1 view .LVU59
 196              		.loc 1 87 20 is_stmt 0 view .LVU60
 197 0006 0021     		movs	r1, #0
 198 0008 4591     		str	r1, [sp, #276]
 199 000a 4691     		str	r1, [sp, #280]
ARM GAS  C:\Users\LENOVO\AppData\Local\Temp\ccNghrtz.s 			page 6


 200 000c 4791     		str	r1, [sp, #284]
 201 000e 4891     		str	r1, [sp, #288]
 202 0010 4991     		str	r1, [sp, #292]
  88:Core/Src/adc.c ****   RCC_PeriphCLKInitTypeDef PeriphClkInitStruct = {0};
 203              		.loc 1 88 3 is_stmt 1 view .LVU61
 204              		.loc 1 88 28 is_stmt 0 view .LVU62
 205 0012 4FF48472 		mov	r2, #264
 206 0016 02A8     		add	r0, sp, #8
 207              	.LVL6:
 208              		.loc 1 88 28 view .LVU63
 209 0018 FFF7FEFF 		bl	memset
 210              	.LVL7:
  89:Core/Src/adc.c ****   if(adcHandle->Instance==ADC1)
 211              		.loc 1 89 3 is_stmt 1 view .LVU64
 212              		.loc 1 89 15 is_stmt 0 view .LVU65
 213 001c 2268     		ldr	r2, [r4]
 214              		.loc 1 89 5 view .LVU66
 215 001e 1A4B     		ldr	r3, .L15
 216 0020 9A42     		cmp	r2, r3
 217 0022 01D0     		beq	.L13
 218              	.L9:
  90:Core/Src/adc.c ****   {
  91:Core/Src/adc.c ****   /* USER CODE BEGIN ADC1_MspInit 0 */
  92:Core/Src/adc.c **** 
  93:Core/Src/adc.c ****   /* USER CODE END ADC1_MspInit 0 */
  94:Core/Src/adc.c **** 
  95:Core/Src/adc.c ****   /** Initializes the peripherals clock
  96:Core/Src/adc.c ****   */
  97:Core/Src/adc.c ****     PeriphClkInitStruct.PeriphClockSelection = RCC_PERIPHCLK_ADCDAC;
  98:Core/Src/adc.c ****     PeriphClkInitStruct.AdcDacClockSelection = RCC_ADCDACCLKSOURCE_HCLK;
  99:Core/Src/adc.c ****     if (HAL_RCCEx_PeriphCLKConfig(&PeriphClkInitStruct) != HAL_OK)
 100:Core/Src/adc.c ****     {
 101:Core/Src/adc.c ****       Error_Handler();
 102:Core/Src/adc.c ****     }
 103:Core/Src/adc.c **** 
 104:Core/Src/adc.c ****     /* ADC1 clock enable */
 105:Core/Src/adc.c ****     __HAL_RCC_ADC_CLK_ENABLE();
 106:Core/Src/adc.c **** 
 107:Core/Src/adc.c ****     __HAL_RCC_GPIOC_CLK_ENABLE();
 108:Core/Src/adc.c ****     /**ADC1 GPIO Configuration
 109:Core/Src/adc.c ****     PC2     ------> ADC1_INP12
 110:Core/Src/adc.c ****     */
 111:Core/Src/adc.c ****     GPIO_InitStruct.Pin = GPIO_PIN_2;
 112:Core/Src/adc.c ****     GPIO_InitStruct.Mode = GPIO_MODE_ANALOG;
 113:Core/Src/adc.c ****     GPIO_InitStruct.Pull = GPIO_NOPULL;
 114:Core/Src/adc.c ****     HAL_GPIO_Init(GPIOC, &GPIO_InitStruct);
 115:Core/Src/adc.c **** 
 116:Core/Src/adc.c ****   /* USER CODE BEGIN ADC1_MspInit 1 */
 117:Core/Src/adc.c **** 
 118:Core/Src/adc.c ****   /* USER CODE END ADC1_MspInit 1 */
 119:Core/Src/adc.c ****   }
 120:Core/Src/adc.c **** }
 219              		.loc 1 120 1 view .LVU67
 220 0024 4AB0     		add	sp, sp, #296
 221              	.LCFI6:
 222              		.cfi_remember_state
 223              		.cfi_def_cfa_offset 8
ARM GAS  C:\Users\LENOVO\AppData\Local\Temp\ccNghrtz.s 			page 7


 224              		@ sp needed
 225 0026 10BD     		pop	{r4, pc}
 226              	.LVL8:
 227              	.L13:
 228              	.LCFI7:
 229              		.cfi_restore_state
  97:Core/Src/adc.c ****     PeriphClkInitStruct.AdcDacClockSelection = RCC_ADCDACCLKSOURCE_HCLK;
 230              		.loc 1 97 5 is_stmt 1 view .LVU68
  97:Core/Src/adc.c ****     PeriphClkInitStruct.AdcDacClockSelection = RCC_ADCDACCLKSOURCE_HCLK;
 231              		.loc 1 97 46 is_stmt 0 view .LVU69
 232 0028 4FF40012 		mov	r2, #2097152
 233 002c 0023     		movs	r3, #0
 234 002e CDE90223 		strd	r2, [sp, #8]
  98:Core/Src/adc.c ****     if (HAL_RCCEx_PeriphCLKConfig(&PeriphClkInitStruct) != HAL_OK)
 235              		.loc 1 98 5 is_stmt 1 view .LVU70
  99:Core/Src/adc.c ****     {
 236              		.loc 1 99 5 view .LVU71
  99:Core/Src/adc.c ****     {
 237              		.loc 1 99 9 is_stmt 0 view .LVU72
 238 0032 02A8     		add	r0, sp, #8
 239 0034 FFF7FEFF 		bl	HAL_RCCEx_PeriphCLKConfig
 240              	.LVL9:
  99:Core/Src/adc.c ****     {
 241              		.loc 1 99 8 discriminator 1 view .LVU73
 242 0038 18BB     		cbnz	r0, .L14
 243              	.L11:
 105:Core/Src/adc.c **** 
 244              		.loc 1 105 5 is_stmt 1 view .LVU74
 245              	.LBB2:
 105:Core/Src/adc.c **** 
 246              		.loc 1 105 5 view .LVU75
 105:Core/Src/adc.c **** 
 247              		.loc 1 105 5 view .LVU76
 248 003a 144B     		ldr	r3, .L15+4
 249 003c D3F88C20 		ldr	r2, [r3, #140]
 250 0040 42F48062 		orr	r2, r2, #1024
 251 0044 C3F88C20 		str	r2, [r3, #140]
 105:Core/Src/adc.c **** 
 252              		.loc 1 105 5 view .LVU77
 253 0048 D3F88C20 		ldr	r2, [r3, #140]
 254 004c 02F48062 		and	r2, r2, #1024
 255 0050 0092     		str	r2, [sp]
 105:Core/Src/adc.c **** 
 256              		.loc 1 105 5 view .LVU78
 257 0052 009A     		ldr	r2, [sp]
 258              	.LBE2:
 105:Core/Src/adc.c **** 
 259              		.loc 1 105 5 view .LVU79
 107:Core/Src/adc.c ****     /**ADC1 GPIO Configuration
 260              		.loc 1 107 5 view .LVU80
 261              	.LBB3:
 107:Core/Src/adc.c ****     /**ADC1 GPIO Configuration
 262              		.loc 1 107 5 view .LVU81
 107:Core/Src/adc.c ****     /**ADC1 GPIO Configuration
 263              		.loc 1 107 5 view .LVU82
 264 0054 D3F88C20 		ldr	r2, [r3, #140]
 265 0058 42F00402 		orr	r2, r2, #4
ARM GAS  C:\Users\LENOVO\AppData\Local\Temp\ccNghrtz.s 			page 8


 266 005c C3F88C20 		str	r2, [r3, #140]
 107:Core/Src/adc.c ****     /**ADC1 GPIO Configuration
 267              		.loc 1 107 5 view .LVU83
 268 0060 D3F88C30 		ldr	r3, [r3, #140]
 269 0064 03F00403 		and	r3, r3, #4
 270 0068 0193     		str	r3, [sp, #4]
 107:Core/Src/adc.c ****     /**ADC1 GPIO Configuration
 271              		.loc 1 107 5 view .LVU84
 272 006a 019B     		ldr	r3, [sp, #4]
 273              	.LBE3:
 107:Core/Src/adc.c ****     /**ADC1 GPIO Configuration
 274              		.loc 1 107 5 view .LVU85
 111:Core/Src/adc.c ****     GPIO_InitStruct.Mode = GPIO_MODE_ANALOG;
 275              		.loc 1 111 5 view .LVU86
 111:Core/Src/adc.c ****     GPIO_InitStruct.Mode = GPIO_MODE_ANALOG;
 276              		.loc 1 111 25 is_stmt 0 view .LVU87
 277 006c 0423     		movs	r3, #4
 278 006e 4593     		str	r3, [sp, #276]
 112:Core/Src/adc.c ****     GPIO_InitStruct.Pull = GPIO_NOPULL;
 279              		.loc 1 112 5 is_stmt 1 view .LVU88
 112:Core/Src/adc.c ****     GPIO_InitStruct.Pull = GPIO_NOPULL;
 280              		.loc 1 112 26 is_stmt 0 view .LVU89
 281 0070 0323     		movs	r3, #3
 282 0072 4693     		str	r3, [sp, #280]
 113:Core/Src/adc.c ****     HAL_GPIO_Init(GPIOC, &GPIO_InitStruct);
 283              		.loc 1 113 5 is_stmt 1 view .LVU90
 113:Core/Src/adc.c ****     HAL_GPIO_Init(GPIOC, &GPIO_InitStruct);
 284              		.loc 1 113 26 is_stmt 0 view .LVU91
 285 0074 0023     		movs	r3, #0
 286 0076 4793     		str	r3, [sp, #284]
 114:Core/Src/adc.c **** 
 287              		.loc 1 114 5 is_stmt 1 view .LVU92
 288 0078 45A9     		add	r1, sp, #276
 289 007a 0548     		ldr	r0, .L15+8
 290 007c FFF7FEFF 		bl	HAL_GPIO_Init
 291              	.LVL10:
 292              		.loc 1 120 1 is_stmt 0 view .LVU93
 293 0080 D0E7     		b	.L9
 294              	.L14:
 101:Core/Src/adc.c ****     }
 295              		.loc 1 101 7 is_stmt 1 view .LVU94
 296 0082 FFF7FEFF 		bl	Error_Handler
 297              	.LVL11:
 298 0086 D8E7     		b	.L11
 299              	.L16:
 300              		.align	2
 301              	.L15:
 302 0088 00800242 		.word	1107460096
 303 008c 000C0244 		.word	1140984832
 304 0090 00080242 		.word	1107429376
 305              		.cfi_endproc
 306              	.LFE497:
 308              		.section	.text.HAL_ADC_MspDeInit,"ax",%progbits
 309              		.align	1
 310              		.global	HAL_ADC_MspDeInit
 311              		.syntax unified
 312              		.thumb
ARM GAS  C:\Users\LENOVO\AppData\Local\Temp\ccNghrtz.s 			page 9


 313              		.thumb_func
 315              	HAL_ADC_MspDeInit:
 316              	.LVL12:
 317              	.LFB498:
 121:Core/Src/adc.c **** 
 122:Core/Src/adc.c **** void HAL_ADC_MspDeInit(ADC_HandleTypeDef* adcHandle)
 123:Core/Src/adc.c **** {
 318              		.loc 1 123 1 view -0
 319              		.cfi_startproc
 320              		@ args = 0, pretend = 0, frame = 0
 321              		@ frame_needed = 0, uses_anonymous_args = 0
 322              		.loc 1 123 1 is_stmt 0 view .LVU96
 323 0000 08B5     		push	{r3, lr}
 324              	.LCFI8:
 325              		.cfi_def_cfa_offset 8
 326              		.cfi_offset 3, -8
 327              		.cfi_offset 14, -4
 124:Core/Src/adc.c **** 
 125:Core/Src/adc.c ****   if(adcHandle->Instance==ADC1)
 328              		.loc 1 125 3 is_stmt 1 view .LVU97
 329              		.loc 1 125 15 is_stmt 0 view .LVU98
 330 0002 0268     		ldr	r2, [r0]
 331              		.loc 1 125 5 view .LVU99
 332 0004 074B     		ldr	r3, .L21
 333 0006 9A42     		cmp	r2, r3
 334 0008 00D0     		beq	.L20
 335              	.LVL13:
 336              	.L17:
 126:Core/Src/adc.c ****   {
 127:Core/Src/adc.c ****   /* USER CODE BEGIN ADC1_MspDeInit 0 */
 128:Core/Src/adc.c **** 
 129:Core/Src/adc.c ****   /* USER CODE END ADC1_MspDeInit 0 */
 130:Core/Src/adc.c ****     /* Peripheral clock disable */
 131:Core/Src/adc.c ****     __HAL_RCC_ADC_CLK_DISABLE();
 132:Core/Src/adc.c **** 
 133:Core/Src/adc.c ****     /**ADC1 GPIO Configuration
 134:Core/Src/adc.c ****     PC2     ------> ADC1_INP12
 135:Core/Src/adc.c ****     */
 136:Core/Src/adc.c ****     HAL_GPIO_DeInit(GPIOC, GPIO_PIN_2);
 137:Core/Src/adc.c **** 
 138:Core/Src/adc.c ****   /* USER CODE BEGIN ADC1_MspDeInit 1 */
 139:Core/Src/adc.c **** 
 140:Core/Src/adc.c ****   /* USER CODE END ADC1_MspDeInit 1 */
 141:Core/Src/adc.c ****   }
 142:Core/Src/adc.c **** }
 337              		.loc 1 142 1 view .LVU100
 338 000a 08BD     		pop	{r3, pc}
 339              	.LVL14:
 340              	.L20:
 131:Core/Src/adc.c **** 
 341              		.loc 1 131 5 is_stmt 1 view .LVU101
 342 000c 064A     		ldr	r2, .L21+4
 343 000e D2F88C30 		ldr	r3, [r2, #140]
 344 0012 23F48063 		bic	r3, r3, #1024
 345 0016 C2F88C30 		str	r3, [r2, #140]
 136:Core/Src/adc.c **** 
 346              		.loc 1 136 5 view .LVU102
ARM GAS  C:\Users\LENOVO\AppData\Local\Temp\ccNghrtz.s 			page 10


 347 001a 0421     		movs	r1, #4
 348 001c 0348     		ldr	r0, .L21+8
 349              	.LVL15:
 136:Core/Src/adc.c **** 
 350              		.loc 1 136 5 is_stmt 0 view .LVU103
 351 001e FFF7FEFF 		bl	HAL_GPIO_DeInit
 352              	.LVL16:
 353              		.loc 1 142 1 view .LVU104
 354 0022 F2E7     		b	.L17
 355              	.L22:
 356              		.align	2
 357              	.L21:
 358 0024 00800242 		.word	1107460096
 359 0028 000C0244 		.word	1140984832
 360 002c 00080242 		.word	1107429376
 361              		.cfi_endproc
 362              	.LFE498:
 364              		.global	hadc1
 365              		.section	.bss.hadc1,"aw",%nobits
 366              		.align	2
 369              	hadc1:
 370 0000 00000000 		.space	104
 370      00000000 
 370      00000000 
 370      00000000 
 370      00000000 
 371              		.text
 372              	.Letext0:
 373              		.file 2 "C:\\ST\\STM32CubeCLT_1.20.0\\GNU-tools-for-STM32\\bin/../lib/gcc/arm-none-eabi/13.3.1/../
 374              		.file 3 "C:\\ST\\STM32CubeCLT_1.20.0\\GNU-tools-for-STM32\\bin/../lib/gcc/arm-none-eabi/13.3.1/../
 375              		.file 4 "Drivers/CMSIS/Device/ST/STM32H5xx/Include/stm32h563xx.h"
 376              		.file 5 "Drivers/CMSIS/Device/ST/STM32H5xx/Include/stm32h5xx.h"
 377              		.file 6 "Drivers/STM32H5xx_HAL_Driver/Inc/stm32h5xx_hal_def.h"
 378              		.file 7 "Drivers/STM32H5xx_HAL_Driver/Inc/stm32h5xx_hal_rcc_ex.h"
 379              		.file 8 "Drivers/STM32H5xx_HAL_Driver/Inc/stm32h5xx_hal_gpio.h"
 380              		.file 9 "Drivers/STM32H5xx_HAL_Driver/Inc/stm32h5xx_hal_dma.h"
 381              		.file 10 "Drivers/STM32H5xx_HAL_Driver/Inc/stm32h5xx_hal_dma_ex.h"
 382              		.file 11 "Drivers/STM32H5xx_HAL_Driver/Inc/stm32h5xx_hal_adc.h"
 383              		.file 12 "Drivers/STM32H5xx_HAL_Driver/Inc/stm32h5xx_ll_lptim.h"
 384              		.file 13 "Core/Inc/adc.h"
 385              		.file 14 "Core/Inc/main.h"
 386              		.file 15 "<built-in>"
ARM GAS  C:\Users\LENOVO\AppData\Local\Temp\ccNghrtz.s 			page 11

