ARM GAS  C:\Users\LENOVO\AppData\Local\Temp\ccWRq5sC.s 			page 1


   1              		.cpu cortex-m33
   2              		.arch armv8-m.main
   3              		.fpu fpv5-sp-d16
   4              		.arch_extension dsp
   5              		.eabi_attribute 27, 1
   6              		.eabi_attribute 28, 1
   7              		.eabi_attribute 20, 1
   8              		.eabi_attribute 21, 1
   9              		.eabi_attribute 23, 3
  10              		.eabi_attribute 24, 1
  11              		.eabi_attribute 25, 1
  12              		.eabi_attribute 26, 1
  13              		.eabi_attribute 30, 1
  14              		.eabi_attribute 34, 1
  15              		.eabi_attribute 18, 4
  16              		.file	"app.c"
  17              		.text
  18              	.Ltext0:
  19              		.cfi_sections	.debug_frame
  20              		.file 1 "SynaptiX_FDK/app/app.c"
  21              		.section	.rodata._on_publish.str1.4,"aMS",%progbits,1
  22              		.align	2
  23              	.LC0:
  24 0000 4F4B00   		.ascii	"OK\000"
  25 0003 00       		.align	2
  26              	.LC1:
  27 0004 4641494C 		.ascii	"FAIL\000"
  27      00
  28 0009 000000   		.align	2
  29              	.LC2:
  30 000c 5075626C 		.ascii	"Publish %s\000"
  30      69736820 
  30      257300
  31 0017 00       		.align	2
  32              	.LC3:
  33 0018 41707000 		.ascii	"App\000"
  34              		.align	2
  35              	.LC4:
  36 001c 7075626C 		.ascii	"publish_count = %d\000"
  36      6973685F 
  36      636F756E 
  36      74203D20 
  36      256400
  37              		.section	.text._on_publish,"ax",%progbits
  38              		.align	1
  39              		.syntax unified
  40              		.thumb
  41              		.thumb_func
  43              	_on_publish:
  44              	.LVL0:
  45              	.LFB562:
   1:SynaptiX_FDK/app/app.c **** #include "app.h"
   2:SynaptiX_FDK/app/app.c **** #include "logger.h"
   3:SynaptiX_FDK/app/app.c **** #include "sx_board.h"
   4:SynaptiX_FDK/app/app.c **** #include "sx_user_mqtt.h"
   5:SynaptiX_FDK/app/app.c **** #include "sx_sleep_manager.h"
   6:SynaptiX_FDK/app/app.c **** #include "sx_sleep.h"
ARM GAS  C:\Users\LENOVO\AppData\Local\Temp\ccWRq5sC.s 			page 2


   7:SynaptiX_FDK/app/app.c **** #include "sx_ex_storage.h"
   8:SynaptiX_FDK/app/app.c **** #include "app_config.h"
   9:SynaptiX_FDK/app/app.c **** #include "ff.h"
  10:SynaptiX_FDK/app/app.c **** #include "sx_fatfs.h"
  11:SynaptiX_FDK/app/app.c **** #include "sx_diskio.h"
  12:SynaptiX_FDK/app/app.c **** #include "sx_user_msc.h"
  13:SynaptiX_FDK/app/app.c **** #include "cJSON.h"
  14:SynaptiX_FDK/app/app.c **** #include "bno055.h"
  15:SynaptiX_FDK/app/app.c **** #include "test_at.h"
  16:SynaptiX_FDK/app/app.c **** 
  17:SynaptiX_FDK/app/app.c **** static const char *TAG = "App";
  18:SynaptiX_FDK/app/app.c **** 
  19:SynaptiX_FDK/app/app.c **** typedef struct TrackingApp
  20:SynaptiX_FDK/app/app.c **** {
  21:SynaptiX_FDK/app/app.c ****     // Add any app-level state here if needed
  22:SynaptiX_FDK/app/app.c ****     app_mode_t app_mode;
  23:SynaptiX_FDK/app/app.c **** 
  24:SynaptiX_FDK/app/app.c ****     sx_sleep_t sleep;
  25:SynaptiX_FDK/app/app.c ****     sx_sleep_manager_t sleep_mgr;
  26:SynaptiX_FDK/app/app.c **** 
  27:SynaptiX_FDK/app/app.c ****     uint32_t publish_elapsed;
  28:SynaptiX_FDK/app/app.c ****     uint8_t subscribed ;
  29:SynaptiX_FDK/app/app.c ****     uint8_t last_publish_done;
  30:SynaptiX_FDK/app/app.c ****     uint8_t enter_sleep_published;
  31:SynaptiX_FDK/app/app.c ****     uint8_t mqtt_stopped;
  32:SynaptiX_FDK/app/app.c **** 
  33:SynaptiX_FDK/app/app.c ****     uint8_t publish_count;
  34:SynaptiX_FDK/app/app.c **** 
  35:SynaptiX_FDK/app/app.c ****     uint32_t enter_sleep_elapsed_ms;
  36:SynaptiX_FDK/app/app.c ****     uint8_t sleep_requested;
  37:SynaptiX_FDK/app/app.c **** 
  38:SynaptiX_FDK/app/app.c ****     uint8_t s_wake_publish_started;//
  39:SynaptiX_FDK/app/app.c **** 
  40:SynaptiX_FDK/app/app.c ****     uint8_t usb_connect_pending;
  41:SynaptiX_FDK/app/app.c **** 
  42:SynaptiX_FDK/app/app.c ****     Board_t *board;
  43:SynaptiX_FDK/app/app.c ****     /*Parse JSon*/
  44:SynaptiX_FDK/app/app.c ****     const char *json_str;
  45:SynaptiX_FDK/app/app.c ****     /*RTC*/
  46:SynaptiX_FDK/app/app.c ****     rx8130ce_time_t time;
  47:SynaptiX_FDK/app/app.c ****     /*Synch gps*/
  48:SynaptiX_FDK/app/app.c ****     uint8_t s_sync_disk_pending;
  49:SynaptiX_FDK/app/app.c **** 
  50:SynaptiX_FDK/app/app.c ****     /*IMU*/
  51:SynaptiX_FDK/app/app.c ****     bno055_euler_t euler;
  52:SynaptiX_FDK/app/app.c ****     bno055_vec3_t accel;
  53:SynaptiX_FDK/app/app.c ****     bno055_vec3_t gyro;
  54:SynaptiX_FDK/app/app.c ****     bno055_vec3_t l_accel;
  55:SynaptiX_FDK/app/app.c ****     bno055_quat_t quat;
  56:SynaptiX_FDK/app/app.c ****     bno055_calib_stat_t calib;
  57:SynaptiX_FDK/app/app.c ****     bool calib_saved;
  58:SynaptiX_FDK/app/app.c ****     float linear_accel;
  59:SynaptiX_FDK/app/app.c ****     float vel;
  60:SynaptiX_FDK/app/app.c ****     float pos;
  61:SynaptiX_FDK/app/app.c **** 
  62:SynaptiX_FDK/app/app.c ****     // last gps
  63:SynaptiX_FDK/app/app.c ****     float last_lat;
ARM GAS  C:\Users\LENOVO\AppData\Local\Temp\ccWRq5sC.s 			page 3


  64:SynaptiX_FDK/app/app.c ****     float last_lon;
  65:SynaptiX_FDK/app/app.c ****     float last_alt;  
  66:SynaptiX_FDK/app/app.c ****     float last_spd;  
  67:SynaptiX_FDK/app/app.c ****     int   last_sat;  
  68:SynaptiX_FDK/app/app.c **** 
  69:SynaptiX_FDK/app/app.c ****     char last_time_str[12];
  70:SynaptiX_FDK/app/app.c ****     char last_date_str[12];
  71:SynaptiX_FDK/app/app.c ****     
  72:SynaptiX_FDK/app/app.c ****     char device_name[64];
  73:SynaptiX_FDK/app/app.c **** } TrackingApp_t;
  74:SynaptiX_FDK/app/app.c **** 
  75:SynaptiX_FDK/app/app.c **** volatile TrackingApp_t g_app;
  76:SynaptiX_FDK/app/app.c **** 
  77:SynaptiX_FDK/app/app.c **** typedef struct 
  78:SynaptiX_FDK/app/app.c **** {
  79:SynaptiX_FDK/app/app.c ****     /* data */
  80:SynaptiX_FDK/app/app.c ****     uint8_t  s_cfg_buf[512];
  81:SynaptiX_FDK/app/app.c ****     char     s_mqtt_host[64];
  82:SynaptiX_FDK/app/app.c ****     char     s_mqtt_client_id[64];
  83:SynaptiX_FDK/app/app.c ****     char     s_mqtt_user[32];
  84:SynaptiX_FDK/app/app.c ****     char     s_mqtt_pass[32];
  85:SynaptiX_FDK/app/app.c ****     char     s_apn_name[32];
  86:SynaptiX_FDK/app/app.c ****     uint32_t time_sleep_ms;
  87:SynaptiX_FDK/app/app.c ****     uint32_t time_wake_ms;
  88:SynaptiX_FDK/app/app.c **** 
  89:SynaptiX_FDK/app/app.c ****     char    s_device_name[64];
  90:SynaptiX_FDK/app/app.c **** 
  91:SynaptiX_FDK/app/app.c ****     // TIME IMU
  92:SynaptiX_FDK/app/app.c ****     uint32_t s_elapsed_data;
  93:SynaptiX_FDK/app/app.c ****     uint32_t s_elapsed_calib;
  94:SynaptiX_FDK/app/app.c ****     uint32_t s_time_publish;
  95:SynaptiX_FDK/app/app.c **** }config_json_t;
  96:SynaptiX_FDK/app/app.c **** 
  97:SynaptiX_FDK/app/app.c **** static config_json_t config_json;
  98:SynaptiX_FDK/app/app.c **** 
  99:SynaptiX_FDK/app/app.c **** static void set_time_exrtc(uint8_t sec, uint8_t min, uint8_t hour, uint8_t week, uint8_t day, uint8
 100:SynaptiX_FDK/app/app.c ****     g_app.time.sec = sec; 
 101:SynaptiX_FDK/app/app.c ****     g_app.time.min = min;
 102:SynaptiX_FDK/app/app.c ****     g_app.time.hour = hour;
 103:SynaptiX_FDK/app/app.c ****     g_app.time.week = week;
 104:SynaptiX_FDK/app/app.c ****     g_app.time.day = day;
 105:SynaptiX_FDK/app/app.c ****     g_app.time.month = month;
 106:SynaptiX_FDK/app/app.c ****     g_app.time.year = year;
 107:SynaptiX_FDK/app/app.c ****     rx8130ce_set_time(&board.rtc, &g_app.time);
 108:SynaptiX_FDK/app/app.c **** }
 109:SynaptiX_FDK/app/app.c **** 
 110:SynaptiX_FDK/app/app.c **** static void get_time_exrtc(void){
 111:SynaptiX_FDK/app/app.c ****     rx8130ce_get_time(&board.rtc, &g_app.time);
 112:SynaptiX_FDK/app/app.c ****     log_info("RTC", "%02d:%02d:%02d %02d/%02d/20%02d",
 113:SynaptiX_FDK/app/app.c ****          g_app.time.hour, g_app.time.min, g_app.time.sec,
 114:SynaptiX_FDK/app/app.c ****          g_app.time.day, g_app.time.month, g_app.time.year);
 115:SynaptiX_FDK/app/app.c **** }
 116:SynaptiX_FDK/app/app.c **** 
 117:SynaptiX_FDK/app/app.c **** void app_mode_full_pw(void){
 118:SynaptiX_FDK/app/app.c ****     g_app.app_mode = APP_MODE_FULL_POWER;
 119:SynaptiX_FDK/app/app.c **** }
 120:SynaptiX_FDK/app/app.c **** 
ARM GAS  C:\Users\LENOVO\AppData\Local\Temp\ccWRq5sC.s 			page 4


 121:SynaptiX_FDK/app/app.c **** void app_mode_enter_sleep(void){
 122:SynaptiX_FDK/app/app.c ****     g_app.app_mode = APP_MODE_ENTER_SLEEP;
 123:SynaptiX_FDK/app/app.c **** }
 124:SynaptiX_FDK/app/app.c **** 
 125:SynaptiX_FDK/app/app.c **** void app_mode_sleep(void){
 126:SynaptiX_FDK/app/app.c ****     g_app.app_mode = APP_MODE_SLEEP;
 127:SynaptiX_FDK/app/app.c **** }
 128:SynaptiX_FDK/app/app.c **** 
 129:SynaptiX_FDK/app/app.c **** static void write_gps_log(const char *event)
 130:SynaptiX_FDK/app/app.c **** {
 131:SynaptiX_FDK/app/app.c ****     static uint32_t s_log_count = 0;
 132:SynaptiX_FDK/app/app.c ****     char line[192];
 133:SynaptiX_FDK/app/app.c ****     sx_gps_t *gps = &g_app.board->gps;
 134:SynaptiX_FDK/app/app.c **** 
 135:SynaptiX_FDK/app/app.c ****     rx8130ce_get_time(&g_app.board->rtc, &g_app.time);
 136:SynaptiX_FDK/app/app.c **** 
 137:SynaptiX_FDK/app/app.c ****     if (gps->latitude != 0.0f && gps->longtitude != 0.0f)
 138:SynaptiX_FDK/app/app.c ****     {
 139:SynaptiX_FDK/app/app.c ****         snprintf(line, sizeof(line),
 140:SynaptiX_FDK/app/app.c ****                  "[%s] fix=1 lat=%.6f lon=%.6f rssi=%d alt=%.6f spd=%.6f sat=%d time=%02d:%02d:%02d
 141:SynaptiX_FDK/app/app.c ****                  event,
 142:SynaptiX_FDK/app/app.c ****                  gps->latitude, gps->longtitude,
 143:SynaptiX_FDK/app/app.c ****                  sim76xx_get_rssi(&g_app.board->sim76xx),
 144:SynaptiX_FDK/app/app.c ****                  gps->altitude, gps->speed, gps->satellites,
 145:SynaptiX_FDK/app/app.c ****                  g_app.time.hour, g_app.time.min, g_app.time.sec,
 146:SynaptiX_FDK/app/app.c ****                  g_app.time.day,  g_app.time.month+1, g_app.time.year);
 147:SynaptiX_FDK/app/app.c ****     }
 148:SynaptiX_FDK/app/app.c ****     else
 149:SynaptiX_FDK/app/app.c ****     {
 150:SynaptiX_FDK/app/app.c ****         snprintf(line, sizeof(line),
 151:SynaptiX_FDK/app/app.c ****                  "[%s] fix=0 lat=0.000000 lon=0.000000 rssi=%d alt=0.000000 spd=0.000000 sat=0 time
 152:SynaptiX_FDK/app/app.c ****                  event,
 153:SynaptiX_FDK/app/app.c ****                  sim76xx_get_rssi(&g_app.board->sim76xx),
 154:SynaptiX_FDK/app/app.c ****                  g_app.time.hour, g_app.time.min, g_app.time.sec,
 155:SynaptiX_FDK/app/app.c ****                  g_app.time.day,  g_app.time.month+1, g_app.time.year);
 156:SynaptiX_FDK/app/app.c ****     }
 157:SynaptiX_FDK/app/app.c **** 
 158:SynaptiX_FDK/app/app.c ****     sx_storage_delete(GPS_LOG_FILE_PATH);
 159:SynaptiX_FDK/app/app.c ****     sx_storage_append(GPS_LOG_FILE_PATH, line, strlen(line));
 160:SynaptiX_FDK/app/app.c ****     s_log_count++;
 161:SynaptiX_FDK/app/app.c ****     log_info(TAG, "GPS log written: %s", line);
 162:SynaptiX_FDK/app/app.c **** }
 163:SynaptiX_FDK/app/app.c **** 
 164:SynaptiX_FDK/app/app.c **** static void write_calib_imu_data(void){
 165:SynaptiX_FDK/app/app.c ****     bno055_calib_data_t cal = {0};
 166:SynaptiX_FDK/app/app.c ****     if(bno055_get_calib_data(&board.imu, &cal)!=0)return;
 167:SynaptiX_FDK/app/app.c ****     char line[128];
 168:SynaptiX_FDK/app/app.c ****     snprintf(line, sizeof(line),
 169:SynaptiX_FDK/app/app.c ****              "acc_x=%d acc_y=%d acc_z=%d "
 170:SynaptiX_FDK/app/app.c ****              "mag_x=%d mag_y=%d mag_z=%d "
 171:SynaptiX_FDK/app/app.c ****              "gyr_x=%d gyr_y=%d gyr_z=%d "
 172:SynaptiX_FDK/app/app.c ****              "acc_r=%d mag_r=%d\n",
 173:SynaptiX_FDK/app/app.c ****              cal.acc_x, cal.acc_y, cal.acc_z,
 174:SynaptiX_FDK/app/app.c ****              cal.mag_x, cal.mag_y, cal.mag_z,
 175:SynaptiX_FDK/app/app.c ****              cal.gyr_x, cal.gyr_y, cal.gyr_z,
 176:SynaptiX_FDK/app/app.c ****              cal.acc_radius, cal.mag_radius);
 177:SynaptiX_FDK/app/app.c ****     sx_storage_write(IMU_CALIB_FILE_PATH, line, strlen(line));
ARM GAS  C:\Users\LENOVO\AppData\Local\Temp\ccWRq5sC.s 			page 5


 178:SynaptiX_FDK/app/app.c ****     log_info(TAG, "calib saved: %s", line);
 179:SynaptiX_FDK/app/app.c **** }
 180:SynaptiX_FDK/app/app.c **** 
 181:SynaptiX_FDK/app/app.c **** static bool imu_calib_load(void)
 182:SynaptiX_FDK/app/app.c **** {
 183:SynaptiX_FDK/app/app.c ****     if (!sx_storage_exists(IMU_CALIB_FILE_PATH)) return false;
 184:SynaptiX_FDK/app/app.c **** 
 185:SynaptiX_FDK/app/app.c ****     char line[128] = {0};
 186:SynaptiX_FDK/app/app.c ****     if (sx_storage_read(IMU_CALIB_FILE_PATH, line, sizeof(line) - 1) != SX_STORAGE_OK) return false
 187:SynaptiX_FDK/app/app.c **** 
 188:SynaptiX_FDK/app/app.c ****     bno055_calib_data_t cal = {0};
 189:SynaptiX_FDK/app/app.c ****     int parsed = sscanf(line,
 190:SynaptiX_FDK/app/app.c ****                         "acc_x=%hd acc_y=%hd acc_z=%hd "
 191:SynaptiX_FDK/app/app.c ****                         "mag_x=%hd mag_y=%hd mag_z=%hd "
 192:SynaptiX_FDK/app/app.c ****                         "gyr_x=%hd gyr_y=%hd gyr_z=%hd "
 193:SynaptiX_FDK/app/app.c ****                         "acc_r=%hd mag_r=%hd",
 194:SynaptiX_FDK/app/app.c ****                         &cal.acc_x, &cal.acc_y, &cal.acc_z,
 195:SynaptiX_FDK/app/app.c ****                         &cal.mag_x, &cal.mag_y, &cal.mag_z,
 196:SynaptiX_FDK/app/app.c ****                         &cal.gyr_x, &cal.gyr_y, &cal.gyr_z,
 197:SynaptiX_FDK/app/app.c ****                         &cal.acc_radius, &cal.mag_radius);
 198:SynaptiX_FDK/app/app.c **** 
 199:SynaptiX_FDK/app/app.c ****     if (parsed != 11) {
 200:SynaptiX_FDK/app/app.c ****         log_error(TAG, "calib parse failed: %d/11", parsed);
 201:SynaptiX_FDK/app/app.c ****         return false;
 202:SynaptiX_FDK/app/app.c ****     }
 203:SynaptiX_FDK/app/app.c **** 
 204:SynaptiX_FDK/app/app.c ****     bno055_set_calib_data(&board.imu, &cal);
 205:SynaptiX_FDK/app/app.c ****     log_info(TAG, "calib loaded OK");
 206:SynaptiX_FDK/app/app.c ****     return true;
 207:SynaptiX_FDK/app/app.c **** }
 208:SynaptiX_FDK/app/app.c **** 
 209:SynaptiX_FDK/app/app.c **** void app_notify_usb_connected(void)
 210:SynaptiX_FDK/app/app.c **** {
 211:SynaptiX_FDK/app/app.c ****     g_app.usb_connect_pending = 1;
 212:SynaptiX_FDK/app/app.c ****     g_app.app_mode = APP_MODE_FULL_POWER;
 213:SynaptiX_FDK/app/app.c **** }
 214:SynaptiX_FDK/app/app.c **** 
 215:SynaptiX_FDK/app/app.c **** static void _apply_default_config(sx_user_mqtt_cfg_t *cfg){
 216:SynaptiX_FDK/app/app.c ****     log_warn("AppCfg", "Using default hardcoded config");
 217:SynaptiX_FDK/app/app.c **** }
 218:SynaptiX_FDK/app/app.c **** 
 219:SynaptiX_FDK/app/app.c **** static void _handle_usb_connected(void)
 220:SynaptiX_FDK/app/app.c **** {
 221:SynaptiX_FDK/app/app.c ****     g_app.sleep.wake_reason = WAKE_REASON_EXTI;
 222:SynaptiX_FDK/app/app.c **** 
 223:SynaptiX_FDK/app/app.c ****     log_info(TAG, "=== USB connected — restarting ===");
 224:SynaptiX_FDK/app/app.c **** 
 225:SynaptiX_FDK/app/app.c ****     g_app.last_publish_done = 0;
 226:SynaptiX_FDK/app/app.c ****     g_app.publish_count = 0;
 227:SynaptiX_FDK/app/app.c ****     g_app.enter_sleep_published = 0;
 228:SynaptiX_FDK/app/app.c ****     g_app.mqtt_stopped = 0;
 229:SynaptiX_FDK/app/app.c ****     g_app.subscribed = 0;
 230:SynaptiX_FDK/app/app.c ****     g_app.publish_elapsed = 0;
 231:SynaptiX_FDK/app/app.c **** 
 232:SynaptiX_FDK/app/app.c ****     sx_sleep_manager_reset_wake(&g_app.sleep_mgr);
 233:SynaptiX_FDK/app/app.c ****     sx_user_mqtt_force_disconnect();
 234:SynaptiX_FDK/app/app.c **** 
ARM GAS  C:\Users\LENOVO\AppData\Local\Temp\ccWRq5sC.s 			page 6


 235:SynaptiX_FDK/app/app.c ****     g_app.board->sim76xx.base.isBusy = 0;
 236:SynaptiX_FDK/app/app.c ****     g_app.board->sim76xx.base.buff_id = 0;
 237:SynaptiX_FDK/app/app.c ****     memset(g_app.board->sim76xx.base.buff, 0, MODEM_RX_BUFFER_SIZE);
 238:SynaptiX_FDK/app/app.c ****     g_app.board->sim76xx.state = SIM76XX_STATE_IDLE;
 239:SynaptiX_FDK/app/app.c **** 
 240:SynaptiX_FDK/app/app.c ****     sx_board_uart_resume_it();
 241:SynaptiX_FDK/app/app.c **** 
 242:SynaptiX_FDK/app/app.c ****     sim76xx_power_off(&g_app.board->sim76xx);
 243:SynaptiX_FDK/app/app.c ****     sim76xx_power_on(&g_app.board->sim76xx);
 244:SynaptiX_FDK/app/app.c ****     sim76xx_start(&g_app.board->sim76xx);
 245:SynaptiX_FDK/app/app.c **** 
 246:SynaptiX_FDK/app/app.c ****     gps_power_on(&g_app.board->gps);
 247:SynaptiX_FDK/app/app.c ****     gps_it_handle();
 248:SynaptiX_FDK/app/app.c **** }
 249:SynaptiX_FDK/app/app.c **** 
 250:SynaptiX_FDK/app/app.c **** /*  MQTT callbacks  */
 251:SynaptiX_FDK/app/app.c **** static void _on_connected(void)
 252:SynaptiX_FDK/app/app.c **** {
 253:SynaptiX_FDK/app/app.c ****     log_info(TAG, "MQTT connected");
 254:SynaptiX_FDK/app/app.c ****     g_app.subscribed = 0;
 255:SynaptiX_FDK/app/app.c **** }
 256:SynaptiX_FDK/app/app.c **** 
 257:SynaptiX_FDK/app/app.c **** static void _on_disconnected(void)
 258:SynaptiX_FDK/app/app.c **** {
 259:SynaptiX_FDK/app/app.c ****     log_warn(TAG, "MQTT disconnected");
 260:SynaptiX_FDK/app/app.c ****     g_app.subscribed = 0;
 261:SynaptiX_FDK/app/app.c **** 
 262:SynaptiX_FDK/app/app.c ****     //
 263:SynaptiX_FDK/app/app.c ****     if (g_app.app_mode == APP_MODE_WAKE_PUBLISH && !g_app.last_publish_done) {
 264:SynaptiX_FDK/app/app.c ****         g_app.sleep_mgr.published = 0;
 265:SynaptiX_FDK/app/app.c ****     }
 266:SynaptiX_FDK/app/app.c **** }
 267:SynaptiX_FDK/app/app.c **** 
 268:SynaptiX_FDK/app/app.c **** static void _on_message(const char *topic, const char *message)
 269:SynaptiX_FDK/app/app.c **** {
 270:SynaptiX_FDK/app/app.c ****     if (!message || message[0] == '\0')
 271:SynaptiX_FDK/app/app.c ****         return;
 272:SynaptiX_FDK/app/app.c ****     log_info(TAG, "SUB [%s] = %s", topic, message);
 273:SynaptiX_FDK/app/app.c **** }
 274:SynaptiX_FDK/app/app.c **** 
 275:SynaptiX_FDK/app/app.c **** static void _on_publish(int success)
 276:SynaptiX_FDK/app/app.c **** {
  46              		.loc 1 276 1 view -0
  47              		.cfi_startproc
  48              		@ args = 0, pretend = 0, frame = 0
  49              		@ frame_needed = 0, uses_anonymous_args = 0
  50              		.loc 1 276 1 is_stmt 0 view .LVU1
  51 0000 10B5     		push	{r4, lr}
  52              	.LCFI0:
  53              		.cfi_def_cfa_offset 8
  54              		.cfi_offset 4, -8
  55              		.cfi_offset 14, -4
 277:SynaptiX_FDK/app/app.c ****     log_debug(TAG, "Publish %s", success ? "OK" : "FAIL");
  56              		.loc 1 277 5 is_stmt 1 view .LVU2
  57 0002 88B1     		cbz	r0, .L5
  58              		.loc 1 277 5 is_stmt 0 discriminator 1 view .LVU3
  59 0004 164B     		ldr	r3, .L8
ARM GAS  C:\Users\LENOVO\AppData\Local\Temp\ccWRq5sC.s 			page 7


  60              	.L2:
  61              		.loc 1 277 5 discriminator 4 view .LVU4
  62 0006 174A     		ldr	r2, .L8+4
  63 0008 1749     		ldr	r1, .L8+8
  64 000a 0420     		movs	r0, #4
  65              	.LVL1:
  66              		.loc 1 277 5 discriminator 4 view .LVU5
  67 000c FFF7FEFF 		bl	log_func
  68              	.LVL2:
 278:SynaptiX_FDK/app/app.c **** 
 279:SynaptiX_FDK/app/app.c ****     if (g_app.app_mode == APP_MODE_WAKE_PUBLISH)
  69              		.loc 1 279 5 is_stmt 1 view .LVU6
  70              		.loc 1 279 14 is_stmt 0 view .LVU7
  71 0010 164B     		ldr	r3, .L8+12
  72 0012 1B78     		ldrb	r3, [r3]	@ zero_extendqisi2
  73 0014 DBB2     		uxtb	r3, r3
  74              		.loc 1 279 8 view .LVU8
  75 0016 032B     		cmp	r3, #3
  76 0018 08D0     		beq	.L7
  77              	.L3:
 280:SynaptiX_FDK/app/app.c ****     {
 281:SynaptiX_FDK/app/app.c ****         g_app.publish_count++;
 282:SynaptiX_FDK/app/app.c ****         log_debug(TAG, "publish_count = %d", g_app.publish_count);
 283:SynaptiX_FDK/app/app.c ****         if (g_app.publish_count >= 2)
 284:SynaptiX_FDK/app/app.c ****         {
 285:SynaptiX_FDK/app/app.c ****             g_app.last_publish_done = 1;
 286:SynaptiX_FDK/app/app.c ****             g_app.publish_count     = 0;
 287:SynaptiX_FDK/app/app.c ****         }
 288:SynaptiX_FDK/app/app.c ****     }
 289:SynaptiX_FDK/app/app.c **** 
 290:SynaptiX_FDK/app/app.c ****     if (g_app.app_mode == APP_MODE_FULL_POWER)
  78              		.loc 1 290 5 is_stmt 1 view .LVU9
  79              		.loc 1 290 14 is_stmt 0 view .LVU10
  80 001a 144B     		ldr	r3, .L8+12
  81 001c 1B78     		ldrb	r3, [r3]	@ zero_extendqisi2
  82              		.loc 1 290 8 view .LVU11
  83 001e 13B9     		cbnz	r3, .L1
 291:SynaptiX_FDK/app/app.c ****         g_app.publish_elapsed = 0;
  84              		.loc 1 291 9 is_stmt 1 view .LVU12
  85              		.loc 1 291 31 is_stmt 0 view .LVU13
  86 0020 124B     		ldr	r3, .L8+12
  87 0022 0022     		movs	r2, #0
  88 0024 9A63     		str	r2, [r3, #56]
  89              	.L1:
 292:SynaptiX_FDK/app/app.c **** }
  90              		.loc 1 292 1 view .LVU14
  91 0026 10BD     		pop	{r4, pc}
  92              	.LVL3:
  93              	.L5:
 277:SynaptiX_FDK/app/app.c **** 
  94              		.loc 1 277 5 discriminator 2 view .LVU15
  95 0028 114B     		ldr	r3, .L8+16
  96 002a ECE7     		b	.L2
  97              	.LVL4:
  98              	.L7:
 281:SynaptiX_FDK/app/app.c ****         log_debug(TAG, "publish_count = %d", g_app.publish_count);
  99              		.loc 1 281 9 is_stmt 1 view .LVU16
ARM GAS  C:\Users\LENOVO\AppData\Local\Temp\ccWRq5sC.s 			page 8


 281:SynaptiX_FDK/app/app.c ****         log_debug(TAG, "publish_count = %d", g_app.publish_count);
 100              		.loc 1 281 14 is_stmt 0 view .LVU17
 101 002c 0F4C     		ldr	r4, .L8+12
 102 002e 94F84030 		ldrb	r3, [r4, #64]	@ zero_extendqisi2
 281:SynaptiX_FDK/app/app.c ****         log_debug(TAG, "publish_count = %d", g_app.publish_count);
 103              		.loc 1 281 28 view .LVU18
 104 0032 0133     		adds	r3, r3, #1
 105 0034 DBB2     		uxtb	r3, r3
 106 0036 84F84030 		strb	r3, [r4, #64]
 282:SynaptiX_FDK/app/app.c ****         if (g_app.publish_count >= 2)
 107              		.loc 1 282 9 is_stmt 1 view .LVU19
 108 003a 94F84030 		ldrb	r3, [r4, #64]	@ zero_extendqisi2
 109 003e 0D4A     		ldr	r2, .L8+20
 110 0040 0949     		ldr	r1, .L8+8
 111 0042 0420     		movs	r0, #4
 112 0044 FFF7FEFF 		bl	log_func
 113              	.LVL5:
 283:SynaptiX_FDK/app/app.c ****         {
 114              		.loc 1 283 9 view .LVU20
 283:SynaptiX_FDK/app/app.c ****         {
 115              		.loc 1 283 18 is_stmt 0 view .LVU21
 116 0048 94F84030 		ldrb	r3, [r4, #64]	@ zero_extendqisi2
 117 004c DBB2     		uxtb	r3, r3
 283:SynaptiX_FDK/app/app.c ****         {
 118              		.loc 1 283 12 view .LVU22
 119 004e 012B     		cmp	r3, #1
 120 0050 E3D9     		bls	.L3
 285:SynaptiX_FDK/app/app.c ****             g_app.publish_count     = 0;
 121              		.loc 1 285 13 is_stmt 1 view .LVU23
 285:SynaptiX_FDK/app/app.c ****             g_app.publish_count     = 0;
 122              		.loc 1 285 37 is_stmt 0 view .LVU24
 123 0052 0122     		movs	r2, #1
 124 0054 84F83D20 		strb	r2, [r4, #61]
 286:SynaptiX_FDK/app/app.c ****         }
 125              		.loc 1 286 13 is_stmt 1 view .LVU25
 286:SynaptiX_FDK/app/app.c ****         }
 126              		.loc 1 286 37 is_stmt 0 view .LVU26
 127 0058 0022     		movs	r2, #0
 128 005a 84F84020 		strb	r2, [r4, #64]
 129 005e DCE7     		b	.L3
 130              	.L9:
 131              		.align	2
 132              	.L8:
 133 0060 00000000 		.word	.LC0
 134 0064 0C000000 		.word	.LC2
 135 0068 18000000 		.word	.LC3
 136 006c 00000000 		.word	g_app
 137 0070 04000000 		.word	.LC1
 138 0074 1C000000 		.word	.LC4
 139              		.cfi_endproc
 140              	.LFE562:
 142              		.section	.rodata._on_message.str1.4,"aMS",%progbits,1
 143              		.align	2
 144              	.LC5:
 145 0000 53554220 		.ascii	"SUB [%s] = %s\000"
 145      5B25735D 
 145      203D2025 
ARM GAS  C:\Users\LENOVO\AppData\Local\Temp\ccWRq5sC.s 			page 9


 145      7300
 146              		.section	.text._on_message,"ax",%progbits
 147              		.align	1
 148              		.syntax unified
 149              		.thumb
 150              		.thumb_func
 152              	_on_message:
 153              	.LVL6:
 154              	.LFB561:
 269:SynaptiX_FDK/app/app.c ****     if (!message || message[0] == '\0')
 155              		.loc 1 269 1 is_stmt 1 view -0
 156              		.cfi_startproc
 157              		@ args = 0, pretend = 0, frame = 0
 158              		@ frame_needed = 0, uses_anonymous_args = 0
 270:SynaptiX_FDK/app/app.c ****         return;
 159              		.loc 1 270 5 view .LVU28
 270:SynaptiX_FDK/app/app.c ****         return;
 160              		.loc 1 270 8 is_stmt 0 view .LVU29
 161 0000 09B1     		cbz	r1, .L13
 270:SynaptiX_FDK/app/app.c ****         return;
 162              		.loc 1 270 28 discriminator 1 view .LVU30
 163 0002 0A78     		ldrb	r2, [r1]	@ zero_extendqisi2
 270:SynaptiX_FDK/app/app.c ****         return;
 164              		.loc 1 270 18 discriminator 1 view .LVU31
 165 0004 02B9     		cbnz	r2, .L16
 166              	.L13:
 167 0006 7047     		bx	lr
 168              	.L16:
 269:SynaptiX_FDK/app/app.c ****     if (!message || message[0] == '\0')
 169              		.loc 1 269 1 view .LVU32
 170 0008 00B5     		push	{lr}
 171              	.LCFI1:
 172              		.cfi_def_cfa_offset 4
 173              		.cfi_offset 14, -4
 174 000a 83B0     		sub	sp, sp, #12
 175              	.LCFI2:
 176              		.cfi_def_cfa_offset 16
 272:SynaptiX_FDK/app/app.c **** }
 177              		.loc 1 272 5 is_stmt 1 view .LVU33
 178 000c 0091     		str	r1, [sp]
 179 000e 0346     		mov	r3, r0
 180 0010 034A     		ldr	r2, .L17
 181 0012 0449     		ldr	r1, .L17+4
 182              	.LVL7:
 272:SynaptiX_FDK/app/app.c **** }
 183              		.loc 1 272 5 is_stmt 0 view .LVU34
 184 0014 0320     		movs	r0, #3
 185              	.LVL8:
 272:SynaptiX_FDK/app/app.c **** }
 186              		.loc 1 272 5 view .LVU35
 187 0016 FFF7FEFF 		bl	log_func
 188              	.LVL9:
 273:SynaptiX_FDK/app/app.c **** 
 189              		.loc 1 273 1 view .LVU36
 190 001a 03B0     		add	sp, sp, #12
 191              	.LCFI3:
 192              		.cfi_def_cfa_offset 4
ARM GAS  C:\Users\LENOVO\AppData\Local\Temp\ccWRq5sC.s 			page 10


 193              		@ sp needed
 194 001c 5DF804FB 		ldr	pc, [sp], #4
 195              	.L18:
 196              		.align	2
 197              	.L17:
 198 0020 00000000 		.word	.LC5
 199 0024 18000000 		.word	.LC3
 200              		.cfi_endproc
 201              	.LFE561:
 203              		.section	.rodata._on_disconnected.str1.4,"aMS",%progbits,1
 204              		.align	2
 205              	.LC6:
 206 0000 4D515454 		.ascii	"MQTT disconnected\000"
 206      20646973 
 206      636F6E6E 
 206      65637465 
 206      6400
 207              		.section	.text._on_disconnected,"ax",%progbits
 208              		.align	1
 209              		.syntax unified
 210              		.thumb
 211              		.thumb_func
 213              	_on_disconnected:
 214              	.LFB560:
 258:SynaptiX_FDK/app/app.c ****     log_warn(TAG, "MQTT disconnected");
 215              		.loc 1 258 1 is_stmt 1 view -0
 216              		.cfi_startproc
 217              		@ args = 0, pretend = 0, frame = 0
 218              		@ frame_needed = 0, uses_anonymous_args = 0
 219 0000 08B5     		push	{r3, lr}
 220              	.LCFI4:
 221              		.cfi_def_cfa_offset 8
 222              		.cfi_offset 3, -8
 223              		.cfi_offset 14, -4
 259:SynaptiX_FDK/app/app.c ****     g_app.subscribed = 0;
 224              		.loc 1 259 5 view .LVU38
 225 0002 0B4A     		ldr	r2, .L23
 226 0004 0B49     		ldr	r1, .L23+4
 227 0006 0220     		movs	r0, #2
 228 0008 FFF7FEFF 		bl	log_func
 229              	.LVL10:
 260:SynaptiX_FDK/app/app.c **** 
 230              		.loc 1 260 5 view .LVU39
 260:SynaptiX_FDK/app/app.c **** 
 231              		.loc 1 260 22 is_stmt 0 view .LVU40
 232 000c 0A4B     		ldr	r3, .L23+8
 233 000e 0022     		movs	r2, #0
 234 0010 83F83C20 		strb	r2, [r3, #60]
 263:SynaptiX_FDK/app/app.c ****         g_app.sleep_mgr.published = 0;
 235              		.loc 1 263 5 is_stmt 1 view .LVU41
 263:SynaptiX_FDK/app/app.c ****         g_app.sleep_mgr.published = 0;
 236              		.loc 1 263 14 is_stmt 0 view .LVU42
 237 0014 1B78     		ldrb	r3, [r3]	@ zero_extendqisi2
 238 0016 DBB2     		uxtb	r3, r3
 263:SynaptiX_FDK/app/app.c ****         g_app.sleep_mgr.published = 0;
 239              		.loc 1 263 8 view .LVU43
 240 0018 032B     		cmp	r3, #3
ARM GAS  C:\Users\LENOVO\AppData\Local\Temp\ccWRq5sC.s 			page 11


 241 001a 00D0     		beq	.L22
 242              	.L19:
 266:SynaptiX_FDK/app/app.c **** 
 243              		.loc 1 266 1 view .LVU44
 244 001c 08BD     		pop	{r3, pc}
 245              	.L22:
 263:SynaptiX_FDK/app/app.c ****         g_app.sleep_mgr.published = 0;
 246              		.loc 1 263 58 discriminator 1 view .LVU45
 247 001e 064B     		ldr	r3, .L23+8
 248 0020 93F83D30 		ldrb	r3, [r3, #61]	@ zero_extendqisi2
 263:SynaptiX_FDK/app/app.c ****         g_app.sleep_mgr.published = 0;
 249              		.loc 1 263 49 discriminator 1 view .LVU46
 250 0024 002B     		cmp	r3, #0
 251 0026 F9D1     		bne	.L19
 264:SynaptiX_FDK/app/app.c ****     }
 252              		.loc 1 264 9 is_stmt 1 view .LVU47
 264:SynaptiX_FDK/app/app.c ****     }
 253              		.loc 1 264 35 is_stmt 0 view .LVU48
 254 0028 034B     		ldr	r3, .L23+8
 255 002a 83F82D20 		strb	r2, [r3, #45]
 266:SynaptiX_FDK/app/app.c **** 
 256              		.loc 1 266 1 view .LVU49
 257 002e F5E7     		b	.L19
 258              	.L24:
 259              		.align	2
 260              	.L23:
 261 0030 00000000 		.word	.LC6
 262 0034 18000000 		.word	.LC3
 263 0038 00000000 		.word	g_app
 264              		.cfi_endproc
 265              	.LFE560:
 267              		.section	.rodata._on_connected.str1.4,"aMS",%progbits,1
 268              		.align	2
 269              	.LC7:
 270 0000 4D515454 		.ascii	"MQTT connected\000"
 270      20636F6E 
 270      6E656374 
 270      656400
 271              		.section	.text._on_connected,"ax",%progbits
 272              		.align	1
 273              		.syntax unified
 274              		.thumb
 275              		.thumb_func
 277              	_on_connected:
 278              	.LFB559:
 252:SynaptiX_FDK/app/app.c ****     log_info(TAG, "MQTT connected");
 279              		.loc 1 252 1 is_stmt 1 view -0
 280              		.cfi_startproc
 281              		@ args = 0, pretend = 0, frame = 0
 282              		@ frame_needed = 0, uses_anonymous_args = 0
 283 0000 08B5     		push	{r3, lr}
 284              	.LCFI5:
 285              		.cfi_def_cfa_offset 8
 286              		.cfi_offset 3, -8
 287              		.cfi_offset 14, -4
 253:SynaptiX_FDK/app/app.c ****     g_app.subscribed = 0;
 288              		.loc 1 253 5 view .LVU51
ARM GAS  C:\Users\LENOVO\AppData\Local\Temp\ccWRq5sC.s 			page 12


 289 0002 054A     		ldr	r2, .L27
 290 0004 0549     		ldr	r1, .L27+4
 291 0006 0320     		movs	r0, #3
 292 0008 FFF7FEFF 		bl	log_func
 293              	.LVL11:
 254:SynaptiX_FDK/app/app.c **** }
 294              		.loc 1 254 5 view .LVU52
 254:SynaptiX_FDK/app/app.c **** }
 295              		.loc 1 254 22 is_stmt 0 view .LVU53
 296 000c 044B     		ldr	r3, .L27+8
 297 000e 0022     		movs	r2, #0
 298 0010 83F83C20 		strb	r2, [r3, #60]
 255:SynaptiX_FDK/app/app.c **** 
 299              		.loc 1 255 1 view .LVU54
 300 0014 08BD     		pop	{r3, pc}
 301              	.L28:
 302 0016 00BF     		.align	2
 303              	.L27:
 304 0018 00000000 		.word	.LC7
 305 001c 18000000 		.word	.LC3
 306 0020 00000000 		.word	g_app
 307              		.cfi_endproc
 308              	.LFE559:
 310              		.section	.rodata._apply_default_config.str1.4,"aMS",%progbits,1
 311              		.align	2
 312              	.LC8:
 313 0000 5573696E 		.ascii	"Using default hardcoded config\000"
 313      67206465 
 313      6661756C 
 313      74206861 
 313      7264636F 
 314 001f 00       		.align	2
 315              	.LC9:
 316 0020 41707043 		.ascii	"AppCfg\000"
 316      666700
 317              		.section	.text._apply_default_config,"ax",%progbits
 318              		.align	1
 319              		.syntax unified
 320              		.thumb
 321              		.thumb_func
 323              	_apply_default_config:
 324              	.LVL12:
 325              	.LFB557:
 215:SynaptiX_FDK/app/app.c ****     log_warn("AppCfg", "Using default hardcoded config");
 326              		.loc 1 215 59 is_stmt 1 view -0
 327              		.cfi_startproc
 328              		@ args = 0, pretend = 0, frame = 0
 329              		@ frame_needed = 0, uses_anonymous_args = 0
 215:SynaptiX_FDK/app/app.c ****     log_warn("AppCfg", "Using default hardcoded config");
 330              		.loc 1 215 59 is_stmt 0 view .LVU56
 331 0000 08B5     		push	{r3, lr}
 332              	.LCFI6:
 333              		.cfi_def_cfa_offset 8
 334              		.cfi_offset 3, -8
 335              		.cfi_offset 14, -4
 216:SynaptiX_FDK/app/app.c **** }
 336              		.loc 1 216 5 is_stmt 1 view .LVU57
ARM GAS  C:\Users\LENOVO\AppData\Local\Temp\ccWRq5sC.s 			page 13


 337 0002 034A     		ldr	r2, .L31
 338 0004 0349     		ldr	r1, .L31+4
 339 0006 0220     		movs	r0, #2
 340              	.LVL13:
 216:SynaptiX_FDK/app/app.c **** }
 341              		.loc 1 216 5 is_stmt 0 view .LVU58
 342 0008 FFF7FEFF 		bl	log_func
 343              	.LVL14:
 217:SynaptiX_FDK/app/app.c **** 
 344              		.loc 1 217 1 view .LVU59
 345 000c 08BD     		pop	{r3, pc}
 346              	.L32:
 347 000e 00BF     		.align	2
 348              	.L31:
 349 0010 00000000 		.word	.LC8
 350 0014 20000000 		.word	.LC9
 351              		.cfi_endproc
 352              	.LFE557:
 354              		.section	.rodata.app_read_config_file.str1.4,"aMS",%progbits,1
 355              		.align	2
 356              	.LC10:
 357 0000 4E554C4C 		.ascii	"NULL\000"
 357      00
 358 0005 000000   		.align	2
 359              	.LC11:
 360 0008 46617446 		.ascii	"FatFS remount failed (%d) \342\200\224 using defaul"
 360      53207265 
 360      6D6F756E 
 360      74206661 
 360      696C6564 
 361 0032 7420636F 		.ascii	"t config\000"
 361      6E666967 
 361      00
 362 003b 00       		.align	2
 363              	.LC12:
 364 003c 303A2F63 		.ascii	"0:/config.json\000"
 364      6F6E6669 
 364      672E6A73 
 364      6F6E00
 365 004b 00       		.align	2
 366              	.LC13:
 367 004c 636F6E66 		.ascii	"config.json not found (f_stat=%d) \342\200\224 usin"
 367      69672E6A 
 367      736F6E20 
 367      6E6F7420 
 367      666F756E 
 368 0076 67206465 		.ascii	"g default config\000"
 368      6661756C 
 368      7420636F 
 368      6E666967 
 368      00
 369 0087 00       		.align	2
 370              	.LC14:
 371 0088 636F6E66 		.ascii	"config.json found, size=%lu bytes\000"
 371      69672E6A 
 371      736F6E20 
 371      666F756E 
ARM GAS  C:\Users\LENOVO\AppData\Local\Temp\ccWRq5sC.s 			page 14


 371      642C2073 
 372 00aa 0000     		.align	2
 373              	.LC15:
 374 00ac 52656164 		.ascii	"Read config.json failed (err=%d) \342\200\224 using"
 374      20636F6E 
 374      6669672E 
 374      6A736F6E 
 374      20666169 
 375 00d6 20646566 		.ascii	" default config\000"
 375      61756C74 
 375      20636F6E 
 375      66696700 
 376 00e6 0000     		.align	2
 377              	.LC16:
 378 00e8 6366672E 		.ascii	"cfg.json content: %s\000"
 378      6A736F6E 
 378      20636F6E 
 378      74656E74 
 378      3A202573 
 379 00fd 000000   		.align	2
 380              	.LC17:
 381 0100 4A534F4E 		.ascii	"JSON parse failed \342\200\224 using default config"
 381      20706172 
 381      73652066 
 381      61696C65 
 381      6420E280 
 382 012a 00       		.ascii	"\000"
 383 012b 00       		.align	2
 384              	.LC18:
 385 012c 61706E00 		.ascii	"apn\000"
 386              		.align	2
 387              	.LC19:
 388 0130 6E616D65 		.ascii	"name\000"
 388      00
 389 0135 000000   		.align	2
 390              	.LC20:
 391 0138 75736572 		.ascii	"user\000"
 391      00
 392 013d 000000   		.align	2
 393              	.LC21:
 394 0140 70617373 		.ascii	"password\000"
 394      776F7264 
 394      00
 395 0149 000000   		.align	2
 396              	.LC22:
 397 014c 41504E20 		.ascii	"APN name    : %s\000"
 397      6E616D65 
 397      20202020 
 397      3A202573 
 397      00
 398 015d 000000   		.align	2
 399              	.LC23:
 400 0160 41504E20 		.ascii	"APN user    : %s\000"
 400      75736572 
 400      20202020 
 400      3A202573 
 400      00
ARM GAS  C:\Users\LENOVO\AppData\Local\Temp\ccWRq5sC.s 			page 15


 401 0171 000000   		.align	2
 402              	.LC24:
 403 0174 41504E20 		.ascii	"APN pass    : %s\000"
 403      70617373 
 403      20202020 
 403      3A202573 
 403      00
 404 0185 000000   		.align	2
 405              	.LC25:
 406 0188 4E6F2027 		.ascii	"No 'apn' field in config\000"
 406      61706E27 
 406      20666965 
 406      6C642069 
 406      6E20636F 
 407 01a1 000000   		.align	2
 408              	.LC26:
 409 01a4 6D717474 		.ascii	"mqtt\000"
 409      00
 410 01a9 000000   		.align	2
 411              	.LC27:
 412 01ac 686F7374 		.ascii	"host\000"
 412      00
 413 01b1 000000   		.align	2
 414              	.LC28:
 415 01b4 706F7274 		.ascii	"port\000"
 415      00
 416 01b9 000000   		.align	2
 417              	.LC29:
 418 01bc 636C6965 		.ascii	"client_id\000"
 418      6E745F69 
 418      6400
 419 01c6 0000     		.align	2
 420              	.LC30:
 421 01c8 75736572 		.ascii	"user_name\000"
 421      5F6E616D 
 421      6500
 422 01d2 0000     		.align	2
 423              	.LC31:
 424 01d4 4D515454 		.ascii	"MQTT host     : %s\000"
 424      20686F73 
 424      74202020 
 424      20203A20 
 424      257300
 425 01e7 00       		.align	2
 426              	.LC32:
 427 01e8 4D515454 		.ascii	"MQTT port     : %d\000"
 427      20706F72 
 427      74202020 
 427      20203A20 
 427      256400
 428 01fb 00       		.align	2
 429              	.LC33:
 430 01fc 4D515454 		.ascii	"MQTT client_id: %s\000"
 430      20636C69 
 430      656E745F 
 430      69643A20 
 430      257300
ARM GAS  C:\Users\LENOVO\AppData\Local\Temp\ccWRq5sC.s 			page 16


 431 020f 00       		.align	2
 432              	.LC34:
 433 0210 4D515454 		.ascii	"MQTT user     : %s\000"
 433      20757365 
 433      72202020 
 433      20203A20 
 433      257300
 434 0223 00       		.align	2
 435              	.LC35:
 436 0224 4D515454 		.ascii	"MQTT pass     : %s\000"
 436      20706173 
 436      73202020 
 436      20203A20 
 436      257300
 437 0237 00       		.align	2
 438              	.LC36:
 439 0238 4E6F2027 		.ascii	"No 'mqtt' field in config \342\200\224 using defaul"
 439      6D717474 
 439      27206669 
 439      656C6420 
 439      696E2063 
 440 0262 74204D51 		.ascii	"t MQTT config\000"
 440      54542063 
 440      6F6E6669 
 440      6700
 441              		.align	2
 442              	.LC37:
 443 0270 74696D65 		.ascii	"time_sleeps\000"
 443      5F736C65 
 443      65707300 
 444              		.align	2
 445              	.LC38:
 446 027c 74696D65 		.ascii	"time_sleeps loaded: %lu ms\000"
 446      5F736C65 
 446      65707320 
 446      6C6F6164 
 446      65643A20 
 447 0297 00       		.align	2
 448              	.LC39:
 449 0298 4E6F2076 		.ascii	"No valid 'time_sleeps' \342\200\224 using default %"
 449      616C6964 
 449      20277469 
 449      6D655F73 
 449      6C656570 
 450 02c2 6C75206D 		.ascii	"lu ms\000"
 450      7300
 451              		.align	2
 452              	.LC40:
 453 02c8 64657669 		.ascii	"device_id\000"
 453      63655F69 
 453      6400
 454 02d2 0000     		.align	2
 455              	.LC41:
 456 02d4 44657669 		.ascii	"Device ID     : %s\000"
 456      63652049 
 456      44202020 
 456      20203A20 
ARM GAS  C:\Users\LENOVO\AppData\Local\Temp\ccWRq5sC.s 			page 17


 456      257300
 457 02e7 00       		.align	2
 458              	.LC42:
 459 02e8 74696D65 		.ascii	"time_publish\000"
 459      5F707562 
 459      6C697368 
 459      00
 460 02f5 000000   		.align	2
 461              	.LC43:
 462 02f8 74696D65 		.ascii	"time_publish loaded: %lu ms\000"
 462      5F707562 
 462      6C697368 
 462      206C6F61 
 462      6465643A 
 463              		.align	2
 464              	.LC44:
 465 0314 4E6F2076 		.ascii	"No valid 'time_publish' \342\200\224 using default "
 465      616C6964 
 465      20277469 
 465      6D655F70 
 465      75626C69 
 466 033e 256C7520 		.ascii	"%lu ms\000"
 466      6D7300
 467 0345 000000   		.align	2
 468              	.LC45:
 469 0348 436F6E66 		.ascii	"Config loaded OK\000"
 469      6967206C 
 469      6F616465 
 469      64204F4B 
 469      00
 470              		.section	.text.app_read_config_file,"ax",%progbits
 471              		.align	1
 472              		.syntax unified
 473              		.thumb
 474              		.thumb_func
 476              	app_read_config_file:
 477              	.LVL15:
 478              	.LFB569:
 293:SynaptiX_FDK/app/app.c **** 
 294:SynaptiX_FDK/app/app.c **** static sx_user_mqtt_cfg_t s_mqtt_cfg = {
 295:SynaptiX_FDK/app/app.c ****     .apn = APN,
 296:SynaptiX_FDK/app/app.c ****     .username_apn = USERNAME_APN,
 297:SynaptiX_FDK/app/app.c ****     .password_apn = PASSWORD_APN,
 298:SynaptiX_FDK/app/app.c ****     .broker = MQTT_HOST,
 299:SynaptiX_FDK/app/app.c ****     .port = MQTT_PORT,
 300:SynaptiX_FDK/app/app.c ****     .client_id = MQTT_CLIENT_ID,
 301:SynaptiX_FDK/app/app.c ****     .username = MQTT_USER,
 302:SynaptiX_FDK/app/app.c ****     .password = MQTT_PASS,
 303:SynaptiX_FDK/app/app.c ****     .keepalive = MQTT_KEEPALIVE,
 304:SynaptiX_FDK/app/app.c ****     .clean_session = 0,
 305:SynaptiX_FDK/app/app.c ****     .on_connected = _on_connected,
 306:SynaptiX_FDK/app/app.c ****     .on_disconnected = _on_disconnected,
 307:SynaptiX_FDK/app/app.c ****     .on_message = _on_message,
 308:SynaptiX_FDK/app/app.c ****     .on_publish = _on_publish,
 309:SynaptiX_FDK/app/app.c **** };
 310:SynaptiX_FDK/app/app.c **** 
 311:SynaptiX_FDK/app/app.c **** static void read_last_gps(void);
ARM GAS  C:\Users\LENOVO\AppData\Local\Temp\ccWRq5sC.s 			page 18


 312:SynaptiX_FDK/app/app.c **** 
 313:SynaptiX_FDK/app/app.c **** /*  Publish helpers  */
 314:SynaptiX_FDK/app/app.c **** static void publish_gsm(char *mode)
 315:SynaptiX_FDK/app/app.c **** {
 316:SynaptiX_FDK/app/app.c ****     char msg[256];
 317:SynaptiX_FDK/app/app.c ****     char topic[128];
 318:SynaptiX_FDK/app/app.c ****     
 319:SynaptiX_FDK/app/app.c ****     rx8130ce_get_time(&g_app.board->rtc, &g_app.time);
 320:SynaptiX_FDK/app/app.c **** 
 321:SynaptiX_FDK/app/app.c ****     snprintf(topic, sizeof(topic), "%s%s", MQTT_TOPIC_GSM, g_app.device_name);
 322:SynaptiX_FDK/app/app.c **** 
 323:SynaptiX_FDK/app/app.c ****     snprintf(msg, sizeof(msg),
 324:SynaptiX_FDK/app/app.c ****              "{\"mode\":\"%s\",\"rssi\":%d,\"ip\":\"%s\",\"imei\":\"%s\",\"apn\":\"%s\",\"vbat\":%f
 325:SynaptiX_FDK/app/app.c ****              "\"time\":\"%02d:%02d:%02d\",\"date\":\"%02d/%02d/20%02d\"}",
 326:SynaptiX_FDK/app/app.c ****              mode,
 327:SynaptiX_FDK/app/app.c ****              sim76xx_get_rssi(&g_app.board->sim76xx),
 328:SynaptiX_FDK/app/app.c ****              sim76xx_get_ip(&g_app.board->sim76xx),
 329:SynaptiX_FDK/app/app.c ****              sim76xx_get_imei(&g_app.board->sim76xx),
 330:SynaptiX_FDK/app/app.c ****              sim76xx_get_apn(&g_app.board->sim76xx), g_app.board->voltage.v_bat,
 331:SynaptiX_FDK/app/app.c ****              g_app.time.hour, g_app.time.min, g_app.time.sec,
 332:SynaptiX_FDK/app/app.c ****              g_app.time.day, g_app.time.month+1, g_app.time.year);
 333:SynaptiX_FDK/app/app.c **** 
 334:SynaptiX_FDK/app/app.c ****     sx_user_mqtt_publish(topic, msg);
 335:SynaptiX_FDK/app/app.c ****     log_info(TAG, "GSM: %s", msg);
 336:SynaptiX_FDK/app/app.c **** }
 337:SynaptiX_FDK/app/app.c **** 
 338:SynaptiX_FDK/app/app.c **** static void publish_gps(char *mode)
 339:SynaptiX_FDK/app/app.c **** {
 340:SynaptiX_FDK/app/app.c ****     char v_str[128];
 341:SynaptiX_FDK/app/app.c ****     char msg[256];
 342:SynaptiX_FDK/app/app.c ****     char topic[128];
 343:SynaptiX_FDK/app/app.c ****     sx_gps_t *gps = &g_app.board->gps;
 344:SynaptiX_FDK/app/app.c ****     struct tm t = {0};
 345:SynaptiX_FDK/app/app.c ****     log_info(TAG, "publish_gps: enter, mode=%s", mode);
 346:SynaptiX_FDK/app/app.c ****     rx8130ce_get_time(&g_app.board->rtc, &g_app.time);
 347:SynaptiX_FDK/app/app.c ****     log_info(TAG, "publish_gps: rtc read done");
 348:SynaptiX_FDK/app/app.c ****     t.tm_year = g_app.time.year + 100;  
 349:SynaptiX_FDK/app/app.c ****     t.tm_mon  = g_app.time.month;
 350:SynaptiX_FDK/app/app.c ****     t.tm_mday = g_app.time.day;
 351:SynaptiX_FDK/app/app.c ****     t.tm_hour = g_app.time.hour;
 352:SynaptiX_FDK/app/app.c ****     t.tm_min  = g_app.time.min;
 353:SynaptiX_FDK/app/app.c ****     t.tm_sec  = g_app.time.sec;
 354:SynaptiX_FDK/app/app.c ****     time_t unix_ts = mktime(&t);
 355:SynaptiX_FDK/app/app.c ****     snprintf(topic, sizeof(topic), "%s%s", MQTT_TOPIC_GPS, g_app.device_name);
 356:SynaptiX_FDK/app/app.c ****     float lat = 0.0f, lon = 0.0f, alt = 0.0f, spd = 0.0f;
 357:SynaptiX_FDK/app/app.c ****     int sat = 0;
 358:SynaptiX_FDK/app/app.c ****     int fix = 0; 
 359:SynaptiX_FDK/app/app.c **** 
 360:SynaptiX_FDK/app/app.c ****     if (gps->latitude != 0.0f && gps->longtitude != 0.0f)
 361:SynaptiX_FDK/app/app.c ****     {
 362:SynaptiX_FDK/app/app.c ****         lat = gps->latitude;
 363:SynaptiX_FDK/app/app.c ****         lon = gps->longtitude;
 364:SynaptiX_FDK/app/app.c ****         alt = gps->altitude;
 365:SynaptiX_FDK/app/app.c ****         spd = gps->speed;
 366:SynaptiX_FDK/app/app.c ****         sat = gps->satellites;
 367:SynaptiX_FDK/app/app.c ****         fix = 1; 
 368:SynaptiX_FDK/app/app.c ****         set_time_exrtc(board.gps.tim.tm_sec, board.gps.tim.tm_min, board.gps.tim.tm_hour,
ARM GAS  C:\Users\LENOVO\AppData\Local\Temp\ccWRq5sC.s 			page 19


 369:SynaptiX_FDK/app/app.c ****                        (board.gps.tim.tm_mday / 7 + 1), board.gps.tim.tm_mday,
 370:SynaptiX_FDK/app/app.c ****                        board.gps.tim.tm_mon, board.gps.tim.tm_year - 100);
 371:SynaptiX_FDK/app/app.c ****     }
 372:SynaptiX_FDK/app/app.c ****     else
 373:SynaptiX_FDK/app/app.c ****     {
 374:SynaptiX_FDK/app/app.c ****         fix = 0;
 375:SynaptiX_FDK/app/app.c ****         
 376:SynaptiX_FDK/app/app.c ****         read_last_gps();
 377:SynaptiX_FDK/app/app.c ****         lat = g_app.last_lat;
 378:SynaptiX_FDK/app/app.c ****         lon = g_app.last_lon;
 379:SynaptiX_FDK/app/app.c ****     }
 380:SynaptiX_FDK/app/app.c **** 
 381:SynaptiX_FDK/app/app.c ****     // Build inner JSON string (escaped) - thêm \"fix\"
 382:SynaptiX_FDK/app/app.c ****     snprintf(v_str, sizeof(v_str),
 383:SynaptiX_FDK/app/app.c ****              "{\\\"lat\\\":%.6f,\\\"lon\\\":%.6f,\\\"alt\\\":%.6f,\\\"spd\\\":%.6f,\\\"sat\\\":%d,\
 384:SynaptiX_FDK/app/app.c ****              lat, lon, alt, spd, sat, fix); // <-- thêm fix vào cuối
 385:SynaptiX_FDK/app/app.c **** 
 386:SynaptiX_FDK/app/app.c ****     // Build outer JSON
 387:SynaptiX_FDK/app/app.c ****     snprintf(msg, sizeof(msg),
 388:SynaptiX_FDK/app/app.c ****              "{\"v\":\"%s\",\"time\":%ld}",
 389:SynaptiX_FDK/app/app.c ****              v_str, (long)unix_ts);
 390:SynaptiX_FDK/app/app.c ****     sx_user_mqtt_publish(topic, msg);
 391:SynaptiX_FDK/app/app.c ****     log_info(TAG, "GPS: %s", msg);
 392:SynaptiX_FDK/app/app.c **** }
 393:SynaptiX_FDK/app/app.c **** 
 394:SynaptiX_FDK/app/app.c **** static void read_last_gps(void)
 395:SynaptiX_FDK/app/app.c **** {
 396:SynaptiX_FDK/app/app.c ****     log_info(TAG, "read_last_gps: enter");
 397:SynaptiX_FDK/app/app.c ****     int32_t file_size = sx_storage_size(GPS_LOG_FILE_PATH);
 398:SynaptiX_FDK/app/app.c ****     log_info(TAG, "read_last_gps: size=%ld", (long)file_size);
 399:SynaptiX_FDK/app/app.c ****     if (file_size <= 0) {
 400:SynaptiX_FDK/app/app.c ****         log_info(TAG, "NO DATA FROM EXFLASH!");
 401:SynaptiX_FDK/app/app.c ****         return;
 402:SynaptiX_FDK/app/app.c ****     }
 403:SynaptiX_FDK/app/app.c **** 
 404:SynaptiX_FDK/app/app.c ****     static uint8_t s_tail_buf[256];
 405:SynaptiX_FDK/app/app.c ****     uint32_t read_len = (file_size < (int32_t)sizeof(s_tail_buf))
 406:SynaptiX_FDK/app/app.c ****                             ? (uint32_t)file_size
 407:SynaptiX_FDK/app/app.c ****                             : (uint32_t)sizeof(s_tail_buf) - 1;
 408:SynaptiX_FDK/app/app.c ****     uint32_t offset = (uint32_t)file_size - read_len;
 409:SynaptiX_FDK/app/app.c **** 
 410:SynaptiX_FDK/app/app.c ****     sx_storage_err_t err = sx_storage_read_partial(
 411:SynaptiX_FDK/app/app.c ****         GPS_LOG_FILE_PATH, s_tail_buf, offset, read_len);
 412:SynaptiX_FDK/app/app.c ****     if (err != SX_STORAGE_OK) {
 413:SynaptiX_FDK/app/app.c ****         log_error(TAG, "Flash read failed");
 414:SynaptiX_FDK/app/app.c ****         return;
 415:SynaptiX_FDK/app/app.c ****     }
 416:SynaptiX_FDK/app/app.c ****     s_tail_buf[read_len] = '\0';
 417:SynaptiX_FDK/app/app.c **** 
 418:SynaptiX_FDK/app/app.c ****     int32_t end = (int32_t)read_len - 1;
 419:SynaptiX_FDK/app/app.c ****     while (end >= 0 && (s_tail_buf[end] == '\n' || s_tail_buf[end] == '\r'))
 420:SynaptiX_FDK/app/app.c ****         end--;
 421:SynaptiX_FDK/app/app.c **** 
 422:SynaptiX_FDK/app/app.c ****     int32_t start = end;
 423:SynaptiX_FDK/app/app.c ****     while (start > 0 && s_tail_buf[start - 1] != '\n')
 424:SynaptiX_FDK/app/app.c ****         start--;
 425:SynaptiX_FDK/app/app.c **** 
ARM GAS  C:\Users\LENOVO\AppData\Local\Temp\ccWRq5sC.s 			page 20


 426:SynaptiX_FDK/app/app.c ****     if (start > end) {
 427:SynaptiX_FDK/app/app.c ****         log_warn(TAG, "Cannot find last line");
 428:SynaptiX_FDK/app/app.c ****         return;
 429:SynaptiX_FDK/app/app.c ****     }
 430:SynaptiX_FDK/app/app.c **** 
 431:SynaptiX_FDK/app/app.c ****     s_tail_buf[end + 1] = '\0';
 432:SynaptiX_FDK/app/app.c ****     char *last_line = (char *)(s_tail_buf + start);
 433:SynaptiX_FDK/app/app.c ****     log_info(TAG, "Last log line: %s", last_line);
 434:SynaptiX_FDK/app/app.c **** 
 435:SynaptiX_FDK/app/app.c ****     // Parse
 436:SynaptiX_FDK/app/app.c ****     int   fix = 0, rssi = 0;
 437:SynaptiX_FDK/app/app.c ****     char  lat_str[16] = {0};
 438:SynaptiX_FDK/app/app.c ****     char  lon_str[16] = {0};
 439:SynaptiX_FDK/app/app.c ****     char  alt_str[16] = {0};
 440:SynaptiX_FDK/app/app.c ****     char  spd_str[16] = {0};
 441:SynaptiX_FDK/app/app.c ****     char  sat_str[16] = {0};
 442:SynaptiX_FDK/app/app.c ****     char  time_str[12] = {0};
 443:SynaptiX_FDK/app/app.c ****     char  date_str[12] = {0};
 444:SynaptiX_FDK/app/app.c **** 
 445:SynaptiX_FDK/app/app.c ****     int parsed = sscanf(last_line,
 446:SynaptiX_FDK/app/app.c ****                         "%*s fix=%d lat=%15s lon=%15s rssi=%d alt=%15s spd=%15s sat=%15s time=%11s 
 447:SynaptiX_FDK/app/app.c ****                         &fix, lat_str, lon_str, &rssi, alt_str, spd_str, sat_str, time_str, date_st
 448:SynaptiX_FDK/app/app.c **** 
 449:SynaptiX_FDK/app/app.c ****     if (parsed >= 3 && fix == 1) {
 450:SynaptiX_FDK/app/app.c ****         g_app.last_lat = strtof(lat_str, NULL);
 451:SynaptiX_FDK/app/app.c ****         g_app.last_lon = strtof(lon_str, NULL);
 452:SynaptiX_FDK/app/app.c ****         g_app.last_alt = (parsed >= 5) ? strtof(alt_str, NULL) : 0.0f;
 453:SynaptiX_FDK/app/app.c ****         g_app.last_spd = (parsed >= 6) ? strtof(spd_str, NULL) : 0.0f;
 454:SynaptiX_FDK/app/app.c ****         g_app.last_sat = (parsed >= 7) ? (int)strtol(sat_str, NULL, 10) : 0;
 455:SynaptiX_FDK/app/app.c ****         snprintf(g_app.last_time_str, sizeof(g_app.last_time_str), "%s", time_str);
 456:SynaptiX_FDK/app/app.c ****         snprintf(g_app.last_date_str, sizeof(g_app.last_date_str), "%s", date_str);
 457:SynaptiX_FDK/app/app.c ****         log_info(TAG, "Last GPS loaded: lat=%.6f lon=%.6f alt=%.2f spd=%.2f sat=%d time=%s date=%s"
 458:SynaptiX_FDK/app/app.c ****                 g_app.last_lat, g_app.last_lon, g_app.last_alt, g_app.last_spd, g_app.last_sat,
 459:SynaptiX_FDK/app/app.c ****                 g_app.last_time_str, g_app.last_date_str);
 460:SynaptiX_FDK/app/app.c ****     } else {
 461:SynaptiX_FDK/app/app.c ****         log_warn(TAG, "No valid fix in last log");
 462:SynaptiX_FDK/app/app.c ****     }
 463:SynaptiX_FDK/app/app.c **** }
 464:SynaptiX_FDK/app/app.c **** 
 465:SynaptiX_FDK/app/app.c **** // static void _sync_gps_log_to_disk(void)
 466:SynaptiX_FDK/app/app.c **** // {
 467:SynaptiX_FDK/app/app.c **** //     log_info(TAG, "Syncing last GPS log entry to disk...");
 468:SynaptiX_FDK/app/app.c **** 
 469:SynaptiX_FDK/app/app.c **** //     if (!sx_storage_exists(GPS_LOG_FILE_PATH))
 470:SynaptiX_FDK/app/app.c **** //     {
 471:SynaptiX_FDK/app/app.c **** //         log_warn(TAG, "No GPS log on flash");
 472:SynaptiX_FDK/app/app.c **** //         sx_user_msc_write(GPS_CSV_FILE_PATH,
 473:SynaptiX_FDK/app/app.c **** //                           (const uint8_t *)"no data\n",
 474:SynaptiX_FDK/app/app.c **** //                           strlen("no data\n"));
 475:SynaptiX_FDK/app/app.c **** //         sx_user_msc_remount_disk();
 476:SynaptiX_FDK/app/app.c **** //         return;
 477:SynaptiX_FDK/app/app.c **** //     }
 478:SynaptiX_FDK/app/app.c **** 
 479:SynaptiX_FDK/app/app.c **** //     int32_t file_size = sx_storage_size(GPS_LOG_FILE_PATH);
 480:SynaptiX_FDK/app/app.c **** //     if (file_size <= 0)
 481:SynaptiX_FDK/app/app.c **** //     {
 482:SynaptiX_FDK/app/app.c **** //         log_warn(TAG, "GPS log empty");
ARM GAS  C:\Users\LENOVO\AppData\Local\Temp\ccWRq5sC.s 			page 21


 483:SynaptiX_FDK/app/app.c **** //         sx_user_msc_write(GPS_CSV_FILE_PATH,
 484:SynaptiX_FDK/app/app.c **** //                           (const uint8_t *)"no data\n",
 485:SynaptiX_FDK/app/app.c **** //                           strlen("no data\n"));
 486:SynaptiX_FDK/app/app.c **** //         sx_user_msc_remount_disk();
 487:SynaptiX_FDK/app/app.c **** //         return;
 488:SynaptiX_FDK/app/app.c **** //     }
 489:SynaptiX_FDK/app/app.c **** 
 490:SynaptiX_FDK/app/app.c **** //     static uint8_t s_tail_buf[256];
 491:SynaptiX_FDK/app/app.c **** //     uint32_t read_len = (file_size < (int32_t)sizeof(s_tail_buf))
 492:SynaptiX_FDK/app/app.c **** //                             ? (uint32_t)file_size
 493:SynaptiX_FDK/app/app.c **** //                             : (uint32_t)sizeof(s_tail_buf) - 1;
 494:SynaptiX_FDK/app/app.c **** //     uint32_t offset = (uint32_t)file_size - read_len;
 495:SynaptiX_FDK/app/app.c **** 
 496:SynaptiX_FDK/app/app.c **** //     sx_storage_err_t err = sx_storage_read_partial(
 497:SynaptiX_FDK/app/app.c **** //         GPS_LOG_FILE_PATH,
 498:SynaptiX_FDK/app/app.c **** //         s_tail_buf,
 499:SynaptiX_FDK/app/app.c **** //         offset,
 500:SynaptiX_FDK/app/app.c **** //         read_len);
 501:SynaptiX_FDK/app/app.c **** //     if (err != SX_STORAGE_OK)
 502:SynaptiX_FDK/app/app.c **** //     {
 503:SynaptiX_FDK/app/app.c **** //         log_error(TAG, "Flash read failed");
 504:SynaptiX_FDK/app/app.c **** //         sx_user_msc_write(GPS_CSV_FILE_PATH,
 505:SynaptiX_FDK/app/app.c **** //                           (const uint8_t *)"no data\n",
 506:SynaptiX_FDK/app/app.c **** //                           strlen("no data\n"));
 507:SynaptiX_FDK/app/app.c **** //         sx_user_msc_remount_disk();
 508:SynaptiX_FDK/app/app.c **** //         return;
 509:SynaptiX_FDK/app/app.c **** //     }
 510:SynaptiX_FDK/app/app.c **** 
 511:SynaptiX_FDK/app/app.c **** //     s_tail_buf[read_len] = '\0';
 512:SynaptiX_FDK/app/app.c **** 
 513:SynaptiX_FDK/app/app.c **** //     int32_t end = (int32_t)read_len - 1;
 514:SynaptiX_FDK/app/app.c **** //     while (end >= 0 && (s_tail_buf[end] == '\n' || s_tail_buf[end] == '\r'))
 515:SynaptiX_FDK/app/app.c **** //         end--;
 516:SynaptiX_FDK/app/app.c **** 
 517:SynaptiX_FDK/app/app.c **** //     int32_t start = end;
 518:SynaptiX_FDK/app/app.c **** //     while (start > 0 && s_tail_buf[start - 1] != '\n')
 519:SynaptiX_FDK/app/app.c **** //         start--;
 520:SynaptiX_FDK/app/app.c **** 
 521:SynaptiX_FDK/app/app.c **** //     if (start > end)
 522:SynaptiX_FDK/app/app.c **** //     {
 523:SynaptiX_FDK/app/app.c **** //         log_warn(TAG, "Cannot find last line");
 524:SynaptiX_FDK/app/app.c **** //         sx_user_msc_write(GPS_CSV_FILE_PATH,
 525:SynaptiX_FDK/app/app.c **** //                           (const uint8_t *)"no data\n",
 526:SynaptiX_FDK/app/app.c **** //                           strlen("no data\n"));
 527:SynaptiX_FDK/app/app.c **** //         sx_user_msc_remount_disk();
 528:SynaptiX_FDK/app/app.c **** //         return;
 529:SynaptiX_FDK/app/app.c **** //     }
 530:SynaptiX_FDK/app/app.c **** 
 531:SynaptiX_FDK/app/app.c **** //     s_tail_buf[end + 1] = '\0';
 532:SynaptiX_FDK/app/app.c **** //     char *last_line = (char *)(s_tail_buf + start);
 533:SynaptiX_FDK/app/app.c **** //     log_info(TAG, "Last log line: %s", last_line);
 534:SynaptiX_FDK/app/app.c **** 
 535:SynaptiX_FDK/app/app.c **** //     /* --- Parse --- */
 536:SynaptiX_FDK/app/app.c **** //     int  fix  = 0;
 537:SynaptiX_FDK/app/app.c **** //     int  rssi = 0;
 538:SynaptiX_FDK/app/app.c **** //     char lat_str[16]  = {0};
 539:SynaptiX_FDK/app/app.c **** //     char lon_str[16]  = {0};
ARM GAS  C:\Users\LENOVO\AppData\Local\Temp\ccWRq5sC.s 			page 22


 540:SynaptiX_FDK/app/app.c **** //     char time_str[12] = {0};
 541:SynaptiX_FDK/app/app.c **** //     char date_str[12] = {0};
 542:SynaptiX_FDK/app/app.c **** 
 543:SynaptiX_FDK/app/app.c **** //     static char s_csv_line[128];
 544:SynaptiX_FDK/app/app.c **** 
 545:SynaptiX_FDK/app/app.c **** //     int parsed = sscanf(last_line,
 546:SynaptiX_FDK/app/app.c **** //                         "%*s fix=%d lat=%15s lon=%15s rssi=%d time=%11s date=%11s",
 547:SynaptiX_FDK/app/app.c **** //                         &fix, lat_str, lon_str, &rssi, time_str, date_str);
 548:SynaptiX_FDK/app/app.c **** 
 549:SynaptiX_FDK/app/app.c **** //     log_info(TAG, "parsed=%d fix=%d lat=%s lon=%s rssi=%d t=%s d=%s",
 550:SynaptiX_FDK/app/app.c **** //              parsed, fix, lat_str, lon_str, rssi, time_str, date_str);
 551:SynaptiX_FDK/app/app.c **** 
 552:SynaptiX_FDK/app/app.c **** //     if (parsed == 6 && fix == 1)
 553:SynaptiX_FDK/app/app.c **** //     {
 554:SynaptiX_FDK/app/app.c **** //         snprintf(s_csv_line, sizeof(s_csv_line),
 555:SynaptiX_FDK/app/app.c **** //                  "%s1,%s,%s,%d,%s,%s",
 556:SynaptiX_FDK/app/app.c **** //                  GPS_CSV_HEADER, lat_str, lon_str, rssi, time_str, date_str);
 557:SynaptiX_FDK/app/app.c **** //     }
 558:SynaptiX_FDK/app/app.c **** //     else
 559:SynaptiX_FDK/app/app.c **** //     {
 560:SynaptiX_FDK/app/app.c **** //         fix = 0; rssi = 0;
 561:SynaptiX_FDK/app/app.c **** //         memset(time_str, 0, sizeof(time_str));
 562:SynaptiX_FDK/app/app.c **** //         memset(date_str, 0, sizeof(date_str));
 563:SynaptiX_FDK/app/app.c **** 
 564:SynaptiX_FDK/app/app.c **** //         parsed = sscanf(last_line,
 565:SynaptiX_FDK/app/app.c **** //                         "%*s fix=%d rssi=%d time=%11s date=%11s",
 566:SynaptiX_FDK/app/app.c **** //                         &fix, &rssi, time_str, date_str);
 567:SynaptiX_FDK/app/app.c **** 
 568:SynaptiX_FDK/app/app.c **** //         log_info(TAG, "fix=0 parsed=%d rssi=%d t=%s d=%s",
 569:SynaptiX_FDK/app/app.c **** //                  parsed, rssi, time_str, date_str);
 570:SynaptiX_FDK/app/app.c **** 
 571:SynaptiX_FDK/app/app.c **** //         snprintf(s_csv_line, sizeof(s_csv_line),
 572:SynaptiX_FDK/app/app.c **** //                  "%s0,0.000000,0.000000,%d,%s,%s",
 573:SynaptiX_FDK/app/app.c **** //                  GPS_CSV_HEADER,
 574:SynaptiX_FDK/app/app.c **** //                  rssi,
 575:SynaptiX_FDK/app/app.c **** //                  time_str[0] ? time_str : "N/A",
 576:SynaptiX_FDK/app/app.c **** //                  date_str[0] ? date_str : "N/A");
 577:SynaptiX_FDK/app/app.c **** //     }
 578:SynaptiX_FDK/app/app.c **** 
 579:SynaptiX_FDK/app/app.c **** //     sx_user_msc_write(GPS_CSV_FILE_PATH,
 580:SynaptiX_FDK/app/app.c **** //                       (const uint8_t *)s_csv_line,
 581:SynaptiX_FDK/app/app.c **** //                       strlen(s_csv_line));
 582:SynaptiX_FDK/app/app.c **** 
 583:SynaptiX_FDK/app/app.c **** //     snprintf(lat_str, sizeof(lat_str), "%.6f", g_app.last_lat);
 584:SynaptiX_FDK/app/app.c **** //     snprintf(lon_str, sizeof(lon_str), "%.6f", g_app.last_lon);
 585:SynaptiX_FDK/app/app.c **** //     sx_user_msc_remount_disk();
 586:SynaptiX_FDK/app/app.c **** //     log_info(TAG, "GPS CSV written: %s", s_csv_line);
 587:SynaptiX_FDK/app/app.c **** // }
 588:SynaptiX_FDK/app/app.c **** 
 589:SynaptiX_FDK/app/app.c **** static void _sync_gps_log_to_disk(void)
 590:SynaptiX_FDK/app/app.c **** {
 591:SynaptiX_FDK/app/app.c ****     log_info(TAG, "Syncing last GPS log entry to disk...");
 592:SynaptiX_FDK/app/app.c **** 
 593:SynaptiX_FDK/app/app.c ****     if (!sx_storage_exists(GPS_LOG_FILE_PATH))
 594:SynaptiX_FDK/app/app.c ****     {
 595:SynaptiX_FDK/app/app.c ****         log_warn(TAG, "No GPS log on flash");
 596:SynaptiX_FDK/app/app.c ****         sx_user_msc_write(GPS_CSV_FILE_PATH,
ARM GAS  C:\Users\LENOVO\AppData\Local\Temp\ccWRq5sC.s 			page 23


 597:SynaptiX_FDK/app/app.c ****                           (const uint8_t *)"no data\n",
 598:SynaptiX_FDK/app/app.c ****                           strlen("no data\n"));
 599:SynaptiX_FDK/app/app.c ****         sx_user_msc_remount_disk();
 600:SynaptiX_FDK/app/app.c ****         return;
 601:SynaptiX_FDK/app/app.c ****     }
 602:SynaptiX_FDK/app/app.c **** 
 603:SynaptiX_FDK/app/app.c ****     read_last_gps();
 604:SynaptiX_FDK/app/app.c **** 
 605:SynaptiX_FDK/app/app.c ****     static char s_csv_line[192];
 606:SynaptiX_FDK/app/app.c **** 
 607:SynaptiX_FDK/app/app.c ****     if (g_app.last_lat != 0.0f && g_app.last_lon != 0.0f)
 608:SynaptiX_FDK/app/app.c ****     {
 609:SynaptiX_FDK/app/app.c ****         snprintf(s_csv_line, sizeof(s_csv_line),
 610:SynaptiX_FDK/app/app.c ****                 "%s1,%.6f,%.6f,%.6f,%.6f,%d,%s,%s",
 611:SynaptiX_FDK/app/app.c ****                 GPS_CSV_HEADER,
 612:SynaptiX_FDK/app/app.c ****                 g_app.last_lat, g_app.last_lon,
 613:SynaptiX_FDK/app/app.c ****                 g_app.last_alt, g_app.last_spd, g_app.last_sat,
 614:SynaptiX_FDK/app/app.c ****                 g_app.last_time_str, g_app.last_date_str);
 615:SynaptiX_FDK/app/app.c ****     }
 616:SynaptiX_FDK/app/app.c ****     else
 617:SynaptiX_FDK/app/app.c ****     {
 618:SynaptiX_FDK/app/app.c ****         snprintf(s_csv_line, sizeof(s_csv_line),
 619:SynaptiX_FDK/app/app.c ****                 "%s0,0.000000,0.000000,0.000000,0.000000,0,N/A,N/A",
 620:SynaptiX_FDK/app/app.c ****                 GPS_CSV_HEADER);
 621:SynaptiX_FDK/app/app.c ****     }
 622:SynaptiX_FDK/app/app.c **** 
 623:SynaptiX_FDK/app/app.c ****     sx_user_msc_write(GPS_CSV_FILE_PATH,
 624:SynaptiX_FDK/app/app.c ****                       (const uint8_t *)s_csv_line,
 625:SynaptiX_FDK/app/app.c ****                       strlen(s_csv_line));
 626:SynaptiX_FDK/app/app.c ****     sx_user_msc_remount_disk();
 627:SynaptiX_FDK/app/app.c ****     log_info(TAG, "GPS CSV written: %s", s_csv_line);
 628:SynaptiX_FDK/app/app.c **** }
 629:SynaptiX_FDK/app/app.c **** 
 630:SynaptiX_FDK/app/app.c **** void app_sync_gps_log_to_disk(void)
 631:SynaptiX_FDK/app/app.c **** {
 632:SynaptiX_FDK/app/app.c ****     g_app.s_sync_disk_pending = 1;
 633:SynaptiX_FDK/app/app.c **** }
 634:SynaptiX_FDK/app/app.c **** 
 635:SynaptiX_FDK/app/app.c **** void app_request_sleep(void)
 636:SynaptiX_FDK/app/app.c **** {
 637:SynaptiX_FDK/app/app.c ****     if (g_app.sleep_requested)
 638:SynaptiX_FDK/app/app.c ****         return;
 639:SynaptiX_FDK/app/app.c ****     g_app.sleep_requested = 1;
 640:SynaptiX_FDK/app/app.c ****     g_app.enter_sleep_elapsed_ms = 0;
 641:SynaptiX_FDK/app/app.c ****     g_app.enter_sleep_published = 0;
 642:SynaptiX_FDK/app/app.c ****     g_app.last_publish_done = 0;
 643:SynaptiX_FDK/app/app.c ****     g_app.publish_count = 0;
 644:SynaptiX_FDK/app/app.c ****     g_app.mqtt_stopped = 0;
 645:SynaptiX_FDK/app/app.c ****     g_app.app_mode = APP_MODE_ENTER_SLEEP;
 646:SynaptiX_FDK/app/app.c ****     log_info(TAG, "Sleep requested");
 647:SynaptiX_FDK/app/app.c **** }
 648:SynaptiX_FDK/app/app.c **** 
 649:SynaptiX_FDK/app/app.c **** static void app_read_config_file(TrackingApp_t *app)
 650:SynaptiX_FDK/app/app.c **** {
 479              		.loc 1 650 1 is_stmt 1 view -0
 480              		.cfi_startproc
 481              		@ args = 0, pretend = 0, frame = 288
ARM GAS  C:\Users\LENOVO\AppData\Local\Temp\ccWRq5sC.s 			page 24


 482              		@ frame_needed = 0, uses_anonymous_args = 0
 483              		.loc 1 650 1 is_stmt 0 view .LVU61
 484 0000 2DE9F047 		push	{r4, r5, r6, r7, r8, r9, r10, lr}
 485              	.LCFI7:
 486              		.cfi_def_cfa_offset 32
 487              		.cfi_offset 4, -32
 488              		.cfi_offset 5, -28
 489              		.cfi_offset 6, -24
 490              		.cfi_offset 7, -20
 491              		.cfi_offset 8, -16
 492              		.cfi_offset 9, -12
 493              		.cfi_offset 10, -8
 494              		.cfi_offset 14, -4
 495 0004 C8B0     		sub	sp, sp, #288
 496              	.LCFI8:
 497              		.cfi_def_cfa_offset 320
 651:SynaptiX_FDK/app/app.c ****     // Read config file to initialize MQTT config (e.g. broker address, credentials)
 652:SynaptiX_FDK/app/app.c ****     // For simplicity, we use hardcoded config in this example, but in real application, you can re
 653:SynaptiX_FDK/app/app.c ****     // and populate s_mqtt_cfg accordingly.
 654:SynaptiX_FDK/app/app.c **** 
 655:SynaptiX_FDK/app/app.c ****     int ret = sx_fatfs_remount();
 498              		.loc 1 655 5 is_stmt 1 view .LVU62
 499              		.loc 1 655 15 is_stmt 0 view .LVU63
 500 0006 FFF7FEFF 		bl	sx_fatfs_remount
 501              	.LVL16:
 502              		.loc 1 655 15 view .LVU64
 503 000a 0446     		mov	r4, r0
 504              	.LVL17:
 656:SynaptiX_FDK/app/app.c ****     sx_fatfs_debug_list();
 505              		.loc 1 656 5 is_stmt 1 view .LVU65
 506 000c FFF7FEFF 		bl	sx_fatfs_debug_list
 507              	.LVL18:
 657:SynaptiX_FDK/app/app.c ****     if (ret != 0) {
 508              		.loc 1 657 5 view .LVU66
 509              		.loc 1 657 8 is_stmt 0 view .LVU67
 510 0010 0CBB     		cbnz	r4, .L75
 658:SynaptiX_FDK/app/app.c ****         log_warn("AppCfg", "FatFS remount failed (%d) — using default config", ret);
 659:SynaptiX_FDK/app/app.c ****         _apply_default_config(&s_mqtt_cfg);
 660:SynaptiX_FDK/app/app.c ****         return;
 661:SynaptiX_FDK/app/app.c ****     }
 662:SynaptiX_FDK/app/app.c **** 
 663:SynaptiX_FDK/app/app.c ****     FILINFO fno;
 511              		.loc 1 663 5 is_stmt 1 view .LVU68
 664:SynaptiX_FDK/app/app.c ****     FRESULT fres = f_stat("0:/config.json", &fno);
 512              		.loc 1 664 5 view .LVU69
 513              		.loc 1 664 20 is_stmt 0 view .LVU70
 514 0012 02A9     		add	r1, sp, #8
 515 0014 A348     		ldr	r0, .L85
 516 0016 FFF7FEFF 		bl	f_stat
 517              	.LVL19:
 665:SynaptiX_FDK/app/app.c ****     if (fres != FR_OK) {
 518              		.loc 1 665 5 is_stmt 1 view .LVU71
 519              		.loc 1 665 8 is_stmt 0 view .LVU72
 520 001a 0346     		mov	r3, r0
 521 001c 38BB     		cbnz	r0, .L76
 666:SynaptiX_FDK/app/app.c ****         log_warn("AppCfg", "config.json not found (f_stat=%d) — using default config", fres);
 667:SynaptiX_FDK/app/app.c ****         _apply_default_config(&s_mqtt_cfg);
ARM GAS  C:\Users\LENOVO\AppData\Local\Temp\ccWRq5sC.s 			page 25


 668:SynaptiX_FDK/app/app.c ****         return;
 669:SynaptiX_FDK/app/app.c ****     }
 670:SynaptiX_FDK/app/app.c ****     log_info("AppCfg", "config.json found, size=%lu bytes", fno.fsize);
 522              		.loc 1 670 5 is_stmt 1 view .LVU73
 523 001e 029B     		ldr	r3, [sp, #8]
 524 0020 A14A     		ldr	r2, .L85+4
 525 0022 A249     		ldr	r1, .L85+8
 526 0024 0320     		movs	r0, #3
 527              	.LVL20:
 528              		.loc 1 670 5 is_stmt 0 view .LVU74
 529 0026 FFF7FEFF 		bl	log_func
 530              	.LVL21:
 671:SynaptiX_FDK/app/app.c **** 
 672:SynaptiX_FDK/app/app.c ****     /*  3. read content file  */
 673:SynaptiX_FDK/app/app.c ****     uint32_t out_len = 0;
 531              		.loc 1 673 5 is_stmt 1 view .LVU75
 532              		.loc 1 673 14 is_stmt 0 view .LVU76
 533 002a 0023     		movs	r3, #0
 534 002c 0193     		str	r3, [sp, #4]
 674:SynaptiX_FDK/app/app.c ****     sx_user_msc_err_t err = sx_user_msc_read(
 535              		.loc 1 674 5 is_stmt 1 view .LVU77
 536              		.loc 1 674 29 is_stmt 0 view .LVU78
 537 002e 01AB     		add	r3, sp, #4
 538 0030 40F2FF12 		movw	r2, #511
 539 0034 9E49     		ldr	r1, .L85+12
 540 0036 9B48     		ldr	r0, .L85
 541 0038 FFF7FEFF 		bl	sx_user_msc_read
 542              	.LVL22:
 675:SynaptiX_FDK/app/app.c ****         "0:/config.json",
 676:SynaptiX_FDK/app/app.c ****         config_json.s_cfg_buf,
 677:SynaptiX_FDK/app/app.c ****         sizeof(config_json.s_cfg_buf) - 1,
 678:SynaptiX_FDK/app/app.c ****         &out_len
 679:SynaptiX_FDK/app/app.c ****     );
 680:SynaptiX_FDK/app/app.c ****     if (err != SX_USER_MSC_OK || out_len == 0) {
 543              		.loc 1 680 5 is_stmt 1 view .LVU79
 544              		.loc 1 680 8 is_stmt 0 view .LVU80
 545 003c 0346     		mov	r3, r0
 546 003e 08B9     		cbnz	r0, .L37
 547              		.loc 1 680 42 discriminator 1 view .LVU81
 548 0040 019A     		ldr	r2, [sp, #4]
 549              		.loc 1 680 31 discriminator 1 view .LVU82
 550 0042 EAB9     		cbnz	r2, .L38
 551              	.L37:
 681:SynaptiX_FDK/app/app.c ****         log_error("AppCfg", "Read config.json failed (err=%d) — using default config", err);
 552              		.loc 1 681 9 is_stmt 1 view .LVU83
 553 0044 9B4A     		ldr	r2, .L85+16
 554 0046 9949     		ldr	r1, .L85+8
 555 0048 0120     		movs	r0, #1
 556              	.LVL23:
 557              		.loc 1 681 9 is_stmt 0 view .LVU84
 558 004a FFF7FEFF 		bl	log_func
 559              	.LVL24:
 682:SynaptiX_FDK/app/app.c ****         _apply_default_config(&s_mqtt_cfg);
 560              		.loc 1 682 9 is_stmt 1 view .LVU85
 561 004e 9A48     		ldr	r0, .L85+20
 562 0050 FFF7FEFF 		bl	_apply_default_config
 563              	.LVL25:
ARM GAS  C:\Users\LENOVO\AppData\Local\Temp\ccWRq5sC.s 			page 26


 683:SynaptiX_FDK/app/app.c ****         return;
 564              		.loc 1 683 9 view .LVU86
 565 0054 08E0     		b	.L33
 566              	.LVL26:
 567              	.L75:
 658:SynaptiX_FDK/app/app.c ****         _apply_default_config(&s_mqtt_cfg);
 568              		.loc 1 658 9 view .LVU87
 569 0056 2346     		mov	r3, r4
 570 0058 984A     		ldr	r2, .L85+24
 571 005a 9449     		ldr	r1, .L85+8
 572 005c 0220     		movs	r0, #2
 573 005e FFF7FEFF 		bl	log_func
 574              	.LVL27:
 659:SynaptiX_FDK/app/app.c ****         return;
 575              		.loc 1 659 9 view .LVU88
 576 0062 9548     		ldr	r0, .L85+20
 577 0064 FFF7FEFF 		bl	_apply_default_config
 578              	.LVL28:
 660:SynaptiX_FDK/app/app.c ****     }
 579              		.loc 1 660 9 view .LVU89
 580              	.L33:
 684:SynaptiX_FDK/app/app.c ****     }
 685:SynaptiX_FDK/app/app.c ****     config_json.s_cfg_buf[out_len] = '\0';
 686:SynaptiX_FDK/app/app.c ****     log_info("AppCfg", "cfg.json content: %s", (char *)config_json.s_cfg_buf);
 687:SynaptiX_FDK/app/app.c **** 
 688:SynaptiX_FDK/app/app.c ****     /*  4. Parse JSON  */
 689:SynaptiX_FDK/app/app.c ****     cJSON *root = cJSON_Parse((const char *)config_json.s_cfg_buf);
 690:SynaptiX_FDK/app/app.c ****     if (root == NULL) {
 691:SynaptiX_FDK/app/app.c ****         log_error("AppCfg", "JSON parse failed — using default config");
 692:SynaptiX_FDK/app/app.c ****         _apply_default_config(&s_mqtt_cfg);
 693:SynaptiX_FDK/app/app.c ****         return;
 694:SynaptiX_FDK/app/app.c ****     }
 695:SynaptiX_FDK/app/app.c **** 
 696:SynaptiX_FDK/app/app.c ****     /*  5. APN  */
 697:SynaptiX_FDK/app/app.c ****     cJSON *apn = cJSON_GetObjectItem(root, "apn");
 698:SynaptiX_FDK/app/app.c ****     if (apn) {
 699:SynaptiX_FDK/app/app.c ****         cJSON *name = cJSON_GetObjectItem(apn, "name");
 700:SynaptiX_FDK/app/app.c ****         cJSON *user = cJSON_GetObjectItem(apn, "user");
 701:SynaptiX_FDK/app/app.c ****         cJSON *pass = cJSON_GetObjectItem(apn, "password");
 702:SynaptiX_FDK/app/app.c **** 
 703:SynaptiX_FDK/app/app.c ****         log_info("AppCfg", "APN name    : %s", (!name || cJSON_IsNull(name))   ? "NULL" : name->val
 704:SynaptiX_FDK/app/app.c ****         log_info("AppCfg", "APN user    : %s", (!user || cJSON_IsNull(user))   ? "NULL" : user->val
 705:SynaptiX_FDK/app/app.c ****         log_info("AppCfg", "APN pass    : %s", (!pass || cJSON_IsNull(pass))   ? "NULL" : pass->val
 706:SynaptiX_FDK/app/app.c **** 
 707:SynaptiX_FDK/app/app.c ****         if (name && !cJSON_IsNull(name) && name->valuestring) {
 708:SynaptiX_FDK/app/app.c ****             strncpy(config_json.s_apn_name, name->valuestring, sizeof(config_json.s_apn_name) - 1);
 709:SynaptiX_FDK/app/app.c ****             strncpy(s_mqtt_cfg.apn, config_json.s_apn_name, sizeof(s_mqtt_cfg.apn) - 1);
 710:SynaptiX_FDK/app/app.c ****         }
 711:SynaptiX_FDK/app/app.c ****     } else {
 712:SynaptiX_FDK/app/app.c ****         log_warn("AppCfg", "No 'apn' field in config");
 713:SynaptiX_FDK/app/app.c ****     }
 714:SynaptiX_FDK/app/app.c **** 
 715:SynaptiX_FDK/app/app.c ****     /*  6. MQTT  */
 716:SynaptiX_FDK/app/app.c ****     cJSON *mqtt = cJSON_GetObjectItem(root, "mqtt");
 717:SynaptiX_FDK/app/app.c ****     if (mqtt) {
 718:SynaptiX_FDK/app/app.c ****         cJSON *host      = cJSON_GetObjectItem(mqtt, "host");
 719:SynaptiX_FDK/app/app.c ****         cJSON *port      = cJSON_GetObjectItem(mqtt, "port");
ARM GAS  C:\Users\LENOVO\AppData\Local\Temp\ccWRq5sC.s 			page 27


 720:SynaptiX_FDK/app/app.c ****         cJSON *client_id = cJSON_GetObjectItem(mqtt, "client_id");
 721:SynaptiX_FDK/app/app.c ****         cJSON *user      = cJSON_GetObjectItem(mqtt, "user_name");
 722:SynaptiX_FDK/app/app.c ****         cJSON *pass      = cJSON_GetObjectItem(mqtt, "password");
 723:SynaptiX_FDK/app/app.c **** 
 724:SynaptiX_FDK/app/app.c ****         log_info("AppCfg", "MQTT host     : %s", (host && host->valuestring)           ? host->valu
 725:SynaptiX_FDK/app/app.c ****         log_info("AppCfg", "MQTT port     : %d", port                                  ? port->valu
 726:SynaptiX_FDK/app/app.c ****         log_info("AppCfg", "MQTT client_id: %s", (client_id && client_id->valuestring) ? client_id-
 727:SynaptiX_FDK/app/app.c ****         log_info("AppCfg", "MQTT user     : %s", (user && user->valuestring)            ? user->val
 728:SynaptiX_FDK/app/app.c ****         log_info("AppCfg", "MQTT pass     : %s", (pass && pass->valuestring)            ? pass->val
 729:SynaptiX_FDK/app/app.c **** 
 730:SynaptiX_FDK/app/app.c ****         if (host && host->valuestring) {
 731:SynaptiX_FDK/app/app.c ****             strncpy(config_json.s_mqtt_host, host->valuestring, sizeof(config_json.s_mqtt_host) - 1
 732:SynaptiX_FDK/app/app.c ****             s_mqtt_cfg.broker = config_json.s_mqtt_host;
 733:SynaptiX_FDK/app/app.c ****         }
 734:SynaptiX_FDK/app/app.c ****         if (port) {
 735:SynaptiX_FDK/app/app.c ****             s_mqtt_cfg.port = (uint16_t)port->valueint;
 736:SynaptiX_FDK/app/app.c ****         }
 737:SynaptiX_FDK/app/app.c ****         if (client_id && client_id->valuestring) {
 738:SynaptiX_FDK/app/app.c ****             strncpy(config_json.s_mqtt_client_id, client_id->valuestring, sizeof(config_json.s_mqtt
 739:SynaptiX_FDK/app/app.c ****             s_mqtt_cfg.client_id = config_json.s_mqtt_client_id;
 740:SynaptiX_FDK/app/app.c ****         }
 741:SynaptiX_FDK/app/app.c ****         if (user && user->valuestring) {
 742:SynaptiX_FDK/app/app.c ****             strncpy(config_json.s_mqtt_user, user->valuestring, sizeof(config_json.s_mqtt_user) - 1
 743:SynaptiX_FDK/app/app.c ****             s_mqtt_cfg.username = config_json.s_mqtt_user;
 744:SynaptiX_FDK/app/app.c ****         }
 745:SynaptiX_FDK/app/app.c ****         if (pass && pass->valuestring) {
 746:SynaptiX_FDK/app/app.c ****             strncpy(config_json.s_mqtt_pass, pass->valuestring, sizeof(config_json.s_mqtt_pass) - 1
 747:SynaptiX_FDK/app/app.c ****             s_mqtt_cfg.password = config_json.s_mqtt_pass;
 748:SynaptiX_FDK/app/app.c ****         }
 749:SynaptiX_FDK/app/app.c ****     } else {
 750:SynaptiX_FDK/app/app.c ****         log_warn("AppCfg", "No 'mqtt' field in config — using default MQTT config");
 751:SynaptiX_FDK/app/app.c ****     }
 752:SynaptiX_FDK/app/app.c **** 
 753:SynaptiX_FDK/app/app.c ****     /* 7. time_sleeps  */
 754:SynaptiX_FDK/app/app.c ****     cJSON *sleep_t = cJSON_GetObjectItem(root, "time_sleeps");
 755:SynaptiX_FDK/app/app.c ****     if (sleep_t && cJSON_IsNumber(sleep_t) && sleep_t->valueint > 0) {
 756:SynaptiX_FDK/app/app.c ****         config_json.time_sleep_ms = (uint32_t)sleep_t->valueint * 1000U;
 757:SynaptiX_FDK/app/app.c ****         log_info("AppCfg", "time_sleeps loaded: %lu ms", config_json.time_sleep_ms);
 758:SynaptiX_FDK/app/app.c ****     } else {
 759:SynaptiX_FDK/app/app.c ****         log_warn("AppCfg", "No valid 'time_sleeps' — using default %lu ms",
 760:SynaptiX_FDK/app/app.c ****                 config_json.time_sleep_ms);
 761:SynaptiX_FDK/app/app.c ****     }
 762:SynaptiX_FDK/app/app.c **** 
 763:SynaptiX_FDK/app/app.c ****     /* 8. Device ID */
 764:SynaptiX_FDK/app/app.c ****     cJSON *device_t = cJSON_GetObjectItem(root, "device_id");
 765:SynaptiX_FDK/app/app.c ****     log_info("AppCfg", "Device ID     : %s", (device_t && device_t->valuestring) ? device_t->values
 766:SynaptiX_FDK/app/app.c ****     if (device_t && device_t->valuestring) {
 767:SynaptiX_FDK/app/app.c ****         strncpy(config_json.s_device_name, device_t->valuestring, sizeof(config_json.s_device_name)
 768:SynaptiX_FDK/app/app.c ****         strncpy(g_app.device_name, config_json.s_device_name, sizeof(g_app.device_name) - 1);
 769:SynaptiX_FDK/app/app.c ****     }
 770:SynaptiX_FDK/app/app.c **** 
 771:SynaptiX_FDK/app/app.c ****     cJSON *time_pub_t = cJSON_GetObjectItem(root, "time_publish");
 772:SynaptiX_FDK/app/app.c ****     if (time_pub_t && cJSON_IsNumber(time_pub_t) && time_pub_t->valueint > 0) {
 773:SynaptiX_FDK/app/app.c ****         config_json.s_time_publish = (uint32_t)time_pub_t->valueint * 1000U;
 774:SynaptiX_FDK/app/app.c ****         log_info("AppCfg", "time_publish loaded: %lu ms", config_json.s_time_publish);
 775:SynaptiX_FDK/app/app.c ****     } else {
 776:SynaptiX_FDK/app/app.c ****         log_warn("AppCfg", "No valid 'time_publish' — using default %lu ms",
ARM GAS  C:\Users\LENOVO\AppData\Local\Temp\ccWRq5sC.s 			page 28


 777:SynaptiX_FDK/app/app.c ****                 config_json.s_time_publish);
 778:SynaptiX_FDK/app/app.c ****     }
 779:SynaptiX_FDK/app/app.c **** 
 780:SynaptiX_FDK/app/app.c ****     cJSON_Delete(root);
 781:SynaptiX_FDK/app/app.c ****     log_info("AppCfg", "Config loaded OK");
 782:SynaptiX_FDK/app/app.c ****     
 783:SynaptiX_FDK/app/app.c ****     /*
 784:SynaptiX_FDK/app/app.c ****     Crete a default config file if it doesn't exist, or if parsing failed. This is optional and can
 785:SynaptiX_FDK/app/app.c ****     create_default_config_file:
 786:SynaptiX_FDK/app/app.c ****         // Create a JSON object with default config values
 787:SynaptiX_FDK/app/app.c ****         // goto application init again to read the newly created config file
 788:SynaptiX_FDK/app/app.c ****     */
 789:SynaptiX_FDK/app/app.c **** }
 581              		.loc 1 789 1 is_stmt 0 view .LVU90
 582 0068 48B0     		add	sp, sp, #288
 583              	.LCFI9:
 584              		.cfi_remember_state
 585              		.cfi_def_cfa_offset 32
 586              		@ sp needed
 587 006a BDE8F087 		pop	{r4, r5, r6, r7, r8, r9, r10, pc}
 588              	.LVL29:
 589              	.L76:
 590              	.LCFI10:
 591              		.cfi_restore_state
 666:SynaptiX_FDK/app/app.c ****         _apply_default_config(&s_mqtt_cfg);
 592              		.loc 1 666 9 is_stmt 1 view .LVU91
 593 006e 944A     		ldr	r2, .L85+28
 594 0070 8E49     		ldr	r1, .L85+8
 595 0072 0220     		movs	r0, #2
 596              	.LVL30:
 666:SynaptiX_FDK/app/app.c ****         _apply_default_config(&s_mqtt_cfg);
 597              		.loc 1 666 9 is_stmt 0 view .LVU92
 598 0074 FFF7FEFF 		bl	log_func
 599              	.LVL31:
 667:SynaptiX_FDK/app/app.c ****         return;
 600              		.loc 1 667 9 is_stmt 1 view .LVU93
 601 0078 8F48     		ldr	r0, .L85+20
 602 007a FFF7FEFF 		bl	_apply_default_config
 603              	.LVL32:
 668:SynaptiX_FDK/app/app.c ****     }
 604              		.loc 1 668 9 view .LVU94
 605 007e F3E7     		b	.L33
 606              	.LVL33:
 607              	.L38:
 685:SynaptiX_FDK/app/app.c ****     log_info("AppCfg", "cfg.json content: %s", (char *)config_json.s_cfg_buf);
 608              		.loc 1 685 5 view .LVU95
 685:SynaptiX_FDK/app/app.c ****     log_info("AppCfg", "cfg.json content: %s", (char *)config_json.s_cfg_buf);
 609              		.loc 1 685 36 is_stmt 0 view .LVU96
 610 0080 8B4D     		ldr	r5, .L85+12
 611 0082 0023     		movs	r3, #0
 612 0084 AB54     		strb	r3, [r5, r2]
 686:SynaptiX_FDK/app/app.c **** 
 613              		.loc 1 686 5 is_stmt 1 view .LVU97
 614 0086 2B46     		mov	r3, r5
 615 0088 8E4A     		ldr	r2, .L85+32
 616 008a 8849     		ldr	r1, .L85+8
 617 008c 0320     		movs	r0, #3
ARM GAS  C:\Users\LENOVO\AppData\Local\Temp\ccWRq5sC.s 			page 29


 618              	.LVL34:
 686:SynaptiX_FDK/app/app.c **** 
 619              		.loc 1 686 5 is_stmt 0 view .LVU98
 620 008e FFF7FEFF 		bl	log_func
 621              	.LVL35:
 689:SynaptiX_FDK/app/app.c ****     if (root == NULL) {
 622              		.loc 1 689 5 is_stmt 1 view .LVU99
 689:SynaptiX_FDK/app/app.c ****     if (root == NULL) {
 623              		.loc 1 689 19 is_stmt 0 view .LVU100
 624 0092 2846     		mov	r0, r5
 625 0094 FFF7FEFF 		bl	cJSON_Parse
 626              	.LVL36:
 690:SynaptiX_FDK/app/app.c ****         log_error("AppCfg", "JSON parse failed — using default config");
 627              		.loc 1 690 5 is_stmt 1 view .LVU101
 690:SynaptiX_FDK/app/app.c ****         log_error("AppCfg", "JSON parse failed — using default config");
 628              		.loc 1 690 8 is_stmt 0 view .LVU102
 629 0098 0546     		mov	r5, r0
 630 009a D0B1     		cbz	r0, .L77
 697:SynaptiX_FDK/app/app.c ****     if (apn) {
 631              		.loc 1 697 5 is_stmt 1 view .LVU103
 697:SynaptiX_FDK/app/app.c ****     if (apn) {
 632              		.loc 1 697 18 is_stmt 0 view .LVU104
 633 009c 8A49     		ldr	r1, .L85+36
 634 009e FFF7FEFF 		bl	cJSON_GetObjectItem
 635              	.LVL37:
 698:SynaptiX_FDK/app/app.c ****         cJSON *name = cJSON_GetObjectItem(apn, "name");
 636              		.loc 1 698 5 is_stmt 1 view .LVU105
 698:SynaptiX_FDK/app/app.c ****         cJSON *name = cJSON_GetObjectItem(apn, "name");
 637              		.loc 1 698 8 is_stmt 0 view .LVU106
 638 00a2 0746     		mov	r7, r0
 639 00a4 0028     		cmp	r0, #0
 640 00a6 58D0     		beq	.L40
 641              	.LBB25:
 699:SynaptiX_FDK/app/app.c ****         cJSON *user = cJSON_GetObjectItem(apn, "user");
 642              		.loc 1 699 9 is_stmt 1 view .LVU107
 699:SynaptiX_FDK/app/app.c ****         cJSON *user = cJSON_GetObjectItem(apn, "user");
 643              		.loc 1 699 23 is_stmt 0 view .LVU108
 644 00a8 8849     		ldr	r1, .L85+40
 645 00aa FFF7FEFF 		bl	cJSON_GetObjectItem
 646              	.LVL38:
 699:SynaptiX_FDK/app/app.c ****         cJSON *user = cJSON_GetObjectItem(apn, "user");
 647              		.loc 1 699 23 view .LVU109
 648 00ae 0646     		mov	r6, r0
 649              	.LVL39:
 700:SynaptiX_FDK/app/app.c ****         cJSON *pass = cJSON_GetObjectItem(apn, "password");
 650              		.loc 1 700 9 is_stmt 1 view .LVU110
 700:SynaptiX_FDK/app/app.c ****         cJSON *pass = cJSON_GetObjectItem(apn, "password");
 651              		.loc 1 700 23 is_stmt 0 view .LVU111
 652 00b0 8749     		ldr	r1, .L85+44
 653 00b2 3846     		mov	r0, r7
 654              	.LVL40:
 700:SynaptiX_FDK/app/app.c ****         cJSON *pass = cJSON_GetObjectItem(apn, "password");
 655              		.loc 1 700 23 view .LVU112
 656 00b4 FFF7FEFF 		bl	cJSON_GetObjectItem
 657              	.LVL41:
 658 00b8 8046     		mov	r8, r0
 659              	.LVL42:
ARM GAS  C:\Users\LENOVO\AppData\Local\Temp\ccWRq5sC.s 			page 30


 701:SynaptiX_FDK/app/app.c **** 
 660              		.loc 1 701 9 is_stmt 1 view .LVU113
 701:SynaptiX_FDK/app/app.c **** 
 661              		.loc 1 701 23 is_stmt 0 view .LVU114
 662 00ba 8649     		ldr	r1, .L85+48
 663 00bc 3846     		mov	r0, r7
 664              	.LVL43:
 701:SynaptiX_FDK/app/app.c **** 
 665              		.loc 1 701 23 view .LVU115
 666 00be FFF7FEFF 		bl	cJSON_GetObjectItem
 667              	.LVL44:
 668 00c2 0746     		mov	r7, r0
 669              	.LVL45:
 703:SynaptiX_FDK/app/app.c ****         log_info("AppCfg", "APN user    : %s", (!user || cJSON_IsNull(user))   ? "NULL" : user->val
 670              		.loc 1 703 9 is_stmt 1 view .LVU116
 671 00c4 76B1     		cbz	r6, .L63
 703:SynaptiX_FDK/app/app.c ****         log_info("AppCfg", "APN user    : %s", (!user || cJSON_IsNull(user))   ? "NULL" : user->val
 672              		.loc 1 703 9 is_stmt 0 discriminator 1 view .LVU117
 673 00c6 3046     		mov	r0, r6
 674              	.LVL46:
 703:SynaptiX_FDK/app/app.c ****         log_info("AppCfg", "APN user    : %s", (!user || cJSON_IsNull(user))   ? "NULL" : user->val
 675              		.loc 1 703 9 discriminator 1 view .LVU118
 676 00c8 FFF7FEFF 		bl	cJSON_IsNull
 677              	.LVL47:
 678 00cc D0B9     		cbnz	r0, .L64
 703:SynaptiX_FDK/app/app.c ****         log_info("AppCfg", "APN user    : %s", (!user || cJSON_IsNull(user))   ? "NULL" : user->val
 679              		.loc 1 703 9 discriminator 3 view .LVU119
 680 00ce 3369     		ldr	r3, [r6, #16]
 703:SynaptiX_FDK/app/app.c ****         log_info("AppCfg", "APN user    : %s", (!user || cJSON_IsNull(user))   ? "NULL" : user->val
 681              		.loc 1 703 9 view .LVU120
 682 00d0 09E0     		b	.L41
 683              	.LVL48:
 684              	.L77:
 703:SynaptiX_FDK/app/app.c ****         log_info("AppCfg", "APN user    : %s", (!user || cJSON_IsNull(user))   ? "NULL" : user->val
 685              		.loc 1 703 9 view .LVU121
 686              	.LBE25:
 691:SynaptiX_FDK/app/app.c ****         _apply_default_config(&s_mqtt_cfg);
 687              		.loc 1 691 9 is_stmt 1 view .LVU122
 688 00d2 814A     		ldr	r2, .L85+52
 689 00d4 7549     		ldr	r1, .L85+8
 690 00d6 0120     		movs	r0, #1
 691              	.LVL49:
 691:SynaptiX_FDK/app/app.c ****         _apply_default_config(&s_mqtt_cfg);
 692              		.loc 1 691 9 is_stmt 0 view .LVU123
 693 00d8 FFF7FEFF 		bl	log_func
 694              	.LVL50:
 692:SynaptiX_FDK/app/app.c ****         return;
 695              		.loc 1 692 9 is_stmt 1 view .LVU124
 696 00dc 7648     		ldr	r0, .L85+20
 697 00de FFF7FEFF 		bl	_apply_default_config
 698              	.LVL51:
 693:SynaptiX_FDK/app/app.c ****     }
 699              		.loc 1 693 9 view .LVU125
 700 00e2 C1E7     		b	.L33
 701              	.LVL52:
 702              	.L63:
 703              	.LBB26:
ARM GAS  C:\Users\LENOVO\AppData\Local\Temp\ccWRq5sC.s 			page 31


 703:SynaptiX_FDK/app/app.c ****         log_info("AppCfg", "APN user    : %s", (!user || cJSON_IsNull(user))   ? "NULL" : user->val
 704              		.loc 1 703 9 is_stmt 0 discriminator 4 view .LVU126
 705 00e4 7D4B     		ldr	r3, .L85+56
 706              	.LVL53:
 707              	.L41:
 703:SynaptiX_FDK/app/app.c ****         log_info("AppCfg", "APN user    : %s", (!user || cJSON_IsNull(user))   ? "NULL" : user->val
 708              		.loc 1 703 9 discriminator 6 view .LVU127
 709 00e6 7E4A     		ldr	r2, .L85+60
 710 00e8 7049     		ldr	r1, .L85+8
 711 00ea 0320     		movs	r0, #3
 712 00ec FFF7FEFF 		bl	log_func
 713              	.LVL54:
 704:SynaptiX_FDK/app/app.c ****         log_info("AppCfg", "APN pass    : %s", (!pass || cJSON_IsNull(pass))   ? "NULL" : pass->val
 714              		.loc 1 704 9 is_stmt 1 view .LVU128
 715 00f0 B8F1000F 		cmp	r8, #0
 716 00f4 08D0     		beq	.L65
 704:SynaptiX_FDK/app/app.c ****         log_info("AppCfg", "APN pass    : %s", (!pass || cJSON_IsNull(pass))   ? "NULL" : pass->val
 717              		.loc 1 704 9 is_stmt 0 discriminator 1 view .LVU129
 718 00f6 4046     		mov	r0, r8
 719 00f8 FFF7FEFF 		bl	cJSON_IsNull
 720              	.LVL55:
 721 00fc 88B9     		cbnz	r0, .L66
 704:SynaptiX_FDK/app/app.c ****         log_info("AppCfg", "APN pass    : %s", (!pass || cJSON_IsNull(pass))   ? "NULL" : pass->val
 722              		.loc 1 704 9 discriminator 3 view .LVU130
 723 00fe D8F81030 		ldr	r3, [r8, #16]
 704:SynaptiX_FDK/app/app.c ****         log_info("AppCfg", "APN pass    : %s", (!pass || cJSON_IsNull(pass))   ? "NULL" : pass->val
 724              		.loc 1 704 9 view .LVU131
 725 0102 02E0     		b	.L42
 726              	.L64:
 703:SynaptiX_FDK/app/app.c ****         log_info("AppCfg", "APN user    : %s", (!user || cJSON_IsNull(user))   ? "NULL" : user->val
 727              		.loc 1 703 9 discriminator 4 view .LVU132
 728 0104 754B     		ldr	r3, .L85+56
 729 0106 EEE7     		b	.L41
 730              	.L65:
 704:SynaptiX_FDK/app/app.c ****         log_info("AppCfg", "APN pass    : %s", (!pass || cJSON_IsNull(pass))   ? "NULL" : pass->val
 731              		.loc 1 704 9 discriminator 4 view .LVU133
 732 0108 744B     		ldr	r3, .L85+56
 733              	.L42:
 704:SynaptiX_FDK/app/app.c ****         log_info("AppCfg", "APN pass    : %s", (!pass || cJSON_IsNull(pass))   ? "NULL" : pass->val
 734              		.loc 1 704 9 discriminator 6 view .LVU134
 735 010a 764A     		ldr	r2, .L85+64
 736 010c 6749     		ldr	r1, .L85+8
 737 010e 0320     		movs	r0, #3
 738 0110 FFF7FEFF 		bl	log_func
 739              	.LVL56:
 705:SynaptiX_FDK/app/app.c **** 
 740              		.loc 1 705 9 is_stmt 1 view .LVU135
 741 0114 3FB1     		cbz	r7, .L67
 705:SynaptiX_FDK/app/app.c **** 
 742              		.loc 1 705 9 is_stmt 0 discriminator 1 view .LVU136
 743 0116 3846     		mov	r0, r7
 744 0118 FFF7FEFF 		bl	cJSON_IsNull
 745              	.LVL57:
 746 011c D8B9     		cbnz	r0, .L68
 705:SynaptiX_FDK/app/app.c **** 
 747              		.loc 1 705 9 discriminator 3 view .LVU137
 748 011e 3B69     		ldr	r3, [r7, #16]
ARM GAS  C:\Users\LENOVO\AppData\Local\Temp\ccWRq5sC.s 			page 32


 705:SynaptiX_FDK/app/app.c **** 
 749              		.loc 1 705 9 view .LVU138
 750 0120 02E0     		b	.L43
 751              	.L66:
 704:SynaptiX_FDK/app/app.c ****         log_info("AppCfg", "APN pass    : %s", (!pass || cJSON_IsNull(pass))   ? "NULL" : pass->val
 752              		.loc 1 704 9 discriminator 4 view .LVU139
 753 0122 6E4B     		ldr	r3, .L85+56
 754 0124 F1E7     		b	.L42
 755              	.L67:
 705:SynaptiX_FDK/app/app.c **** 
 756              		.loc 1 705 9 discriminator 4 view .LVU140
 757 0126 6D4B     		ldr	r3, .L85+56
 758              	.L43:
 705:SynaptiX_FDK/app/app.c **** 
 759              		.loc 1 705 9 discriminator 6 view .LVU141
 760 0128 6F4A     		ldr	r2, .L85+68
 761 012a 6049     		ldr	r1, .L85+8
 762 012c 0320     		movs	r0, #3
 763 012e FFF7FEFF 		bl	log_func
 764              	.LVL58:
 707:SynaptiX_FDK/app/app.c ****             strncpy(config_json.s_apn_name, name->valuestring, sizeof(config_json.s_apn_name) - 1);
 765              		.loc 1 707 9 is_stmt 1 view .LVU142
 707:SynaptiX_FDK/app/app.c ****             strncpy(config_json.s_apn_name, name->valuestring, sizeof(config_json.s_apn_name) - 1);
 766              		.loc 1 707 12 is_stmt 0 view .LVU143
 767 0132 BEB1     		cbz	r6, .L44
 707:SynaptiX_FDK/app/app.c ****             strncpy(config_json.s_apn_name, name->valuestring, sizeof(config_json.s_apn_name) - 1);
 768              		.loc 1 707 22 discriminator 1 view .LVU144
 769 0134 3046     		mov	r0, r6
 770 0136 FFF7FEFF 		bl	cJSON_IsNull
 771              	.LVL59:
 707:SynaptiX_FDK/app/app.c ****             strncpy(config_json.s_apn_name, name->valuestring, sizeof(config_json.s_apn_name) - 1);
 772              		.loc 1 707 18 discriminator 1 view .LVU145
 773 013a 98B9     		cbnz	r0, .L44
 707:SynaptiX_FDK/app/app.c ****             strncpy(config_json.s_apn_name, name->valuestring, sizeof(config_json.s_apn_name) - 1);
 774              		.loc 1 707 48 discriminator 2 view .LVU146
 775 013c 3169     		ldr	r1, [r6, #16]
 707:SynaptiX_FDK/app/app.c ****             strncpy(config_json.s_apn_name, name->valuestring, sizeof(config_json.s_apn_name) - 1);
 776              		.loc 1 707 41 discriminator 2 view .LVU147
 777 013e 89B1     		cbz	r1, .L44
 708:SynaptiX_FDK/app/app.c ****             strncpy(s_mqtt_cfg.apn, config_json.s_apn_name, sizeof(s_mqtt_cfg.apn) - 1);
 778              		.loc 1 708 13 is_stmt 1 view .LVU148
 779 0140 6A4E     		ldr	r6, .L85+72
 780              	.LVL60:
 708:SynaptiX_FDK/app/app.c ****             strncpy(s_mqtt_cfg.apn, config_json.s_apn_name, sizeof(s_mqtt_cfg.apn) - 1);
 781              		.loc 1 708 13 is_stmt 0 view .LVU149
 782 0142 1F22     		movs	r2, #31
 783 0144 3046     		mov	r0, r6
 784 0146 FFF7FEFF 		bl	strncpy
 785              	.LVL61:
 709:SynaptiX_FDK/app/app.c ****         }
 786              		.loc 1 709 13 is_stmt 1 view .LVU150
 787 014a 1322     		movs	r2, #19
 788 014c 3146     		mov	r1, r6
 789 014e 5A48     		ldr	r0, .L85+20
 790 0150 FFF7FEFF 		bl	strncpy
 791              	.LVL62:
 792 0154 06E0     		b	.L44
ARM GAS  C:\Users\LENOVO\AppData\Local\Temp\ccWRq5sC.s 			page 33


 793              	.LVL63:
 794              	.L68:
 705:SynaptiX_FDK/app/app.c **** 
 795              		.loc 1 705 9 is_stmt 0 discriminator 4 view .LVU151
 796 0156 614B     		ldr	r3, .L85+56
 797 0158 E6E7     		b	.L43
 798              	.LVL64:
 799              	.L40:
 705:SynaptiX_FDK/app/app.c **** 
 800              		.loc 1 705 9 discriminator 4 view .LVU152
 801              	.LBE26:
 712:SynaptiX_FDK/app/app.c ****     }
 802              		.loc 1 712 9 is_stmt 1 view .LVU153
 803 015a 654A     		ldr	r2, .L85+76
 804 015c 5349     		ldr	r1, .L85+8
 805 015e 0220     		movs	r0, #2
 806              	.LVL65:
 712:SynaptiX_FDK/app/app.c ****     }
 807              		.loc 1 712 9 is_stmt 0 view .LVU154
 808 0160 FFF7FEFF 		bl	log_func
 809              	.LVL66:
 810              	.L44:
 716:SynaptiX_FDK/app/app.c ****     if (mqtt) {
 811              		.loc 1 716 5 is_stmt 1 view .LVU155
 716:SynaptiX_FDK/app/app.c ****     if (mqtt) {
 812              		.loc 1 716 19 is_stmt 0 view .LVU156
 813 0164 6349     		ldr	r1, .L85+80
 814 0166 2846     		mov	r0, r5
 815 0168 FFF7FEFF 		bl	cJSON_GetObjectItem
 816              	.LVL67:
 717:SynaptiX_FDK/app/app.c ****         cJSON *host      = cJSON_GetObjectItem(mqtt, "host");
 817              		.loc 1 717 5 is_stmt 1 view .LVU157
 717:SynaptiX_FDK/app/app.c ****         cJSON *host      = cJSON_GetObjectItem(mqtt, "host");
 818              		.loc 1 717 8 is_stmt 0 view .LVU158
 819 016c 0646     		mov	r6, r0
 820 016e 0028     		cmp	r0, #0
 821 0170 00F0DE80 		beq	.L45
 822              	.LBB27:
 718:SynaptiX_FDK/app/app.c ****         cJSON *port      = cJSON_GetObjectItem(mqtt, "port");
 823              		.loc 1 718 9 is_stmt 1 view .LVU159
 718:SynaptiX_FDK/app/app.c ****         cJSON *port      = cJSON_GetObjectItem(mqtt, "port");
 824              		.loc 1 718 28 is_stmt 0 view .LVU160
 825 0174 6049     		ldr	r1, .L85+84
 826 0176 FFF7FEFF 		bl	cJSON_GetObjectItem
 827              	.LVL68:
 718:SynaptiX_FDK/app/app.c ****         cJSON *port      = cJSON_GetObjectItem(mqtt, "port");
 828              		.loc 1 718 28 view .LVU161
 829 017a 8246     		mov	r10, r0
 830              	.LVL69:
 719:SynaptiX_FDK/app/app.c ****         cJSON *client_id = cJSON_GetObjectItem(mqtt, "client_id");
 831              		.loc 1 719 9 is_stmt 1 view .LVU162
 719:SynaptiX_FDK/app/app.c ****         cJSON *client_id = cJSON_GetObjectItem(mqtt, "client_id");
 832              		.loc 1 719 28 is_stmt 0 view .LVU163
 833 017c 5F49     		ldr	r1, .L85+88
 834 017e 3046     		mov	r0, r6
 835              	.LVL70:
 719:SynaptiX_FDK/app/app.c ****         cJSON *client_id = cJSON_GetObjectItem(mqtt, "client_id");
ARM GAS  C:\Users\LENOVO\AppData\Local\Temp\ccWRq5sC.s 			page 34


 836              		.loc 1 719 28 view .LVU164
 837 0180 FFF7FEFF 		bl	cJSON_GetObjectItem
 838              	.LVL71:
 839 0184 8146     		mov	r9, r0
 840              	.LVL72:
 720:SynaptiX_FDK/app/app.c ****         cJSON *user      = cJSON_GetObjectItem(mqtt, "user_name");
 841              		.loc 1 720 9 is_stmt 1 view .LVU165
 720:SynaptiX_FDK/app/app.c ****         cJSON *user      = cJSON_GetObjectItem(mqtt, "user_name");
 842              		.loc 1 720 28 is_stmt 0 view .LVU166
 843 0186 5E49     		ldr	r1, .L85+92
 844 0188 3046     		mov	r0, r6
 845              	.LVL73:
 720:SynaptiX_FDK/app/app.c ****         cJSON *user      = cJSON_GetObjectItem(mqtt, "user_name");
 846              		.loc 1 720 28 view .LVU167
 847 018a FFF7FEFF 		bl	cJSON_GetObjectItem
 848              	.LVL74:
 849 018e 8046     		mov	r8, r0
 850              	.LVL75:
 721:SynaptiX_FDK/app/app.c ****         cJSON *pass      = cJSON_GetObjectItem(mqtt, "password");
 851              		.loc 1 721 9 is_stmt 1 view .LVU168
 721:SynaptiX_FDK/app/app.c ****         cJSON *pass      = cJSON_GetObjectItem(mqtt, "password");
 852              		.loc 1 721 28 is_stmt 0 view .LVU169
 853 0190 5C49     		ldr	r1, .L85+96
 854 0192 3046     		mov	r0, r6
 855              	.LVL76:
 721:SynaptiX_FDK/app/app.c ****         cJSON *pass      = cJSON_GetObjectItem(mqtt, "password");
 856              		.loc 1 721 28 view .LVU170
 857 0194 FFF7FEFF 		bl	cJSON_GetObjectItem
 858              	.LVL77:
 859 0198 0746     		mov	r7, r0
 860              	.LVL78:
 722:SynaptiX_FDK/app/app.c **** 
 861              		.loc 1 722 9 is_stmt 1 view .LVU171
 722:SynaptiX_FDK/app/app.c **** 
 862              		.loc 1 722 28 is_stmt 0 view .LVU172
 863 019a 4E49     		ldr	r1, .L85+48
 864 019c 3046     		mov	r0, r6
 865              	.LVL79:
 722:SynaptiX_FDK/app/app.c **** 
 866              		.loc 1 722 28 view .LVU173
 867 019e FFF7FEFF 		bl	cJSON_GetObjectItem
 868              	.LVL80:
 869 01a2 0646     		mov	r6, r0
 870              	.LVL81:
 724:SynaptiX_FDK/app/app.c ****         log_info("AppCfg", "MQTT port     : %d", port                                  ? port->valu
 871              		.loc 1 724 9 is_stmt 1 view .LVU174
 872 01a4 BAF1000F 		cmp	r10, #0
 873 01a8 6FD0     		beq	.L69
 724:SynaptiX_FDK/app/app.c ****         log_info("AppCfg", "MQTT port     : %d", port                                  ? port->valu
 874              		.loc 1 724 9 is_stmt 0 discriminator 1 view .LVU175
 875 01aa DAF81030 		ldr	r3, [r10, #16]
 876 01ae 002B     		cmp	r3, #0
 877 01b0 69D0     		beq	.L78
 878              	.L46:
 724:SynaptiX_FDK/app/app.c ****         log_info("AppCfg", "MQTT port     : %d", port                                  ? port->valu
 879              		.loc 1 724 9 discriminator 6 view .LVU176
 880 01b2 554A     		ldr	r2, .L85+100
ARM GAS  C:\Users\LENOVO\AppData\Local\Temp\ccWRq5sC.s 			page 35


 881 01b4 3D49     		ldr	r1, .L85+8
 882 01b6 0320     		movs	r0, #3
 883              	.LVL82:
 724:SynaptiX_FDK/app/app.c ****         log_info("AppCfg", "MQTT port     : %d", port                                  ? port->valu
 884              		.loc 1 724 9 discriminator 6 view .LVU177
 885 01b8 FFF7FEFF 		bl	log_func
 886              	.LVL83:
 725:SynaptiX_FDK/app/app.c ****         log_info("AppCfg", "MQTT client_id: %s", (client_id && client_id->valuestring) ? client_id-
 887              		.loc 1 725 9 is_stmt 1 view .LVU178
 888 01bc B9F1000F 		cmp	r9, #0
 889 01c0 01D0     		beq	.L47
 725:SynaptiX_FDK/app/app.c ****         log_info("AppCfg", "MQTT client_id: %s", (client_id && client_id->valuestring) ? client_id-
 890              		.loc 1 725 9 is_stmt 0 discriminator 1 view .LVU179
 891 01c2 D9F81440 		ldr	r4, [r9, #20]
 892              	.LVL84:
 893              	.L47:
 725:SynaptiX_FDK/app/app.c ****         log_info("AppCfg", "MQTT client_id: %s", (client_id && client_id->valuestring) ? client_id-
 894              		.loc 1 725 9 discriminator 4 view .LVU180
 895 01c6 2346     		mov	r3, r4
 896 01c8 504A     		ldr	r2, .L85+104
 897 01ca 3849     		ldr	r1, .L85+8
 898 01cc 0320     		movs	r0, #3
 899 01ce FFF7FEFF 		bl	log_func
 900              	.LVL85:
 726:SynaptiX_FDK/app/app.c ****         log_info("AppCfg", "MQTT user     : %s", (user && user->valuestring)            ? user->val
 901              		.loc 1 726 9 is_stmt 1 view .LVU181
 902 01d2 B8F1000F 		cmp	r8, #0
 903 01d6 5CD0     		beq	.L70
 726:SynaptiX_FDK/app/app.c ****         log_info("AppCfg", "MQTT user     : %s", (user && user->valuestring)            ? user->val
 904              		.loc 1 726 9 is_stmt 0 discriminator 1 view .LVU182
 905 01d8 D8F81030 		ldr	r3, [r8, #16]
 906 01dc 002B     		cmp	r3, #0
 907 01de 56D0     		beq	.L79
 908              	.L48:
 726:SynaptiX_FDK/app/app.c ****         log_info("AppCfg", "MQTT user     : %s", (user && user->valuestring)            ? user->val
 909              		.loc 1 726 9 discriminator 6 view .LVU183
 910 01e0 4B4A     		ldr	r2, .L85+108
 911 01e2 3249     		ldr	r1, .L85+8
 912 01e4 0320     		movs	r0, #3
 913 01e6 FFF7FEFF 		bl	log_func
 914              	.LVL86:
 727:SynaptiX_FDK/app/app.c ****         log_info("AppCfg", "MQTT pass     : %s", (pass && pass->valuestring)            ? pass->val
 915              		.loc 1 727 9 is_stmt 1 view .LVU184
 916 01ea 002F     		cmp	r7, #0
 917 01ec 55D0     		beq	.L71
 727:SynaptiX_FDK/app/app.c ****         log_info("AppCfg", "MQTT pass     : %s", (pass && pass->valuestring)            ? pass->val
 918              		.loc 1 727 9 is_stmt 0 discriminator 1 view .LVU185
 919 01ee 3B69     		ldr	r3, [r7, #16]
 920 01f0 002B     		cmp	r3, #0
 921 01f2 50D0     		beq	.L80
 922              	.L49:
 727:SynaptiX_FDK/app/app.c ****         log_info("AppCfg", "MQTT pass     : %s", (pass && pass->valuestring)            ? pass->val
 923              		.loc 1 727 9 discriminator 6 view .LVU186
 924 01f4 474A     		ldr	r2, .L85+112
 925 01f6 2D49     		ldr	r1, .L85+8
 926 01f8 0320     		movs	r0, #3
 927 01fa FFF7FEFF 		bl	log_func
ARM GAS  C:\Users\LENOVO\AppData\Local\Temp\ccWRq5sC.s 			page 36


 928              	.LVL87:
 728:SynaptiX_FDK/app/app.c **** 
 929              		.loc 1 728 9 is_stmt 1 view .LVU187
 930 01fe 002E     		cmp	r6, #0
 931 0200 00F09480 		beq	.L72
 728:SynaptiX_FDK/app/app.c **** 
 932              		.loc 1 728 9 is_stmt 0 discriminator 1 view .LVU188
 933 0204 3369     		ldr	r3, [r6, #16]
 934 0206 002B     		cmp	r3, #0
 935 0208 49D0     		beq	.L81
 936              	.L50:
 728:SynaptiX_FDK/app/app.c **** 
 937              		.loc 1 728 9 discriminator 6 view .LVU189
 938 020a 434A     		ldr	r2, .L85+116
 939 020c 2749     		ldr	r1, .L85+8
 940 020e 0320     		movs	r0, #3
 941 0210 FFF7FEFF 		bl	log_func
 942              	.LVL88:
 730:SynaptiX_FDK/app/app.c ****             strncpy(config_json.s_mqtt_host, host->valuestring, sizeof(config_json.s_mqtt_host) - 1
 943              		.loc 1 730 9 is_stmt 1 view .LVU190
 730:SynaptiX_FDK/app/app.c ****             strncpy(config_json.s_mqtt_host, host->valuestring, sizeof(config_json.s_mqtt_host) - 1
 944              		.loc 1 730 12 is_stmt 0 view .LVU191
 945 0214 BAF1000F 		cmp	r10, #0
 946 0218 09D0     		beq	.L51
 730:SynaptiX_FDK/app/app.c ****             strncpy(config_json.s_mqtt_host, host->valuestring, sizeof(config_json.s_mqtt_host) - 1
 947              		.loc 1 730 25 discriminator 1 view .LVU192
 948 021a DAF81010 		ldr	r1, [r10, #16]
 730:SynaptiX_FDK/app/app.c ****             strncpy(config_json.s_mqtt_host, host->valuestring, sizeof(config_json.s_mqtt_host) - 1
 949              		.loc 1 730 18 discriminator 1 view .LVU193
 950 021e 31B1     		cbz	r1, .L51
 731:SynaptiX_FDK/app/app.c ****             s_mqtt_cfg.broker = config_json.s_mqtt_host;
 951              		.loc 1 731 13 is_stmt 1 view .LVU194
 952 0220 3E4C     		ldr	r4, .L85+120
 953 0222 3F22     		movs	r2, #63
 954 0224 2046     		mov	r0, r4
 955 0226 FFF7FEFF 		bl	strncpy
 956              	.LVL89:
 732:SynaptiX_FDK/app/app.c ****         }
 957              		.loc 1 732 13 view .LVU195
 732:SynaptiX_FDK/app/app.c ****         }
 958              		.loc 1 732 31 is_stmt 0 view .LVU196
 959 022a 234B     		ldr	r3, .L85+20
 960 022c DC63     		str	r4, [r3, #60]
 961              	.L51:
 734:SynaptiX_FDK/app/app.c ****             s_mqtt_cfg.port = (uint16_t)port->valueint;
 962              		.loc 1 734 9 is_stmt 1 view .LVU197
 734:SynaptiX_FDK/app/app.c ****             s_mqtt_cfg.port = (uint16_t)port->valueint;
 963              		.loc 1 734 12 is_stmt 0 view .LVU198
 964 022e B9F1000F 		cmp	r9, #0
 965 0232 04D0     		beq	.L52
 735:SynaptiX_FDK/app/app.c ****         }
 966              		.loc 1 735 13 is_stmt 1 view .LVU199
 735:SynaptiX_FDK/app/app.c ****         }
 967              		.loc 1 735 31 is_stmt 0 view .LVU200
 968 0234 B9F81420 		ldrh	r2, [r9, #20]
 735:SynaptiX_FDK/app/app.c ****         }
 969              		.loc 1 735 29 view .LVU201
ARM GAS  C:\Users\LENOVO\AppData\Local\Temp\ccWRq5sC.s 			page 37


 970 0238 1F4B     		ldr	r3, .L85+20
 971 023a A3F84020 		strh	r2, [r3, #64]	@ movhi
 972              	.L52:
 737:SynaptiX_FDK/app/app.c ****             strncpy(config_json.s_mqtt_client_id, client_id->valuestring, sizeof(config_json.s_mqtt
 973              		.loc 1 737 9 is_stmt 1 view .LVU202
 737:SynaptiX_FDK/app/app.c ****             strncpy(config_json.s_mqtt_client_id, client_id->valuestring, sizeof(config_json.s_mqtt
 974              		.loc 1 737 12 is_stmt 0 view .LVU203
 975 023e B8F1000F 		cmp	r8, #0
 976 0242 09D0     		beq	.L53
 737:SynaptiX_FDK/app/app.c ****             strncpy(config_json.s_mqtt_client_id, client_id->valuestring, sizeof(config_json.s_mqtt
 977              		.loc 1 737 35 discriminator 1 view .LVU204
 978 0244 D8F81010 		ldr	r1, [r8, #16]
 737:SynaptiX_FDK/app/app.c ****             strncpy(config_json.s_mqtt_client_id, client_id->valuestring, sizeof(config_json.s_mqtt
 979              		.loc 1 737 23 discriminator 1 view .LVU205
 980 0248 31B1     		cbz	r1, .L53
 738:SynaptiX_FDK/app/app.c ****             s_mqtt_cfg.client_id = config_json.s_mqtt_client_id;
 981              		.loc 1 738 13 is_stmt 1 view .LVU206
 982 024a 354C     		ldr	r4, .L85+124
 983 024c 3F22     		movs	r2, #63
 984 024e 2046     		mov	r0, r4
 985 0250 FFF7FEFF 		bl	strncpy
 986              	.LVL90:
 739:SynaptiX_FDK/app/app.c ****         }
 987              		.loc 1 739 13 view .LVU207
 739:SynaptiX_FDK/app/app.c ****         }
 988              		.loc 1 739 34 is_stmt 0 view .LVU208
 989 0254 184B     		ldr	r3, .L85+20
 990 0256 5C64     		str	r4, [r3, #68]
 991              	.L53:
 741:SynaptiX_FDK/app/app.c ****             strncpy(config_json.s_mqtt_user, user->valuestring, sizeof(config_json.s_mqtt_user) - 1
 992              		.loc 1 741 9 is_stmt 1 view .LVU209
 741:SynaptiX_FDK/app/app.c ****             strncpy(config_json.s_mqtt_user, user->valuestring, sizeof(config_json.s_mqtt_user) - 1
 993              		.loc 1 741 12 is_stmt 0 view .LVU210
 994 0258 47B1     		cbz	r7, .L54
 741:SynaptiX_FDK/app/app.c ****             strncpy(config_json.s_mqtt_user, user->valuestring, sizeof(config_json.s_mqtt_user) - 1
 995              		.loc 1 741 25 discriminator 1 view .LVU211
 996 025a 3969     		ldr	r1, [r7, #16]
 741:SynaptiX_FDK/app/app.c ****             strncpy(config_json.s_mqtt_user, user->valuestring, sizeof(config_json.s_mqtt_user) - 1
 997              		.loc 1 741 18 discriminator 1 view .LVU212
 998 025c 31B1     		cbz	r1, .L54
 742:SynaptiX_FDK/app/app.c ****             s_mqtt_cfg.username = config_json.s_mqtt_user;
 999              		.loc 1 742 13 is_stmt 1 view .LVU213
 1000 025e 314C     		ldr	r4, .L85+128
 1001 0260 1F22     		movs	r2, #31
 1002 0262 2046     		mov	r0, r4
 1003 0264 FFF7FEFF 		bl	strncpy
 1004              	.LVL91:
 743:SynaptiX_FDK/app/app.c ****         }
 1005              		.loc 1 743 13 view .LVU214
 743:SynaptiX_FDK/app/app.c ****         }
 1006              		.loc 1 743 33 is_stmt 0 view .LVU215
 1007 0268 134B     		ldr	r3, .L85+20
 1008 026a 9C64     		str	r4, [r3, #72]
 1009              	.L54:
 745:SynaptiX_FDK/app/app.c ****             strncpy(config_json.s_mqtt_pass, pass->valuestring, sizeof(config_json.s_mqtt_pass) - 1
 1010              		.loc 1 745 9 is_stmt 1 view .LVU216
 745:SynaptiX_FDK/app/app.c ****             strncpy(config_json.s_mqtt_pass, pass->valuestring, sizeof(config_json.s_mqtt_pass) - 1
ARM GAS  C:\Users\LENOVO\AppData\Local\Temp\ccWRq5sC.s 			page 38


 1011              		.loc 1 745 12 is_stmt 0 view .LVU217
 1012 026c 002E     		cmp	r6, #0
 1013 026e 64D0     		beq	.L55
 745:SynaptiX_FDK/app/app.c ****             strncpy(config_json.s_mqtt_pass, pass->valuestring, sizeof(config_json.s_mqtt_pass) - 1
 1014              		.loc 1 745 25 discriminator 1 view .LVU218
 1015 0270 3169     		ldr	r1, [r6, #16]
 745:SynaptiX_FDK/app/app.c ****             strncpy(config_json.s_mqtt_pass, pass->valuestring, sizeof(config_json.s_mqtt_pass) - 1
 1016              		.loc 1 745 18 discriminator 1 view .LVU219
 1017 0272 0029     		cmp	r1, #0
 1018 0274 61D0     		beq	.L55
 746:SynaptiX_FDK/app/app.c ****             s_mqtt_cfg.password = config_json.s_mqtt_pass;
 1019              		.loc 1 746 13 is_stmt 1 view .LVU220
 1020 0276 2C4C     		ldr	r4, .L85+132
 1021 0278 1F22     		movs	r2, #31
 1022 027a 2046     		mov	r0, r4
 1023 027c FFF7FEFF 		bl	strncpy
 1024              	.LVL92:
 747:SynaptiX_FDK/app/app.c ****         }
 1025              		.loc 1 747 13 view .LVU221
 747:SynaptiX_FDK/app/app.c ****         }
 1026              		.loc 1 747 33 is_stmt 0 view .LVU222
 1027 0280 0D4B     		ldr	r3, .L85+20
 1028 0282 DC64     		str	r4, [r3, #76]
 1029 0284 59E0     		b	.L55
 1030              	.LVL93:
 1031              	.L78:
 724:SynaptiX_FDK/app/app.c ****         log_info("AppCfg", "MQTT port     : %d", port                                  ? port->valu
 1032              		.loc 1 724 9 discriminator 4 view .LVU223
 1033 0286 154B     		ldr	r3, .L85+56
 1034 0288 93E7     		b	.L46
 1035              	.L69:
 1036 028a 144B     		ldr	r3, .L85+56
 1037 028c 91E7     		b	.L46
 1038              	.LVL94:
 1039              	.L79:
 726:SynaptiX_FDK/app/app.c ****         log_info("AppCfg", "MQTT user     : %s", (user && user->valuestring)            ? user->val
 1040              		.loc 1 726 9 discriminator 4 view .LVU224
 1041 028e 134B     		ldr	r3, .L85+56
 1042 0290 A6E7     		b	.L48
 1043              	.L70:
 726:SynaptiX_FDK/app/app.c ****         log_info("AppCfg", "MQTT user     : %s", (user && user->valuestring)            ? user->val
 1044              		.loc 1 726 9 discriminator 4 view .LVU225
 1045 0292 124B     		ldr	r3, .L85+56
 1046 0294 A4E7     		b	.L48
 1047              	.L80:
 727:SynaptiX_FDK/app/app.c ****         log_info("AppCfg", "MQTT pass     : %s", (pass && pass->valuestring)            ? pass->val
 1048              		.loc 1 727 9 discriminator 4 view .LVU226
 1049 0296 114B     		ldr	r3, .L85+56
 1050 0298 ACE7     		b	.L49
 1051              	.L71:
 727:SynaptiX_FDK/app/app.c ****         log_info("AppCfg", "MQTT pass     : %s", (pass && pass->valuestring)            ? pass->val
 1052              		.loc 1 727 9 discriminator 4 view .LVU227
 1053 029a 104B     		ldr	r3, .L85+56
 1054 029c AAE7     		b	.L49
 1055              	.L81:
 728:SynaptiX_FDK/app/app.c **** 
 1056              		.loc 1 728 9 discriminator 4 view .LVU228
ARM GAS  C:\Users\LENOVO\AppData\Local\Temp\ccWRq5sC.s 			page 39


 1057 029e 0F4B     		ldr	r3, .L85+56
 1058 02a0 B3E7     		b	.L50
 1059              	.L86:
 1060 02a2 00BF     		.align	2
 1061              	.L85:
 1062 02a4 3C000000 		.word	.LC12
 1063 02a8 88000000 		.word	.LC14
 1064 02ac 20000000 		.word	.LC9
 1065 02b0 00000000 		.word	config_json
 1066 02b4 AC000000 		.word	.LC15
 1067 02b8 00000000 		.word	s_mqtt_cfg
 1068 02bc 08000000 		.word	.LC11
 1069 02c0 4C000000 		.word	.LC13
 1070 02c4 E8000000 		.word	.LC16
 1071 02c8 2C010000 		.word	.LC18
 1072 02cc 30010000 		.word	.LC19
 1073 02d0 38010000 		.word	.LC20
 1074 02d4 40010000 		.word	.LC21
 1075 02d8 00010000 		.word	.LC17
 1076 02dc 00000000 		.word	.LC10
 1077 02e0 4C010000 		.word	.LC22
 1078 02e4 60010000 		.word	.LC23
 1079 02e8 74010000 		.word	.LC24
 1080 02ec C0020000 		.word	config_json+704
 1081 02f0 88010000 		.word	.LC25
 1082 02f4 A4010000 		.word	.LC26
 1083 02f8 AC010000 		.word	.LC27
 1084 02fc B4010000 		.word	.LC28
 1085 0300 BC010000 		.word	.LC29
 1086 0304 C8010000 		.word	.LC30
 1087 0308 D4010000 		.word	.LC31
 1088 030c E8010000 		.word	.LC32
 1089 0310 FC010000 		.word	.LC33
 1090 0314 10020000 		.word	.LC34
 1091 0318 24020000 		.word	.LC35
 1092 031c 00020000 		.word	config_json+512
 1093 0320 40020000 		.word	config_json+576
 1094 0324 80020000 		.word	config_json+640
 1095 0328 A0020000 		.word	config_json+672
 1096              	.L72:
 728:SynaptiX_FDK/app/app.c **** 
 1097              		.loc 1 728 9 discriminator 4 view .LVU229
 1098 032c 384B     		ldr	r3, .L87
 1099 032e 6CE7     		b	.L50
 1100              	.LVL95:
 1101              	.L45:
 728:SynaptiX_FDK/app/app.c **** 
 1102              		.loc 1 728 9 discriminator 4 view .LVU230
 1103              	.LBE27:
 750:SynaptiX_FDK/app/app.c ****     }
 1104              		.loc 1 750 9 is_stmt 1 view .LVU231
 1105 0330 384A     		ldr	r2, .L87+4
 1106 0332 3949     		ldr	r1, .L87+8
 1107 0334 0220     		movs	r0, #2
 1108              	.LVL96:
 750:SynaptiX_FDK/app/app.c ****     }
 1109              		.loc 1 750 9 is_stmt 0 view .LVU232
ARM GAS  C:\Users\LENOVO\AppData\Local\Temp\ccWRq5sC.s 			page 40


 1110 0336 FFF7FEFF 		bl	log_func
 1111              	.LVL97:
 1112              	.L55:
 754:SynaptiX_FDK/app/app.c ****     if (sleep_t && cJSON_IsNumber(sleep_t) && sleep_t->valueint > 0) {
 1113              		.loc 1 754 5 is_stmt 1 view .LVU233
 754:SynaptiX_FDK/app/app.c ****     if (sleep_t && cJSON_IsNumber(sleep_t) && sleep_t->valueint > 0) {
 1114              		.loc 1 754 22 is_stmt 0 view .LVU234
 1115 033a 3849     		ldr	r1, .L87+12
 1116 033c 2846     		mov	r0, r5
 1117 033e FFF7FEFF 		bl	cJSON_GetObjectItem
 1118              	.LVL98:
 755:SynaptiX_FDK/app/app.c ****         config_json.time_sleep_ms = (uint32_t)sleep_t->valueint * 1000U;
 1119              		.loc 1 755 5 is_stmt 1 view .LVU235
 755:SynaptiX_FDK/app/app.c ****         config_json.time_sleep_ms = (uint32_t)sleep_t->valueint * 1000U;
 1120              		.loc 1 755 8 is_stmt 0 view .LVU236
 1121 0342 0446     		mov	r4, r0
 1122 0344 28B1     		cbz	r0, .L56
 755:SynaptiX_FDK/app/app.c ****         config_json.time_sleep_ms = (uint32_t)sleep_t->valueint * 1000U;
 1123              		.loc 1 755 20 discriminator 1 view .LVU237
 1124 0346 FFF7FEFF 		bl	cJSON_IsNumber
 1125              	.LVL99:
 755:SynaptiX_FDK/app/app.c ****         config_json.time_sleep_ms = (uint32_t)sleep_t->valueint * 1000U;
 1126              		.loc 1 755 17 discriminator 1 view .LVU238
 1127 034a 10B1     		cbz	r0, .L56
 755:SynaptiX_FDK/app/app.c ****         config_json.time_sleep_ms = (uint32_t)sleep_t->valueint * 1000U;
 1128              		.loc 1 755 54 discriminator 2 view .LVU239
 1129 034c 6369     		ldr	r3, [r4, #20]
 755:SynaptiX_FDK/app/app.c ****         config_json.time_sleep_ms = (uint32_t)sleep_t->valueint * 1000U;
 1130              		.loc 1 755 44 discriminator 2 view .LVU240
 1131 034e 002B     		cmp	r3, #0
 1132 0350 40DC     		bgt	.L82
 1133              	.L56:
 759:SynaptiX_FDK/app/app.c ****                 config_json.time_sleep_ms);
 1134              		.loc 1 759 9 is_stmt 1 view .LVU241
 1135 0352 334B     		ldr	r3, .L87+16
 1136 0354 D3F8E032 		ldr	r3, [r3, #736]
 1137 0358 324A     		ldr	r2, .L87+20
 1138 035a 2F49     		ldr	r1, .L87+8
 1139 035c 0220     		movs	r0, #2
 1140 035e FFF7FEFF 		bl	log_func
 1141              	.LVL100:
 1142              	.L57:
 764:SynaptiX_FDK/app/app.c ****     log_info("AppCfg", "Device ID     : %s", (device_t && device_t->valuestring) ? device_t->values
 1143              		.loc 1 764 5 view .LVU242
 764:SynaptiX_FDK/app/app.c ****     log_info("AppCfg", "Device ID     : %s", (device_t && device_t->valuestring) ? device_t->values
 1144              		.loc 1 764 23 is_stmt 0 view .LVU243
 1145 0362 3149     		ldr	r1, .L87+24
 1146 0364 2846     		mov	r0, r5
 1147 0366 FFF7FEFF 		bl	cJSON_GetObjectItem
 1148              	.LVL101:
 765:SynaptiX_FDK/app/app.c ****     if (device_t && device_t->valuestring) {
 1149              		.loc 1 765 5 is_stmt 1 view .LVU244
 1150 036a 0446     		mov	r4, r0
 1151              	.LVL102:
 765:SynaptiX_FDK/app/app.c ****     if (device_t && device_t->valuestring) {
 1152              		.loc 1 765 5 is_stmt 0 view .LVU245
 1153 036c 0028     		cmp	r0, #0
ARM GAS  C:\Users\LENOVO\AppData\Local\Temp\ccWRq5sC.s 			page 41


 1154 036e 40D0     		beq	.L73
 765:SynaptiX_FDK/app/app.c ****     if (device_t && device_t->valuestring) {
 1155              		.loc 1 765 5 discriminator 1 view .LVU246
 1156 0370 0369     		ldr	r3, [r0, #16]
 1157 0372 002B     		cmp	r3, #0
 1158 0374 3BD0     		beq	.L83
 1159              	.L58:
 765:SynaptiX_FDK/app/app.c ****     if (device_t && device_t->valuestring) {
 1160              		.loc 1 765 5 discriminator 6 view .LVU247
 1161 0376 2D4A     		ldr	r2, .L87+28
 1162 0378 2749     		ldr	r1, .L87+8
 1163 037a 0320     		movs	r0, #3
 1164              	.LVL103:
 765:SynaptiX_FDK/app/app.c ****     if (device_t && device_t->valuestring) {
 1165              		.loc 1 765 5 discriminator 6 view .LVU248
 1166 037c FFF7FEFF 		bl	log_func
 1167              	.LVL104:
 766:SynaptiX_FDK/app/app.c ****         strncpy(config_json.s_device_name, device_t->valuestring, sizeof(config_json.s_device_name)
 1168              		.loc 1 766 5 is_stmt 1 view .LVU249
 766:SynaptiX_FDK/app/app.c ****         strncpy(config_json.s_device_name, device_t->valuestring, sizeof(config_json.s_device_name)
 1169              		.loc 1 766 8 is_stmt 0 view .LVU250
 1170 0380 5CB1     		cbz	r4, .L59
 766:SynaptiX_FDK/app/app.c ****         strncpy(config_json.s_device_name, device_t->valuestring, sizeof(config_json.s_device_name)
 1171              		.loc 1 766 29 discriminator 1 view .LVU251
 1172 0382 2169     		ldr	r1, [r4, #16]
 766:SynaptiX_FDK/app/app.c ****         strncpy(config_json.s_device_name, device_t->valuestring, sizeof(config_json.s_device_name)
 1173              		.loc 1 766 18 discriminator 1 view .LVU252
 1174 0384 49B1     		cbz	r1, .L59
 767:SynaptiX_FDK/app/app.c ****         strncpy(g_app.device_name, config_json.s_device_name, sizeof(g_app.device_name) - 1);
 1175              		.loc 1 767 9 is_stmt 1 view .LVU253
 1176 0386 2A4C     		ldr	r4, .L87+32
 1177              	.LVL105:
 767:SynaptiX_FDK/app/app.c ****         strncpy(g_app.device_name, config_json.s_device_name, sizeof(g_app.device_name) - 1);
 1178              		.loc 1 767 9 is_stmt 0 view .LVU254
 1179 0388 3F22     		movs	r2, #63
 1180 038a 2046     		mov	r0, r4
 1181 038c FFF7FEFF 		bl	strncpy
 1182              	.LVL106:
 768:SynaptiX_FDK/app/app.c ****     }
 1183              		.loc 1 768 9 is_stmt 1 view .LVU255
 1184 0390 3F22     		movs	r2, #63
 1185 0392 2146     		mov	r1, r4
 1186 0394 2748     		ldr	r0, .L87+36
 1187 0396 FFF7FEFF 		bl	strncpy
 1188              	.LVL107:
 1189              	.L59:
 771:SynaptiX_FDK/app/app.c ****     if (time_pub_t && cJSON_IsNumber(time_pub_t) && time_pub_t->valueint > 0) {
 1190              		.loc 1 771 5 view .LVU256
 771:SynaptiX_FDK/app/app.c ****     if (time_pub_t && cJSON_IsNumber(time_pub_t) && time_pub_t->valueint > 0) {
 1191              		.loc 1 771 25 is_stmt 0 view .LVU257
 1192 039a 2749     		ldr	r1, .L87+40
 1193 039c 2846     		mov	r0, r5
 1194 039e FFF7FEFF 		bl	cJSON_GetObjectItem
 1195              	.LVL108:
 772:SynaptiX_FDK/app/app.c ****         config_json.s_time_publish = (uint32_t)time_pub_t->valueint * 1000U;
 1196              		.loc 1 772 5 is_stmt 1 view .LVU258
 772:SynaptiX_FDK/app/app.c ****         config_json.s_time_publish = (uint32_t)time_pub_t->valueint * 1000U;
ARM GAS  C:\Users\LENOVO\AppData\Local\Temp\ccWRq5sC.s 			page 42


 1197              		.loc 1 772 8 is_stmt 0 view .LVU259
 1198 03a2 0446     		mov	r4, r0
 1199 03a4 28B1     		cbz	r0, .L60
 772:SynaptiX_FDK/app/app.c ****         config_json.s_time_publish = (uint32_t)time_pub_t->valueint * 1000U;
 1200              		.loc 1 772 23 discriminator 1 view .LVU260
 1201 03a6 FFF7FEFF 		bl	cJSON_IsNumber
 1202              	.LVL109:
 772:SynaptiX_FDK/app/app.c ****         config_json.s_time_publish = (uint32_t)time_pub_t->valueint * 1000U;
 1203              		.loc 1 772 20 discriminator 1 view .LVU261
 1204 03aa 10B1     		cbz	r0, .L60
 772:SynaptiX_FDK/app/app.c ****         config_json.s_time_publish = (uint32_t)time_pub_t->valueint * 1000U;
 1205              		.loc 1 772 63 discriminator 2 view .LVU262
 1206 03ac 6369     		ldr	r3, [r4, #20]
 772:SynaptiX_FDK/app/app.c ****         config_json.s_time_publish = (uint32_t)time_pub_t->valueint * 1000U;
 1207              		.loc 1 772 50 discriminator 2 view .LVU263
 1208 03ae 002B     		cmp	r3, #0
 1209 03b0 21DC     		bgt	.L84
 1210              	.L60:
 776:SynaptiX_FDK/app/app.c ****                 config_json.s_time_publish);
 1211              		.loc 1 776 9 is_stmt 1 view .LVU264
 1212 03b2 1B4B     		ldr	r3, .L87+16
 1213 03b4 D3F83033 		ldr	r3, [r3, #816]
 1214 03b8 204A     		ldr	r2, .L87+44
 1215 03ba 1749     		ldr	r1, .L87+8
 1216 03bc 0220     		movs	r0, #2
 1217 03be FFF7FEFF 		bl	log_func
 1218              	.LVL110:
 1219              	.L61:
 780:SynaptiX_FDK/app/app.c ****     log_info("AppCfg", "Config loaded OK");
 1220              		.loc 1 780 5 view .LVU265
 1221 03c2 2846     		mov	r0, r5
 1222 03c4 FFF7FEFF 		bl	cJSON_Delete
 1223              	.LVL111:
 781:SynaptiX_FDK/app/app.c ****     
 1224              		.loc 1 781 5 view .LVU266
 1225 03c8 1D4A     		ldr	r2, .L87+48
 1226 03ca 1349     		ldr	r1, .L87+8
 1227 03cc 0320     		movs	r0, #3
 1228 03ce FFF7FEFF 		bl	log_func
 1229              	.LVL112:
 1230 03d2 49E6     		b	.L33
 1231              	.LVL113:
 1232              	.L82:
 756:SynaptiX_FDK/app/app.c ****         log_info("AppCfg", "time_sleeps loaded: %lu ms", config_json.time_sleep_ms);
 1233              		.loc 1 756 9 view .LVU267
 756:SynaptiX_FDK/app/app.c ****         log_info("AppCfg", "time_sleeps loaded: %lu ms", config_json.time_sleep_ms);
 1234              		.loc 1 756 65 is_stmt 0 view .LVU268
 1235 03d4 4FF47A72 		mov	r2, #1000
 1236 03d8 02FB03F3 		mul	r3, r2, r3
 756:SynaptiX_FDK/app/app.c ****         log_info("AppCfg", "time_sleeps loaded: %lu ms", config_json.time_sleep_ms);
 1237              		.loc 1 756 35 view .LVU269
 1238 03dc 104A     		ldr	r2, .L87+16
 1239 03de C2F8E032 		str	r3, [r2, #736]
 757:SynaptiX_FDK/app/app.c ****     } else {
 1240              		.loc 1 757 9 is_stmt 1 view .LVU270
 1241 03e2 184A     		ldr	r2, .L87+52
 1242 03e4 0C49     		ldr	r1, .L87+8
ARM GAS  C:\Users\LENOVO\AppData\Local\Temp\ccWRq5sC.s 			page 43


 1243 03e6 0320     		movs	r0, #3
 1244 03e8 FFF7FEFF 		bl	log_func
 1245              	.LVL114:
 1246 03ec B9E7     		b	.L57
 1247              	.LVL115:
 1248              	.L83:
 765:SynaptiX_FDK/app/app.c ****     if (device_t && device_t->valuestring) {
 1249              		.loc 1 765 5 is_stmt 0 discriminator 4 view .LVU271
 1250 03ee 084B     		ldr	r3, .L87
 1251 03f0 C1E7     		b	.L58
 1252              	.L73:
 1253 03f2 074B     		ldr	r3, .L87
 1254 03f4 BFE7     		b	.L58
 1255              	.LVL116:
 1256              	.L84:
 773:SynaptiX_FDK/app/app.c ****         log_info("AppCfg", "time_publish loaded: %lu ms", config_json.s_time_publish);
 1257              		.loc 1 773 9 is_stmt 1 view .LVU272
 773:SynaptiX_FDK/app/app.c ****         log_info("AppCfg", "time_publish loaded: %lu ms", config_json.s_time_publish);
 1258              		.loc 1 773 69 is_stmt 0 view .LVU273
 1259 03f6 4FF47A72 		mov	r2, #1000
 1260 03fa 02FB03F3 		mul	r3, r2, r3
 773:SynaptiX_FDK/app/app.c ****         log_info("AppCfg", "time_publish loaded: %lu ms", config_json.s_time_publish);
 1261              		.loc 1 773 36 view .LVU274
 1262 03fe 084A     		ldr	r2, .L87+16
 1263 0400 C2F83033 		str	r3, [r2, #816]
 774:SynaptiX_FDK/app/app.c ****     } else {
 1264              		.loc 1 774 9 is_stmt 1 view .LVU275
 1265 0404 104A     		ldr	r2, .L87+56
 1266 0406 0449     		ldr	r1, .L87+8
 1267 0408 0320     		movs	r0, #3
 1268 040a FFF7FEFF 		bl	log_func
 1269              	.LVL117:
 1270 040e D8E7     		b	.L61
 1271              	.L88:
 1272              		.align	2
 1273              	.L87:
 1274 0410 00000000 		.word	.LC10
 1275 0414 38020000 		.word	.LC36
 1276 0418 20000000 		.word	.LC9
 1277 041c 70020000 		.word	.LC37
 1278 0420 00000000 		.word	config_json
 1279 0424 98020000 		.word	.LC39
 1280 0428 C8020000 		.word	.LC40
 1281 042c D4020000 		.word	.LC41
 1282 0430 E8020000 		.word	config_json+744
 1283 0434 BC000000 		.word	g_app+188
 1284 0438 E8020000 		.word	.LC42
 1285 043c 14030000 		.word	.LC44
 1286 0440 48030000 		.word	.LC45
 1287 0444 7C020000 		.word	.LC38
 1288 0448 F8020000 		.word	.LC43
 1289              		.cfi_endproc
 1290              	.LFE569:
 1292              		.section	.rodata.read_last_gps.str1.4,"aMS",%progbits,1
 1293              		.align	2
 1294              	.LC46:
 1295 0000 72656164 		.ascii	"read_last_gps: enter\000"
ARM GAS  C:\Users\LENOVO\AppData\Local\Temp\ccWRq5sC.s 			page 44


 1295      5F6C6173 
 1295      745F6770 
 1295      733A2065 
 1295      6E746572 
 1296 0015 000000   		.align	2
 1297              	.LC47:
 1298 0018 2F6C6F67 		.ascii	"/log_gps\000"
 1298      5F677073 
 1298      00
 1299 0021 000000   		.align	2
 1300              	.LC48:
 1301 0024 72656164 		.ascii	"read_last_gps: size=%ld\000"
 1301      5F6C6173 
 1301      745F6770 
 1301      733A2073 
 1301      697A653D 
 1302              		.align	2
 1303              	.LC49:
 1304 003c 4E4F2044 		.ascii	"NO DATA FROM EXFLASH!\000"
 1304      41544120 
 1304      46524F4D 
 1304      20455846 
 1304      4C415348 
 1305 0052 0000     		.align	2
 1306              	.LC50:
 1307 0054 466C6173 		.ascii	"Flash read failed\000"
 1307      68207265 
 1307      61642066 
 1307      61696C65 
 1307      6400
 1308 0066 0000     		.align	2
 1309              	.LC51:
 1310 0068 43616E6E 		.ascii	"Cannot find last line\000"
 1310      6F742066 
 1310      696E6420 
 1310      6C617374 
 1310      206C696E 
 1311 007e 0000     		.align	2
 1312              	.LC52:
 1313 0080 4C617374 		.ascii	"Last log line: %s\000"
 1313      206C6F67 
 1313      206C696E 
 1313      653A2025 
 1313      7300
 1314 0092 0000     		.align	2
 1315              	.LC53:
 1316 0094 252A7320 		.ascii	"%*s fix=%d lat=%15s lon=%15s rssi=%d alt=%15s spd=%"
 1316      6669783D 
 1316      2564206C 
 1316      61743D25 
 1316      31357320 
 1317 00c7 31357320 		.ascii	"15s sat=%15s time=%11s date=%11s\000"
 1317      7361743D 
 1317      25313573 
 1317      2074696D 
 1317      653D2531 
 1318              		.align	2
ARM GAS  C:\Users\LENOVO\AppData\Local\Temp\ccWRq5sC.s 			page 45


 1319              	.LC54:
 1320 00e8 257300   		.ascii	"%s\000"
 1321 00eb 00       		.align	2
 1322              	.LC55:
 1323 00ec 4C617374 		.ascii	"Last GPS loaded: lat=%.6f lon=%.6f alt=%.2f spd=%.2"
 1323      20475053 
 1323      206C6F61 
 1323      6465643A 
 1323      206C6174 
 1324 011f 66207361 		.ascii	"f sat=%d time=%s date=%s\000"
 1324      743D2564 
 1324      2074696D 
 1324      653D2573 
 1324      20646174 
 1325              		.global	__aeabi_f2d
 1326              		.align	2
 1327              	.LC56:
 1328 0138 4E6F2076 		.ascii	"No valid fix in last log\000"
 1328      616C6964 
 1328      20666978 
 1328      20696E20 
 1328      6C617374 
 1329              		.section	.text.read_last_gps,"ax",%progbits
 1330              		.align	1
 1331              		.syntax unified
 1332              		.thumb
 1333              		.thumb_func
 1335              	read_last_gps:
 1336              	.LFB565:
 395:SynaptiX_FDK/app/app.c ****     log_info(TAG, "read_last_gps: enter");
 1337              		.loc 1 395 1 view -0
 1338              		.cfi_startproc
 1339              		@ args = 0, pretend = 0, frame = 112
 1340              		@ frame_needed = 0, uses_anonymous_args = 0
 1341 0000 2DE9F043 		push	{r4, r5, r6, r7, r8, r9, lr}
 1342              	.LCFI11:
 1343              		.cfi_def_cfa_offset 28
 1344              		.cfi_offset 4, -28
 1345              		.cfi_offset 5, -24
 1346              		.cfi_offset 6, -20
 1347              		.cfi_offset 7, -16
 1348              		.cfi_offset 8, -12
 1349              		.cfi_offset 9, -8
 1350              		.cfi_offset 14, -4
 1351 0004 A9B0     		sub	sp, sp, #164
 1352              	.LCFI12:
 1353              		.cfi_def_cfa_offset 192
 396:SynaptiX_FDK/app/app.c ****     int32_t file_size = sx_storage_size(GPS_LOG_FILE_PATH);
 1354              		.loc 1 396 5 view .LVU277
 1355 0006 804C     		ldr	r4, .L115
 1356 0008 804A     		ldr	r2, .L115+4
 1357 000a 2146     		mov	r1, r4
 1358 000c 0320     		movs	r0, #3
 1359 000e FFF7FEFF 		bl	log_func
 1360              	.LVL118:
 397:SynaptiX_FDK/app/app.c ****     log_info(TAG, "read_last_gps: size=%ld", (long)file_size);
 1361              		.loc 1 397 5 view .LVU278
ARM GAS  C:\Users\LENOVO\AppData\Local\Temp\ccWRq5sC.s 			page 46


 397:SynaptiX_FDK/app/app.c ****     log_info(TAG, "read_last_gps: size=%ld", (long)file_size);
 1362              		.loc 1 397 25 is_stmt 0 view .LVU279
 1363 0012 7F48     		ldr	r0, .L115+8
 1364 0014 FFF7FEFF 		bl	sx_storage_size
 1365              	.LVL119:
 1366 0018 0546     		mov	r5, r0
 1367              	.LVL120:
 398:SynaptiX_FDK/app/app.c ****     if (file_size <= 0) {
 1368              		.loc 1 398 5 is_stmt 1 view .LVU280
 1369 001a 0346     		mov	r3, r0
 1370 001c 7D4A     		ldr	r2, .L115+12
 1371 001e 2146     		mov	r1, r4
 1372 0020 0320     		movs	r0, #3
 1373              	.LVL121:
 398:SynaptiX_FDK/app/app.c ****     if (file_size <= 0) {
 1374              		.loc 1 398 5 is_stmt 0 view .LVU281
 1375 0022 FFF7FEFF 		bl	log_func
 1376              	.LVL122:
 399:SynaptiX_FDK/app/app.c ****         log_info(TAG, "NO DATA FROM EXFLASH!");
 1377              		.loc 1 399 5 is_stmt 1 view .LVU282
 399:SynaptiX_FDK/app/app.c ****         log_info(TAG, "NO DATA FROM EXFLASH!");
 1378              		.loc 1 399 8 is_stmt 0 view .LVU283
 1379 0026 002D     		cmp	r5, #0
 1380 0028 0FDD     		ble	.L110
 404:SynaptiX_FDK/app/app.c ****     uint32_t read_len = (file_size < (int32_t)sizeof(s_tail_buf))
 1381              		.loc 1 404 5 is_stmt 1 view .LVU284
 405:SynaptiX_FDK/app/app.c ****                             ? (uint32_t)file_size
 1382              		.loc 1 405 5 view .LVU285
 407:SynaptiX_FDK/app/app.c ****     uint32_t offset = (uint32_t)file_size - read_len;
 1383              		.loc 1 407 29 is_stmt 0 view .LVU286
 1384 002a 2C46     		mov	r4, r5
 1385 002c FF2D     		cmp	r5, #255
 1386 002e A8BF     		it	ge
 1387 0030 FF24     		movge	r4, #255
 1388              	.LVL123:
 408:SynaptiX_FDK/app/app.c **** 
 1389              		.loc 1 408 5 is_stmt 1 view .LVU287
 410:SynaptiX_FDK/app/app.c ****         GPS_LOG_FILE_PATH, s_tail_buf, offset, read_len);
 1390              		.loc 1 410 5 view .LVU288
 410:SynaptiX_FDK/app/app.c ****         GPS_LOG_FILE_PATH, s_tail_buf, offset, read_len);
 1391              		.loc 1 410 28 is_stmt 0 view .LVU289
 1392 0032 2346     		mov	r3, r4
 1393 0034 2A1B     		subs	r2, r5, r4
 1394              	.LVL124:
 410:SynaptiX_FDK/app/app.c ****         GPS_LOG_FILE_PATH, s_tail_buf, offset, read_len);
 1395              		.loc 1 410 28 view .LVU290
 1396 0036 7849     		ldr	r1, .L115+16
 1397 0038 7548     		ldr	r0, .L115+8
 1398 003a FFF7FEFF 		bl	sx_storage_read_partial
 1399              	.LVL125:
 412:SynaptiX_FDK/app/app.c ****         log_error(TAG, "Flash read failed");
 1400              		.loc 1 412 5 is_stmt 1 view .LVU291
 412:SynaptiX_FDK/app/app.c ****         log_error(TAG, "Flash read failed");
 1401              		.loc 1 412 8 is_stmt 0 view .LVU292
 1402 003e 50B9     		cbnz	r0, .L111
 416:SynaptiX_FDK/app/app.c **** 
 1403              		.loc 1 416 5 is_stmt 1 view .LVU293
ARM GAS  C:\Users\LENOVO\AppData\Local\Temp\ccWRq5sC.s 			page 47


 416:SynaptiX_FDK/app/app.c **** 
 1404              		.loc 1 416 26 is_stmt 0 view .LVU294
 1405 0040 754B     		ldr	r3, .L115+16
 1406 0042 0022     		movs	r2, #0
 1407 0044 1A55     		strb	r2, [r3, r4]
 418:SynaptiX_FDK/app/app.c ****     while (end >= 0 && (s_tail_buf[end] == '\n' || s_tail_buf[end] == '\r'))
 1408              		.loc 1 418 5 is_stmt 1 view .LVU295
 418:SynaptiX_FDK/app/app.c ****     while (end >= 0 && (s_tail_buf[end] == '\n' || s_tail_buf[end] == '\r'))
 1409              		.loc 1 418 13 is_stmt 0 view .LVU296
 1410 0046 631E     		subs	r3, r4, #1
 1411              	.LVL126:
 419:SynaptiX_FDK/app/app.c ****         end--;
 1412              		.loc 1 419 5 is_stmt 1 view .LVU297
 419:SynaptiX_FDK/app/app.c ****         end--;
 1413              		.loc 1 419 11 is_stmt 0 view .LVU298
 1414 0048 0CE0     		b	.L93
 1415              	.LVL127:
 1416              	.L110:
 400:SynaptiX_FDK/app/app.c ****         return;
 1417              		.loc 1 400 9 is_stmt 1 view .LVU299
 1418 004a 744A     		ldr	r2, .L115+20
 1419 004c 2146     		mov	r1, r4
 1420 004e 0320     		movs	r0, #3
 1421 0050 FFF7FEFF 		bl	log_func
 1422              	.LVL128:
 401:SynaptiX_FDK/app/app.c ****     }
 1423              		.loc 1 401 9 view .LVU300
 1424 0054 62E0     		b	.L89
 1425              	.LVL129:
 1426              	.L111:
 413:SynaptiX_FDK/app/app.c ****         return;
 1427              		.loc 1 413 9 view .LVU301
 1428 0056 724A     		ldr	r2, .L115+24
 1429 0058 6B49     		ldr	r1, .L115
 1430 005a 0120     		movs	r0, #1
 1431              	.LVL130:
 413:SynaptiX_FDK/app/app.c ****         return;
 1432              		.loc 1 413 9 is_stmt 0 view .LVU302
 1433 005c FFF7FEFF 		bl	log_func
 1434              	.LVL131:
 414:SynaptiX_FDK/app/app.c ****     }
 1435              		.loc 1 414 9 is_stmt 1 view .LVU303
 1436 0060 5CE0     		b	.L89
 1437              	.LVL132:
 1438              	.L95:
 420:SynaptiX_FDK/app/app.c **** 
 1439              		.loc 1 420 9 view .LVU304
 420:SynaptiX_FDK/app/app.c **** 
 1440              		.loc 1 420 12 is_stmt 0 view .LVU305
 1441 0062 013B     		subs	r3, r3, #1
 1442              	.LVL133:
 1443              	.L93:
 419:SynaptiX_FDK/app/app.c ****         end--;
 1444              		.loc 1 419 21 is_stmt 1 view .LVU306
 1445 0064 002B     		cmp	r3, #0
 1446 0066 07DB     		blt	.L106
 419:SynaptiX_FDK/app/app.c ****         end--;
ARM GAS  C:\Users\LENOVO\AppData\Local\Temp\ccWRq5sC.s 			page 48


 1447              		.loc 1 419 35 is_stmt 0 discriminator 1 view .LVU307
 1448 0068 6B4A     		ldr	r2, .L115+16
 1449 006a D25C     		ldrb	r2, [r2, r3]	@ zero_extendqisi2
 419:SynaptiX_FDK/app/app.c ****         end--;
 1450              		.loc 1 419 21 discriminator 1 view .LVU308
 1451 006c 0A2A     		cmp	r2, #10
 1452 006e F8D0     		beq	.L95
 419:SynaptiX_FDK/app/app.c ****         end--;
 1453              		.loc 1 419 49 discriminator 2 view .LVU309
 1454 0070 0D2A     		cmp	r2, #13
 1455 0072 F6D0     		beq	.L95
 1456 0074 1A46     		mov	r2, r3
 1457 0076 02E0     		b	.L97
 1458              	.L106:
 419:SynaptiX_FDK/app/app.c ****         end--;
 1459              		.loc 1 419 49 discriminator 2 view .LVU310
 1460 0078 1A46     		mov	r2, r3
 1461 007a 00E0     		b	.L97
 1462              	.LVL134:
 1463              	.L107:
 424:SynaptiX_FDK/app/app.c **** 
 1464              		.loc 1 424 14 view .LVU311
 1465 007c 0A46     		mov	r2, r1
 1466              	.LVL135:
 1467              	.L97:
 423:SynaptiX_FDK/app/app.c ****         start--;
 1468              		.loc 1 423 22 is_stmt 1 view .LVU312
 1469 007e 002A     		cmp	r2, #0
 1470 0080 04DD     		ble	.L96
 423:SynaptiX_FDK/app/app.c ****         start--;
 1471              		.loc 1 423 42 is_stmt 0 discriminator 1 view .LVU313
 1472 0082 511E     		subs	r1, r2, #1
 423:SynaptiX_FDK/app/app.c ****         start--;
 1473              		.loc 1 423 35 discriminator 1 view .LVU314
 1474 0084 6448     		ldr	r0, .L115+16
 1475 0086 405C     		ldrb	r0, [r0, r1]	@ zero_extendqisi2
 423:SynaptiX_FDK/app/app.c ****         start--;
 1476              		.loc 1 423 22 discriminator 1 view .LVU315
 1477 0088 0A28     		cmp	r0, #10
 1478 008a F7D1     		bne	.L107
 1479              	.L96:
 426:SynaptiX_FDK/app/app.c ****         log_warn(TAG, "Cannot find last line");
 1480              		.loc 1 426 5 is_stmt 1 view .LVU316
 426:SynaptiX_FDK/app/app.c ****         log_warn(TAG, "Cannot find last line");
 1481              		.loc 1 426 8 is_stmt 0 view .LVU317
 1482 008c 9342     		cmp	r3, r2
 1483 008e 48DB     		blt	.L112
 431:SynaptiX_FDK/app/app.c ****     char *last_line = (char *)(s_tail_buf + start);
 1484              		.loc 1 431 5 is_stmt 1 view .LVU318
 431:SynaptiX_FDK/app/app.c ****     char *last_line = (char *)(s_tail_buf + start);
 1485              		.loc 1 431 20 is_stmt 0 view .LVU319
 1486 0090 0133     		adds	r3, r3, #1
 1487              	.LVL136:
 431:SynaptiX_FDK/app/app.c ****     char *last_line = (char *)(s_tail_buf + start);
 1488              		.loc 1 431 25 view .LVU320
 1489 0092 614C     		ldr	r4, .L115+16
 1490              	.LVL137:
ARM GAS  C:\Users\LENOVO\AppData\Local\Temp\ccWRq5sC.s 			page 49


 431:SynaptiX_FDK/app/app.c ****     char *last_line = (char *)(s_tail_buf + start);
 1491              		.loc 1 431 25 view .LVU321
 1492 0094 0025     		movs	r5, #0
 1493              	.LVL138:
 431:SynaptiX_FDK/app/app.c ****     char *last_line = (char *)(s_tail_buf + start);
 1494              		.loc 1 431 25 view .LVU322
 1495 0096 E554     		strb	r5, [r4, r3]
 432:SynaptiX_FDK/app/app.c ****     log_info(TAG, "Last log line: %s", last_line);
 1496              		.loc 1 432 5 is_stmt 1 view .LVU323
 432:SynaptiX_FDK/app/app.c ****     log_info(TAG, "Last log line: %s", last_line);
 1497              		.loc 1 432 11 is_stmt 0 view .LVU324
 1498 0098 1444     		add	r4, r4, r2
 1499              	.LVL139:
 433:SynaptiX_FDK/app/app.c **** 
 1500              		.loc 1 433 5 is_stmt 1 view .LVU325
 1501 009a 2346     		mov	r3, r4
 1502              	.LVL140:
 433:SynaptiX_FDK/app/app.c **** 
 1503              		.loc 1 433 5 is_stmt 0 view .LVU326
 1504 009c 614A     		ldr	r2, .L115+28
 1505              	.LVL141:
 433:SynaptiX_FDK/app/app.c **** 
 1506              		.loc 1 433 5 view .LVU327
 1507 009e 5A49     		ldr	r1, .L115
 1508 00a0 0320     		movs	r0, #3
 1509 00a2 FFF7FEFF 		bl	log_func
 1510              	.LVL142:
 436:SynaptiX_FDK/app/app.c ****     char  lat_str[16] = {0};
 1511              		.loc 1 436 5 is_stmt 1 view .LVU328
 436:SynaptiX_FDK/app/app.c ****     char  lat_str[16] = {0};
 1512              		.loc 1 436 11 is_stmt 0 view .LVU329
 1513 00a6 2795     		str	r5, [sp, #156]
 436:SynaptiX_FDK/app/app.c ****     char  lat_str[16] = {0};
 1514              		.loc 1 436 20 view .LVU330
 1515 00a8 2695     		str	r5, [sp, #152]
 437:SynaptiX_FDK/app/app.c ****     char  lon_str[16] = {0};
 1516              		.loc 1 437 5 is_stmt 1 view .LVU331
 437:SynaptiX_FDK/app/app.c ****     char  lon_str[16] = {0};
 1517              		.loc 1 437 11 is_stmt 0 view .LVU332
 1518 00aa 2295     		str	r5, [sp, #136]
 1519 00ac 2395     		str	r5, [sp, #140]
 1520 00ae 2495     		str	r5, [sp, #144]
 1521 00b0 2595     		str	r5, [sp, #148]
 438:SynaptiX_FDK/app/app.c ****     char  alt_str[16] = {0};
 1522              		.loc 1 438 5 is_stmt 1 view .LVU333
 438:SynaptiX_FDK/app/app.c ****     char  alt_str[16] = {0};
 1523              		.loc 1 438 11 is_stmt 0 view .LVU334
 1524 00b2 1EAB     		add	r3, sp, #120
 1525 00b4 1E95     		str	r5, [sp, #120]
 1526 00b6 1F95     		str	r5, [sp, #124]
 1527 00b8 2095     		str	r5, [sp, #128]
 1528 00ba 2195     		str	r5, [sp, #132]
 439:SynaptiX_FDK/app/app.c ****     char  spd_str[16] = {0};
 1529              		.loc 1 439 5 is_stmt 1 view .LVU335
 439:SynaptiX_FDK/app/app.c ****     char  spd_str[16] = {0};
 1530              		.loc 1 439 11 is_stmt 0 view .LVU336
 1531 00bc 1AAA     		add	r2, sp, #104
ARM GAS  C:\Users\LENOVO\AppData\Local\Temp\ccWRq5sC.s 			page 50


 1532 00be 1A95     		str	r5, [sp, #104]
 1533 00c0 1B95     		str	r5, [sp, #108]
 1534 00c2 1C95     		str	r5, [sp, #112]
 1535 00c4 1D95     		str	r5, [sp, #116]
 440:SynaptiX_FDK/app/app.c ****     char  sat_str[16] = {0};
 1536              		.loc 1 440 5 is_stmt 1 view .LVU337
 440:SynaptiX_FDK/app/app.c ****     char  sat_str[16] = {0};
 1537              		.loc 1 440 11 is_stmt 0 view .LVU338
 1538 00c6 16A9     		add	r1, sp, #88
 1539 00c8 1695     		str	r5, [sp, #88]
 1540 00ca 1795     		str	r5, [sp, #92]
 1541 00cc 1895     		str	r5, [sp, #96]
 1542 00ce 1995     		str	r5, [sp, #100]
 441:SynaptiX_FDK/app/app.c ****     char  time_str[12] = {0};
 1543              		.loc 1 441 5 is_stmt 1 view .LVU339
 441:SynaptiX_FDK/app/app.c ****     char  time_str[12] = {0};
 1544              		.loc 1 441 11 is_stmt 0 view .LVU340
 1545 00d0 12A8     		add	r0, sp, #72
 1546 00d2 1295     		str	r5, [sp, #72]
 1547 00d4 1395     		str	r5, [sp, #76]
 1548 00d6 1495     		str	r5, [sp, #80]
 1549 00d8 1595     		str	r5, [sp, #84]
 442:SynaptiX_FDK/app/app.c ****     char  date_str[12] = {0};
 1550              		.loc 1 442 5 is_stmt 1 view .LVU341
 442:SynaptiX_FDK/app/app.c ****     char  date_str[12] = {0};
 1551              		.loc 1 442 11 is_stmt 0 view .LVU342
 1552 00da 0FAE     		add	r6, sp, #60
 1553 00dc 0F95     		str	r5, [sp, #60]
 1554 00de 1095     		str	r5, [sp, #64]
 1555 00e0 1195     		str	r5, [sp, #68]
 443:SynaptiX_FDK/app/app.c **** 
 1556              		.loc 1 443 5 is_stmt 1 view .LVU343
 443:SynaptiX_FDK/app/app.c **** 
 1557              		.loc 1 443 11 is_stmt 0 view .LVU344
 1558 00e2 0CAF     		add	r7, sp, #48
 1559 00e4 0C95     		str	r5, [sp, #48]
 1560 00e6 0D95     		str	r5, [sp, #52]
 1561 00e8 0E95     		str	r5, [sp, #56]
 445:SynaptiX_FDK/app/app.c ****                         "%*s fix=%d lat=%15s lon=%15s rssi=%d alt=%15s spd=%15s sat=%15s time=%11s 
 1562              		.loc 1 445 5 is_stmt 1 view .LVU345
 445:SynaptiX_FDK/app/app.c ****                         "%*s fix=%d lat=%15s lon=%15s rssi=%d alt=%15s spd=%15s sat=%15s time=%11s 
 1563              		.loc 1 445 18 is_stmt 0 view .LVU346
 1564 00ea 0697     		str	r7, [sp, #24]
 1565 00ec 0596     		str	r6, [sp, #20]
 1566 00ee 0490     		str	r0, [sp, #16]
 1567 00f0 0391     		str	r1, [sp, #12]
 1568 00f2 0292     		str	r2, [sp, #8]
 1569 00f4 26AA     		add	r2, sp, #152
 1570 00f6 0192     		str	r2, [sp, #4]
 1571 00f8 0093     		str	r3, [sp]
 1572 00fa 22AB     		add	r3, sp, #136
 1573 00fc 27AA     		add	r2, sp, #156
 1574 00fe 4A49     		ldr	r1, .L115+32
 1575 0100 2046     		mov	r0, r4
 1576 0102 FFF7FEFF 		bl	sscanf
 1577              	.LVL143:
 1578 0106 0446     		mov	r4, r0
ARM GAS  C:\Users\LENOVO\AppData\Local\Temp\ccWRq5sC.s 			page 51


 1579              	.LVL144:
 449:SynaptiX_FDK/app/app.c ****         g_app.last_lat = strtof(lat_str, NULL);
 1580              		.loc 1 449 5 is_stmt 1 view .LVU347
 449:SynaptiX_FDK/app/app.c ****         g_app.last_lat = strtof(lat_str, NULL);
 1581              		.loc 1 449 8 is_stmt 0 view .LVU348
 1582 0108 0228     		cmp	r0, #2
 1583 010a 02DD     		ble	.L99
 449:SynaptiX_FDK/app/app.c ****         g_app.last_lat = strtof(lat_str, NULL);
 1584              		.loc 1 449 28 discriminator 1 view .LVU349
 1585 010c 279B     		ldr	r3, [sp, #156]
 449:SynaptiX_FDK/app/app.c ****         g_app.last_lat = strtof(lat_str, NULL);
 1586              		.loc 1 449 21 discriminator 1 view .LVU350
 1587 010e 012B     		cmp	r3, #1
 1588 0110 0DD0     		beq	.L113
 1589              	.L99:
 461:SynaptiX_FDK/app/app.c ****     }
 1590              		.loc 1 461 9 is_stmt 1 view .LVU351
 1591 0112 464A     		ldr	r2, .L115+36
 1592 0114 3C49     		ldr	r1, .L115
 1593 0116 0220     		movs	r0, #2
 1594              	.LVL145:
 461:SynaptiX_FDK/app/app.c ****     }
 1595              		.loc 1 461 9 is_stmt 0 view .LVU352
 1596 0118 FFF7FEFF 		bl	log_func
 1597              	.LVL146:
 1598              	.L89:
 463:SynaptiX_FDK/app/app.c **** 
 1599              		.loc 1 463 1 view .LVU353
 1600 011c 29B0     		add	sp, sp, #164
 1601              	.LCFI13:
 1602              		.cfi_remember_state
 1603              		.cfi_def_cfa_offset 28
 1604              		@ sp needed
 1605 011e BDE8F083 		pop	{r4, r5, r6, r7, r8, r9, pc}
 1606              	.LVL147:
 1607              	.L112:
 1608              	.LCFI14:
 1609              		.cfi_restore_state
 427:SynaptiX_FDK/app/app.c ****         return;
 1610              		.loc 1 427 9 is_stmt 1 view .LVU354
 1611 0122 434A     		ldr	r2, .L115+40
 1612              	.LVL148:
 427:SynaptiX_FDK/app/app.c ****         return;
 1613              		.loc 1 427 9 is_stmt 0 view .LVU355
 1614 0124 3849     		ldr	r1, .L115
 1615 0126 0220     		movs	r0, #2
 1616 0128 FFF7FEFF 		bl	log_func
 1617              	.LVL149:
 428:SynaptiX_FDK/app/app.c ****     }
 1618              		.loc 1 428 9 is_stmt 1 view .LVU356
 1619 012c F6E7     		b	.L89
 1620              	.LVL150:
 1621              	.L113:
 450:SynaptiX_FDK/app/app.c ****         g_app.last_lon = strtof(lon_str, NULL);
 1622              		.loc 1 450 9 view .LVU357
 450:SynaptiX_FDK/app/app.c ****         g_app.last_lon = strtof(lon_str, NULL);
 1623              		.loc 1 450 26 is_stmt 0 view .LVU358
ARM GAS  C:\Users\LENOVO\AppData\Local\Temp\ccWRq5sC.s 			page 52


 1624 012e 2946     		mov	r1, r5
 1625 0130 22A8     		add	r0, sp, #136
 1626              	.LVL151:
 450:SynaptiX_FDK/app/app.c ****         g_app.last_lon = strtof(lon_str, NULL);
 1627              		.loc 1 450 26 view .LVU359
 1628 0132 FFF7FEFF 		bl	strtof
 1629              	.LVL152:
 450:SynaptiX_FDK/app/app.c ****         g_app.last_lon = strtof(lon_str, NULL);
 1630              		.loc 1 450 24 discriminator 1 view .LVU360
 1631 0136 3F4D     		ldr	r5, .L115+44
 1632 0138 85ED240A 		vstr.32	s0, [r5, #144]
 451:SynaptiX_FDK/app/app.c ****         g_app.last_alt = (parsed >= 5) ? strtof(alt_str, NULL) : 0.0f;
 1633              		.loc 1 451 9 is_stmt 1 view .LVU361
 451:SynaptiX_FDK/app/app.c ****         g_app.last_alt = (parsed >= 5) ? strtof(alt_str, NULL) : 0.0f;
 1634              		.loc 1 451 26 is_stmt 0 view .LVU362
 1635 013c 0021     		movs	r1, #0
 1636 013e 1EA8     		add	r0, sp, #120
 1637 0140 FFF7FEFF 		bl	strtof
 1638              	.LVL153:
 451:SynaptiX_FDK/app/app.c ****         g_app.last_alt = (parsed >= 5) ? strtof(alt_str, NULL) : 0.0f;
 1639              		.loc 1 451 24 discriminator 1 view .LVU363
 1640 0144 85ED250A 		vstr.32	s0, [r5, #148]
 452:SynaptiX_FDK/app/app.c ****         g_app.last_spd = (parsed >= 6) ? strtof(spd_str, NULL) : 0.0f;
 1641              		.loc 1 452 9 is_stmt 1 view .LVU364
 452:SynaptiX_FDK/app/app.c ****         g_app.last_spd = (parsed >= 6) ? strtof(spd_str, NULL) : 0.0f;
 1642              		.loc 1 452 64 is_stmt 0 view .LVU365
 1643 0148 042C     		cmp	r4, #4
 1644 014a 43DC     		bgt	.L100
 452:SynaptiX_FDK/app/app.c ****         g_app.last_spd = (parsed >= 6) ? strtof(spd_str, NULL) : 0.0f;
 1645              		.loc 1 452 24 discriminator 4 view .LVU366
 1646 014c 9FED3A0A 		vldr.32	s0, .L115+48
 1647 0150 85ED260A 		vstr.32	s0, [r5, #152]
 453:SynaptiX_FDK/app/app.c ****         g_app.last_sat = (parsed >= 7) ? (int)strtol(sat_str, NULL, 10) : 0;
 1648              		.loc 1 453 9 is_stmt 1 view .LVU367
 1649              	.L101:
 453:SynaptiX_FDK/app/app.c ****         g_app.last_sat = (parsed >= 7) ? (int)strtol(sat_str, NULL, 10) : 0;
 1650              		.loc 1 453 24 is_stmt 0 discriminator 4 view .LVU368
 1651 0154 374B     		ldr	r3, .L115+44
 1652 0156 83ED270A 		vstr.32	s0, [r3, #156]
 454:SynaptiX_FDK/app/app.c ****         snprintf(g_app.last_time_str, sizeof(g_app.last_time_str), "%s", time_str);
 1653              		.loc 1 454 9 is_stmt 1 view .LVU369
 454:SynaptiX_FDK/app/app.c ****         snprintf(g_app.last_time_str, sizeof(g_app.last_time_str), "%s", time_str);
 1654              		.loc 1 454 73 is_stmt 0 view .LVU370
 1655 015a 062C     		cmp	r4, #6
 1656 015c 4DDC     		bgt	.L114
 454:SynaptiX_FDK/app/app.c ****         snprintf(g_app.last_time_str, sizeof(g_app.last_time_str), "%s", time_str);
 1657              		.loc 1 454 73 discriminator 2 view .LVU371
 1658 015e 0020     		movs	r0, #0
 1659              	.L103:
 454:SynaptiX_FDK/app/app.c ****         snprintf(g_app.last_time_str, sizeof(g_app.last_time_str), "%s", time_str);
 1660              		.loc 1 454 24 discriminator 4 view .LVU372
 1661 0160 344C     		ldr	r4, .L115+44
 1662              	.LVL154:
 454:SynaptiX_FDK/app/app.c ****         snprintf(g_app.last_time_str, sizeof(g_app.last_time_str), "%s", time_str);
 1663              		.loc 1 454 24 discriminator 4 view .LVU373
 1664 0162 C4F8A000 		str	r0, [r4, #160]
 455:SynaptiX_FDK/app/app.c ****         snprintf(g_app.last_date_str, sizeof(g_app.last_date_str), "%s", date_str);
ARM GAS  C:\Users\LENOVO\AppData\Local\Temp\ccWRq5sC.s 			page 53


 1665              		.loc 1 455 9 is_stmt 1 view .LVU374
 1666 0166 354F     		ldr	r7, .L115+52
 1667 0168 04F1A405 		add	r5, r4, #164
 1668 016c 0FAB     		add	r3, sp, #60
 1669 016e 3A46     		mov	r2, r7
 1670 0170 0C21     		movs	r1, #12
 1671 0172 2846     		mov	r0, r5
 1672 0174 FFF7FEFF 		bl	snprintf
 1673              	.LVL155:
 456:SynaptiX_FDK/app/app.c ****         log_info(TAG, "Last GPS loaded: lat=%.6f lon=%.6f alt=%.2f spd=%.2f sat=%d time=%s date=%s"
 1674              		.loc 1 456 9 view .LVU375
 1675 0178 04F1B006 		add	r6, r4, #176
 1676 017c 0CAB     		add	r3, sp, #48
 1677 017e 3A46     		mov	r2, r7
 1678 0180 0C21     		movs	r1, #12
 1679 0182 3046     		mov	r0, r6
 1680 0184 FFF7FEFF 		bl	snprintf
 1681              	.LVL156:
 457:SynaptiX_FDK/app/app.c ****                 g_app.last_lat, g_app.last_lon, g_app.last_alt, g_app.last_spd, g_app.last_sat,
 1682              		.loc 1 457 9 view .LVU376
 1683 0188 D4F89070 		ldr	r7, [r4, #144]	@ float
 1684 018c D4F89480 		ldr	r8, [r4, #148]	@ float
 1685 0190 D4F89890 		ldr	r9, [r4, #152]	@ float
 1686 0194 D4F89C00 		ldr	r0, [r4, #156]	@ float
 1687 0198 D4F8A030 		ldr	r3, [r4, #160]
 1688 019c 0A96     		str	r6, [sp, #40]
 1689 019e 0995     		str	r5, [sp, #36]
 1690 01a0 0893     		str	r3, [sp, #32]
 1691 01a2 FFF7FEFF 		bl	__aeabi_f2d
 1692              	.LVL157:
 1693 01a6 CDE90601 		strd	r0, [sp, #24]
 1694 01aa 4846     		mov	r0, r9	@ float
 1695 01ac FFF7FEFF 		bl	__aeabi_f2d
 1696              	.LVL158:
 1697 01b0 CDE90401 		strd	r0, [sp, #16]
 1698 01b4 4046     		mov	r0, r8	@ float
 1699 01b6 FFF7FEFF 		bl	__aeabi_f2d
 1700              	.LVL159:
 1701 01ba CDE90201 		strd	r0, [sp, #8]
 1702 01be 3846     		mov	r0, r7	@ float
 1703 01c0 FFF7FEFF 		bl	__aeabi_f2d
 1704              	.LVL160:
 1705 01c4 CDE90001 		strd	r0, [sp]
 1706 01c8 1D4A     		ldr	r2, .L115+56
 1707 01ca 0F49     		ldr	r1, .L115
 1708 01cc 0320     		movs	r0, #3
 1709 01ce FFF7FEFF 		bl	log_func
 1710              	.LVL161:
 1711 01d2 A3E7     		b	.L89
 1712              	.LVL162:
 1713              	.L100:
 452:SynaptiX_FDK/app/app.c ****         g_app.last_spd = (parsed >= 6) ? strtof(spd_str, NULL) : 0.0f;
 1714              		.loc 1 452 42 is_stmt 0 discriminator 1 view .LVU377
 1715 01d4 0021     		movs	r1, #0
 1716 01d6 1AA8     		add	r0, sp, #104
 1717 01d8 FFF7FEFF 		bl	strtof
 1718              	.LVL163:
ARM GAS  C:\Users\LENOVO\AppData\Local\Temp\ccWRq5sC.s 			page 54


 452:SynaptiX_FDK/app/app.c ****         g_app.last_spd = (parsed >= 6) ? strtof(spd_str, NULL) : 0.0f;
 1719              		.loc 1 452 24 discriminator 4 view .LVU378
 1720 01dc 154B     		ldr	r3, .L115+44
 1721 01de 83ED260A 		vstr.32	s0, [r3, #152]
 453:SynaptiX_FDK/app/app.c ****         g_app.last_sat = (parsed >= 7) ? (int)strtol(sat_str, NULL, 10) : 0;
 1722              		.loc 1 453 9 is_stmt 1 view .LVU379
 453:SynaptiX_FDK/app/app.c ****         g_app.last_sat = (parsed >= 7) ? (int)strtol(sat_str, NULL, 10) : 0;
 1723              		.loc 1 453 64 is_stmt 0 view .LVU380
 1724 01e2 052C     		cmp	r4, #5
 1725 01e4 04DC     		bgt	.L102
 453:SynaptiX_FDK/app/app.c ****         g_app.last_sat = (parsed >= 7) ? (int)strtol(sat_str, NULL, 10) : 0;
 1726              		.loc 1 453 24 discriminator 4 view .LVU381
 1727 01e6 0022     		movs	r2, #0
 1728 01e8 C3F89C20 		str	r2, [r3, #156]	@ float
 454:SynaptiX_FDK/app/app.c ****         snprintf(g_app.last_time_str, sizeof(g_app.last_time_str), "%s", time_str);
 1729              		.loc 1 454 9 is_stmt 1 view .LVU382
 454:SynaptiX_FDK/app/app.c ****         snprintf(g_app.last_time_str, sizeof(g_app.last_time_str), "%s", time_str);
 1730              		.loc 1 454 73 is_stmt 0 discriminator 2 view .LVU383
 1731 01ec 0020     		movs	r0, #0
 1732 01ee B7E7     		b	.L103
 1733              	.L102:
 453:SynaptiX_FDK/app/app.c ****         g_app.last_sat = (parsed >= 7) ? (int)strtol(sat_str, NULL, 10) : 0;
 1734              		.loc 1 453 42 discriminator 1 view .LVU384
 1735 01f0 0021     		movs	r1, #0
 1736 01f2 16A8     		add	r0, sp, #88
 1737 01f4 FFF7FEFF 		bl	strtof
 1738              	.LVL164:
 1739 01f8 ACE7     		b	.L101
 1740              	.L114:
 454:SynaptiX_FDK/app/app.c ****         snprintf(g_app.last_time_str, sizeof(g_app.last_time_str), "%s", time_str);
 1741              		.loc 1 454 47 discriminator 1 view .LVU385
 1742 01fa 0A22     		movs	r2, #10
 1743 01fc 0021     		movs	r1, #0
 1744 01fe 12A8     		add	r0, sp, #72
 1745 0200 FFF7FEFF 		bl	strtol
 1746              	.LVL165:
 1747 0204 ACE7     		b	.L103
 1748              	.L116:
 1749 0206 00BF     		.align	2
 1750              	.L115:
 1751 0208 18000000 		.word	.LC3
 1752 020c 00000000 		.word	.LC46
 1753 0210 18000000 		.word	.LC47
 1754 0214 24000000 		.word	.LC48
 1755 0218 00000000 		.word	s_tail_buf.2
 1756 021c 3C000000 		.word	.LC49
 1757 0220 54000000 		.word	.LC50
 1758 0224 80000000 		.word	.LC52
 1759 0228 94000000 		.word	.LC53
 1760 022c 38010000 		.word	.LC56
 1761 0230 68000000 		.word	.LC51
 1762 0234 00000000 		.word	g_app
 1763 0238 00000000 		.word	0
 1764 023c E8000000 		.word	.LC54
 1765 0240 EC000000 		.word	.LC55
 1766              		.cfi_endproc
 1767              	.LFE565:
ARM GAS  C:\Users\LENOVO\AppData\Local\Temp\ccWRq5sC.s 			page 55


 1769              		.section	.rodata._handle_usb_connected.str1.4,"aMS",%progbits,1
 1770              		.align	2
 1771              	.LC57:
 1772 0000 3D3D3D20 		.ascii	"=== USB connected \342\200\224 restarting ===\000"
 1772      55534220 
 1772      636F6E6E 
 1772      65637465 
 1772      6420E280 
 1773              		.section	.text._handle_usb_connected,"ax",%progbits
 1774              		.align	1
 1775              		.syntax unified
 1776              		.thumb
 1777              		.thumb_func
 1779              	_handle_usb_connected:
 1780              	.LFB558:
 220:SynaptiX_FDK/app/app.c ****     g_app.sleep.wake_reason = WAKE_REASON_EXTI;
 1781              		.loc 1 220 1 is_stmt 1 view -0
 1782              		.cfi_startproc
 1783              		@ args = 0, pretend = 0, frame = 0
 1784              		@ frame_needed = 0, uses_anonymous_args = 0
 1785 0000 38B5     		push	{r3, r4, r5, lr}
 1786              	.LCFI15:
 1787              		.cfi_def_cfa_offset 16
 1788              		.cfi_offset 3, -16
 1789              		.cfi_offset 4, -12
 1790              		.cfi_offset 5, -8
 1791              		.cfi_offset 14, -4
 221:SynaptiX_FDK/app/app.c **** 
 1792              		.loc 1 221 5 view .LVU387
 221:SynaptiX_FDK/app/app.c **** 
 1793              		.loc 1 221 29 is_stmt 0 view .LVU388
 1794 0002 1E4C     		ldr	r4, .L119
 1795 0004 0223     		movs	r3, #2
 1796 0006 2373     		strb	r3, [r4, #12]
 223:SynaptiX_FDK/app/app.c **** 
 1797              		.loc 1 223 5 is_stmt 1 view .LVU389
 1798 0008 1D4A     		ldr	r2, .L119+4
 1799 000a 1E49     		ldr	r1, .L119+8
 1800 000c 0320     		movs	r0, #3
 1801 000e FFF7FEFF 		bl	log_func
 1802              	.LVL166:
 225:SynaptiX_FDK/app/app.c ****     g_app.publish_count = 0;
 1803              		.loc 1 225 5 view .LVU390
 225:SynaptiX_FDK/app/app.c ****     g_app.publish_count = 0;
 1804              		.loc 1 225 29 is_stmt 0 view .LVU391
 1805 0012 0025     		movs	r5, #0
 1806 0014 84F83D50 		strb	r5, [r4, #61]
 226:SynaptiX_FDK/app/app.c ****     g_app.enter_sleep_published = 0;
 1807              		.loc 1 226 5 is_stmt 1 view .LVU392
 226:SynaptiX_FDK/app/app.c ****     g_app.enter_sleep_published = 0;
 1808              		.loc 1 226 25 is_stmt 0 view .LVU393
 1809 0018 84F84050 		strb	r5, [r4, #64]
 227:SynaptiX_FDK/app/app.c ****     g_app.mqtt_stopped = 0;
 1810              		.loc 1 227 5 is_stmt 1 view .LVU394
 227:SynaptiX_FDK/app/app.c ****     g_app.mqtt_stopped = 0;
 1811              		.loc 1 227 33 is_stmt 0 view .LVU395
 1812 001c 84F83E50 		strb	r5, [r4, #62]
ARM GAS  C:\Users\LENOVO\AppData\Local\Temp\ccWRq5sC.s 			page 56


 228:SynaptiX_FDK/app/app.c ****     g_app.subscribed = 0;
 1813              		.loc 1 228 5 is_stmt 1 view .LVU396
 228:SynaptiX_FDK/app/app.c ****     g_app.subscribed = 0;
 1814              		.loc 1 228 24 is_stmt 0 view .LVU397
 1815 0020 84F83F50 		strb	r5, [r4, #63]
 229:SynaptiX_FDK/app/app.c ****     g_app.publish_elapsed = 0;
 1816              		.loc 1 229 5 is_stmt 1 view .LVU398
 229:SynaptiX_FDK/app/app.c ****     g_app.publish_elapsed = 0;
 1817              		.loc 1 229 22 is_stmt 0 view .LVU399
 1818 0024 84F83C50 		strb	r5, [r4, #60]
 230:SynaptiX_FDK/app/app.c **** 
 1819              		.loc 1 230 5 is_stmt 1 view .LVU400
 230:SynaptiX_FDK/app/app.c **** 
 1820              		.loc 1 230 27 is_stmt 0 view .LVU401
 1821 0028 A563     		str	r5, [r4, #56]
 232:SynaptiX_FDK/app/app.c ****     sx_user_mqtt_force_disconnect();
 1822              		.loc 1 232 5 is_stmt 1 view .LVU402
 1823 002a 04F11000 		add	r0, r4, #16
 1824 002e FFF7FEFF 		bl	sx_sleep_manager_reset_wake
 1825              	.LVL167:
 233:SynaptiX_FDK/app/app.c **** 
 1826              		.loc 1 233 5 view .LVU403
 1827 0032 FFF7FEFF 		bl	sx_user_mqtt_force_disconnect
 1828              	.LVL168:
 235:SynaptiX_FDK/app/app.c ****     g_app.board->sim76xx.base.buff_id = 0;
 1829              		.loc 1 235 5 view .LVU404
 235:SynaptiX_FDK/app/app.c ****     g_app.board->sim76xx.base.buff_id = 0;
 1830              		.loc 1 235 10 is_stmt 0 view .LVU405
 1831 0036 E36C     		ldr	r3, [r4, #76]
 235:SynaptiX_FDK/app/app.c ****     g_app.board->sim76xx.base.buff_id = 0;
 1832              		.loc 1 235 38 view .LVU406
 1833 0038 83F86052 		strb	r5, [r3, #608]
 236:SynaptiX_FDK/app/app.c ****     memset(g_app.board->sim76xx.base.buff, 0, MODEM_RX_BUFFER_SIZE);
 1834              		.loc 1 236 5 is_stmt 1 view .LVU407
 236:SynaptiX_FDK/app/app.c ****     memset(g_app.board->sim76xx.base.buff, 0, MODEM_RX_BUFFER_SIZE);
 1835              		.loc 1 236 10 is_stmt 0 view .LVU408
 1836 003c E36C     		ldr	r3, [r4, #76]
 236:SynaptiX_FDK/app/app.c ****     memset(g_app.board->sim76xx.base.buff, 0, MODEM_RX_BUFFER_SIZE);
 1837              		.loc 1 236 39 view .LVU409
 1838 003e C3F80052 		str	r5, [r3, #512]
 237:SynaptiX_FDK/app/app.c ****     g_app.board->sim76xx.state = SIM76XX_STATE_IDLE;
 1839              		.loc 1 237 5 is_stmt 1 view .LVU410
 237:SynaptiX_FDK/app/app.c ****     g_app.board->sim76xx.state = SIM76XX_STATE_IDLE;
 1840              		.loc 1 237 17 is_stmt 0 view .LVU411
 1841 0042 E06C     		ldr	r0, [r4, #76]
 237:SynaptiX_FDK/app/app.c ****     g_app.board->sim76xx.state = SIM76XX_STATE_IDLE;
 1842              		.loc 1 237 5 view .LVU412
 1843 0044 4FF40072 		mov	r2, #512
 1844 0048 2946     		mov	r1, r5
 1845 004a FFF7FEFF 		bl	memset
 1846              	.LVL169:
 238:SynaptiX_FDK/app/app.c **** 
 1847              		.loc 1 238 5 is_stmt 1 view .LVU413
 238:SynaptiX_FDK/app/app.c **** 
 1848              		.loc 1 238 10 is_stmt 0 view .LVU414
 1849 004e E36C     		ldr	r3, [r4, #76]
 238:SynaptiX_FDK/app/app.c **** 
ARM GAS  C:\Users\LENOVO\AppData\Local\Temp\ccWRq5sC.s 			page 57


 1850              		.loc 1 238 32 view .LVU415
 1851 0050 83F87052 		strb	r5, [r3, #624]
 240:SynaptiX_FDK/app/app.c **** 
 1852              		.loc 1 240 5 is_stmt 1 view .LVU416
 1853 0054 FFF7FEFF 		bl	sx_board_uart_resume_it
 1854              	.LVL170:
 242:SynaptiX_FDK/app/app.c ****     sim76xx_power_on(&g_app.board->sim76xx);
 1855              		.loc 1 242 5 view .LVU417
 242:SynaptiX_FDK/app/app.c ****     sim76xx_power_on(&g_app.board->sim76xx);
 1856              		.loc 1 242 29 is_stmt 0 view .LVU418
 1857 0058 E06C     		ldr	r0, [r4, #76]
 242:SynaptiX_FDK/app/app.c ****     sim76xx_power_on(&g_app.board->sim76xx);
 1858              		.loc 1 242 5 view .LVU419
 1859 005a FFF7FEFF 		bl	sim76xx_power_off
 1860              	.LVL171:
 243:SynaptiX_FDK/app/app.c ****     sim76xx_start(&g_app.board->sim76xx);
 1861              		.loc 1 243 5 is_stmt 1 view .LVU420
 243:SynaptiX_FDK/app/app.c ****     sim76xx_start(&g_app.board->sim76xx);
 1862              		.loc 1 243 28 is_stmt 0 view .LVU421
 1863 005e E06C     		ldr	r0, [r4, #76]
 243:SynaptiX_FDK/app/app.c ****     sim76xx_start(&g_app.board->sim76xx);
 1864              		.loc 1 243 5 view .LVU422
 1865 0060 FFF7FEFF 		bl	sim76xx_power_on
 1866              	.LVL172:
 244:SynaptiX_FDK/app/app.c **** 
 1867              		.loc 1 244 5 is_stmt 1 view .LVU423
 244:SynaptiX_FDK/app/app.c **** 
 1868              		.loc 1 244 25 is_stmt 0 view .LVU424
 1869 0064 E06C     		ldr	r0, [r4, #76]
 244:SynaptiX_FDK/app/app.c **** 
 1870              		.loc 1 244 5 view .LVU425
 1871 0066 FFF7FEFF 		bl	sim76xx_start
 1872              	.LVL173:
 246:SynaptiX_FDK/app/app.c ****     gps_it_handle();
 1873              		.loc 1 246 5 is_stmt 1 view .LVU426
 246:SynaptiX_FDK/app/app.c ****     gps_it_handle();
 1874              		.loc 1 246 24 is_stmt 0 view .LVU427
 1875 006a E06C     		ldr	r0, [r4, #76]
 246:SynaptiX_FDK/app/app.c ****     gps_it_handle();
 1876              		.loc 1 246 5 view .LVU428
 1877 006c 00F54270 		add	r0, r0, #776
 1878 0070 FFF7FEFF 		bl	gps_power_on
 1879              	.LVL174:
 247:SynaptiX_FDK/app/app.c **** }
 1880              		.loc 1 247 5 is_stmt 1 view .LVU429
 1881 0074 FFF7FEFF 		bl	gps_it_handle
 1882              	.LVL175:
 248:SynaptiX_FDK/app/app.c **** 
 1883              		.loc 1 248 1 is_stmt 0 view .LVU430
 1884 0078 38BD     		pop	{r3, r4, r5, pc}
 1885              	.L120:
 1886 007a 00BF     		.align	2
 1887              	.L119:
 1888 007c 00000000 		.word	g_app
 1889 0080 00000000 		.word	.LC57
 1890 0084 18000000 		.word	.LC3
 1891              		.cfi_endproc
ARM GAS  C:\Users\LENOVO\AppData\Local\Temp\ccWRq5sC.s 			page 58


 1892              	.LFE558:
 1894              		.section	.rodata._sync_gps_log_to_disk.str1.4,"aMS",%progbits,1
 1895              		.align	2
 1896              	.LC58:
 1897 0000 53796E63 		.ascii	"Syncing last GPS log entry to disk...\000"
 1897      696E6720 
 1897      6C617374 
 1897      20475053 
 1897      206C6F67 
 1898 0026 0000     		.align	2
 1899              	.LC59:
 1900 0028 4E6F2047 		.ascii	"No GPS log on flash\000"
 1900      5053206C 
 1900      6F67206F 
 1900      6E20666C 
 1900      61736800 
 1901              		.align	2
 1902              	.LC60:
 1903 003c 6E6F2064 		.ascii	"no data\012\000"
 1903      6174610A 
 1903      00
 1904 0045 000000   		.align	2
 1905              	.LC61:
 1906 0048 6C6F675F 		.ascii	"log_gps.csv\000"
 1906      6770732E 
 1906      63737600 
 1907              		.align	2
 1908              	.LC62:
 1909 0054 6669782C 		.ascii	"fix,lat,lon,alt,spd,sat,time,date\012\000"
 1909      6C61742C 
 1909      6C6F6E2C 
 1909      616C742C 
 1909      7370642C 
 1910 0077 00       		.align	2
 1911              	.LC63:
 1912 0078 2573312C 		.ascii	"%s1,%.6f,%.6f,%.6f,%.6f,%d,%s,%s\000"
 1912      252E3666 
 1912      2C252E36 
 1912      662C252E 
 1912      36662C25 
 1913 0099 000000   		.align	2
 1914              	.LC64:
 1915 009c 2573302C 		.ascii	"%s0,0.000000,0.000000,0.000000,0.000000,0,N/A,N/A\000"
 1915      302E3030 
 1915      30303030 
 1915      2C302E30 
 1915      30303030 
 1916 00ce 0000     		.align	2
 1917              	.LC65:
 1918 00d0 47505320 		.ascii	"GPS CSV written: %s\000"
 1918      43535620 
 1918      77726974 
 1918      74656E3A 
 1918      20257300 
 1919              		.section	.text._sync_gps_log_to_disk,"ax",%progbits
 1920              		.align	1
 1921              		.syntax unified
ARM GAS  C:\Users\LENOVO\AppData\Local\Temp\ccWRq5sC.s 			page 59


 1922              		.thumb
 1923              		.thumb_func
 1925              	_sync_gps_log_to_disk:
 1926              	.LFB566:
 590:SynaptiX_FDK/app/app.c ****     log_info(TAG, "Syncing last GPS log entry to disk...");
 1927              		.loc 1 590 1 is_stmt 1 view -0
 1928              		.cfi_startproc
 1929              		@ args = 0, pretend = 0, frame = 0
 1930              		@ frame_needed = 0, uses_anonymous_args = 0
 1931 0000 70B5     		push	{r4, r5, r6, lr}
 1932              	.LCFI16:
 1933              		.cfi_def_cfa_offset 16
 1934              		.cfi_offset 4, -16
 1935              		.cfi_offset 5, -12
 1936              		.cfi_offset 6, -8
 1937              		.cfi_offset 14, -4
 1938 0002 8CB0     		sub	sp, sp, #48
 1939              	.LCFI17:
 1940              		.cfi_def_cfa_offset 64
 591:SynaptiX_FDK/app/app.c **** 
 1941              		.loc 1 591 5 view .LVU432
 1942 0004 344A     		ldr	r2, .L129
 1943 0006 3549     		ldr	r1, .L129+4
 1944 0008 0320     		movs	r0, #3
 1945 000a FFF7FEFF 		bl	log_func
 1946              	.LVL176:
 593:SynaptiX_FDK/app/app.c ****     {
 1947              		.loc 1 593 5 view .LVU433
 593:SynaptiX_FDK/app/app.c ****     {
 1948              		.loc 1 593 10 is_stmt 0 view .LVU434
 1949 000e 3448     		ldr	r0, .L129+8
 1950 0010 FFF7FEFF 		bl	sx_storage_exists
 1951              	.LVL177:
 593:SynaptiX_FDK/app/app.c ****     {
 1952              		.loc 1 593 8 discriminator 1 view .LVU435
 1953 0014 48B3     		cbz	r0, .L127
 603:SynaptiX_FDK/app/app.c **** 
 1954              		.loc 1 603 5 is_stmt 1 view .LVU436
 1955 0016 FFF7FEFF 		bl	read_last_gps
 1956              	.LVL178:
 605:SynaptiX_FDK/app/app.c **** 
 1957              		.loc 1 605 5 view .LVU437
 607:SynaptiX_FDK/app/app.c ****     {
 1958              		.loc 1 607 5 view .LVU438
 607:SynaptiX_FDK/app/app.c ****     {
 1959              		.loc 1 607 14 is_stmt 0 view .LVU439
 1960 001a 324B     		ldr	r3, .L129+12
 1961 001c D3ED247A 		vldr.32	s15, [r3, #144]
 607:SynaptiX_FDK/app/app.c ****     {
 1962              		.loc 1 607 8 view .LVU440
 1963 0020 F5EE407A 		vcmp.f32	s15, #0
 1964 0024 F1EE10FA 		vmrs	APSR_nzcv, FPSCR
 1965 0028 06D0     		beq	.L124
 607:SynaptiX_FDK/app/app.c ****     {
 1966              		.loc 1 607 40 discriminator 1 view .LVU441
 1967 002a D3ED257A 		vldr.32	s15, [r3, #148]
 607:SynaptiX_FDK/app/app.c ****     {
ARM GAS  C:\Users\LENOVO\AppData\Local\Temp\ccWRq5sC.s 			page 60


 1968              		.loc 1 607 32 discriminator 1 view .LVU442
 1969 002e F5EE407A 		vcmp.f32	s15, #0
 1970 0032 F1EE10FA 		vmrs	APSR_nzcv, FPSCR
 1971 0036 25D1     		bne	.L128
 1972              	.L124:
 618:SynaptiX_FDK/app/app.c ****                 "%s0,0.000000,0.000000,0.000000,0.000000,0,N/A,N/A",
 1973              		.loc 1 618 9 is_stmt 1 view .LVU443
 1974 0038 2B4B     		ldr	r3, .L129+16
 1975 003a 2C4A     		ldr	r2, .L129+20
 1976 003c C021     		movs	r1, #192
 1977 003e 2C48     		ldr	r0, .L129+24
 1978 0040 FFF7FEFF 		bl	snprintf
 1979              	.LVL179:
 1980              	.L125:
 623:SynaptiX_FDK/app/app.c ****                       (const uint8_t *)s_csv_line,
 1981              		.loc 1 623 5 view .LVU444
 625:SynaptiX_FDK/app/app.c ****     sx_user_msc_remount_disk();
 1982              		.loc 1 625 23 is_stmt 0 view .LVU445
 1983 0044 2A4C     		ldr	r4, .L129+24
 1984 0046 2046     		mov	r0, r4
 1985 0048 FFF7FEFF 		bl	strlen
 1986              	.LVL180:
 1987 004c 0246     		mov	r2, r0
 623:SynaptiX_FDK/app/app.c ****                       (const uint8_t *)s_csv_line,
 1988              		.loc 1 623 5 view .LVU446
 1989 004e 2146     		mov	r1, r4
 1990 0050 2848     		ldr	r0, .L129+28
 1991 0052 FFF7FEFF 		bl	sx_user_msc_write
 1992              	.LVL181:
 626:SynaptiX_FDK/app/app.c ****     log_info(TAG, "GPS CSV written: %s", s_csv_line);
 1993              		.loc 1 626 5 is_stmt 1 view .LVU447
 1994 0056 FFF7FEFF 		bl	sx_user_msc_remount_disk
 1995              	.LVL182:
 627:SynaptiX_FDK/app/app.c **** }
 1996              		.loc 1 627 5 view .LVU448
 1997 005a 2346     		mov	r3, r4
 1998 005c 264A     		ldr	r2, .L129+32
 1999 005e 1F49     		ldr	r1, .L129+4
 2000 0060 0320     		movs	r0, #3
 2001 0062 FFF7FEFF 		bl	log_func
 2002              	.LVL183:
 2003              	.L121:
 628:SynaptiX_FDK/app/app.c **** 
 2004              		.loc 1 628 1 is_stmt 0 view .LVU449
 2005 0066 0CB0     		add	sp, sp, #48
 2006              	.LCFI18:
 2007              		.cfi_remember_state
 2008              		.cfi_def_cfa_offset 16
 2009              		@ sp needed
 2010 0068 70BD     		pop	{r4, r5, r6, pc}
 2011              	.L127:
 2012              	.LCFI19:
 2013              		.cfi_restore_state
 595:SynaptiX_FDK/app/app.c ****         sx_user_msc_write(GPS_CSV_FILE_PATH,
 2014              		.loc 1 595 9 is_stmt 1 view .LVU450
 2015 006a 244A     		ldr	r2, .L129+36
 2016 006c 1B49     		ldr	r1, .L129+4
ARM GAS  C:\Users\LENOVO\AppData\Local\Temp\ccWRq5sC.s 			page 61


 2017 006e 0220     		movs	r0, #2
 2018 0070 FFF7FEFF 		bl	log_func
 2019              	.LVL184:
 596:SynaptiX_FDK/app/app.c ****                           (const uint8_t *)"no data\n",
 2020              		.loc 1 596 9 view .LVU451
 2021 0074 0822     		movs	r2, #8
 2022 0076 2249     		ldr	r1, .L129+40
 2023 0078 1E48     		ldr	r0, .L129+28
 2024 007a FFF7FEFF 		bl	sx_user_msc_write
 2025              	.LVL185:
 599:SynaptiX_FDK/app/app.c ****         return;
 2026              		.loc 1 599 9 view .LVU452
 2027 007e FFF7FEFF 		bl	sx_user_msc_remount_disk
 2028              	.LVL186:
 600:SynaptiX_FDK/app/app.c ****     }
 2029              		.loc 1 600 9 view .LVU453
 2030 0082 F0E7     		b	.L121
 2031              	.L128:
 609:SynaptiX_FDK/app/app.c ****                 "%s1,%.6f,%.6f,%.6f,%.6f,%d,%s,%s",
 2032              		.loc 1 609 9 view .LVU454
 612:SynaptiX_FDK/app/app.c ****                 g_app.last_alt, g_app.last_spd, g_app.last_sat,
 2033              		.loc 1 612 22 is_stmt 0 view .LVU455
 2034 0084 D3F89040 		ldr	r4, [r3, #144]	@ float
 612:SynaptiX_FDK/app/app.c ****                 g_app.last_alt, g_app.last_spd, g_app.last_sat,
 2035              		.loc 1 612 38 view .LVU456
 2036 0088 D3F89450 		ldr	r5, [r3, #148]	@ float
 613:SynaptiX_FDK/app/app.c ****                 g_app.last_time_str, g_app.last_date_str);
 2037              		.loc 1 613 22 view .LVU457
 2038 008c D3F89860 		ldr	r6, [r3, #152]	@ float
 613:SynaptiX_FDK/app/app.c ****                 g_app.last_time_str, g_app.last_date_str);
 2039              		.loc 1 613 38 view .LVU458
 2040 0090 D3F89C00 		ldr	r0, [r3, #156]	@ float
 613:SynaptiX_FDK/app/app.c ****                 g_app.last_time_str, g_app.last_date_str);
 2041              		.loc 1 613 54 view .LVU459
 2042 0094 D3F8A020 		ldr	r2, [r3, #160]
 609:SynaptiX_FDK/app/app.c ****                 "%s1,%.6f,%.6f,%.6f,%.6f,%d,%s,%s",
 2043              		.loc 1 609 9 view .LVU460
 2044 0098 03F1B001 		add	r1, r3, #176
 2045 009c 0A91     		str	r1, [sp, #40]
 2046 009e A433     		adds	r3, r3, #164
 2047 00a0 0993     		str	r3, [sp, #36]
 2048 00a2 0892     		str	r2, [sp, #32]
 2049 00a4 FFF7FEFF 		bl	__aeabi_f2d
 2050              	.LVL187:
 2051 00a8 CDE90601 		strd	r0, [sp, #24]
 2052 00ac 3046     		mov	r0, r6	@ float
 2053 00ae FFF7FEFF 		bl	__aeabi_f2d
 2054              	.LVL188:
 2055 00b2 CDE90401 		strd	r0, [sp, #16]
 2056 00b6 2846     		mov	r0, r5	@ float
 2057 00b8 FFF7FEFF 		bl	__aeabi_f2d
 2058              	.LVL189:
 2059 00bc CDE90201 		strd	r0, [sp, #8]
 2060 00c0 2046     		mov	r0, r4	@ float
 2061 00c2 FFF7FEFF 		bl	__aeabi_f2d
 2062              	.LVL190:
 2063 00c6 CDE90001 		strd	r0, [sp]
ARM GAS  C:\Users\LENOVO\AppData\Local\Temp\ccWRq5sC.s 			page 62


 2064 00ca 074B     		ldr	r3, .L129+16
 2065 00cc 0D4A     		ldr	r2, .L129+44
 2066 00ce C021     		movs	r1, #192
 2067 00d0 0748     		ldr	r0, .L129+24
 2068 00d2 FFF7FEFF 		bl	snprintf
 2069              	.LVL191:
 2070 00d6 B5E7     		b	.L125
 2071              	.L130:
 2072              		.align	2
 2073              	.L129:
 2074 00d8 00000000 		.word	.LC58
 2075 00dc 18000000 		.word	.LC3
 2076 00e0 18000000 		.word	.LC47
 2077 00e4 00000000 		.word	g_app
 2078 00e8 54000000 		.word	.LC62
 2079 00ec 9C000000 		.word	.LC64
 2080 00f0 00000000 		.word	s_csv_line.1
 2081 00f4 48000000 		.word	.LC61
 2082 00f8 D0000000 		.word	.LC65
 2083 00fc 28000000 		.word	.LC59
 2084 0100 3C000000 		.word	.LC60
 2085 0104 78000000 		.word	.LC63
 2086              		.cfi_endproc
 2087              	.LFE566:
 2089              		.section	.rodata.publish_gsm.str1.4,"aMS",%progbits,1
 2090              		.align	2
 2091              	.LC66:
 2092 0000 76696E64 		.ascii	"vindynamic/tracking/gsm/\000"
 2092      796E616D 
 2092      69632F74 
 2092      7261636B 
 2092      696E672F 
 2093 0019 000000   		.align	2
 2094              	.LC67:
 2095 001c 25732573 		.ascii	"%s%s\000"
 2095      00
 2096 0021 000000   		.align	2
 2097              	.LC68:
 2098 0024 7B226D6F 		.ascii	"{\"mode\":\"%s\",\"rssi\":%d,\"ip\":\"%s\",\"imei\""
 2098      6465223A 
 2098      22257322 
 2098      2C227273 
 2098      7369223A 
 2099 004b 3A222573 		.ascii	":\"%s\",\"apn\":\"%s\",\"vbat\":%f,\"time\":\"%02d:"
 2099      222C2261 
 2099      706E223A 
 2099      22257322 
 2099      2C227662 
 2100 0073 25303264 		.ascii	"%02d:%02d\",\"date\":\"%02d/%02d/20%02d\"}\000"
 2100      3A253032 
 2100      64222C22 
 2100      64617465 
 2100      223A2225 
 2101 0099 000000   		.align	2
 2102              	.LC69:
 2103 009c 47534D3A 		.ascii	"GSM: %s\000"
 2103      20257300 
ARM GAS  C:\Users\LENOVO\AppData\Local\Temp\ccWRq5sC.s 			page 63


 2104              		.section	.text.publish_gsm,"ax",%progbits
 2105              		.align	1
 2106              		.syntax unified
 2107              		.thumb
 2108              		.thumb_func
 2110              	publish_gsm:
 2111              	.LVL192:
 2112              	.LFB563:
 315:SynaptiX_FDK/app/app.c ****     char msg[256];
 2113              		.loc 1 315 1 is_stmt 1 view -0
 2114              		.cfi_startproc
 2115              		@ args = 0, pretend = 0, frame = 384
 2116              		@ frame_needed = 0, uses_anonymous_args = 0
 315:SynaptiX_FDK/app/app.c ****     char msg[256];
 2117              		.loc 1 315 1 is_stmt 0 view .LVU462
 2118 0000 2DE9F043 		push	{r4, r5, r6, r7, r8, r9, lr}
 2119              	.LCFI20:
 2120              		.cfi_def_cfa_offset 28
 2121              		.cfi_offset 4, -28
 2122              		.cfi_offset 5, -24
 2123              		.cfi_offset 6, -20
 2124              		.cfi_offset 7, -16
 2125              		.cfi_offset 8, -12
 2126              		.cfi_offset 9, -8
 2127              		.cfi_offset 14, -4
 2128 0004 EDB0     		sub	sp, sp, #436
 2129              	.LCFI21:
 2130              		.cfi_def_cfa_offset 464
 2131 0006 0546     		mov	r5, r0
 316:SynaptiX_FDK/app/app.c ****     char topic[128];
 2132              		.loc 1 316 5 is_stmt 1 view .LVU463
 317:SynaptiX_FDK/app/app.c ****     
 2133              		.loc 1 317 5 view .LVU464
 319:SynaptiX_FDK/app/app.c **** 
 2134              		.loc 1 319 5 view .LVU465
 319:SynaptiX_FDK/app/app.c **** 
 2135              		.loc 1 319 29 is_stmt 0 view .LVU466
 2136 0008 294C     		ldr	r4, .L133
 2137 000a E06C     		ldr	r0, [r4, #76]
 2138              	.LVL193:
 319:SynaptiX_FDK/app/app.c **** 
 2139              		.loc 1 319 5 view .LVU467
 2140 000c 04F15401 		add	r1, r4, #84
 2141 0010 00F5B260 		add	r0, r0, #1424
 2142 0014 FFF7FEFF 		bl	rx8130ce_get_time
 2143              	.LVL194:
 321:SynaptiX_FDK/app/app.c **** 
 2144              		.loc 1 321 5 is_stmt 1 view .LVU468
 2145 0018 04F1BC03 		add	r3, r4, #188
 2146 001c 0093     		str	r3, [sp]
 2147 001e 254B     		ldr	r3, .L133+4
 2148 0020 254A     		ldr	r2, .L133+8
 2149 0022 8021     		movs	r1, #128
 2150 0024 0CA8     		add	r0, sp, #48
 2151 0026 FFF7FEFF 		bl	snprintf
 2152              	.LVL195:
 323:SynaptiX_FDK/app/app.c ****              "{\"mode\":\"%s\",\"rssi\":%d,\"ip\":\"%s\",\"imei\":\"%s\",\"apn\":\"%s\",\"vbat\":%f
ARM GAS  C:\Users\LENOVO\AppData\Local\Temp\ccWRq5sC.s 			page 64


 2153              		.loc 1 323 5 view .LVU469
 327:SynaptiX_FDK/app/app.c ****              sim76xx_get_ip(&g_app.board->sim76xx),
 2154              		.loc 1 327 37 is_stmt 0 view .LVU470
 2155 002a E36C     		ldr	r3, [r4, #76]
 2156              	.LVL196:
 2157              	.LBB28:
 2158              	.LBI28:
 2159              		.file 2 "SynaptiX_FDK/components/sim76xx/sim76xx.h"
   1:SynaptiX_FDK/components/sim76xx/sim76xx.h **** #ifndef SIM70XX_H
   2:SynaptiX_FDK/components/sim76xx/sim76xx.h **** #define SIM70XX_H
   3:SynaptiX_FDK/components/sim76xx/sim76xx.h **** #ifdef __cplusplus
   4:SynaptiX_FDK/components/sim76xx/sim76xx.h **** extern "C" {
   5:SynaptiX_FDK/components/sim76xx/sim76xx.h **** #endif
   6:SynaptiX_FDK/components/sim76xx/sim76xx.h **** 
   7:SynaptiX_FDK/components/sim76xx/sim76xx.h **** #include "modem.h"
   8:SynaptiX_FDK/components/sim76xx/sim76xx.h **** #include <stdint.h>
   9:SynaptiX_FDK/components/sim76xx/sim76xx.h **** 
  10:SynaptiX_FDK/components/sim76xx/sim76xx.h **** /*  Retry and timeout config  */
  11:SynaptiX_FDK/components/sim76xx/sim76xx.h **** #define SIM76XX_MAX_RETRY           3
  12:SynaptiX_FDK/components/sim76xx/sim76xx.h **** #define SIM76XX_TIMEOUT_AT          2500U
  13:SynaptiX_FDK/components/sim76xx/sim76xx.h **** #define SIM76XX_TIMEOUT_NETWORK     10000U
  14:SynaptiX_FDK/components/sim76xx/sim76xx.h **** #define SIM76XX_TIMEOUT_NETOPEN     10000U
  15:SynaptiX_FDK/components/sim76xx/sim76xx.h **** #define SIM76XX_TIMEOUT_CFUN        15000U 
  16:SynaptiX_FDK/components/sim76xx/sim76xx.h **** 
  17:SynaptiX_FDK/components/sim76xx/sim76xx.h **** /*  Init state machine  */
  18:SynaptiX_FDK/components/sim76xx/sim76xx.h **** typedef enum {
  19:SynaptiX_FDK/components/sim76xx/sim76xx.h ****     SIM76XX_STATE_IDLE = 0,
  20:SynaptiX_FDK/components/sim76xx/sim76xx.h ****     SIM76XX_STATE_AT,
  21:SynaptiX_FDK/components/sim76xx/sim76xx.h ****     SIM76XX_STATE_CGSN,
  22:SynaptiX_FDK/components/sim76xx/sim76xx.h ****     SIM76XX_STATE_COPS_QUERY,
  23:SynaptiX_FDK/components/sim76xx/sim76xx.h ****     SIM76XX_STATE_COPS_SET,
  24:SynaptiX_FDK/components/sim76xx/sim76xx.h ****     SIM76XX_STATE_CSQ,
  25:SynaptiX_FDK/components/sim76xx/sim76xx.h ****     SIM76XX_STATE_CFUN,
  26:SynaptiX_FDK/components/sim76xx/sim76xx.h ****     SIM76XX_STATE_CGATT,
  27:SynaptiX_FDK/components/sim76xx/sim76xx.h ****     SIM76XX_STATE_CGDCONT,
  28:SynaptiX_FDK/components/sim76xx/sim76xx.h ****     SIM76XX_STATE_CGAUTH,
  29:SynaptiX_FDK/components/sim76xx/sim76xx.h ****     SIM76XX_STATE_CGREG,
  30:SynaptiX_FDK/components/sim76xx/sim76xx.h ****     SIM76XX_STATE_NETOPEN,
  31:SynaptiX_FDK/components/sim76xx/sim76xx.h ****     SIM76XX_STATE_IPADDR,        
  32:SynaptiX_FDK/components/sim76xx/sim76xx.h ****     SIM76XX_STATE_READY,
  33:SynaptiX_FDK/components/sim76xx/sim76xx.h ****     SIM76XX_STATE_ERROR,
  34:SynaptiX_FDK/components/sim76xx/sim76xx.h ****     SIM76XX_STATE_CGDCONT_QUERY,
  35:SynaptiX_FDK/components/sim76xx/sim76xx.h **** } sim76xx_state_t;
  36:SynaptiX_FDK/components/sim76xx/sim76xx.h **** 
  37:SynaptiX_FDK/components/sim76xx/sim76xx.h **** typedef struct sim76xx sim76xx_t;
  38:SynaptiX_FDK/components/sim76xx/sim76xx.h **** 
  39:SynaptiX_FDK/components/sim76xx/sim76xx.h **** typedef void (*sim76xx_on_ready_cb_t)(sim76xx_t *dce);
  40:SynaptiX_FDK/components/sim76xx/sim76xx.h **** 
  41:SynaptiX_FDK/components/sim76xx/sim76xx.h **** typedef void (*sim76xx_on_error_cb_t)(sim76xx_t *dce);
  42:SynaptiX_FDK/components/sim76xx/sim76xx.h **** 
  43:SynaptiX_FDK/components/sim76xx/sim76xx.h **** typedef void (*sim76xx_on_urc_cb_t)(sim76xx_t *dce, const char *urc_line);
  44:SynaptiX_FDK/components/sim76xx/sim76xx.h **** 
  45:SynaptiX_FDK/components/sim76xx/sim76xx.h **** struct sim76xx
  46:SynaptiX_FDK/components/sim76xx/sim76xx.h **** {
  47:SynaptiX_FDK/components/sim76xx/sim76xx.h ****     /* data */
  48:SynaptiX_FDK/components/sim76xx/sim76xx.h ****     modem_t base;
  49:SynaptiX_FDK/components/sim76xx/sim76xx.h **** 
ARM GAS  C:\Users\LENOVO\AppData\Local\Temp\ccWRq5sC.s 			page 65


  50:SynaptiX_FDK/components/sim76xx/sim76xx.h ****     sim76xx_state_t state;
  51:SynaptiX_FDK/components/sim76xx/sim76xx.h ****     uint8_t retry_count;
  52:SynaptiX_FDK/components/sim76xx/sim76xx.h **** 
  53:SynaptiX_FDK/components/sim76xx/sim76xx.h ****     int rssi;
  54:SynaptiX_FDK/components/sim76xx/sim76xx.h ****     int ber;
  55:SynaptiX_FDK/components/sim76xx/sim76xx.h ****     char imei[16];
  56:SynaptiX_FDK/components/sim76xx/sim76xx.h ****     char ip[16];
  57:SynaptiX_FDK/components/sim76xx/sim76xx.h ****     char apn[32];
  58:SynaptiX_FDK/components/sim76xx/sim76xx.h **** 
  59:SynaptiX_FDK/components/sim76xx/sim76xx.h ****     char username[32];
  60:SynaptiX_FDK/components/sim76xx/sim76xx.h ****     char password[32];
  61:SynaptiX_FDK/components/sim76xx/sim76xx.h **** 
  62:SynaptiX_FDK/components/sim76xx/sim76xx.h ****     sim76xx_on_ready_cb_t on_ready;
  63:SynaptiX_FDK/components/sim76xx/sim76xx.h ****     sim76xx_on_error_cb_t on_error;
  64:SynaptiX_FDK/components/sim76xx/sim76xx.h ****     sim76xx_on_urc_cb_t   on_urc;
  65:SynaptiX_FDK/components/sim76xx/sim76xx.h **** };
  66:SynaptiX_FDK/components/sim76xx/sim76xx.h **** 
  67:SynaptiX_FDK/components/sim76xx/sim76xx.h **** void sim76xx_init(sim76xx_t *dce);
  68:SynaptiX_FDK/components/sim76xx/sim76xx.h **** void sim76xx_power_on(sim76xx_t *dce);
  69:SynaptiX_FDK/components/sim76xx/sim76xx.h **** void sim76xx_power_off(sim76xx_t *dce);
  70:SynaptiX_FDK/components/sim76xx/sim76xx.h **** void sim76xx_reset(sim76xx_t *dce);
  71:SynaptiX_FDK/components/sim76xx/sim76xx.h **** 
  72:SynaptiX_FDK/components/sim76xx/sim76xx.h **** int sim76xx_start(sim76xx_t *dce);
  73:SynaptiX_FDK/components/sim76xx/sim76xx.h **** void sim76xx_poll(sim76xx_t *dce, uint32_t ts);
  74:SynaptiX_FDK/components/sim76xx/sim76xx.h **** 
  75:SynaptiX_FDK/components/sim76xx/sim76xx.h **** int sim76xx_mqtt_stop(sim76xx_t *dce, modem_command_response_callback_t cb, uint32_t timeout_ms);
  76:SynaptiX_FDK/components/sim76xx/sim76xx.h **** 
  77:SynaptiX_FDK/components/sim76xx/sim76xx.h **** //Sleep mode
  78:SynaptiX_FDK/components/sim76xx/sim76xx.h **** int sim76xx_psm_enable(sim76xx_t *dce, uint32_t tau_sec, uint32_t active_sec);
  79:SynaptiX_FDK/components/sim76xx/sim76xx.h **** int sim76xx_psm_disable(sim76xx_t *dce);
  80:SynaptiX_FDK/components/sim76xx/sim76xx.h **** void sim76xx_wake(sim76xx_t *dce);
  81:SynaptiX_FDK/components/sim76xx/sim76xx.h **** void sim76xx_set_full_apn(sim76xx_t *dce, char* apn, char* user, char* pass);
  82:SynaptiX_FDK/components/sim76xx/sim76xx.h **** 
  83:SynaptiX_FDK/components/sim76xx/sim76xx.h **** static inline void sim76xx_set_on_ready(sim76xx_t *dce, sim76xx_on_ready_cb_t cb){
  84:SynaptiX_FDK/components/sim76xx/sim76xx.h ****     dce->on_ready = cb;
  85:SynaptiX_FDK/components/sim76xx/sim76xx.h **** }
  86:SynaptiX_FDK/components/sim76xx/sim76xx.h **** 
  87:SynaptiX_FDK/components/sim76xx/sim76xx.h **** static inline void sim76xx_set_on_error(sim76xx_t *dce, sim76xx_on_error_cb_t cb){
  88:SynaptiX_FDK/components/sim76xx/sim76xx.h ****     dce->on_error = cb;
  89:SynaptiX_FDK/components/sim76xx/sim76xx.h **** }
  90:SynaptiX_FDK/components/sim76xx/sim76xx.h **** 
  91:SynaptiX_FDK/components/sim76xx/sim76xx.h **** static inline void sim76xx_set_on_urc(sim76xx_t *dce, sim76xx_on_urc_cb_t cb){
  92:SynaptiX_FDK/components/sim76xx/sim76xx.h ****     dce->on_urc = cb;
  93:SynaptiX_FDK/components/sim76xx/sim76xx.h **** }
  94:SynaptiX_FDK/components/sim76xx/sim76xx.h **** 
  95:SynaptiX_FDK/components/sim76xx/sim76xx.h **** static inline uint8_t sim76xx_is_ready(sim76xx_t *dce){
  96:SynaptiX_FDK/components/sim76xx/sim76xx.h ****     return (dce->state == SIM76XX_STATE_READY);
  97:SynaptiX_FDK/components/sim76xx/sim76xx.h **** }
  98:SynaptiX_FDK/components/sim76xx/sim76xx.h **** 
  99:SynaptiX_FDK/components/sim76xx/sim76xx.h **** static inline sim76xx_state_t sim76xx_get_state(sim76xx_t *dce){
 100:SynaptiX_FDK/components/sim76xx/sim76xx.h ****     return dce->state;
 101:SynaptiX_FDK/components/sim76xx/sim76xx.h **** }
 102:SynaptiX_FDK/components/sim76xx/sim76xx.h **** 
 103:SynaptiX_FDK/components/sim76xx/sim76xx.h **** static inline const char *sim76xx_get_imei(sim76xx_t *dce){
 104:SynaptiX_FDK/components/sim76xx/sim76xx.h ****     return dce->imei;
 105:SynaptiX_FDK/components/sim76xx/sim76xx.h **** }
 106:SynaptiX_FDK/components/sim76xx/sim76xx.h **** 
ARM GAS  C:\Users\LENOVO\AppData\Local\Temp\ccWRq5sC.s 			page 66


 107:SynaptiX_FDK/components/sim76xx/sim76xx.h **** static inline const char *sim76xx_get_ip(sim76xx_t *dce){
 108:SynaptiX_FDK/components/sim76xx/sim76xx.h ****     return dce->ip;
 109:SynaptiX_FDK/components/sim76xx/sim76xx.h **** }
 110:SynaptiX_FDK/components/sim76xx/sim76xx.h **** 
 111:SynaptiX_FDK/components/sim76xx/sim76xx.h **** static inline int sim76xx_get_rssi(sim76xx_t *dce){
 2160              		.loc 2 111 19 is_stmt 1 view .LVU471
 2161              	.LBB29:
 112:SynaptiX_FDK/components/sim76xx/sim76xx.h ****     return dce->rssi;
 2162              		.loc 2 112 5 view .LVU472
 2163              		.loc 2 112 15 is_stmt 0 view .LVU473
 2164 002c D3F87492 		ldr	r9, [r3, #628]
 2165              	.LVL197:
 2166              		.loc 2 112 15 view .LVU474
 2167              	.LBE29:
 2168              	.LBE28:
 328:SynaptiX_FDK/app/app.c ****              sim76xx_get_imei(&g_app.board->sim76xx),
 2169              		.loc 1 328 35 view .LVU475
 2170 0030 E66C     		ldr	r6, [r4, #76]
 2171              	.LVL198:
 2172              	.LBB30:
 2173              	.LBI30:
 107:SynaptiX_FDK/components/sim76xx/sim76xx.h ****     return dce->ip;
 2174              		.loc 2 107 27 is_stmt 1 view .LVU476
 2175              	.LBB31:
 108:SynaptiX_FDK/components/sim76xx/sim76xx.h **** }
 2176              		.loc 2 108 5 view .LVU477
 108:SynaptiX_FDK/components/sim76xx/sim76xx.h **** }
 2177              		.loc 2 108 12 is_stmt 0 view .LVU478
 2178 0032 06F52376 		add	r6, r6, #652
 2179              	.LVL199:
 108:SynaptiX_FDK/components/sim76xx/sim76xx.h **** }
 2180              		.loc 2 108 12 view .LVU479
 2181              	.LBE31:
 2182              	.LBE30:
 329:SynaptiX_FDK/app/app.c ****              sim76xx_get_apn(&g_app.board->sim76xx), g_app.board->voltage.v_bat,
 2183              		.loc 1 329 37 view .LVU480
 2184 0036 E76C     		ldr	r7, [r4, #76]
 2185              	.LVL200:
 2186              	.LBB32:
 2187              	.LBI32:
 103:SynaptiX_FDK/components/sim76xx/sim76xx.h ****     return dce->imei;
 2188              		.loc 2 103 27 is_stmt 1 view .LVU481
 2189              	.LBB33:
 104:SynaptiX_FDK/components/sim76xx/sim76xx.h **** }
 2190              		.loc 2 104 5 view .LVU482
 104:SynaptiX_FDK/components/sim76xx/sim76xx.h **** }
 2191              		.loc 2 104 12 is_stmt 0 view .LVU483
 2192 0038 07F51F77 		add	r7, r7, #636
 2193              	.LVL201:
 104:SynaptiX_FDK/components/sim76xx/sim76xx.h **** }
 2194              		.loc 2 104 12 view .LVU484
 2195              	.LBE33:
 2196              	.LBE32:
 330:SynaptiX_FDK/app/app.c ****              g_app.time.hour, g_app.time.min, g_app.time.sec,
 2197              		.loc 1 330 36 view .LVU485
 2198 003c E36C     		ldr	r3, [r4, #76]
 2199              	.LVL202:
ARM GAS  C:\Users\LENOVO\AppData\Local\Temp\ccWRq5sC.s 			page 67


 2200              	.LBB34:
 2201              	.LBI34:
 113:SynaptiX_FDK/components/sim76xx/sim76xx.h **** }
 114:SynaptiX_FDK/components/sim76xx/sim76xx.h **** 
 115:SynaptiX_FDK/components/sim76xx/sim76xx.h **** static inline void sim76xx_set_apn(sim76xx_t *dce, const char *apn) {
 116:SynaptiX_FDK/components/sim76xx/sim76xx.h ****     strncpy(dce->apn, apn, sizeof(dce->apn) - 1);
 117:SynaptiX_FDK/components/sim76xx/sim76xx.h ****     dce->apn[sizeof(dce->apn) - 1] = '\0';
 118:SynaptiX_FDK/components/sim76xx/sim76xx.h **** }
 119:SynaptiX_FDK/components/sim76xx/sim76xx.h **** 
 120:SynaptiX_FDK/components/sim76xx/sim76xx.h **** static inline const char *sim76xx_get_apn(sim76xx_t *dce){
 2202              		.loc 2 120 27 is_stmt 1 view .LVU486
 2203              	.LBB35:
 121:SynaptiX_FDK/components/sim76xx/sim76xx.h ****     return dce->apn;
 2204              		.loc 2 121 5 view .LVU487
 2205              		.loc 2 121 12 is_stmt 0 view .LVU488
 2206 003e 03F52778 		add	r8, r3, #668
 2207              	.LVL203:
 2208              		.loc 2 121 12 view .LVU489
 2209              	.LBE35:
 2210              	.LBE34:
 330:SynaptiX_FDK/app/app.c ****              g_app.time.hour, g_app.time.min, g_app.time.sec,
 2211              		.loc 1 330 59 view .LVU490
 2212 0042 E36C     		ldr	r3, [r4, #76]
 330:SynaptiX_FDK/app/app.c ****              g_app.time.hour, g_app.time.min, g_app.time.sec,
 2213              		.loc 1 330 74 view .LVU491
 2214 0044 03F59E63 		add	r3, r3, #1264
 2215 0048 1868     		ldr	r0, [r3]	@ float
 331:SynaptiX_FDK/app/app.c ****              g_app.time.day, g_app.time.month+1, g_app.time.year);
 2216              		.loc 1 331 24 view .LVU492
 2217 004a 94F85620 		ldrb	r2, [r4, #86]	@ zero_extendqisi2
 331:SynaptiX_FDK/app/app.c ****              g_app.time.day, g_app.time.month+1, g_app.time.year);
 2218              		.loc 1 331 41 view .LVU493
 2219 004e 94F85510 		ldrb	r1, [r4, #85]	@ zero_extendqisi2
 331:SynaptiX_FDK/app/app.c ****              g_app.time.day, g_app.time.month+1, g_app.time.year);
 2220              		.loc 1 331 57 view .LVU494
 2221 0052 94F854C0 		ldrb	ip, [r4, #84]	@ zero_extendqisi2
 332:SynaptiX_FDK/app/app.c **** 
 2222              		.loc 1 332 24 view .LVU495
 2223 0056 94F858E0 		ldrb	lr, [r4, #88]	@ zero_extendqisi2
 332:SynaptiX_FDK/app/app.c **** 
 2224              		.loc 1 332 40 view .LVU496
 2225 005a 94F85930 		ldrb	r3, [r4, #89]	@ zero_extendqisi2
 332:SynaptiX_FDK/app/app.c **** 
 2226              		.loc 1 332 60 view .LVU497
 2227 005e 94F85A40 		ldrb	r4, [r4, #90]	@ zero_extendqisi2
 323:SynaptiX_FDK/app/app.c ****              "{\"mode\":\"%s\",\"rssi\":%d,\"ip\":\"%s\",\"imei\":\"%s\",\"apn\":\"%s\",\"vbat\":%f
 2228              		.loc 1 323 5 view .LVU498
 2229 0062 0B94     		str	r4, [sp, #44]
 2230 0064 0133     		adds	r3, r3, #1
 2231 0066 0A93     		str	r3, [sp, #40]
 2232 0068 CDF824E0 		str	lr, [sp, #36]
 2233 006c CDF820C0 		str	ip, [sp, #32]
 2234 0070 0791     		str	r1, [sp, #28]
 2235 0072 0692     		str	r2, [sp, #24]
 2236 0074 FFF7FEFF 		bl	__aeabi_f2d
 2237              	.LVL204:
 2238 0078 CDE90401 		strd	r0, [sp, #16]
ARM GAS  C:\Users\LENOVO\AppData\Local\Temp\ccWRq5sC.s 			page 68


 2239 007c CDF80C80 		str	r8, [sp, #12]
 2240 0080 0297     		str	r7, [sp, #8]
 2241 0082 0196     		str	r6, [sp, #4]
 2242 0084 CDF80090 		str	r9, [sp]
 2243 0088 2B46     		mov	r3, r5
 2244 008a 0C4A     		ldr	r2, .L133+12
 2245 008c 4FF48071 		mov	r1, #256
 2246 0090 2CA8     		add	r0, sp, #176
 2247 0092 FFF7FEFF 		bl	snprintf
 2248              	.LVL205:
 334:SynaptiX_FDK/app/app.c ****     log_info(TAG, "GSM: %s", msg);
 2249              		.loc 1 334 5 is_stmt 1 view .LVU499
 2250 0096 2CA9     		add	r1, sp, #176
 2251 0098 0CA8     		add	r0, sp, #48
 2252 009a FFF7FEFF 		bl	sx_user_mqtt_publish
 2253              	.LVL206:
 335:SynaptiX_FDK/app/app.c **** }
 2254              		.loc 1 335 5 view .LVU500
 2255 009e 2CAB     		add	r3, sp, #176
 2256 00a0 074A     		ldr	r2, .L133+16
 2257 00a2 0849     		ldr	r1, .L133+20
 2258 00a4 0320     		movs	r0, #3
 2259 00a6 FFF7FEFF 		bl	log_func
 2260              	.LVL207:
 336:SynaptiX_FDK/app/app.c **** 
 2261              		.loc 1 336 1 is_stmt 0 view .LVU501
 2262 00aa 6DB0     		add	sp, sp, #436
 2263              	.LCFI22:
 2264              		.cfi_def_cfa_offset 28
 2265              		@ sp needed
 2266 00ac BDE8F083 		pop	{r4, r5, r6, r7, r8, r9, pc}
 2267              	.LVL208:
 2268              	.L134:
 336:SynaptiX_FDK/app/app.c **** 
 2269              		.loc 1 336 1 view .LVU502
 2270              		.align	2
 2271              	.L133:
 2272 00b0 00000000 		.word	g_app
 2273 00b4 00000000 		.word	.LC66
 2274 00b8 1C000000 		.word	.LC67
 2275 00bc 24000000 		.word	.LC68
 2276 00c0 9C000000 		.word	.LC69
 2277 00c4 18000000 		.word	.LC3
 2278              		.cfi_endproc
 2279              	.LFE563:
 2281              		.section	.rodata.write_gps_log.str1.4,"aMS",%progbits,1
 2282              		.align	2
 2283              	.LC70:
 2284 0000 5B25735D 		.ascii	"[%s] fix=1 lat=%.6f lon=%.6f rssi=%d alt=%.6f spd=%"
 2284      20666978 
 2284      3D31206C 
 2284      61743D25 
 2284      2E366620 
 2285 0033 2E366620 		.ascii	".6f sat=%d time=%02d:%02d:%02d date=%02d/%02d/20%02"
 2285      7361743D 
 2285      25642074 
 2285      696D653D 
ARM GAS  C:\Users\LENOVO\AppData\Local\Temp\ccWRq5sC.s 			page 69


 2285      25303264 
 2286 0066 640A00   		.ascii	"d\012\000"
 2287 0069 000000   		.align	2
 2288              	.LC71:
 2289 006c 5B25735D 		.ascii	"[%s] fix=0 lat=0.000000 lon=0.000000 rssi=%d alt=0."
 2289      20666978 
 2289      3D30206C 
 2289      61743D30 
 2289      2E303030 
 2290 009f 30303030 		.ascii	"000000 spd=0.000000 sat=0 time=%02d:%02d:%02d date="
 2290      30302073 
 2290      70643D30 
 2290      2E303030 
 2290      30303020 
 2291 00d2 25303264 		.ascii	"%02d/%02d/20%02d\012\000"
 2291      2F253032 
 2291      642F3230 
 2291      25303264 
 2291      0A00
 2292              		.align	2
 2293              	.LC72:
 2294 00e4 47505320 		.ascii	"GPS log written: %s\000"
 2294      6C6F6720 
 2294      77726974 
 2294      74656E3A 
 2294      20257300 
 2295              		.section	.text.write_gps_log,"ax",%progbits
 2296              		.align	1
 2297              		.syntax unified
 2298              		.thumb
 2299              		.thumb_func
 2301              	write_gps_log:
 2302              	.LVL209:
 2303              	.LFB553:
 130:SynaptiX_FDK/app/app.c ****     static uint32_t s_log_count = 0;
 2304              		.loc 1 130 1 is_stmt 1 view -0
 2305              		.cfi_startproc
 2306              		@ args = 0, pretend = 0, frame = 192
 2307              		@ frame_needed = 0, uses_anonymous_args = 0
 130:SynaptiX_FDK/app/app.c ****     static uint32_t s_log_count = 0;
 2308              		.loc 1 130 1 is_stmt 0 view .LVU504
 2309 0000 2DE9F041 		push	{r4, r5, r6, r7, r8, lr}
 2310              	.LCFI23:
 2311              		.cfi_def_cfa_offset 24
 2312              		.cfi_offset 4, -24
 2313              		.cfi_offset 5, -20
 2314              		.cfi_offset 6, -16
 2315              		.cfi_offset 7, -12
 2316              		.cfi_offset 8, -8
 2317              		.cfi_offset 14, -4
 2318 0004 2DED028B 		vpush.64	{d8}
 2319              	.LCFI24:
 2320              		.cfi_def_cfa_offset 32
 2321              		.cfi_offset 80, -32
 2322              		.cfi_offset 81, -28
 2323 0008 C2B0     		sub	sp, sp, #264
 2324              	.LCFI25:
ARM GAS  C:\Users\LENOVO\AppData\Local\Temp\ccWRq5sC.s 			page 70


 2325              		.cfi_def_cfa_offset 296
 2326 000a 0546     		mov	r5, r0
 131:SynaptiX_FDK/app/app.c ****     char line[192];
 2327              		.loc 1 131 5 is_stmt 1 view .LVU505
 132:SynaptiX_FDK/app/app.c ****     sx_gps_t *gps = &g_app.board->gps;
 2328              		.loc 1 132 5 view .LVU506
 133:SynaptiX_FDK/app/app.c **** 
 2329              		.loc 1 133 5 view .LVU507
 133:SynaptiX_FDK/app/app.c **** 
 2330              		.loc 1 133 27 is_stmt 0 view .LVU508
 2331 000c 4649     		ldr	r1, .L140
 2332 000e CC6C     		ldr	r4, [r1, #76]
 2333              	.LVL210:
 135:SynaptiX_FDK/app/app.c **** 
 2334              		.loc 1 135 5 is_stmt 1 view .LVU509
 135:SynaptiX_FDK/app/app.c **** 
 2335              		.loc 1 135 29 is_stmt 0 view .LVU510
 2336 0010 C86C     		ldr	r0, [r1, #76]
 2337              	.LVL211:
 135:SynaptiX_FDK/app/app.c **** 
 2338              		.loc 1 135 5 view .LVU511
 2339 0012 5431     		adds	r1, r1, #84
 2340 0014 00F5B260 		add	r0, r0, #1424
 2341 0018 FFF7FEFF 		bl	rx8130ce_get_time
 2342              	.LVL212:
 137:SynaptiX_FDK/app/app.c ****     {
 2343              		.loc 1 137 5 is_stmt 1 view .LVU512
 137:SynaptiX_FDK/app/app.c ****     {
 2344              		.loc 1 137 12 is_stmt 0 view .LVU513
 2345 001c 94EDD78A 		vldr.32	s16, [r4, #860]
 137:SynaptiX_FDK/app/app.c ****     {
 2346              		.loc 1 137 8 view .LVU514
 2347 0020 B5EE408A 		vcmp.f32	s16, #0
 2348 0024 F1EE10FA 		vmrs	APSR_nzcv, FPSCR
 2349 0028 06D0     		beq	.L136
 137:SynaptiX_FDK/app/app.c ****     {
 2350              		.loc 1 137 37 discriminator 1 view .LVU515
 2351 002a D4EDD88A 		vldr.32	s17, [r4, #864]
 137:SynaptiX_FDK/app/app.c ****     {
 2352              		.loc 1 137 31 discriminator 1 view .LVU516
 2353 002e F5EE408A 		vcmp.f32	s17, #0
 2354 0032 F1EE10FA 		vmrs	APSR_nzcv, FPSCR
 2355 0036 38D1     		bne	.L139
 2356              	.L136:
 150:SynaptiX_FDK/app/app.c ****                  "[%s] fix=0 lat=0.000000 lon=0.000000 rssi=%d alt=0.000000 spd=0.000000 sat=0 time
 2357              		.loc 1 150 9 is_stmt 1 view .LVU517
 153:SynaptiX_FDK/app/app.c ****                  g_app.time.hour, g_app.time.min, g_app.time.sec,
 2358              		.loc 1 153 41 is_stmt 0 view .LVU518
 2359 0038 3B4A     		ldr	r2, .L140
 2360 003a D36C     		ldr	r3, [r2, #76]
 2361              	.LVL213:
 2362              	.LBB36:
 2363              	.LBI36:
 111:SynaptiX_FDK/components/sim76xx/sim76xx.h ****     return dce->rssi;
 2364              		.loc 2 111 19 is_stmt 1 view .LVU519
 2365              	.LBB37:
 112:SynaptiX_FDK/components/sim76xx/sim76xx.h **** }
ARM GAS  C:\Users\LENOVO\AppData\Local\Temp\ccWRq5sC.s 			page 71


 2366              		.loc 2 112 5 view .LVU520
 112:SynaptiX_FDK/components/sim76xx/sim76xx.h **** }
 2367              		.loc 2 112 15 is_stmt 0 view .LVU521
 2368 003c D3F87432 		ldr	r3, [r3, #628]
 2369              	.LVL214:
 112:SynaptiX_FDK/components/sim76xx/sim76xx.h **** }
 2370              		.loc 2 112 15 view .LVU522
 2371              	.LBE37:
 2372              	.LBE36:
 154:SynaptiX_FDK/app/app.c ****                  g_app.time.day,  g_app.time.month+1, g_app.time.year);
 2373              		.loc 1 154 28 view .LVU523
 2374 0040 92F85600 		ldrb	r0, [r2, #86]	@ zero_extendqisi2
 154:SynaptiX_FDK/app/app.c ****                  g_app.time.day,  g_app.time.month+1, g_app.time.year);
 2375              		.loc 1 154 45 view .LVU524
 2376 0044 92F85540 		ldrb	r4, [r2, #85]	@ zero_extendqisi2
 2377              	.LVL215:
 154:SynaptiX_FDK/app/app.c ****                  g_app.time.day,  g_app.time.month+1, g_app.time.year);
 2378              		.loc 1 154 61 view .LVU525
 2379 0048 92F85460 		ldrb	r6, [r2, #84]	@ zero_extendqisi2
 155:SynaptiX_FDK/app/app.c ****     }
 2380              		.loc 1 155 28 view .LVU526
 2381 004c 92F85870 		ldrb	r7, [r2, #88]	@ zero_extendqisi2
 155:SynaptiX_FDK/app/app.c ****     }
 2382              		.loc 1 155 45 view .LVU527
 2383 0050 92F85910 		ldrb	r1, [r2, #89]	@ zero_extendqisi2
 155:SynaptiX_FDK/app/app.c ****     }
 2384              		.loc 1 155 65 view .LVU528
 2385 0054 92F85A20 		ldrb	r2, [r2, #90]	@ zero_extendqisi2
 150:SynaptiX_FDK/app/app.c ****                  "[%s] fix=0 lat=0.000000 lon=0.000000 rssi=%d alt=0.000000 spd=0.000000 sat=0 time
 2386              		.loc 1 150 9 view .LVU529
 2387 0058 0692     		str	r2, [sp, #24]
 2388 005a 0131     		adds	r1, r1, #1
 2389 005c 0591     		str	r1, [sp, #20]
 2390 005e 0497     		str	r7, [sp, #16]
 2391 0060 0396     		str	r6, [sp, #12]
 2392 0062 0294     		str	r4, [sp, #8]
 2393 0064 0190     		str	r0, [sp, #4]
 2394 0066 0093     		str	r3, [sp]
 2395 0068 2B46     		mov	r3, r5
 2396 006a 304A     		ldr	r2, .L140+4
 2397 006c C021     		movs	r1, #192
 2398 006e 12A8     		add	r0, sp, #72
 2399 0070 FFF7FEFF 		bl	snprintf
 2400              	.LVL216:
 2401              	.L137:
 158:SynaptiX_FDK/app/app.c ****     sx_storage_append(GPS_LOG_FILE_PATH, line, strlen(line));
 2402              		.loc 1 158 5 is_stmt 1 view .LVU530
 2403 0074 2E4C     		ldr	r4, .L140+8
 2404 0076 2046     		mov	r0, r4
 2405 0078 FFF7FEFF 		bl	sx_storage_delete
 2406              	.LVL217:
 159:SynaptiX_FDK/app/app.c ****     s_log_count++;
 2407              		.loc 1 159 5 view .LVU531
 159:SynaptiX_FDK/app/app.c ****     s_log_count++;
 2408              		.loc 1 159 48 is_stmt 0 view .LVU532
 2409 007c 12A8     		add	r0, sp, #72
 2410 007e FFF7FEFF 		bl	strlen
ARM GAS  C:\Users\LENOVO\AppData\Local\Temp\ccWRq5sC.s 			page 72


 2411              	.LVL218:
 2412 0082 0246     		mov	r2, r0
 159:SynaptiX_FDK/app/app.c ****     s_log_count++;
 2413              		.loc 1 159 5 discriminator 1 view .LVU533
 2414 0084 12A9     		add	r1, sp, #72
 2415 0086 2046     		mov	r0, r4
 2416 0088 FFF7FEFF 		bl	sx_storage_append
 2417              	.LVL219:
 160:SynaptiX_FDK/app/app.c ****     log_info(TAG, "GPS log written: %s", line);
 2418              		.loc 1 160 5 is_stmt 1 view .LVU534
 160:SynaptiX_FDK/app/app.c ****     log_info(TAG, "GPS log written: %s", line);
 2419              		.loc 1 160 16 is_stmt 0 view .LVU535
 2420 008c 294A     		ldr	r2, .L140+12
 2421 008e 1368     		ldr	r3, [r2]
 2422 0090 0133     		adds	r3, r3, #1
 2423 0092 1360     		str	r3, [r2]
 161:SynaptiX_FDK/app/app.c **** }
 2424              		.loc 1 161 5 is_stmt 1 view .LVU536
 2425 0094 12AB     		add	r3, sp, #72
 2426 0096 284A     		ldr	r2, .L140+16
 2427 0098 2849     		ldr	r1, .L140+20
 2428 009a 0320     		movs	r0, #3
 2429 009c FFF7FEFF 		bl	log_func
 2430              	.LVL220:
 162:SynaptiX_FDK/app/app.c **** 
 2431              		.loc 1 162 1 is_stmt 0 view .LVU537
 2432 00a0 42B0     		add	sp, sp, #264
 2433              	.LCFI26:
 2434              		.cfi_remember_state
 2435              		.cfi_def_cfa_offset 32
 2436              		@ sp needed
 2437 00a2 BDEC028B 		vldm	sp!, {d8}
 2438              	.LCFI27:
 2439              		.cfi_restore 80
 2440              		.cfi_restore 81
 2441              		.cfi_def_cfa_offset 24
 2442 00a6 BDE8F081 		pop	{r4, r5, r6, r7, r8, pc}
 2443              	.LVL221:
 2444              	.L139:
 2445              	.LCFI28:
 2446              		.cfi_restore_state
 139:SynaptiX_FDK/app/app.c ****                  "[%s] fix=1 lat=%.6f lon=%.6f rssi=%d alt=%.6f spd=%.6f sat=%d time=%02d:%02d:%02d
 2447              		.loc 1 139 9 is_stmt 1 view .LVU538
 143:SynaptiX_FDK/app/app.c ****                  gps->altitude, gps->speed, gps->satellites,
 2448              		.loc 1 143 41 is_stmt 0 view .LVU539
 2449 00aa 1F4B     		ldr	r3, .L140
 2450 00ac DA6C     		ldr	r2, [r3, #76]
 2451              	.LVL222:
 2452              	.LBB38:
 2453              	.LBI38:
 111:SynaptiX_FDK/components/sim76xx/sim76xx.h ****     return dce->rssi;
 2454              		.loc 2 111 19 is_stmt 1 view .LVU540
 2455              	.LBB39:
 112:SynaptiX_FDK/components/sim76xx/sim76xx.h **** }
 2456              		.loc 2 112 5 view .LVU541
 112:SynaptiX_FDK/components/sim76xx/sim76xx.h **** }
 2457              		.loc 2 112 15 is_stmt 0 view .LVU542
ARM GAS  C:\Users\LENOVO\AppData\Local\Temp\ccWRq5sC.s 			page 73


 2458 00ae D2F87462 		ldr	r6, [r2, #628]
 2459              	.LVL223:
 112:SynaptiX_FDK/components/sim76xx/sim76xx.h **** }
 2460              		.loc 2 112 15 view .LVU543
 2461              	.LBE39:
 2462              	.LBE38:
 144:SynaptiX_FDK/app/app.c ****                  g_app.time.hour, g_app.time.min, g_app.time.sec,
 2463              		.loc 1 144 21 view .LVU544
 2464 00b2 D4F86473 		ldr	r7, [r4, #868]	@ float
 144:SynaptiX_FDK/app/app.c ****                  g_app.time.hour, g_app.time.min, g_app.time.sec,
 2465              		.loc 1 144 36 view .LVU545
 2466 00b6 D4F86803 		ldr	r0, [r4, #872]	@ float
 145:SynaptiX_FDK/app/app.c ****                  g_app.time.day,  g_app.time.month+1, g_app.time.year);
 2467              		.loc 1 145 28 view .LVU546
 2468 00ba 93F85610 		ldrb	r1, [r3, #86]	@ zero_extendqisi2
 145:SynaptiX_FDK/app/app.c ****                  g_app.time.day,  g_app.time.month+1, g_app.time.year);
 2469              		.loc 1 145 45 view .LVU547
 2470 00be 93F855C0 		ldrb	ip, [r3, #85]	@ zero_extendqisi2
 145:SynaptiX_FDK/app/app.c ****                  g_app.time.day,  g_app.time.month+1, g_app.time.year);
 2471              		.loc 1 145 61 view .LVU548
 2472 00c2 93F854E0 		ldrb	lr, [r3, #84]	@ zero_extendqisi2
 146:SynaptiX_FDK/app/app.c ****     }
 2473              		.loc 1 146 28 view .LVU549
 2474 00c6 93F85880 		ldrb	r8, [r3, #88]	@ zero_extendqisi2
 146:SynaptiX_FDK/app/app.c ****     }
 2475              		.loc 1 146 45 view .LVU550
 2476 00ca 93F85920 		ldrb	r2, [r3, #89]	@ zero_extendqisi2
 146:SynaptiX_FDK/app/app.c ****     }
 2477              		.loc 1 146 65 view .LVU551
 2478 00ce 93F85A30 		ldrb	r3, [r3, #90]	@ zero_extendqisi2
 139:SynaptiX_FDK/app/app.c ****                  "[%s] fix=1 lat=%.6f lon=%.6f rssi=%d alt=%.6f spd=%.6f sat=%d time=%02d:%02d:%02d
 2479              		.loc 1 139 9 view .LVU552
 2480 00d2 1093     		str	r3, [sp, #64]
 2481 00d4 0132     		adds	r2, r2, #1
 2482 00d6 0F92     		str	r2, [sp, #60]
 2483 00d8 CDF83880 		str	r8, [sp, #56]
 2484 00dc CDF834E0 		str	lr, [sp, #52]
 2485 00e0 CDF830C0 		str	ip, [sp, #48]
 2486 00e4 0B91     		str	r1, [sp, #44]
 2487 00e6 D4F86C33 		ldr	r3, [r4, #876]
 2488 00ea 0A93     		str	r3, [sp, #40]
 2489 00ec FFF7FEFF 		bl	__aeabi_f2d
 2490              	.LVL224:
 2491 00f0 CDE90801 		strd	r0, [sp, #32]
 2492 00f4 3846     		mov	r0, r7	@ float
 2493 00f6 FFF7FEFF 		bl	__aeabi_f2d
 2494              	.LVL225:
 2495 00fa CDE90601 		strd	r0, [sp, #24]
 2496 00fe 0496     		str	r6, [sp, #16]
 2497 0100 18EE900A 		vmov	r0, s17
 2498 0104 FFF7FEFF 		bl	__aeabi_f2d
 2499              	.LVL226:
 2500 0108 CDE90201 		strd	r0, [sp, #8]
 2501 010c 18EE100A 		vmov	r0, s16
 2502 0110 FFF7FEFF 		bl	__aeabi_f2d
 2503              	.LVL227:
 2504 0114 CDE90001 		strd	r0, [sp]
ARM GAS  C:\Users\LENOVO\AppData\Local\Temp\ccWRq5sC.s 			page 74


 2505 0118 2B46     		mov	r3, r5
 2506 011a 094A     		ldr	r2, .L140+24
 2507 011c C021     		movs	r1, #192
 2508 011e 12A8     		add	r0, sp, #72
 2509 0120 FFF7FEFF 		bl	snprintf
 2510              	.LVL228:
 2511 0124 A6E7     		b	.L137
 2512              	.L141:
 2513 0126 00BF     		.align	2
 2514              	.L140:
 2515 0128 00000000 		.word	g_app
 2516 012c 6C000000 		.word	.LC71
 2517 0130 18000000 		.word	.LC47
 2518 0134 00000000 		.word	s_log_count.0
 2519 0138 E4000000 		.word	.LC72
 2520 013c 18000000 		.word	.LC3
 2521 0140 00000000 		.word	.LC70
 2522              		.cfi_endproc
 2523              	.LFE553:
 2525              		.section	.text.set_time_exrtc,"ax",%progbits
 2526              		.align	1
 2527              		.syntax unified
 2528              		.thumb
 2529              		.thumb_func
 2531              	set_time_exrtc:
 2532              	.LVL229:
 2533              	.LFB548:
  99:SynaptiX_FDK/app/app.c ****     g_app.time.sec = sec; 
 2534              		.loc 1 99 123 is_stmt 1 view -0
 2535              		.cfi_startproc
 2536              		@ args = 12, pretend = 0, frame = 0
 2537              		@ frame_needed = 0, uses_anonymous_args = 0
  99:SynaptiX_FDK/app/app.c ****     g_app.time.sec = sec; 
 2538              		.loc 1 99 123 is_stmt 0 view .LVU554
 2539 0000 10B5     		push	{r4, lr}
 2540              	.LCFI29:
 2541              		.cfi_def_cfa_offset 8
 2542              		.cfi_offset 4, -8
 2543              		.cfi_offset 14, -4
 100:SynaptiX_FDK/app/app.c ****     g_app.time.min = min;
 2544              		.loc 1 100 5 is_stmt 1 view .LVU555
 100:SynaptiX_FDK/app/app.c ****     g_app.time.min = min;
 2545              		.loc 1 100 20 is_stmt 0 view .LVU556
 2546 0002 0D4C     		ldr	r4, .L144
 2547 0004 84F85400 		strb	r0, [r4, #84]
 101:SynaptiX_FDK/app/app.c ****     g_app.time.hour = hour;
 2548              		.loc 1 101 5 is_stmt 1 view .LVU557
 101:SynaptiX_FDK/app/app.c ****     g_app.time.hour = hour;
 2549              		.loc 1 101 20 is_stmt 0 view .LVU558
 2550 0008 84F85510 		strb	r1, [r4, #85]
 102:SynaptiX_FDK/app/app.c ****     g_app.time.week = week;
 2551              		.loc 1 102 5 is_stmt 1 view .LVU559
 102:SynaptiX_FDK/app/app.c ****     g_app.time.week = week;
 2552              		.loc 1 102 21 is_stmt 0 view .LVU560
 2553 000c 84F85620 		strb	r2, [r4, #86]
 103:SynaptiX_FDK/app/app.c ****     g_app.time.day = day;
 2554              		.loc 1 103 5 is_stmt 1 view .LVU561
ARM GAS  C:\Users\LENOVO\AppData\Local\Temp\ccWRq5sC.s 			page 75


 103:SynaptiX_FDK/app/app.c ****     g_app.time.day = day;
 2555              		.loc 1 103 21 is_stmt 0 view .LVU562
 2556 0010 84F85730 		strb	r3, [r4, #87]
 104:SynaptiX_FDK/app/app.c ****     g_app.time.month = month;
 2557              		.loc 1 104 5 is_stmt 1 view .LVU563
 104:SynaptiX_FDK/app/app.c ****     g_app.time.month = month;
 2558              		.loc 1 104 20 is_stmt 0 view .LVU564
 2559 0014 9DF80830 		ldrb	r3, [sp, #8]	@ zero_extendqisi2
 2560              	.LVL230:
 104:SynaptiX_FDK/app/app.c ****     g_app.time.month = month;
 2561              		.loc 1 104 20 view .LVU565
 2562 0018 84F85830 		strb	r3, [r4, #88]
 2563              	.LVL231:
 105:SynaptiX_FDK/app/app.c ****     g_app.time.year = year;
 2564              		.loc 1 105 5 is_stmt 1 view .LVU566
 105:SynaptiX_FDK/app/app.c ****     g_app.time.year = year;
 2565              		.loc 1 105 22 is_stmt 0 view .LVU567
 2566 001c 9DF80C30 		ldrb	r3, [sp, #12]	@ zero_extendqisi2
 2567 0020 84F85930 		strb	r3, [r4, #89]
 106:SynaptiX_FDK/app/app.c ****     rx8130ce_set_time(&board.rtc, &g_app.time);
 2568              		.loc 1 106 5 is_stmt 1 view .LVU568
 106:SynaptiX_FDK/app/app.c ****     rx8130ce_set_time(&board.rtc, &g_app.time);
 2569              		.loc 1 106 21 is_stmt 0 view .LVU569
 2570 0024 9DF81030 		ldrb	r3, [sp, #16]	@ zero_extendqisi2
 2571 0028 84F85A30 		strb	r3, [r4, #90]
 107:SynaptiX_FDK/app/app.c **** }
 2572              		.loc 1 107 5 is_stmt 1 view .LVU570
 2573 002c 04F15401 		add	r1, r4, #84
 2574              	.LVL232:
 107:SynaptiX_FDK/app/app.c **** }
 2575              		.loc 1 107 5 is_stmt 0 view .LVU571
 2576 0030 0248     		ldr	r0, .L144+4
 2577              	.LVL233:
 107:SynaptiX_FDK/app/app.c **** }
 2578              		.loc 1 107 5 view .LVU572
 2579 0032 FFF7FEFF 		bl	rx8130ce_set_time
 2580              	.LVL234:
 108:SynaptiX_FDK/app/app.c **** 
 2581              		.loc 1 108 1 view .LVU573
 2582 0036 10BD     		pop	{r4, pc}
 2583              	.LVL235:
 2584              	.L145:
 108:SynaptiX_FDK/app/app.c **** 
 2585              		.loc 1 108 1 view .LVU574
 2586              		.align	2
 2587              	.L144:
 2588 0038 00000000 		.word	g_app
 2589 003c 90050000 		.word	board+1424
 2590              		.cfi_endproc
 2591              	.LFE548:
 2593              		.section	.rodata.publish_gps.str1.4,"aMS",%progbits,1
 2594              		.align	2
 2595              	.LC73:
 2596 0000 7075626C 		.ascii	"publish_gps: enter, mode=%s\000"
 2596      6973685F 
 2596      6770733A 
 2596      20656E74 
ARM GAS  C:\Users\LENOVO\AppData\Local\Temp\ccWRq5sC.s 			page 76


 2596      65722C20 
 2597              		.align	2
 2598              	.LC74:
 2599 001c 7075626C 		.ascii	"publish_gps: rtc read done\000"
 2599      6973685F 
 2599      6770733A 
 2599      20727463 
 2599      20726561 
 2600 0037 00       		.align	2
 2601              	.LC75:
 2602 0038 76696E64 		.ascii	"vindynamic/tracking/gps/\000"
 2602      796E616D 
 2602      69632F74 
 2602      7261636B 
 2602      696E672F 
 2603 0051 000000   		.align	2
 2604              	.LC76:
 2605 0054 7B5C226C 		.ascii	"{\\\"lat\\\":%.6f,\\\"lon\\\":%.6f,\\\"alt\\\":%.6f"
 2605      61745C22 
 2605      3A252E36 
 2605      662C5C22 
 2605      6C6F6E5C 
 2606 007b 2C5C2273 		.ascii	",\\\"spd\\\":%.6f,\\\"sat\\\":%d,\\\"fix\\\":%d}\000"
 2606      70645C22 
 2606      3A252E36 
 2606      662C5C22 
 2606      7361745C 
 2607              		.align	2
 2608              	.LC77:
 2609 00a0 7B227622 		.ascii	"{\"v\":\"%s\",\"time\":%ld}\000"
 2609      3A222573 
 2609      222C2274 
 2609      696D6522 
 2609      3A256C64 
 2610 00b6 0000     		.align	2
 2611              	.LC78:
 2612 00b8 4750533A 		.ascii	"GPS: %s\000"
 2612      20257300 
 2613              		.section	.text.publish_gps,"ax",%progbits
 2614              		.align	1
 2615              		.syntax unified
 2616              		.thumb
 2617              		.thumb_func
 2619              	publish_gps:
 2620              	.LVL236:
 2621              	.LFB564:
 339:SynaptiX_FDK/app/app.c ****     char v_str[128];
 2622              		.loc 1 339 1 is_stmt 1 view -0
 2623              		.cfi_startproc
 2624              		@ args = 0, pretend = 0, frame = 552
 2625              		@ frame_needed = 0, uses_anonymous_args = 0
 339:SynaptiX_FDK/app/app.c ****     char v_str[128];
 2626              		.loc 1 339 1 is_stmt 0 view .LVU576
 2627 0000 2DE9F041 		push	{r4, r5, r6, r7, r8, lr}
 2628              	.LCFI30:
 2629              		.cfi_def_cfa_offset 24
 2630              		.cfi_offset 4, -24
ARM GAS  C:\Users\LENOVO\AppData\Local\Temp\ccWRq5sC.s 			page 77


 2631              		.cfi_offset 5, -20
 2632              		.cfi_offset 6, -16
 2633              		.cfi_offset 7, -12
 2634              		.cfi_offset 8, -8
 2635              		.cfi_offset 14, -4
 2636 0004 2DED028B 		vpush.64	{d8}
 2637              	.LCFI31:
 2638              		.cfi_def_cfa_offset 32
 2639              		.cfi_offset 80, -32
 2640              		.cfi_offset 81, -28
 2641 0008 ADF5147D 		sub	sp, sp, #592
 2642              	.LCFI32:
 2643              		.cfi_def_cfa_offset 624
 2644 000c 0546     		mov	r5, r0
 340:SynaptiX_FDK/app/app.c ****     char msg[256];
 2645              		.loc 1 340 5 is_stmt 1 view .LVU577
 341:SynaptiX_FDK/app/app.c ****     char topic[128];
 2646              		.loc 1 341 5 view .LVU578
 342:SynaptiX_FDK/app/app.c ****     sx_gps_t *gps = &g_app.board->gps;
 2647              		.loc 1 342 5 view .LVU579
 343:SynaptiX_FDK/app/app.c ****     struct tm t = {0};
 2648              		.loc 1 343 5 view .LVU580
 343:SynaptiX_FDK/app/app.c ****     struct tm t = {0};
 2649              		.loc 1 343 27 is_stmt 0 view .LVU581
 2650 000e 574C     		ldr	r4, .L151
 2651 0010 E66C     		ldr	r6, [r4, #76]
 2652              	.LVL237:
 344:SynaptiX_FDK/app/app.c ****     log_info(TAG, "publish_gps: enter, mode=%s", mode);
 2653              		.loc 1 344 5 is_stmt 1 view .LVU582
 344:SynaptiX_FDK/app/app.c ****     log_info(TAG, "publish_gps: enter, mode=%s", mode);
 2654              		.loc 1 344 15 is_stmt 0 view .LVU583
 2655 0012 2422     		movs	r2, #36
 2656 0014 0021     		movs	r1, #0
 2657 0016 0BA8     		add	r0, sp, #44
 2658              	.LVL238:
 344:SynaptiX_FDK/app/app.c ****     log_info(TAG, "publish_gps: enter, mode=%s", mode);
 2659              		.loc 1 344 15 view .LVU584
 2660 0018 FFF7FEFF 		bl	memset
 2661              	.LVL239:
 345:SynaptiX_FDK/app/app.c ****     rx8130ce_get_time(&g_app.board->rtc, &g_app.time);
 2662              		.loc 1 345 5 is_stmt 1 view .LVU585
 2663 001c 544F     		ldr	r7, .L151+4
 2664 001e 2B46     		mov	r3, r5
 2665 0020 544A     		ldr	r2, .L151+8
 2666 0022 3946     		mov	r1, r7
 2667 0024 0320     		movs	r0, #3
 2668 0026 FFF7FEFF 		bl	log_func
 2669              	.LVL240:
 346:SynaptiX_FDK/app/app.c ****     log_info(TAG, "publish_gps: rtc read done");
 2670              		.loc 1 346 5 view .LVU586
 346:SynaptiX_FDK/app/app.c ****     log_info(TAG, "publish_gps: rtc read done");
 2671              		.loc 1 346 29 is_stmt 0 view .LVU587
 2672 002a E06C     		ldr	r0, [r4, #76]
 346:SynaptiX_FDK/app/app.c ****     log_info(TAG, "publish_gps: rtc read done");
 2673              		.loc 1 346 5 view .LVU588
 2674 002c 04F15401 		add	r1, r4, #84
 2675 0030 00F5B260 		add	r0, r0, #1424
ARM GAS  C:\Users\LENOVO\AppData\Local\Temp\ccWRq5sC.s 			page 78


 2676 0034 FFF7FEFF 		bl	rx8130ce_get_time
 2677              	.LVL241:
 347:SynaptiX_FDK/app/app.c ****     t.tm_year = g_app.time.year + 100;  
 2678              		.loc 1 347 5 is_stmt 1 view .LVU589
 2679 0038 4F4A     		ldr	r2, .L151+12
 2680 003a 3946     		mov	r1, r7
 2681 003c 0320     		movs	r0, #3
 2682 003e FFF7FEFF 		bl	log_func
 2683              	.LVL242:
 348:SynaptiX_FDK/app/app.c ****     t.tm_mon  = g_app.time.month;
 2684              		.loc 1 348 5 view .LVU590
 348:SynaptiX_FDK/app/app.c ****     t.tm_mon  = g_app.time.month;
 2685              		.loc 1 348 27 is_stmt 0 view .LVU591
 2686 0042 94F85A30 		ldrb	r3, [r4, #90]	@ zero_extendqisi2
 348:SynaptiX_FDK/app/app.c ****     t.tm_mon  = g_app.time.month;
 2687              		.loc 1 348 33 view .LVU592
 2688 0046 6433     		adds	r3, r3, #100
 348:SynaptiX_FDK/app/app.c ****     t.tm_mon  = g_app.time.month;
 2689              		.loc 1 348 15 view .LVU593
 2690 0048 1093     		str	r3, [sp, #64]
 349:SynaptiX_FDK/app/app.c ****     t.tm_mday = g_app.time.day;
 2691              		.loc 1 349 5 is_stmt 1 view .LVU594
 349:SynaptiX_FDK/app/app.c ****     t.tm_mday = g_app.time.day;
 2692              		.loc 1 349 27 is_stmt 0 view .LVU595
 2693 004a 94F85930 		ldrb	r3, [r4, #89]	@ zero_extendqisi2
 349:SynaptiX_FDK/app/app.c ****     t.tm_mday = g_app.time.day;
 2694              		.loc 1 349 15 view .LVU596
 2695 004e 0F93     		str	r3, [sp, #60]
 350:SynaptiX_FDK/app/app.c ****     t.tm_hour = g_app.time.hour;
 2696              		.loc 1 350 5 is_stmt 1 view .LVU597
 350:SynaptiX_FDK/app/app.c ****     t.tm_hour = g_app.time.hour;
 2697              		.loc 1 350 27 is_stmt 0 view .LVU598
 2698 0050 94F85830 		ldrb	r3, [r4, #88]	@ zero_extendqisi2
 350:SynaptiX_FDK/app/app.c ****     t.tm_hour = g_app.time.hour;
 2699              		.loc 1 350 15 view .LVU599
 2700 0054 0E93     		str	r3, [sp, #56]
 351:SynaptiX_FDK/app/app.c ****     t.tm_min  = g_app.time.min;
 2701              		.loc 1 351 5 is_stmt 1 view .LVU600
 351:SynaptiX_FDK/app/app.c ****     t.tm_min  = g_app.time.min;
 2702              		.loc 1 351 27 is_stmt 0 view .LVU601
 2703 0056 94F85630 		ldrb	r3, [r4, #86]	@ zero_extendqisi2
 351:SynaptiX_FDK/app/app.c ****     t.tm_min  = g_app.time.min;
 2704              		.loc 1 351 15 view .LVU602
 2705 005a 0D93     		str	r3, [sp, #52]
 352:SynaptiX_FDK/app/app.c ****     t.tm_sec  = g_app.time.sec;
 2706              		.loc 1 352 5 is_stmt 1 view .LVU603
 352:SynaptiX_FDK/app/app.c ****     t.tm_sec  = g_app.time.sec;
 2707              		.loc 1 352 27 is_stmt 0 view .LVU604
 2708 005c 94F85530 		ldrb	r3, [r4, #85]	@ zero_extendqisi2
 352:SynaptiX_FDK/app/app.c ****     t.tm_sec  = g_app.time.sec;
 2709              		.loc 1 352 15 view .LVU605
 2710 0060 0C93     		str	r3, [sp, #48]
 353:SynaptiX_FDK/app/app.c ****     time_t unix_ts = mktime(&t);
 2711              		.loc 1 353 5 is_stmt 1 view .LVU606
 353:SynaptiX_FDK/app/app.c ****     time_t unix_ts = mktime(&t);
 2712              		.loc 1 353 27 is_stmt 0 view .LVU607
 2713 0062 94F85430 		ldrb	r3, [r4, #84]	@ zero_extendqisi2
ARM GAS  C:\Users\LENOVO\AppData\Local\Temp\ccWRq5sC.s 			page 79


 353:SynaptiX_FDK/app/app.c ****     time_t unix_ts = mktime(&t);
 2714              		.loc 1 353 15 view .LVU608
 2715 0066 0B93     		str	r3, [sp, #44]
 354:SynaptiX_FDK/app/app.c ****     snprintf(topic, sizeof(topic), "%s%s", MQTT_TOPIC_GPS, g_app.device_name);
 2716              		.loc 1 354 5 is_stmt 1 view .LVU609
 354:SynaptiX_FDK/app/app.c ****     snprintf(topic, sizeof(topic), "%s%s", MQTT_TOPIC_GPS, g_app.device_name);
 2717              		.loc 1 354 22 is_stmt 0 view .LVU610
 2718 0068 0BA8     		add	r0, sp, #44
 2719 006a FFF7FEFF 		bl	mktime
 2720              	.LVL243:
 2721 006e 0546     		mov	r5, r0
 2722              	.LVL244:
 355:SynaptiX_FDK/app/app.c ****     float lat = 0.0f, lon = 0.0f, alt = 0.0f, spd = 0.0f;
 2723              		.loc 1 355 5 is_stmt 1 view .LVU611
 2724 0070 BC34     		adds	r4, r4, #188
 2725 0072 0094     		str	r4, [sp]
 2726 0074 414B     		ldr	r3, .L151+16
 2727 0076 424A     		ldr	r2, .L151+20
 2728 0078 8021     		movs	r1, #128
 2729              	.LVL245:
 355:SynaptiX_FDK/app/app.c ****     float lat = 0.0f, lon = 0.0f, alt = 0.0f, spd = 0.0f;
 2730              		.loc 1 355 5 is_stmt 0 view .LVU612
 2731 007a 14A8     		add	r0, sp, #80
 355:SynaptiX_FDK/app/app.c ****     float lat = 0.0f, lon = 0.0f, alt = 0.0f, spd = 0.0f;
 2732              		.loc 1 355 5 view .LVU613
 2733 007c FFF7FEFF 		bl	snprintf
 2734              	.LVL246:
 356:SynaptiX_FDK/app/app.c ****     int sat = 0;
 2735              		.loc 1 356 5 is_stmt 1 view .LVU614
 357:SynaptiX_FDK/app/app.c ****     int fix = 0; 
 2736              		.loc 1 357 5 view .LVU615
 358:SynaptiX_FDK/app/app.c **** 
 2737              		.loc 1 358 5 view .LVU616
 360:SynaptiX_FDK/app/app.c ****     {
 2738              		.loc 1 360 5 view .LVU617
 360:SynaptiX_FDK/app/app.c ****     {
 2739              		.loc 1 360 12 is_stmt 0 view .LVU618
 2740 0080 96EDD78A 		vldr.32	s16, [r6, #860]
 360:SynaptiX_FDK/app/app.c ****     {
 2741              		.loc 1 360 8 view .LVU619
 2742 0084 B5EE408A 		vcmp.f32	s16, #0
 2743 0088 F1EE10FA 		vmrs	APSR_nzcv, FPSCR
 2744 008c 08D0     		beq	.L147
 360:SynaptiX_FDK/app/app.c ****     {
 2745              		.loc 1 360 37 discriminator 1 view .LVU620
 2746 008e D6F86043 		ldr	r4, [r6, #864]	@ float
 360:SynaptiX_FDK/app/app.c ****     {
 2747              		.loc 1 360 31 discriminator 1 view .LVU621
 2748 0092 07EE904A 		vmov	s15, r4
 2749 0096 F5EE407A 		vcmp.f32	s15, #0
 2750 009a F1EE10FA 		vmrs	APSR_nzcv, FPSCR
 2751 009e 3ED1     		bne	.L150
 2752              	.L147:
 374:SynaptiX_FDK/app/app.c ****         
 2753              		.loc 1 374 9 is_stmt 1 view .LVU622
 376:SynaptiX_FDK/app/app.c ****         lat = g_app.last_lat;
 2754              		.loc 1 376 9 view .LVU623
ARM GAS  C:\Users\LENOVO\AppData\Local\Temp\ccWRq5sC.s 			page 80


 2755 00a0 FFF7FEFF 		bl	read_last_gps
 2756              	.LVL247:
 377:SynaptiX_FDK/app/app.c ****         lon = g_app.last_lon;
 2757              		.loc 1 377 9 view .LVU624
 377:SynaptiX_FDK/app/app.c ****         lon = g_app.last_lon;
 2758              		.loc 1 377 13 is_stmt 0 view .LVU625
 2759 00a4 314B     		ldr	r3, .L151
 2760 00a6 93ED248A 		vldr.32	s16, [r3, #144]
 2761              	.LVL248:
 378:SynaptiX_FDK/app/app.c ****     }
 2762              		.loc 1 378 9 is_stmt 1 view .LVU626
 378:SynaptiX_FDK/app/app.c ****     }
 2763              		.loc 1 378 13 is_stmt 0 view .LVU627
 2764 00aa D3F89440 		ldr	r4, [r3, #148]	@ float
 2765              	.LVL249:
 374:SynaptiX_FDK/app/app.c ****         
 2766              		.loc 1 374 13 view .LVU628
 2767 00ae 0023     		movs	r3, #0
 357:SynaptiX_FDK/app/app.c ****     int fix = 0; 
 2768              		.loc 1 357 9 view .LVU629
 2769 00b0 1E46     		mov	r6, r3
 2770              	.LVL250:
 356:SynaptiX_FDK/app/app.c ****     int sat = 0;
 2771              		.loc 1 356 47 view .LVU630
 2772 00b2 0027     		movs	r7, #0
 356:SynaptiX_FDK/app/app.c ****     int sat = 0;
 2773              		.loc 1 356 35 view .LVU631
 2774 00b4 B846     		mov	r8, r7	@ float
 2775              	.LVL251:
 2776              	.L148:
 382:SynaptiX_FDK/app/app.c ****              "{\\\"lat\\\":%.6f,\\\"lon\\\":%.6f,\\\"alt\\\":%.6f,\\\"spd\\\":%.6f,\\\"sat\\\":%d,\
 2777              		.loc 1 382 5 is_stmt 1 view .LVU632
 2778 00b6 0993     		str	r3, [sp, #36]
 2779 00b8 0896     		str	r6, [sp, #32]
 2780 00ba 3846     		mov	r0, r7	@ float
 2781 00bc FFF7FEFF 		bl	__aeabi_f2d
 2782              	.LVL252:
 382:SynaptiX_FDK/app/app.c ****              "{\\\"lat\\\":%.6f,\\\"lon\\\":%.6f,\\\"alt\\\":%.6f,\\\"spd\\\":%.6f,\\\"sat\\\":%d,\
 2783              		.loc 1 382 5 is_stmt 0 view .LVU633
 2784 00c0 CDE90601 		strd	r0, [sp, #24]
 2785 00c4 4046     		mov	r0, r8	@ float
 2786 00c6 FFF7FEFF 		bl	__aeabi_f2d
 2787              	.LVL253:
 2788 00ca CDE90401 		strd	r0, [sp, #16]
 2789 00ce 2046     		mov	r0, r4	@ float
 2790 00d0 FFF7FEFF 		bl	__aeabi_f2d
 2791              	.LVL254:
 2792 00d4 CDE90201 		strd	r0, [sp, #8]
 2793 00d8 18EE100A 		vmov	r0, s16
 2794 00dc FFF7FEFF 		bl	__aeabi_f2d
 2795              	.LVL255:
 2796 00e0 CDE90001 		strd	r0, [sp]
 2797 00e4 274A     		ldr	r2, .L151+24
 2798 00e6 8021     		movs	r1, #128
 2799 00e8 74A8     		add	r0, sp, #464
 2800 00ea FFF7FEFF 		bl	snprintf
 2801              	.LVL256:
ARM GAS  C:\Users\LENOVO\AppData\Local\Temp\ccWRq5sC.s 			page 81


 387:SynaptiX_FDK/app/app.c ****              "{\"v\":\"%s\",\"time\":%ld}",
 2802              		.loc 1 387 5 is_stmt 1 view .LVU634
 2803 00ee 0095     		str	r5, [sp]
 2804 00f0 74AB     		add	r3, sp, #464
 2805 00f2 254A     		ldr	r2, .L151+28
 2806 00f4 4FF48071 		mov	r1, #256
 2807 00f8 34A8     		add	r0, sp, #208
 2808 00fa FFF7FEFF 		bl	snprintf
 2809              	.LVL257:
 390:SynaptiX_FDK/app/app.c ****     log_info(TAG, "GPS: %s", msg);
 2810              		.loc 1 390 5 view .LVU635
 2811 00fe 34A9     		add	r1, sp, #208
 2812 0100 14A8     		add	r0, sp, #80
 2813 0102 FFF7FEFF 		bl	sx_user_mqtt_publish
 2814              	.LVL258:
 391:SynaptiX_FDK/app/app.c **** }
 2815              		.loc 1 391 5 view .LVU636
 2816 0106 34AB     		add	r3, sp, #208
 2817 0108 204A     		ldr	r2, .L151+32
 2818 010a 1949     		ldr	r1, .L151+4
 2819 010c 0320     		movs	r0, #3
 2820 010e FFF7FEFF 		bl	log_func
 2821              	.LVL259:
 392:SynaptiX_FDK/app/app.c **** 
 2822              		.loc 1 392 1 is_stmt 0 view .LVU637
 2823 0112 0DF5147D 		add	sp, sp, #592
 2824              	.LCFI33:
 2825              		.cfi_remember_state
 2826              		.cfi_def_cfa_offset 32
 2827              		@ sp needed
 2828 0116 BDEC028B 		vldm	sp!, {d8}
 2829              	.LCFI34:
 2830              		.cfi_restore 80
 2831              		.cfi_restore 81
 2832              		.cfi_def_cfa_offset 24
 2833              	.LVL260:
 392:SynaptiX_FDK/app/app.c **** 
 2834              		.loc 1 392 1 view .LVU638
 2835 011a BDE8F081 		pop	{r4, r5, r6, r7, r8, pc}
 2836              	.LVL261:
 2837              	.L150:
 2838              	.LCFI35:
 2839              		.cfi_restore_state
 362:SynaptiX_FDK/app/app.c ****         lon = gps->longtitude;
 2840              		.loc 1 362 9 is_stmt 1 view .LVU639
 363:SynaptiX_FDK/app/app.c ****         alt = gps->altitude;
 2841              		.loc 1 363 9 view .LVU640
 364:SynaptiX_FDK/app/app.c ****         spd = gps->speed;
 2842              		.loc 1 364 9 view .LVU641
 364:SynaptiX_FDK/app/app.c ****         spd = gps->speed;
 2843              		.loc 1 364 13 is_stmt 0 view .LVU642
 2844 011e D6F86483 		ldr	r8, [r6, #868]	@ float
 2845              	.LVL262:
 365:SynaptiX_FDK/app/app.c ****         sat = gps->satellites;
 2846              		.loc 1 365 9 is_stmt 1 view .LVU643
 365:SynaptiX_FDK/app/app.c ****         sat = gps->satellites;
 2847              		.loc 1 365 13 is_stmt 0 view .LVU644
ARM GAS  C:\Users\LENOVO\AppData\Local\Temp\ccWRq5sC.s 			page 82


 2848 0122 D6F86873 		ldr	r7, [r6, #872]	@ float
 2849              	.LVL263:
 366:SynaptiX_FDK/app/app.c ****         fix = 1; 
 2850              		.loc 1 366 9 is_stmt 1 view .LVU645
 366:SynaptiX_FDK/app/app.c ****         fix = 1; 
 2851              		.loc 1 366 13 is_stmt 0 view .LVU646
 2852 0126 D6F86C63 		ldr	r6, [r6, #876]
 2853              	.LVL264:
 367:SynaptiX_FDK/app/app.c ****         set_time_exrtc(board.gps.tim.tm_sec, board.gps.tim.tm_min, board.gps.tim.tm_hour,
 2854              		.loc 1 367 9 is_stmt 1 view .LVU647
 368:SynaptiX_FDK/app/app.c ****                        (board.gps.tim.tm_mday / 7 + 1), board.gps.tim.tm_mday,
 2855              		.loc 1 368 9 view .LVU648
 368:SynaptiX_FDK/app/app.c ****                        (board.gps.tim.tm_mday / 7 + 1), board.gps.tim.tm_mday,
 2856              		.loc 1 368 37 is_stmt 0 view .LVU649
 2857 012a 1948     		ldr	r0, .L151+36
 369:SynaptiX_FDK/app/app.c ****                        board.gps.tim.tm_mon, board.gps.tim.tm_year - 100);
 2858              		.loc 1 369 38 view .LVU650
 2859 012c D0F87C23 		ldr	r2, [r0, #892]
 369:SynaptiX_FDK/app/app.c ****                        board.gps.tim.tm_mon, board.gps.tim.tm_year - 100);
 2860              		.loc 1 369 47 view .LVU651
 2861 0130 1849     		ldr	r1, .L151+40
 2862 0132 81FB0231 		smull	r3, r1, r1, r2
 2863 0136 1144     		add	r1, r1, r2
 2864 0138 D317     		asrs	r3, r2, #31
 2865 013a C3EBA103 		rsb	r3, r3, r1, asr #2
 370:SynaptiX_FDK/app/app.c ****     }
 2866              		.loc 1 370 59 view .LVU652
 2867 013e D0F88413 		ldr	r1, [r0, #900]
 368:SynaptiX_FDK/app/app.c ****                        (board.gps.tim.tm_mday / 7 + 1), board.gps.tim.tm_mday,
 2868              		.loc 1 368 9 view .LVU653
 2869 0142 0133     		adds	r3, r3, #1
 2870 0144 6439     		subs	r1, r1, #100
 2871 0146 C9B2     		uxtb	r1, r1
 2872 0148 0291     		str	r1, [sp, #8]
 2873 014a 90F88013 		ldrb	r1, [r0, #896]	@ zero_extendqisi2
 2874 014e 0191     		str	r1, [sp, #4]
 2875 0150 D2B2     		uxtb	r2, r2
 2876 0152 0092     		str	r2, [sp]
 2877 0154 DBB2     		uxtb	r3, r3
 2878 0156 90F87823 		ldrb	r2, [r0, #888]	@ zero_extendqisi2
 2879 015a 90F87413 		ldrb	r1, [r0, #884]	@ zero_extendqisi2
 2880 015e 90F87003 		ldrb	r0, [r0, #880]	@ zero_extendqisi2
 2881 0162 FFF7FEFF 		bl	set_time_exrtc
 2882              	.LVL265:
 367:SynaptiX_FDK/app/app.c ****         set_time_exrtc(board.gps.tim.tm_sec, board.gps.tim.tm_min, board.gps.tim.tm_hour,
 2883              		.loc 1 367 13 view .LVU654
 2884 0166 0123     		movs	r3, #1
 368:SynaptiX_FDK/app/app.c ****                        (board.gps.tim.tm_mday / 7 + 1), board.gps.tim.tm_mday,
 2885              		.loc 1 368 9 view .LVU655
 2886 0168 A5E7     		b	.L148
 2887              	.L152:
 2888 016a 00BF     		.align	2
 2889              	.L151:
 2890 016c 00000000 		.word	g_app
 2891 0170 18000000 		.word	.LC3
 2892 0174 00000000 		.word	.LC73
 2893 0178 1C000000 		.word	.LC74
ARM GAS  C:\Users\LENOVO\AppData\Local\Temp\ccWRq5sC.s 			page 83


 2894 017c 38000000 		.word	.LC75
 2895 0180 1C000000 		.word	.LC67
 2896 0184 54000000 		.word	.LC76
 2897 0188 A0000000 		.word	.LC77
 2898 018c B8000000 		.word	.LC78
 2899 0190 00000000 		.word	board
 2900 0194 93244992 		.word	-1840700269
 2901              		.cfi_endproc
 2902              	.LFE564:
 2904              		.section	.text.app_mode_full_pw,"ax",%progbits
 2905              		.align	1
 2906              		.global	app_mode_full_pw
 2907              		.syntax unified
 2908              		.thumb
 2909              		.thumb_func
 2911              	app_mode_full_pw:
 2912              	.LFB550:
 117:SynaptiX_FDK/app/app.c ****     g_app.app_mode = APP_MODE_FULL_POWER;
 2913              		.loc 1 117 28 is_stmt 1 view -0
 2914              		.cfi_startproc
 2915              		@ args = 0, pretend = 0, frame = 0
 2916              		@ frame_needed = 0, uses_anonymous_args = 0
 2917              		@ link register save eliminated.
 118:SynaptiX_FDK/app/app.c **** }
 2918              		.loc 1 118 5 view .LVU657
 118:SynaptiX_FDK/app/app.c **** }
 2919              		.loc 1 118 20 is_stmt 0 view .LVU658
 2920 0000 014B     		ldr	r3, .L154
 2921 0002 0022     		movs	r2, #0
 2922 0004 1A70     		strb	r2, [r3]
 119:SynaptiX_FDK/app/app.c **** 
 2923              		.loc 1 119 1 view .LVU659
 2924 0006 7047     		bx	lr
 2925              	.L155:
 2926              		.align	2
 2927              	.L154:
 2928 0008 00000000 		.word	g_app
 2929              		.cfi_endproc
 2930              	.LFE550:
 2932              		.section	.text.app_mode_enter_sleep,"ax",%progbits
 2933              		.align	1
 2934              		.global	app_mode_enter_sleep
 2935              		.syntax unified
 2936              		.thumb
 2937              		.thumb_func
 2939              	app_mode_enter_sleep:
 2940              	.LFB551:
 121:SynaptiX_FDK/app/app.c ****     g_app.app_mode = APP_MODE_ENTER_SLEEP;
 2941              		.loc 1 121 32 is_stmt 1 view -0
 2942              		.cfi_startproc
 2943              		@ args = 0, pretend = 0, frame = 0
 2944              		@ frame_needed = 0, uses_anonymous_args = 0
 2945              		@ link register save eliminated.
 122:SynaptiX_FDK/app/app.c **** }
 2946              		.loc 1 122 5 view .LVU661
 122:SynaptiX_FDK/app/app.c **** }
 2947              		.loc 1 122 20 is_stmt 0 view .LVU662
ARM GAS  C:\Users\LENOVO\AppData\Local\Temp\ccWRq5sC.s 			page 84


 2948 0000 014B     		ldr	r3, .L157
 2949 0002 0122     		movs	r2, #1
 2950 0004 1A70     		strb	r2, [r3]
 123:SynaptiX_FDK/app/app.c **** 
 2951              		.loc 1 123 1 view .LVU663
 2952 0006 7047     		bx	lr
 2953              	.L158:
 2954              		.align	2
 2955              	.L157:
 2956 0008 00000000 		.word	g_app
 2957              		.cfi_endproc
 2958              	.LFE551:
 2960              		.section	.text.app_mode_sleep,"ax",%progbits
 2961              		.align	1
 2962              		.global	app_mode_sleep
 2963              		.syntax unified
 2964              		.thumb
 2965              		.thumb_func
 2967              	app_mode_sleep:
 2968              	.LFB552:
 125:SynaptiX_FDK/app/app.c ****     g_app.app_mode = APP_MODE_SLEEP;
 2969              		.loc 1 125 26 is_stmt 1 view -0
 2970              		.cfi_startproc
 2971              		@ args = 0, pretend = 0, frame = 0
 2972              		@ frame_needed = 0, uses_anonymous_args = 0
 2973              		@ link register save eliminated.
 126:SynaptiX_FDK/app/app.c **** }
 2974              		.loc 1 126 5 view .LVU665
 126:SynaptiX_FDK/app/app.c **** }
 2975              		.loc 1 126 20 is_stmt 0 view .LVU666
 2976 0000 014B     		ldr	r3, .L160
 2977 0002 0222     		movs	r2, #2
 2978 0004 1A70     		strb	r2, [r3]
 127:SynaptiX_FDK/app/app.c **** 
 2979              		.loc 1 127 1 view .LVU667
 2980 0006 7047     		bx	lr
 2981              	.L161:
 2982              		.align	2
 2983              	.L160:
 2984 0008 00000000 		.word	g_app
 2985              		.cfi_endproc
 2986              	.LFE552:
 2988              		.section	.text.app_notify_usb_connected,"ax",%progbits
 2989              		.align	1
 2990              		.global	app_notify_usb_connected
 2991              		.syntax unified
 2992              		.thumb
 2993              		.thumb_func
 2995              	app_notify_usb_connected:
 2996              	.LFB556:
 210:SynaptiX_FDK/app/app.c ****     g_app.usb_connect_pending = 1;
 2997              		.loc 1 210 1 is_stmt 1 view -0
 2998              		.cfi_startproc
 2999              		@ args = 0, pretend = 0, frame = 0
 3000              		@ frame_needed = 0, uses_anonymous_args = 0
 3001              		@ link register save eliminated.
 211:SynaptiX_FDK/app/app.c ****     g_app.app_mode = APP_MODE_FULL_POWER;
ARM GAS  C:\Users\LENOVO\AppData\Local\Temp\ccWRq5sC.s 			page 85


 3002              		.loc 1 211 5 view .LVU669
 211:SynaptiX_FDK/app/app.c ****     g_app.app_mode = APP_MODE_FULL_POWER;
 3003              		.loc 1 211 31 is_stmt 0 view .LVU670
 3004 0000 034B     		ldr	r3, .L163
 3005 0002 0122     		movs	r2, #1
 3006 0004 83F84A20 		strb	r2, [r3, #74]
 212:SynaptiX_FDK/app/app.c **** }
 3007              		.loc 1 212 5 is_stmt 1 view .LVU671
 212:SynaptiX_FDK/app/app.c **** }
 3008              		.loc 1 212 20 is_stmt 0 view .LVU672
 3009 0008 0022     		movs	r2, #0
 3010 000a 1A70     		strb	r2, [r3]
 213:SynaptiX_FDK/app/app.c **** 
 3011              		.loc 1 213 1 view .LVU673
 3012 000c 7047     		bx	lr
 3013              	.L164:
 3014 000e 00BF     		.align	2
 3015              	.L163:
 3016 0010 00000000 		.word	g_app
 3017              		.cfi_endproc
 3018              	.LFE556:
 3020              		.section	.text.app_sync_gps_log_to_disk,"ax",%progbits
 3021              		.align	1
 3022              		.global	app_sync_gps_log_to_disk
 3023              		.syntax unified
 3024              		.thumb
 3025              		.thumb_func
 3027              	app_sync_gps_log_to_disk:
 3028              	.LFB567:
 631:SynaptiX_FDK/app/app.c ****     g_app.s_sync_disk_pending = 1;
 3029              		.loc 1 631 1 is_stmt 1 view -0
 3030              		.cfi_startproc
 3031              		@ args = 0, pretend = 0, frame = 0
 3032              		@ frame_needed = 0, uses_anonymous_args = 0
 3033              		@ link register save eliminated.
 632:SynaptiX_FDK/app/app.c **** }
 3034              		.loc 1 632 5 view .LVU675
 632:SynaptiX_FDK/app/app.c **** }
 3035              		.loc 1 632 31 is_stmt 0 view .LVU676
 3036 0000 024B     		ldr	r3, .L166
 3037 0002 0122     		movs	r2, #1
 3038 0004 83F85B20 		strb	r2, [r3, #91]
 633:SynaptiX_FDK/app/app.c **** 
 3039              		.loc 1 633 1 view .LVU677
 3040 0008 7047     		bx	lr
 3041              	.L167:
 3042 000a 00BF     		.align	2
 3043              	.L166:
 3044 000c 00000000 		.word	g_app
 3045              		.cfi_endproc
 3046              	.LFE567:
 3048              		.section	.rodata.app_request_sleep.str1.4,"aMS",%progbits,1
 3049              		.align	2
 3050              	.LC79:
 3051 0000 536C6565 		.ascii	"Sleep requested\000"
 3051      70207265 
 3051      71756573 
ARM GAS  C:\Users\LENOVO\AppData\Local\Temp\ccWRq5sC.s 			page 86


 3051      74656400 
 3052              		.section	.text.app_request_sleep,"ax",%progbits
 3053              		.align	1
 3054              		.global	app_request_sleep
 3055              		.syntax unified
 3056              		.thumb
 3057              		.thumb_func
 3059              	app_request_sleep:
 3060              	.LFB568:
 636:SynaptiX_FDK/app/app.c ****     if (g_app.sleep_requested)
 3061              		.loc 1 636 1 is_stmt 1 view -0
 3062              		.cfi_startproc
 3063              		@ args = 0, pretend = 0, frame = 0
 3064              		@ frame_needed = 0, uses_anonymous_args = 0
 3065 0000 08B5     		push	{r3, lr}
 3066              	.LCFI36:
 3067              		.cfi_def_cfa_offset 8
 3068              		.cfi_offset 3, -8
 3069              		.cfi_offset 14, -4
 637:SynaptiX_FDK/app/app.c ****         return;
 3070              		.loc 1 637 5 view .LVU679
 637:SynaptiX_FDK/app/app.c ****         return;
 3071              		.loc 1 637 14 is_stmt 0 view .LVU680
 3072 0002 0D4B     		ldr	r3, .L172
 3073 0004 93F84830 		ldrb	r3, [r3, #72]	@ zero_extendqisi2
 637:SynaptiX_FDK/app/app.c ****         return;
 3074              		.loc 1 637 8 view .LVU681
 3075 0008 03B1     		cbz	r3, .L171
 3076              	.L168:
 647:SynaptiX_FDK/app/app.c **** 
 3077              		.loc 1 647 1 view .LVU682
 3078 000a 08BD     		pop	{r3, pc}
 3079              	.L171:
 639:SynaptiX_FDK/app/app.c ****     g_app.enter_sleep_elapsed_ms = 0;
 3080              		.loc 1 639 5 is_stmt 1 view .LVU683
 639:SynaptiX_FDK/app/app.c ****     g_app.enter_sleep_elapsed_ms = 0;
 3081              		.loc 1 639 27 is_stmt 0 view .LVU684
 3082 000c 0A4B     		ldr	r3, .L172
 3083 000e 0121     		movs	r1, #1
 3084 0010 83F84810 		strb	r1, [r3, #72]
 640:SynaptiX_FDK/app/app.c ****     g_app.enter_sleep_published = 0;
 3085              		.loc 1 640 5 is_stmt 1 view .LVU685
 640:SynaptiX_FDK/app/app.c ****     g_app.enter_sleep_published = 0;
 3086              		.loc 1 640 34 is_stmt 0 view .LVU686
 3087 0014 0022     		movs	r2, #0
 3088 0016 5A64     		str	r2, [r3, #68]
 641:SynaptiX_FDK/app/app.c ****     g_app.last_publish_done = 0;
 3089              		.loc 1 641 5 is_stmt 1 view .LVU687
 641:SynaptiX_FDK/app/app.c ****     g_app.last_publish_done = 0;
 3090              		.loc 1 641 33 is_stmt 0 view .LVU688
 3091 0018 83F83E20 		strb	r2, [r3, #62]
 642:SynaptiX_FDK/app/app.c ****     g_app.publish_count = 0;
 3092              		.loc 1 642 5 is_stmt 1 view .LVU689
 642:SynaptiX_FDK/app/app.c ****     g_app.publish_count = 0;
 3093              		.loc 1 642 29 is_stmt 0 view .LVU690
 3094 001c 83F83D20 		strb	r2, [r3, #61]
 643:SynaptiX_FDK/app/app.c ****     g_app.mqtt_stopped = 0;
ARM GAS  C:\Users\LENOVO\AppData\Local\Temp\ccWRq5sC.s 			page 87


 3095              		.loc 1 643 5 is_stmt 1 view .LVU691
 643:SynaptiX_FDK/app/app.c ****     g_app.mqtt_stopped = 0;
 3096              		.loc 1 643 25 is_stmt 0 view .LVU692
 3097 0020 83F84020 		strb	r2, [r3, #64]
 644:SynaptiX_FDK/app/app.c ****     g_app.app_mode = APP_MODE_ENTER_SLEEP;
 3098              		.loc 1 644 5 is_stmt 1 view .LVU693
 644:SynaptiX_FDK/app/app.c ****     g_app.app_mode = APP_MODE_ENTER_SLEEP;
 3099              		.loc 1 644 24 is_stmt 0 view .LVU694
 3100 0024 83F83F20 		strb	r2, [r3, #63]
 645:SynaptiX_FDK/app/app.c ****     log_info(TAG, "Sleep requested");
 3101              		.loc 1 645 5 is_stmt 1 view .LVU695
 645:SynaptiX_FDK/app/app.c ****     log_info(TAG, "Sleep requested");
 3102              		.loc 1 645 20 is_stmt 0 view .LVU696
 3103 0028 1970     		strb	r1, [r3]
 646:SynaptiX_FDK/app/app.c **** }
 3104              		.loc 1 646 5 is_stmt 1 view .LVU697
 3105 002a 044A     		ldr	r2, .L172+4
 3106 002c 0449     		ldr	r1, .L172+8
 3107 002e 0320     		movs	r0, #3
 3108 0030 FFF7FEFF 		bl	log_func
 3109              	.LVL266:
 3110 0034 E9E7     		b	.L168
 3111              	.L173:
 3112 0036 00BF     		.align	2
 3113              	.L172:
 3114 0038 00000000 		.word	g_app
 3115 003c 00000000 		.word	.LC79
 3116 0040 18000000 		.word	.LC3
 3117              		.cfi_endproc
 3118              	.LFE568:
 3120              		.section	.rodata.app_init.str1.4,"aMS",%progbits,1
 3121              		.align	2
 3122              	.LC80:
 3123 0000 41707020 		.ascii	"App init\000"
 3123      696E6974 
 3123      00
 3124 0009 000000   		.align	2
 3125              	.LC81:
 3126 000c 52656164 		.ascii	"Read Config file...\000"
 3126      20436F6E 
 3126      66696720 
 3126      66696C65 
 3126      2E2E2E00 
 3127              		.align	2
 3128              	.LC82:
 3129 0020 536C6565 		.ascii	"Sleep config applied \342\200\224 sleep=%lu ms, wak"
 3129      7020636F 
 3129      6E666967 
 3129      20617070 
 3129      6C696564 
 3130 004a 653D256C 		.ascii	"e=%lu ms\000"
 3130      75206D73 
 3130      00
 3131 0053 00       		.align	2
 3132              	.LC83:
 3133 0054 41707020 		.ascii	"App init done\000"
 3133      696E6974 
ARM GAS  C:\Users\LENOVO\AppData\Local\Temp\ccWRq5sC.s 			page 88


 3133      20646F6E 
 3133      6500
 3134              		.section	.text.app_init,"ax",%progbits
 3135              		.align	1
 3136              		.global	app_init
 3137              		.syntax unified
 3138              		.thumb
 3139              		.thumb_func
 3141              	app_init:
 3142              	.LFB570:
 790:SynaptiX_FDK/app/app.c **** 
 791:SynaptiX_FDK/app/app.c **** /*  Init  */
 792:SynaptiX_FDK/app/app.c **** void app_init(void)
 793:SynaptiX_FDK/app/app.c **** {
 3143              		.loc 1 793 1 view -0
 3144              		.cfi_startproc
 3145              		@ args = 0, pretend = 0, frame = 0
 3146              		@ frame_needed = 0, uses_anonymous_args = 0
 3147 0000 F0B5     		push	{r4, r5, r6, r7, lr}
 3148              	.LCFI37:
 3149              		.cfi_def_cfa_offset 20
 3150              		.cfi_offset 4, -20
 3151              		.cfi_offset 5, -16
 3152              		.cfi_offset 6, -12
 3153              		.cfi_offset 7, -8
 3154              		.cfi_offset 14, -4
 3155 0002 83B0     		sub	sp, sp, #12
 3156              	.LCFI38:
 3157              		.cfi_def_cfa_offset 32
 794:SynaptiX_FDK/app/app.c ****     log_info(TAG, "App init");
 3158              		.loc 1 794 5 view .LVU699
 3159 0004 2B4E     		ldr	r6, .L176
 3160 0006 2C4A     		ldr	r2, .L176+4
 3161 0008 3146     		mov	r1, r6
 3162 000a 0320     		movs	r0, #3
 3163 000c FFF7FEFF 		bl	log_func
 3164              	.LVL267:
 795:SynaptiX_FDK/app/app.c ****     config_json.time_sleep_ms = SX_TIME_IN_SLEEP;
 3165              		.loc 1 795 5 view .LVU700
 3166              		.loc 1 795 31 is_stmt 0 view .LVU701
 3167 0010 2A4F     		ldr	r7, .L176+8
 3168 0012 4EF66023 		movw	r3, #60000
 3169 0016 C7F8E032 		str	r3, [r7, #736]
 796:SynaptiX_FDK/app/app.c ****     config_json.time_wake_ms  = SX_TIME_IN_WAKE;
 3170              		.loc 1 796 5 is_stmt 1 view .LVU702
 3171              		.loc 1 796 31 is_stmt 0 view .LVU703
 3172 001a 294B     		ldr	r3, .L176+12
 3173 001c C7F8E432 		str	r3, [r7, #740]
 797:SynaptiX_FDK/app/app.c ****     // application_init:
 798:SynaptiX_FDK/app/app.c ****     g_app.board = &board;
 3174              		.loc 1 798 5 is_stmt 1 view .LVU704
 3175              		.loc 1 798 17 is_stmt 0 view .LVU705
 3176 0020 284C     		ldr	r4, .L176+16
 3177 0022 294B     		ldr	r3, .L176+20
 3178 0024 E364     		str	r3, [r4, #76]
 799:SynaptiX_FDK/app/app.c ****     g_app.app_mode = APP_MODE_FULL_POWER;
 3179              		.loc 1 799 5 is_stmt 1 view .LVU706
ARM GAS  C:\Users\LENOVO\AppData\Local\Temp\ccWRq5sC.s 			page 89


 3180              		.loc 1 799 20 is_stmt 0 view .LVU707
 3181 0026 0025     		movs	r5, #0
 3182 0028 2570     		strb	r5, [r4]
 800:SynaptiX_FDK/app/app.c ****     g_app.publish_elapsed = 0;
 3183              		.loc 1 800 5 is_stmt 1 view .LVU708
 3184              		.loc 1 800 27 is_stmt 0 view .LVU709
 3185 002a A563     		str	r5, [r4, #56]
 801:SynaptiX_FDK/app/app.c ****     g_app.subscribed = 0;
 3186              		.loc 1 801 5 is_stmt 1 view .LVU710
 3187              		.loc 1 801 22 is_stmt 0 view .LVU711
 3188 002c 84F83C50 		strb	r5, [r4, #60]
 802:SynaptiX_FDK/app/app.c ****     g_app.last_publish_done = 0;
 3189              		.loc 1 802 5 is_stmt 1 view .LVU712
 3190              		.loc 1 802 29 is_stmt 0 view .LVU713
 3191 0030 84F83D50 		strb	r5, [r4, #61]
 803:SynaptiX_FDK/app/app.c ****     g_app.enter_sleep_published = 0;
 3192              		.loc 1 803 5 is_stmt 1 view .LVU714
 3193              		.loc 1 803 33 is_stmt 0 view .LVU715
 3194 0034 84F83E50 		strb	r5, [r4, #62]
 804:SynaptiX_FDK/app/app.c ****     g_app.mqtt_stopped = 0;
 3195              		.loc 1 804 5 is_stmt 1 view .LVU716
 3196              		.loc 1 804 24 is_stmt 0 view .LVU717
 3197 0038 84F83F50 		strb	r5, [r4, #63]
 805:SynaptiX_FDK/app/app.c ****     g_app.publish_count = 0;
 3198              		.loc 1 805 5 is_stmt 1 view .LVU718
 3199              		.loc 1 805 25 is_stmt 0 view .LVU719
 3200 003c 84F84050 		strb	r5, [r4, #64]
 806:SynaptiX_FDK/app/app.c ****     g_app.enter_sleep_elapsed_ms = 0;
 3201              		.loc 1 806 5 is_stmt 1 view .LVU720
 3202              		.loc 1 806 34 is_stmt 0 view .LVU721
 3203 0040 6564     		str	r5, [r4, #68]
 807:SynaptiX_FDK/app/app.c ****     g_app.sleep_requested = 0;
 3204              		.loc 1 807 5 is_stmt 1 view .LVU722
 3205              		.loc 1 807 27 is_stmt 0 view .LVU723
 3206 0042 84F84850 		strb	r5, [r4, #72]
 808:SynaptiX_FDK/app/app.c ****     g_app.usb_connect_pending = 0;
 3207              		.loc 1 808 5 is_stmt 1 view .LVU724
 3208              		.loc 1 808 31 is_stmt 0 view .LVU725
 3209 0046 84F84A50 		strb	r5, [r4, #74]
 809:SynaptiX_FDK/app/app.c ****     
 810:SynaptiX_FDK/app/app.c ****     log_info(TAG, "Read Config file...");
 3210              		.loc 1 810 5 is_stmt 1 view .LVU726
 3211 004a 204A     		ldr	r2, .L176+24
 3212 004c 3146     		mov	r1, r6
 3213 004e 0320     		movs	r0, #3
 3214 0050 FFF7FEFF 		bl	log_func
 3215              	.LVL268:
 811:SynaptiX_FDK/app/app.c **** 
 812:SynaptiX_FDK/app/app.c ****     app_read_config_file(&g_app);
 3216              		.loc 1 812 5 view .LVU727
 3217 0054 2046     		mov	r0, r4
 3218 0056 FFF7FEFF 		bl	app_read_config_file
 3219              	.LVL269:
 813:SynaptiX_FDK/app/app.c ****     
 814:SynaptiX_FDK/app/app.c ****     sx_sleep_init(&g_app.sleep, &sx_sleep_ops, &hrtc);
 3220              		.loc 1 814 5 view .LVU728
 3221              	.LBB40:
ARM GAS  C:\Users\LENOVO\AppData\Local\Temp\ccWRq5sC.s 			page 90


 3222              	.LBI40:
 3223              		.file 3 "SynaptiX_FDK/components/sleep/sx_sleep.h"
   1:SynaptiX_FDK/components/sleep/sx_sleep.h **** #ifndef SX_SLEEP_H
   2:SynaptiX_FDK/components/sleep/sx_sleep.h **** #define SX_SLEEP_H
   3:SynaptiX_FDK/components/sleep/sx_sleep.h **** 
   4:SynaptiX_FDK/components/sleep/sx_sleep.h **** #ifdef __cplusplus
   5:SynaptiX_FDK/components/sleep/sx_sleep.h **** extern "C" {
   6:SynaptiX_FDK/components/sleep/sx_sleep.h **** #endif
   7:SynaptiX_FDK/components/sleep/sx_sleep.h ****  
   8:SynaptiX_FDK/components/sleep/sx_sleep.h **** #include <stdint.h>
   9:SynaptiX_FDK/components/sleep/sx_sleep.h **** 
  10:SynaptiX_FDK/components/sleep/sx_sleep.h **** typedef enum {
  11:SynaptiX_FDK/components/sleep/sx_sleep.h ****     WAKE_REASON_UNKNOWN = 0,
  12:SynaptiX_FDK/components/sleep/sx_sleep.h ****     WAKE_REASON_RTC,
  13:SynaptiX_FDK/components/sleep/sx_sleep.h ****     WAKE_REASON_EXTI,
  14:SynaptiX_FDK/components/sleep/sx_sleep.h **** } wake_reason_t;
  15:SynaptiX_FDK/components/sleep/sx_sleep.h **** 
  16:SynaptiX_FDK/components/sleep/sx_sleep.h **** typedef struct sx_sleep sx_sleep_t;
  17:SynaptiX_FDK/components/sleep/sx_sleep.h **** 
  18:SynaptiX_FDK/components/sleep/sx_sleep.h **** typedef struct sx_sleep_ops {
  19:SynaptiX_FDK/components/sleep/sx_sleep.h ****     void (*enter_stop)  (sx_sleep_t *mgr);
  20:SynaptiX_FDK/components/sleep/sx_sleep.h ****     void (*set_rtc_wake)(sx_sleep_t *mgr, uint32_t period_sec);
  21:SynaptiX_FDK/components/sleep/sx_sleep.h ****     void (*cancel_rtc)  (sx_sleep_t *mgr);
  22:SynaptiX_FDK/components/sleep/sx_sleep.h **** } sx_sleep_ops_t;
  23:SynaptiX_FDK/components/sleep/sx_sleep.h **** 
  24:SynaptiX_FDK/components/sleep/sx_sleep.h **** struct sx_sleep {
  25:SynaptiX_FDK/components/sleep/sx_sleep.h ****     sx_sleep_ops_t *ops;
  26:SynaptiX_FDK/components/sleep/sx_sleep.h ****     void                   *pDriver;
  27:SynaptiX_FDK/components/sleep/sx_sleep.h ****     wake_reason_t           wake_reason;
  28:SynaptiX_FDK/components/sleep/sx_sleep.h **** };
  29:SynaptiX_FDK/components/sleep/sx_sleep.h **** 
  30:SynaptiX_FDK/components/sleep/sx_sleep.h **** static inline void sx_sleep_init(sx_sleep_t *mgr,
 3224              		.loc 3 30 20 view .LVU729
 3225              	.LBB41:
  31:SynaptiX_FDK/components/sleep/sx_sleep.h ****                                           sx_sleep_ops_t *ops,
  32:SynaptiX_FDK/components/sleep/sx_sleep.h ****                                           void *pDriver)
  33:SynaptiX_FDK/components/sleep/sx_sleep.h **** {
  34:SynaptiX_FDK/components/sleep/sx_sleep.h ****     mgr->ops         = ops;
 3226              		.loc 3 34 5 view .LVU730
 3227              		.loc 3 34 22 is_stmt 0 view .LVU731
 3228 005a 1D4B     		ldr	r3, .L176+28
 3229 005c 6360     		str	r3, [r4, #4]
  35:SynaptiX_FDK/components/sleep/sx_sleep.h ****     mgr->pDriver     = pDriver;
 3230              		.loc 3 35 5 is_stmt 1 view .LVU732
 3231              		.loc 3 35 22 is_stmt 0 view .LVU733
 3232 005e 1D4B     		ldr	r3, .L176+32
 3233 0060 A360     		str	r3, [r4, #8]
  36:SynaptiX_FDK/components/sleep/sx_sleep.h ****     mgr->wake_reason = WAKE_REASON_UNKNOWN;
 3234              		.loc 3 36 5 is_stmt 1 view .LVU734
 3235              		.loc 3 36 22 is_stmt 0 view .LVU735
 3236 0062 2573     		strb	r5, [r4, #12]
 3237              	.LVL270:
 3238              		.loc 3 36 22 view .LVU736
 3239              	.LBE41:
 3240              	.LBE40:
 815:SynaptiX_FDK/app/app.c **** 
 816:SynaptiX_FDK/app/app.c ****     sx_sleep_manager_init(&g_app.sleep_mgr, &g_app.sleep,
ARM GAS  C:\Users\LENOVO\AppData\Local\Temp\ccWRq5sC.s 			page 91


 3241              		.loc 1 816 5 is_stmt 1 view .LVU737
 817:SynaptiX_FDK/app/app.c ****                           &g_app.board->sim76xx, &g_app.board->gps);
 3242              		.loc 1 817 33 is_stmt 0 view .LVU738
 3243 0064 E26C     		ldr	r2, [r4, #76]
 3244              		.loc 1 817 56 view .LVU739
 3245 0066 E36C     		ldr	r3, [r4, #76]
 816:SynaptiX_FDK/app/app.c ****                           &g_app.board->sim76xx, &g_app.board->gps);
 3246              		.loc 1 816 5 view .LVU740
 3247 0068 03F54273 		add	r3, r3, #776
 3248 006c 211D     		adds	r1, r4, #4
 3249 006e 04F11000 		add	r0, r4, #16
 3250 0072 FFF7FEFF 		bl	sx_sleep_manager_init
 3251              	.LVL271:
 818:SynaptiX_FDK/app/app.c **** 
 819:SynaptiX_FDK/app/app.c ****     g_app.sleep_mgr.sleep_ms        = config_json.time_sleep_ms;
 3252              		.loc 1 819 5 is_stmt 1 view .LVU741
 3253              		.loc 1 819 50 is_stmt 0 view .LVU742
 3254 0076 D7F8E032 		ldr	r3, [r7, #736]
 3255              		.loc 1 819 37 view .LVU743
 3256 007a 2363     		str	r3, [r4, #48]
 820:SynaptiX_FDK/app/app.c ****     g_app.sleep_mgr.wake_timeout_ms = config_json.time_wake_ms;
 3257              		.loc 1 820 5 is_stmt 1 view .LVU744
 3258              		.loc 1 820 50 is_stmt 0 view .LVU745
 3259 007c D7F8E432 		ldr	r3, [r7, #740]
 3260              		.loc 1 820 37 view .LVU746
 3261 0080 6363     		str	r3, [r4, #52]
 821:SynaptiX_FDK/app/app.c ****     log_info(TAG, "Sleep config applied — sleep=%lu ms, wake=%lu ms", g_app.sleep_mgr.sleep_ms, g
 3262              		.loc 1 821 5 is_stmt 1 view .LVU747
 3263 0082 236B     		ldr	r3, [r4, #48]
 3264 0084 626B     		ldr	r2, [r4, #52]
 3265 0086 0092     		str	r2, [sp]
 3266 0088 134A     		ldr	r2, .L176+36
 3267 008a 3146     		mov	r1, r6
 3268 008c 0320     		movs	r0, #3
 3269 008e FFF7FEFF 		bl	log_func
 3270              	.LVL272:
 822:SynaptiX_FDK/app/app.c **** 
 823:SynaptiX_FDK/app/app.c **** 
 824:SynaptiX_FDK/app/app.c ****     sx_user_mqtt_nontls_init(&s_mqtt_cfg);
 3271              		.loc 1 824 5 view .LVU748
 3272 0092 1248     		ldr	r0, .L176+40
 3273 0094 FFF7FEFF 		bl	sx_user_mqtt_nontls_init
 3274              	.LVL273:
 825:SynaptiX_FDK/app/app.c ****     read_last_gps();
 3275              		.loc 1 825 5 view .LVU749
 3276 0098 FFF7FEFF 		bl	read_last_gps
 3277              	.LVL274:
 826:SynaptiX_FDK/app/app.c ****     gps_it_handle();
 3278              		.loc 1 826 5 view .LVU750
 3279 009c FFF7FEFF 		bl	gps_it_handle
 3280              	.LVL275:
 827:SynaptiX_FDK/app/app.c **** 
 828:SynaptiX_FDK/app/app.c ****     // publish_gps("init");
 829:SynaptiX_FDK/app/app.c ****     // publish_gsm("init");
 830:SynaptiX_FDK/app/app.c **** 
 831:SynaptiX_FDK/app/app.c ****     app_at_init();
 3281              		.loc 1 831 5 view .LVU751
ARM GAS  C:\Users\LENOVO\AppData\Local\Temp\ccWRq5sC.s 			page 92


 3282 00a0 FFF7FEFF 		bl	app_at_init
 3283              	.LVL276:
 832:SynaptiX_FDK/app/app.c ****     
 833:SynaptiX_FDK/app/app.c ****     log_info(TAG, "App init done");
 3284              		.loc 1 833 5 view .LVU752
 3285 00a4 0E4A     		ldr	r2, .L176+44
 3286 00a6 3146     		mov	r1, r6
 3287 00a8 0320     		movs	r0, #3
 3288 00aa FFF7FEFF 		bl	log_func
 3289              	.LVL277:
 834:SynaptiX_FDK/app/app.c ****     return;
 3290              		.loc 1 834 5 view .LVU753
 835:SynaptiX_FDK/app/app.c **** }
 3291              		.loc 1 835 1 is_stmt 0 view .LVU754
 3292 00ae 03B0     		add	sp, sp, #12
 3293              	.LCFI39:
 3294              		.cfi_def_cfa_offset 20
 3295              		@ sp needed
 3296 00b0 F0BD     		pop	{r4, r5, r6, r7, pc}
 3297              	.L177:
 3298 00b2 00BF     		.align	2
 3299              	.L176:
 3300 00b4 18000000 		.word	.LC3
 3301 00b8 00000000 		.word	.LC80
 3302 00bc 00000000 		.word	config_json
 3303 00c0 00710200 		.word	160000
 3304 00c4 00000000 		.word	g_app
 3305 00c8 00000000 		.word	board
 3306 00cc 0C000000 		.word	.LC81
 3307 00d0 00000000 		.word	sx_sleep_ops
 3308 00d4 00000000 		.word	hrtc
 3309 00d8 20000000 		.word	.LC82
 3310 00dc 00000000 		.word	s_mqtt_cfg
 3311 00e0 54000000 		.word	.LC83
 3312              		.cfi_endproc
 3313              	.LFE570:
 3315              		.section	.rodata.app_process.str1.4,"aMS",%progbits,1
 3316              		.align	2
 3317              	.LC84:
 3318 0000 55534220 		.ascii	"USB Tiny received %d bytes: %.*s\000"
 3318      54696E79 
 3318      20726563 
 3318      65697665 
 3318      64202564 
 3319 0021 000000   		.align	2
 3320              	.LC85:
 3321 0024 73746D33 		.ascii	"stm32/cmd/#\000"
 3321      322F636D 
 3321      642F2300 
 3322              		.align	2
 3323              	.LC86:
 3324 0030 66756C6C 		.ascii	"full pw\000"
 3324      20707700 
 3325              		.align	2
 3326              	.LC87:
 3327 0038 656E7465 		.ascii	"enter sleep\000"
 3327      7220736C 
ARM GAS  C:\Users\LENOVO\AppData\Local\Temp\ccWRq5sC.s 			page 93


 3327      65657000 
 3328              		.align	2
 3329              	.LC88:
 3330 0044 456E7465 		.ascii	"Enter sleep \342\200\224 publish OK\000"
 3330      7220736C 
 3330      65657020 
 3330      E2809420 
 3330      7075626C 
 3331 005f 00       		.align	2
 3332              	.LC89:
 3333 0060 456E7465 		.ascii	"Enter sleep \342\200\224 MQTT unavailable\000"
 3333      7220736C 
 3333      65657020 
 3333      E2809420 
 3333      4D515454 
 3334 0081 000000   		.align	2
 3335              	.LC90:
 3336 0084 456E7465 		.ascii	"Enter sleep \342\200\224 timeout\000"
 3336      7220736C 
 3336      65657020 
 3336      E2809420 
 3336      74696D65 
 3337              		.align	2
 3338              	.LC91:
 3339 009c 5B534C45 		.ascii	"[SLEEP] wake_reason=%d after stop\000"
 3339      45505D20 
 3339      77616B65 
 3339      5F726561 
 3339      736F6E3D 
 3340 00be 0000     		.align	2
 3341              	.LC92:
 3342 00c0 576F6B65 		.ascii	"Woke by RTC timer\000"
 3342      20627920 
 3342      52544320 
 3342      74696D65 
 3342      7200
 3343 00d2 0000     		.align	2
 3344              	.LC93:
 3345 00d4 576F6B65 		.ascii	"Woke by VBUS interrupt\000"
 3345      20627920 
 3345      56425553 
 3345      20696E74 
 3345      65727275 
 3346 00eb 00       		.align	2
 3347              	.LC94:
 3348 00ec 53707572 		.ascii	"Spurious wake \342\200\224 reason=%d\000"
 3348      696F7573 
 3348      2077616B 
 3348      6520E280 
 3348      94207265 
 3349              		.align	2
 3350              	.LC95:
 3351 0108 56425553 		.ascii	"VBUS is HIGH after unknown wake \342\200\224 handli"
 3351      20697320 
 3351      48494748 
 3351      20616674 
 3351      65722075 
ARM GAS  C:\Users\LENOVO\AppData\Local\Temp\ccWRq5sC.s 			page 94


 3352 0132 6E672061 		.ascii	"ng as USB connect\000"
 3352      73205553 
 3352      4220636F 
 3352      6E6E6563 
 3352      7400
 3353              		.align	2
 3354              	.LC96:
 3355 0144 56425553 		.ascii	"VBUS is LOW after unknown wake \342\200\224 re-ente"
 3355      20697320 
 3355      4C4F5720 
 3355      61667465 
 3355      7220756E 
 3356 016e 72696E67 		.ascii	"ring sleep\000"
 3356      20736C65 
 3356      657000
 3357 0179 000000   		.align	2
 3358              	.LC97:
 3359 017c 57616B65 		.ascii	"Wake timeout \342\200\224 force sleep\000"
 3359      2074696D 
 3359      656F7574 
 3359      20E28094 
 3359      20666F72 
 3360 0199 000000   		.align	2
 3361              	.LC98:
 3362 019c 77616B65 		.ascii	"wake up\000"
 3362      20757000 
 3363              		.align	2
 3364              	.LC99:
 3365 01a4 656E7465 		.ascii	"enter_sleep\000"
 3365      725F736C 
 3365      65657000 
 3366              		.section	.text.app_process,"ax",%progbits
 3367              		.align	1
 3368              		.global	app_process
 3369              		.syntax unified
 3370              		.thumb
 3371              		.thumb_func
 3373              	app_process:
 3374              	.LVL278:
 3375              	.LFB571:
 836:SynaptiX_FDK/app/app.c **** 
 837:SynaptiX_FDK/app/app.c **** /*  Process  */
 838:SynaptiX_FDK/app/app.c **** void app_process(uint32_t timestamp)
 839:SynaptiX_FDK/app/app.c **** {
 3376              		.loc 1 839 1 is_stmt 1 view -0
 3377              		.cfi_startproc
 3378              		@ args = 0, pretend = 0, frame = 64
 3379              		@ frame_needed = 0, uses_anonymous_args = 0
 3380              		.loc 1 839 1 is_stmt 0 view .LVU756
 3381 0000 70B5     		push	{r4, r5, r6, lr}
 3382              	.LCFI40:
 3383              		.cfi_def_cfa_offset 16
 3384              		.cfi_offset 4, -16
 3385              		.cfi_offset 5, -12
 3386              		.cfi_offset 6, -8
 3387              		.cfi_offset 14, -4
 3388 0002 94B0     		sub	sp, sp, #80
ARM GAS  C:\Users\LENOVO\AppData\Local\Temp\ccWRq5sC.s 			page 95


 3389              	.LCFI41:
 3390              		.cfi_def_cfa_offset 96
 3391 0004 0446     		mov	r4, r0
 840:SynaptiX_FDK/app/app.c **** 
 841:SynaptiX_FDK/app/app.c ****     if (g_app.usb_connect_pending)
 3392              		.loc 1 841 5 is_stmt 1 view .LVU757
 3393              		.loc 1 841 14 is_stmt 0 view .LVU758
 3394 0006 9E4B     		ldr	r3, .L219
 3395 0008 93F84A30 		ldrb	r3, [r3, #74]	@ zero_extendqisi2
 3396              		.loc 1 841 8 view .LVU759
 3397 000c 13BB     		cbnz	r3, .L209
 3398              	.LVL279:
 3399              	.L179:
 842:SynaptiX_FDK/app/app.c ****     {
 843:SynaptiX_FDK/app/app.c ****         g_app.usb_connect_pending = 0;
 844:SynaptiX_FDK/app/app.c ****         _handle_usb_connected();
 845:SynaptiX_FDK/app/app.c ****     }
 846:SynaptiX_FDK/app/app.c **** 
 847:SynaptiX_FDK/app/app.c ****     sx_usb_tiny_process(&g_app.board->usb);
 3400              		.loc 1 847 5 is_stmt 1 view .LVU760
 3401              		.loc 1 847 31 is_stmt 0 view .LVU761
 3402 000e 9C4D     		ldr	r5, .L219
 3403 0010 E86C     		ldr	r0, [r5, #76]
 3404              		.loc 1 847 5 view .LVU762
 3405 0012 00F2F440 		addw	r0, r0, #1268
 3406 0016 FFF7FEFF 		bl	sx_usb_tiny_process
 3407              	.LVL280:
 848:SynaptiX_FDK/app/app.c ****     sx_diskio_process();
 3408              		.loc 1 848 5 is_stmt 1 view .LVU763
 3409 001a FFF7FEFF 		bl	sx_diskio_process
 3410              	.LVL281:
 849:SynaptiX_FDK/app/app.c ****     if (g_app.s_sync_disk_pending) {
 3411              		.loc 1 849 5 view .LVU764
 3412              		.loc 1 849 14 is_stmt 0 view .LVU765
 3413 001e 95F85B30 		ldrb	r3, [r5, #91]	@ zero_extendqisi2
 3414              		.loc 1 849 8 view .LVU766
 3415 0022 F3B9     		cbnz	r3, .L210
 3416              	.L180:
 850:SynaptiX_FDK/app/app.c ****         g_app.s_sync_disk_pending = 0;
 851:SynaptiX_FDK/app/app.c ****         _sync_gps_log_to_disk();  
 852:SynaptiX_FDK/app/app.c ****     }
 853:SynaptiX_FDK/app/app.c **** 
 854:SynaptiX_FDK/app/app.c ****     if (sx_usb_tiny_available(&g_app.board->usb)) {
 3417              		.loc 1 854 5 is_stmt 1 view .LVU767
 3418              		.loc 1 854 37 is_stmt 0 view .LVU768
 3419 0024 964B     		ldr	r3, .L219
 3420 0026 D86C     		ldr	r0, [r3, #76]
 3421              		.loc 1 854 9 view .LVU769
 3422 0028 00F2F440 		addw	r0, r0, #1268
 3423 002c FFF7FEFF 		bl	sx_usb_tiny_available
 3424              	.LVL282:
 3425              		.loc 1 854 8 discriminator 1 view .LVU770
 3426 0030 E8B9     		cbnz	r0, .L211
 3427              	.L181:
 855:SynaptiX_FDK/app/app.c ****         uint8_t buf[64];
 856:SynaptiX_FDK/app/app.c ****         int len = sx_usb_tiny_read(&g_app.board->usb, buf, sizeof(buf), 10);
 857:SynaptiX_FDK/app/app.c ****         log_info(TAG, "USB Tiny received %d bytes: %.*s", len, len, buf);
ARM GAS  C:\Users\LENOVO\AppData\Local\Temp\ccWRq5sC.s 			page 96


 858:SynaptiX_FDK/app/app.c ****         if (len > 0) {
 859:SynaptiX_FDK/app/app.c ****             app_at_process((const char *)buf, len);
 860:SynaptiX_FDK/app/app.c ****         }
 861:SynaptiX_FDK/app/app.c ****     }
 862:SynaptiX_FDK/app/app.c **** 
 863:SynaptiX_FDK/app/app.c ****     read_vol_pin(timestamp);
 3428              		.loc 1 863 5 is_stmt 1 view .LVU771
 3429 0032 2046     		mov	r0, r4
 3430 0034 FFF7FEFF 		bl	read_vol_pin
 3431              	.LVL283:
 864:SynaptiX_FDK/app/app.c ****     check_charge();
 3432              		.loc 1 864 5 view .LVU772
 3433 0038 FFF7FEFF 		bl	check_charge
 3434              	.LVL284:
 865:SynaptiX_FDK/app/app.c **** 
 866:SynaptiX_FDK/app/app.c ****     switch (g_app.app_mode)
 3435              		.loc 1 866 5 view .LVU773
 3436              		.loc 1 866 18 is_stmt 0 view .LVU774
 3437 003c 904B     		ldr	r3, .L219
 3438 003e 1B78     		ldrb	r3, [r3]	@ zero_extendqisi2
 3439 0040 DBB2     		uxtb	r3, r3
 3440              		.loc 1 866 5 view .LVU775
 3441 0042 032B     		cmp	r3, #3
 3442 0044 00F20181 		bhi	.L178
 3443 0048 DFE813F0 		tbh	[pc, r3, lsl #1]
 3444              	.L185:
 3445 004c 2B00     		.2byte	(.L188-.L185)/2
 3446 004e 6500     		.2byte	(.L187-.L185)/2
 3447 0050 CE00     		.2byte	(.L186-.L185)/2
 3448 0052 3E01     		.2byte	(.L184-.L185)/2
 3449              	.LVL285:
 3450              		.p2align 1
 3451              	.L209:
 843:SynaptiX_FDK/app/app.c ****         _handle_usb_connected();
 3452              		.loc 1 843 9 is_stmt 1 view .LVU776
 843:SynaptiX_FDK/app/app.c ****         _handle_usb_connected();
 3453              		.loc 1 843 35 is_stmt 0 view .LVU777
 3454 0054 8A4B     		ldr	r3, .L219
 3455 0056 0022     		movs	r2, #0
 3456 0058 83F84A20 		strb	r2, [r3, #74]
 844:SynaptiX_FDK/app/app.c ****     }
 3457              		.loc 1 844 9 is_stmt 1 view .LVU778
 3458 005c FFF7FEFF 		bl	_handle_usb_connected
 3459              	.LVL286:
 844:SynaptiX_FDK/app/app.c ****     }
 3460              		.loc 1 844 9 is_stmt 0 view .LVU779
 3461 0060 D5E7     		b	.L179
 3462              	.L210:
 850:SynaptiX_FDK/app/app.c ****         _sync_gps_log_to_disk();  
 3463              		.loc 1 850 9 is_stmt 1 view .LVU780
 850:SynaptiX_FDK/app/app.c ****         _sync_gps_log_to_disk();  
 3464              		.loc 1 850 35 is_stmt 0 view .LVU781
 3465 0062 0022     		movs	r2, #0
 3466 0064 85F85B20 		strb	r2, [r5, #91]
 851:SynaptiX_FDK/app/app.c ****     }
 3467              		.loc 1 851 9 is_stmt 1 view .LVU782
 3468 0068 FFF7FEFF 		bl	_sync_gps_log_to_disk
ARM GAS  C:\Users\LENOVO\AppData\Local\Temp\ccWRq5sC.s 			page 97


 3469              	.LVL287:
 3470 006c DAE7     		b	.L180
 3471              	.L211:
 3472              	.LBB42:
 855:SynaptiX_FDK/app/app.c ****         int len = sx_usb_tiny_read(&g_app.board->usb, buf, sizeof(buf), 10);
 3473              		.loc 1 855 9 view .LVU783
 856:SynaptiX_FDK/app/app.c ****         log_info(TAG, "USB Tiny received %d bytes: %.*s", len, len, buf);
 3474              		.loc 1 856 9 view .LVU784
 856:SynaptiX_FDK/app/app.c ****         log_info(TAG, "USB Tiny received %d bytes: %.*s", len, len, buf);
 3475              		.loc 1 856 42 is_stmt 0 view .LVU785
 3476 006e 844B     		ldr	r3, .L219
 3477 0070 D86C     		ldr	r0, [r3, #76]
 856:SynaptiX_FDK/app/app.c ****         log_info(TAG, "USB Tiny received %d bytes: %.*s", len, len, buf);
 3478              		.loc 1 856 19 view .LVU786
 3479 0072 04AE     		add	r6, sp, #16
 3480 0074 0A23     		movs	r3, #10
 3481 0076 4022     		movs	r2, #64
 3482 0078 3146     		mov	r1, r6
 3483 007a 00F2F440 		addw	r0, r0, #1268
 3484 007e FFF7FEFF 		bl	sx_usb_tiny_read
 3485              	.LVL288:
 3486 0082 0546     		mov	r5, r0
 3487              	.LVL289:
 857:SynaptiX_FDK/app/app.c ****         if (len > 0) {
 3488              		.loc 1 857 9 is_stmt 1 view .LVU787
 3489 0084 0196     		str	r6, [sp, #4]
 3490 0086 0090     		str	r0, [sp]
 3491 0088 0346     		mov	r3, r0
 3492 008a 7E4A     		ldr	r2, .L219+4
 3493 008c 7E49     		ldr	r1, .L219+8
 3494 008e 0320     		movs	r0, #3
 3495              	.LVL290:
 857:SynaptiX_FDK/app/app.c ****         if (len > 0) {
 3496              		.loc 1 857 9 is_stmt 0 view .LVU788
 3497 0090 FFF7FEFF 		bl	log_func
 3498              	.LVL291:
 858:SynaptiX_FDK/app/app.c ****             app_at_process((const char *)buf, len);
 3499              		.loc 1 858 9 is_stmt 1 view .LVU789
 858:SynaptiX_FDK/app/app.c ****             app_at_process((const char *)buf, len);
 3500              		.loc 1 858 12 is_stmt 0 view .LVU790
 3501 0094 002D     		cmp	r5, #0
 3502 0096 CCDD     		ble	.L181
 859:SynaptiX_FDK/app/app.c ****         }
 3503              		.loc 1 859 13 is_stmt 1 view .LVU791
 3504 0098 2946     		mov	r1, r5
 3505 009a 3046     		mov	r0, r6
 3506 009c FFF7FEFF 		bl	app_at_process
 3507              	.LVL292:
 3508 00a0 C7E7     		b	.L181
 3509              	.LVL293:
 3510              	.L188:
 859:SynaptiX_FDK/app/app.c ****         }
 3511              		.loc 1 859 13 is_stmt 0 view .LVU792
 3512              	.LBE42:
 3513              	.LBB43:
 867:SynaptiX_FDK/app/app.c ****     {
 868:SynaptiX_FDK/app/app.c ****     /* ---------------------------------------------------------------- */
ARM GAS  C:\Users\LENOVO\AppData\Local\Temp\ccWRq5sC.s 			page 98


 869:SynaptiX_FDK/app/app.c ****     case APP_MODE_FULL_POWER:
 870:SynaptiX_FDK/app/app.c ****         gps_process(&g_app.board->gps, timestamp);
 3514              		.loc 1 870 9 is_stmt 1 view .LVU793
 3515              		.loc 1 870 27 is_stmt 0 view .LVU794
 3516 00a2 774D     		ldr	r5, .L219
 3517 00a4 E86C     		ldr	r0, [r5, #76]
 3518              		.loc 1 870 9 view .LVU795
 3519 00a6 2146     		mov	r1, r4
 3520 00a8 00F54270 		add	r0, r0, #776
 3521 00ac FFF7FEFF 		bl	gps_process
 3522              	.LVL294:
 871:SynaptiX_FDK/app/app.c ****         sx_user_mqtt_poll(timestamp);
 3523              		.loc 1 871 9 is_stmt 1 view .LVU796
 3524 00b0 2046     		mov	r0, r4
 3525 00b2 FFF7FEFF 		bl	sx_user_mqtt_poll
 3526              	.LVL295:
 872:SynaptiX_FDK/app/app.c ****         g_app.publish_elapsed += timestamp;
 3527              		.loc 1 872 9 view .LVU797
 3528              		.loc 1 872 14 is_stmt 0 view .LVU798
 3529 00b6 AB6B     		ldr	r3, [r5, #56]
 3530              		.loc 1 872 31 view .LVU799
 3531 00b8 2344     		add	r3, r3, r4
 3532 00ba AB63     		str	r3, [r5, #56]
 873:SynaptiX_FDK/app/app.c **** 
 874:SynaptiX_FDK/app/app.c ****         if (!sx_user_mqtt_is_connected())
 3533              		.loc 1 874 9 is_stmt 1 view .LVU800
 3534              		.loc 1 874 14 is_stmt 0 view .LVU801
 3535 00bc FFF7FEFF 		bl	sx_user_mqtt_is_connected
 3536              	.LVL296:
 3537              		.loc 1 874 12 discriminator 1 view .LVU802
 3538 00c0 18B9     		cbnz	r0, .L189
 875:SynaptiX_FDK/app/app.c ****         {
 876:SynaptiX_FDK/app/app.c ****             g_app.subscribed = 0;
 3539              		.loc 1 876 13 is_stmt 1 view .LVU803
 3540              		.loc 1 876 30 is_stmt 0 view .LVU804
 3541 00c2 0022     		movs	r2, #0
 3542 00c4 85F83C20 		strb	r2, [r5, #60]
 877:SynaptiX_FDK/app/app.c ****             break;
 3543              		.loc 1 877 13 is_stmt 1 view .LVU805
 3544 00c8 BFE0     		b	.L178
 3545              	.L189:
 878:SynaptiX_FDK/app/app.c ****         }
 879:SynaptiX_FDK/app/app.c ****         if (!g_app.subscribed)
 3546              		.loc 1 879 9 view .LVU806
 3547              		.loc 1 879 19 is_stmt 0 view .LVU807
 3548 00ca 6D4B     		ldr	r3, .L219
 3549 00cc 93F83C30 		ldrb	r3, [r3, #60]	@ zero_extendqisi2
 3550              		.loc 1 879 12 view .LVU808
 3551 00d0 BBB1     		cbz	r3, .L212
 880:SynaptiX_FDK/app/app.c ****         {
 881:SynaptiX_FDK/app/app.c ****             g_app.subscribed = 1;
 882:SynaptiX_FDK/app/app.c ****             sx_user_mqtt_subscribe(MQTT_SUB_TOPIC);
 883:SynaptiX_FDK/app/app.c ****             g_app.publish_elapsed = 0;
 884:SynaptiX_FDK/app/app.c ****             break;
 885:SynaptiX_FDK/app/app.c ****         }
 886:SynaptiX_FDK/app/app.c **** 
 887:SynaptiX_FDK/app/app.c ****         if (g_app.publish_elapsed >= config_json.s_time_publish && !sx_user_mqtt_is_publishing())
ARM GAS  C:\Users\LENOVO\AppData\Local\Temp\ccWRq5sC.s 			page 99


 3552              		.loc 1 887 9 is_stmt 1 view .LVU809
 3553              		.loc 1 887 18 is_stmt 0 view .LVU810
 3554 00d2 6B4B     		ldr	r3, .L219
 3555 00d4 9A6B     		ldr	r2, [r3, #56]
 3556              		.loc 1 887 49 view .LVU811
 3557 00d6 6D4B     		ldr	r3, .L219+12
 3558 00d8 D3F83033 		ldr	r3, [r3, #816]
 3559              		.loc 1 887 12 view .LVU812
 3560 00dc 9A42     		cmp	r2, r3
 3561 00de C0F0B480 		bcc	.L178
 3562              		.loc 1 887 69 discriminator 1 view .LVU813
 3563 00e2 FFF7FEFF 		bl	sx_user_mqtt_is_publishing
 3564              	.LVL297:
 3565              		.loc 1 887 65 discriminator 1 view .LVU814
 3566 00e6 0028     		cmp	r0, #0
 3567 00e8 40F0AF80 		bne	.L178
 888:SynaptiX_FDK/app/app.c ****         {
 889:SynaptiX_FDK/app/app.c ****             g_app.publish_elapsed = 0;  // reset 
 3568              		.loc 1 889 13 is_stmt 1 view .LVU815
 3569              		.loc 1 889 35 is_stmt 0 view .LVU816
 3570 00ec 644B     		ldr	r3, .L219
 3571 00ee 0022     		movs	r2, #0
 3572 00f0 9A63     		str	r2, [r3, #56]
 890:SynaptiX_FDK/app/app.c ****             publish_gsm("full pw");
 3573              		.loc 1 890 13 is_stmt 1 view .LVU817
 3574 00f2 674C     		ldr	r4, .L219+16
 3575              	.LVL298:
 3576              		.loc 1 890 13 is_stmt 0 view .LVU818
 3577 00f4 2046     		mov	r0, r4
 3578 00f6 FFF7FEFF 		bl	publish_gsm
 3579              	.LVL299:
 891:SynaptiX_FDK/app/app.c ****             publish_gps("full pw");    
 3580              		.loc 1 891 13 is_stmt 1 view .LVU819
 3581 00fa 2046     		mov	r0, r4
 3582 00fc FFF7FEFF 		bl	publish_gps
 3583              	.LVL300:
 3584 0100 A3E0     		b	.L178
 3585              	.LVL301:
 3586              	.L212:
 881:SynaptiX_FDK/app/app.c ****             sx_user_mqtt_subscribe(MQTT_SUB_TOPIC);
 3587              		.loc 1 881 13 view .LVU820
 881:SynaptiX_FDK/app/app.c ****             sx_user_mqtt_subscribe(MQTT_SUB_TOPIC);
 3588              		.loc 1 881 30 is_stmt 0 view .LVU821
 3589 0102 5F4C     		ldr	r4, .L219
 3590              	.LVL302:
 881:SynaptiX_FDK/app/app.c ****             sx_user_mqtt_subscribe(MQTT_SUB_TOPIC);
 3591              		.loc 1 881 30 view .LVU822
 3592 0104 0123     		movs	r3, #1
 3593 0106 84F83C30 		strb	r3, [r4, #60]
 882:SynaptiX_FDK/app/app.c ****             g_app.publish_elapsed = 0;
 3594              		.loc 1 882 13 is_stmt 1 view .LVU823
 3595 010a 6248     		ldr	r0, .L219+20
 3596 010c FFF7FEFF 		bl	sx_user_mqtt_subscribe
 3597              	.LVL303:
 883:SynaptiX_FDK/app/app.c ****             break;
 3598              		.loc 1 883 13 view .LVU824
 883:SynaptiX_FDK/app/app.c ****             break;
ARM GAS  C:\Users\LENOVO\AppData\Local\Temp\ccWRq5sC.s 			page 100


 3599              		.loc 1 883 35 is_stmt 0 view .LVU825
 3600 0110 0023     		movs	r3, #0
 3601 0112 A363     		str	r3, [r4, #56]
 884:SynaptiX_FDK/app/app.c ****         }
 3602              		.loc 1 884 13 is_stmt 1 view .LVU826
 3603 0114 99E0     		b	.L178
 3604              	.LVL304:
 3605              	.L187:
 892:SynaptiX_FDK/app/app.c ****         }
 893:SynaptiX_FDK/app/app.c ****         break;
 894:SynaptiX_FDK/app/app.c **** 
 895:SynaptiX_FDK/app/app.c ****     /* ---------------------------------------------------------------- */
 896:SynaptiX_FDK/app/app.c ****     case APP_MODE_ENTER_SLEEP:
 897:SynaptiX_FDK/app/app.c ****         if (sx_usb_tiny_connected(&g_app.board->usb))
 3606              		.loc 1 897 9 view .LVU827
 3607              		.loc 1 897 41 is_stmt 0 view .LVU828
 3608 0116 5A4B     		ldr	r3, .L219
 3609 0118 D86C     		ldr	r0, [r3, #76]
 3610              		.loc 1 897 13 view .LVU829
 3611 011a 00F2F440 		addw	r0, r0, #1268
 3612 011e FFF7FEFF 		bl	sx_usb_tiny_connected
 3613              	.LVL305:
 3614              		.loc 1 897 12 discriminator 1 view .LVU830
 3615 0122 30B1     		cbz	r0, .L191
 898:SynaptiX_FDK/app/app.c ****         {
 899:SynaptiX_FDK/app/app.c ****             g_app.sleep_requested = 0;
 3616              		.loc 1 899 13 is_stmt 1 view .LVU831
 3617              		.loc 1 899 35 is_stmt 0 view .LVU832
 3618 0124 564B     		ldr	r3, .L219
 3619 0126 0022     		movs	r2, #0
 3620 0128 83F84820 		strb	r2, [r3, #72]
 900:SynaptiX_FDK/app/app.c ****             g_app.enter_sleep_elapsed_ms = 0;
 3621              		.loc 1 900 13 is_stmt 1 view .LVU833
 3622              		.loc 1 900 42 is_stmt 0 view .LVU834
 3623 012c 5A64     		str	r2, [r3, #68]
 901:SynaptiX_FDK/app/app.c ****             g_app.app_mode = APP_MODE_FULL_POWER;
 3624              		.loc 1 901 13 is_stmt 1 view .LVU835
 3625              		.loc 1 901 28 is_stmt 0 view .LVU836
 3626 012e 1A70     		strb	r2, [r3]
 902:SynaptiX_FDK/app/app.c ****             break;
 3627              		.loc 1 902 13 is_stmt 1 view .LVU837
 3628 0130 8BE0     		b	.L178
 3629              	.L191:
 903:SynaptiX_FDK/app/app.c ****         }
 904:SynaptiX_FDK/app/app.c **** 
 905:SynaptiX_FDK/app/app.c ****         g_app.enter_sleep_elapsed_ms += timestamp;
 3630              		.loc 1 905 9 view .LVU838
 3631              		.loc 1 905 14 is_stmt 0 view .LVU839
 3632 0132 534D     		ldr	r5, .L219
 3633 0134 6B6C     		ldr	r3, [r5, #68]
 3634              		.loc 1 905 38 view .LVU840
 3635 0136 2344     		add	r3, r3, r4
 3636 0138 6B64     		str	r3, [r5, #68]
 906:SynaptiX_FDK/app/app.c ****         gps_process(&g_app.board->gps, timestamp);
 3637              		.loc 1 906 9 is_stmt 1 view .LVU841
 3638              		.loc 1 906 27 is_stmt 0 view .LVU842
 3639 013a E86C     		ldr	r0, [r5, #76]
ARM GAS  C:\Users\LENOVO\AppData\Local\Temp\ccWRq5sC.s 			page 101


 3640              		.loc 1 906 9 view .LVU843
 3641 013c 2146     		mov	r1, r4
 3642 013e 00F54270 		add	r0, r0, #776
 3643 0142 FFF7FEFF 		bl	gps_process
 3644              	.LVL306:
 907:SynaptiX_FDK/app/app.c ****         sx_user_mqtt_poll(timestamp);
 3645              		.loc 1 907 9 is_stmt 1 view .LVU844
 3646 0146 2046     		mov	r0, r4
 3647 0148 FFF7FEFF 		bl	sx_user_mqtt_poll
 3648              	.LVL307:
 908:SynaptiX_FDK/app/app.c **** 
 909:SynaptiX_FDK/app/app.c ****         if (!g_app.enter_sleep_published && sx_user_mqtt_is_connected())
 3649              		.loc 1 909 9 view .LVU845
 3650              		.loc 1 909 19 is_stmt 0 view .LVU846
 3651 014c 95F83E30 		ldrb	r3, [r5, #62]	@ zero_extendqisi2
 3652              		.loc 1 909 12 view .LVU847
 3653 0150 73B1     		cbz	r3, .L213
 3654              	.LVL308:
 3655              	.L192:
 910:SynaptiX_FDK/app/app.c ****         {
 911:SynaptiX_FDK/app/app.c ****             g_app.enter_sleep_published = 1;
 912:SynaptiX_FDK/app/app.c ****             publish_gsm("enter sleep");
 913:SynaptiX_FDK/app/app.c ****             publish_gps("enter sleep");
 914:SynaptiX_FDK/app/app.c ****         }
 915:SynaptiX_FDK/app/app.c **** 
 916:SynaptiX_FDK/app/app.c ****         uint8_t pub_done = g_app.last_publish_done;
 3656              		.loc 1 916 9 is_stmt 1 view .LVU848
 3657              		.loc 1 916 17 is_stmt 0 view .LVU849
 3658 0152 4B4B     		ldr	r3, .L219
 3659 0154 93F83D40 		ldrb	r4, [r3, #61]	@ zero_extendqisi2
 3660 0158 E4B2     		uxtb	r4, r4
 3661              	.LVL309:
 917:SynaptiX_FDK/app/app.c ****         uint8_t mqtt_down = !sx_user_mqtt_is_connected() &&
 3662              		.loc 1 917 9 is_stmt 1 view .LVU850
 3663              		.loc 1 917 30 is_stmt 0 view .LVU851
 3664 015a FFF7FEFF 		bl	sx_user_mqtt_is_connected
 3665              	.LVL310:
 3666              		.loc 1 917 58 discriminator 1 view .LVU852
 3667 015e B0B9     		cbnz	r0, .L205
 918:SynaptiX_FDK/app/app.c ****                             g_app.enter_sleep_elapsed_ms >= 5000U;
 3668              		.loc 1 918 34 view .LVU853
 3669 0160 474B     		ldr	r3, .L219
 3670 0162 5A6C     		ldr	r2, [r3, #68]
 917:SynaptiX_FDK/app/app.c ****         uint8_t mqtt_down = !sx_user_mqtt_is_connected() &&
 3671              		.loc 1 917 58 discriminator 1 view .LVU854
 3672 0164 41F28733 		movw	r3, #4999
 3673 0168 9A42     		cmp	r2, r3
 3674 016a 20D8     		bhi	.L206
 917:SynaptiX_FDK/app/app.c ****         uint8_t mqtt_down = !sx_user_mqtt_is_connected() &&
 3675              		.loc 1 917 58 discriminator 4 view .LVU855
 3676 016c 0023     		movs	r3, #0
 3677 016e 0FE0     		b	.L193
 3678              	.LVL311:
 3679              	.L213:
 909:SynaptiX_FDK/app/app.c ****         {
 3680              		.loc 1 909 45 discriminator 1 view .LVU856
 3681 0170 FFF7FEFF 		bl	sx_user_mqtt_is_connected
ARM GAS  C:\Users\LENOVO\AppData\Local\Temp\ccWRq5sC.s 			page 102


 3682              	.LVL312:
 909:SynaptiX_FDK/app/app.c ****         {
 3683              		.loc 1 909 42 discriminator 1 view .LVU857
 3684 0174 0028     		cmp	r0, #0
 3685 0176 ECD0     		beq	.L192
 911:SynaptiX_FDK/app/app.c ****             publish_gsm("enter sleep");
 3686              		.loc 1 911 13 is_stmt 1 view .LVU858
 911:SynaptiX_FDK/app/app.c ****             publish_gsm("enter sleep");
 3687              		.loc 1 911 41 is_stmt 0 view .LVU859
 3688 0178 0122     		movs	r2, #1
 3689 017a 85F83E20 		strb	r2, [r5, #62]
 912:SynaptiX_FDK/app/app.c ****             publish_gps("enter sleep");
 3690              		.loc 1 912 13 is_stmt 1 view .LVU860
 3691 017e 464C     		ldr	r4, .L219+24
 3692              	.LVL313:
 912:SynaptiX_FDK/app/app.c ****             publish_gps("enter sleep");
 3693              		.loc 1 912 13 is_stmt 0 view .LVU861
 3694 0180 2046     		mov	r0, r4
 3695 0182 FFF7FEFF 		bl	publish_gsm
 3696              	.LVL314:
 913:SynaptiX_FDK/app/app.c ****         }
 3697              		.loc 1 913 13 is_stmt 1 view .LVU862
 3698 0186 2046     		mov	r0, r4
 3699 0188 FFF7FEFF 		bl	publish_gps
 3700              	.LVL315:
 3701 018c E1E7     		b	.L192
 3702              	.LVL316:
 3703              	.L205:
 917:SynaptiX_FDK/app/app.c ****                             g_app.enter_sleep_elapsed_ms >= 5000U;
 3704              		.loc 1 917 58 is_stmt 0 discriminator 4 view .LVU863
 3705 018e 0023     		movs	r3, #0
 3706              	.L193:
 917:SynaptiX_FDK/app/app.c ****                             g_app.enter_sleep_elapsed_ms >= 5000U;
 3707              		.loc 1 917 17 discriminator 6 view .LVU864
 3708 0190 DBB2     		uxtb	r3, r3
 3709              	.LVL317:
 919:SynaptiX_FDK/app/app.c ****         uint8_t timed_out = g_app.enter_sleep_elapsed_ms >= ENTER_SLEEP_TIMEOUT_MS;
 3710              		.loc 1 919 9 is_stmt 1 view .LVU865
 3711              		.loc 1 919 34 is_stmt 0 view .LVU866
 3712 0192 3B4A     		ldr	r2, .L219
 3713 0194 526C     		ldr	r2, [r2, #68]
 3714              	.LVL318:
 920:SynaptiX_FDK/app/app.c **** 
 921:SynaptiX_FDK/app/app.c ****         if (!pub_done && !mqtt_down && !timed_out)
 3715              		.loc 1 921 9 is_stmt 1 view .LVU867
 3716              		.loc 1 921 12 is_stmt 0 view .LVU868
 3717 0196 64B9     		cbnz	r4, .L194
 3718              		.loc 1 921 23 discriminator 1 view .LVU869
 3719 0198 13B9     		cbnz	r3, .L195
 3720              		.loc 1 921 37 discriminator 2 view .LVU870
 3721 019a B2F57A7F 		cmp	r2, #1000
 3722 019e 54D3     		bcc	.L178
 3723              	.L195:
 922:SynaptiX_FDK/app/app.c ****             break;
 923:SynaptiX_FDK/app/app.c **** 
 924:SynaptiX_FDK/app/app.c ****         if (pub_done)
 3724              		.loc 1 924 9 is_stmt 1 view .LVU871
ARM GAS  C:\Users\LENOVO\AppData\Local\Temp\ccWRq5sC.s 			page 103


 925:SynaptiX_FDK/app/app.c ****             log_info(TAG, "Enter sleep — publish OK");
 926:SynaptiX_FDK/app/app.c ****         else if (mqtt_down)
 3725              		.loc 1 926 14 view .LVU872
 3726              		.loc 1 926 17 is_stmt 0 view .LVU873
 3727 01a0 E3B1     		cbz	r3, .L197
 927:SynaptiX_FDK/app/app.c ****             log_warn(TAG, "Enter sleep — MQTT unavailable");
 3728              		.loc 1 927 13 is_stmt 1 view .LVU874
 3729 01a2 3E4A     		ldr	r2, .L219+28
 3730              	.LVL319:
 3731              		.loc 1 927 13 is_stmt 0 view .LVU875
 3732 01a4 3849     		ldr	r1, .L219+8
 3733 01a6 0220     		movs	r0, #2
 3734 01a8 FFF7FEFF 		bl	log_func
 3735              	.LVL320:
 3736              		.loc 1 927 13 view .LVU876
 3737 01ac 06E0     		b	.L196
 3738              	.LVL321:
 3739              	.L206:
 917:SynaptiX_FDK/app/app.c ****                             g_app.enter_sleep_elapsed_ms >= 5000U;
 3740              		.loc 1 917 58 discriminator 3 view .LVU877
 3741 01ae 0123     		movs	r3, #1
 3742 01b0 EEE7     		b	.L193
 3743              	.LVL322:
 3744              	.L194:
 925:SynaptiX_FDK/app/app.c ****             log_info(TAG, "Enter sleep — publish OK");
 3745              		.loc 1 925 13 is_stmt 1 view .LVU878
 3746 01b2 3B4A     		ldr	r2, .L219+32
 3747              	.LVL323:
 925:SynaptiX_FDK/app/app.c ****             log_info(TAG, "Enter sleep — publish OK");
 3748              		.loc 1 925 13 is_stmt 0 view .LVU879
 3749 01b4 3449     		ldr	r1, .L219+8
 3750 01b6 0320     		movs	r0, #3
 3751 01b8 FFF7FEFF 		bl	log_func
 3752              	.LVL324:
 3753              	.L196:
 928:SynaptiX_FDK/app/app.c ****         else
 929:SynaptiX_FDK/app/app.c ****             log_warn(TAG, "Enter sleep — timeout");
 930:SynaptiX_FDK/app/app.c **** 
 931:SynaptiX_FDK/app/app.c ****         //write_gps_log("enter_sleep");
 932:SynaptiX_FDK/app/app.c ****         g_app.sleep_requested = 0;
 3754              		.loc 1 932 9 is_stmt 1 view .LVU880
 3755              		.loc 1 932 31 is_stmt 0 view .LVU881
 3756 01bc 304B     		ldr	r3, .L219
 3757 01be 0022     		movs	r2, #0
 3758 01c0 83F84820 		strb	r2, [r3, #72]
 933:SynaptiX_FDK/app/app.c ****         g_app.enter_sleep_elapsed_ms = 0;
 3759              		.loc 1 933 9 is_stmt 1 view .LVU882
 3760              		.loc 1 933 38 is_stmt 0 view .LVU883
 3761 01c4 5A64     		str	r2, [r3, #68]
 934:SynaptiX_FDK/app/app.c ****         g_app.last_publish_done = 0;
 3762              		.loc 1 934 9 is_stmt 1 view .LVU884
 3763              		.loc 1 934 33 is_stmt 0 view .LVU885
 3764 01c6 83F83D20 		strb	r2, [r3, #61]
 935:SynaptiX_FDK/app/app.c ****         g_app.enter_sleep_published = 0;
 3765              		.loc 1 935 9 is_stmt 1 view .LVU886
 3766              		.loc 1 935 37 is_stmt 0 view .LVU887
 3767 01ca 83F83E20 		strb	r2, [r3, #62]
ARM GAS  C:\Users\LENOVO\AppData\Local\Temp\ccWRq5sC.s 			page 104


 936:SynaptiX_FDK/app/app.c ****         g_app.publish_count = 0;
 3768              		.loc 1 936 9 is_stmt 1 view .LVU888
 3769              		.loc 1 936 29 is_stmt 0 view .LVU889
 3770 01ce 83F84020 		strb	r2, [r3, #64]
 937:SynaptiX_FDK/app/app.c ****         g_app.mqtt_stopped = 0;
 3771              		.loc 1 937 9 is_stmt 1 view .LVU890
 3772              		.loc 1 937 28 is_stmt 0 view .LVU891
 3773 01d2 83F83F20 		strb	r2, [r3, #63]
 938:SynaptiX_FDK/app/app.c ****         g_app.app_mode = APP_MODE_SLEEP;
 3774              		.loc 1 938 9 is_stmt 1 view .LVU892
 3775              		.loc 1 938 24 is_stmt 0 view .LVU893
 3776 01d6 0222     		movs	r2, #2
 3777 01d8 1A70     		strb	r2, [r3]
 939:SynaptiX_FDK/app/app.c ****         break;
 3778              		.loc 1 939 9 is_stmt 1 view .LVU894
 3779 01da 36E0     		b	.L178
 3780              	.LVL325:
 3781              	.L197:
 929:SynaptiX_FDK/app/app.c **** 
 3782              		.loc 1 929 13 view .LVU895
 3783 01dc 314A     		ldr	r2, .L219+36
 3784              	.LVL326:
 929:SynaptiX_FDK/app/app.c **** 
 3785              		.loc 1 929 13 is_stmt 0 view .LVU896
 3786 01de 2A49     		ldr	r1, .L219+8
 3787 01e0 0220     		movs	r0, #2
 3788 01e2 FFF7FEFF 		bl	log_func
 3789              	.LVL327:
 929:SynaptiX_FDK/app/app.c **** 
 3790              		.loc 1 929 13 view .LVU897
 3791 01e6 E9E7     		b	.L196
 3792              	.LVL328:
 3793              	.L186:
 940:SynaptiX_FDK/app/app.c **** 
 941:SynaptiX_FDK/app/app.c ****     /* ---------------------------------------------------------------- */
 942:SynaptiX_FDK/app/app.c ****     case APP_MODE_SLEEP:
 943:SynaptiX_FDK/app/app.c ****         sx_user_mqtt_force_disconnect();
 3794              		.loc 1 943 9 is_stmt 1 view .LVU898
 3795 01e8 FFF7FEFF 		bl	sx_user_mqtt_force_disconnect
 3796              	.LVL329:
 944:SynaptiX_FDK/app/app.c ****         sx_user_mqtt_queue_flush();
 3797              		.loc 1 944 9 view .LVU899
 3798 01ec FFF7FEFF 		bl	sx_user_mqtt_queue_flush
 3799              	.LVL330:
 945:SynaptiX_FDK/app/app.c ****         g_app.last_publish_done = 0;
 3800              		.loc 1 945 9 view .LVU900
 3801              		.loc 1 945 33 is_stmt 0 view .LVU901
 3802 01f0 234C     		ldr	r4, .L219
 3803              	.LVL331:
 3804              		.loc 1 945 33 view .LVU902
 3805 01f2 0023     		movs	r3, #0
 3806 01f4 84F83D30 		strb	r3, [r4, #61]
 946:SynaptiX_FDK/app/app.c ****         g_app.publish_count     = 0;
 3807              		.loc 1 946 9 is_stmt 1 view .LVU903
 3808              		.loc 1 946 33 is_stmt 0 view .LVU904
 3809 01f8 84F84030 		strb	r3, [r4, #64]
 947:SynaptiX_FDK/app/app.c ****         sx_sleep_manager_enter(&g_app.sleep_mgr);
ARM GAS  C:\Users\LENOVO\AppData\Local\Temp\ccWRq5sC.s 			page 105


 3810              		.loc 1 947 9 is_stmt 1 view .LVU905
 3811 01fc 04F11000 		add	r0, r4, #16
 3812 0200 FFF7FEFF 		bl	sx_sleep_manager_enter
 3813              	.LVL332:
 3814              	.LBB44:
 948:SynaptiX_FDK/app/app.c **** 
 949:SynaptiX_FDK/app/app.c ****         {
 950:SynaptiX_FDK/app/app.c ****             wake_reason_t wake_reason = sx_sleep_manager_get_wake_reason(&g_app.sleep_mgr);
 3815              		.loc 1 950 13 view .LVU906
 3816              	.LBB45:
 3817              	.LBI45:
 3818              		.file 4 "SynaptiX_FDK/services/sleepmanager/sx_sleep_manager.h"
   1:SynaptiX_FDK/services/sleepmanager/sx_sleep_manager.h **** #ifndef SX_SLEEP_MANAGER_H
   2:SynaptiX_FDK/services/sleepmanager/sx_sleep_manager.h **** #define SX_SLEEP_MANAGER_H
   3:SynaptiX_FDK/services/sleepmanager/sx_sleep_manager.h **** 
   4:SynaptiX_FDK/services/sleepmanager/sx_sleep_manager.h **** #ifdef __cplusplus
   5:SynaptiX_FDK/services/sleepmanager/sx_sleep_manager.h **** extern "C" {
   6:SynaptiX_FDK/services/sleepmanager/sx_sleep_manager.h **** #endif
   7:SynaptiX_FDK/services/sleepmanager/sx_sleep_manager.h **** 
   8:SynaptiX_FDK/services/sleepmanager/sx_sleep_manager.h **** #include <stdint.h>
   9:SynaptiX_FDK/services/sleepmanager/sx_sleep_manager.h **** #include "rtc.h"
  10:SynaptiX_FDK/services/sleepmanager/sx_sleep_manager.h **** #include "sx_sleep.h"
  11:SynaptiX_FDK/services/sleepmanager/sx_sleep_manager.h **** #include "sim76xx.h"
  12:SynaptiX_FDK/services/sleepmanager/sx_sleep_manager.h **** #include "gps.h"
  13:SynaptiX_FDK/services/sleepmanager/sx_sleep_manager.h **** #include "sx_W25Q128.h"
  14:SynaptiX_FDK/services/sleepmanager/sx_sleep_manager.h **** 
  15:SynaptiX_FDK/services/sleepmanager/sx_sleep_manager.h **** typedef enum {
  16:SynaptiX_FDK/services/sleepmanager/sx_sleep_manager.h ****     SX_WAKE_STEP_IDLE = 0,
  17:SynaptiX_FDK/services/sleepmanager/sx_sleep_manager.h ****     SX_WAKE_STEP_GPS_ON_FIRST,   
  18:SynaptiX_FDK/services/sleepmanager/sx_sleep_manager.h ****     SX_WAKE_STEP_GPS_WAIT,       
  19:SynaptiX_FDK/services/sleepmanager/sx_sleep_manager.h ****     SX_WAKE_STEP_UART_RESUME,    
  20:SynaptiX_FDK/services/sleepmanager/sx_sleep_manager.h ****     SX_WAKE_STEP_SIM_WAKE,
  21:SynaptiX_FDK/services/sleepmanager/sx_sleep_manager.h ****     SX_WAKE_STEP_DONE,
  22:SynaptiX_FDK/services/sleepmanager/sx_sleep_manager.h **** } sx_wake_step_t;
  23:SynaptiX_FDK/services/sleepmanager/sx_sleep_manager.h **** 
  24:SynaptiX_FDK/services/sleepmanager/sx_sleep_manager.h **** typedef struct {
  25:SynaptiX_FDK/services/sleepmanager/sx_sleep_manager.h ****     sim76xx_t     *sim;
  26:SynaptiX_FDK/services/sleepmanager/sx_sleep_manager.h ****     sx_gps_t      *gps;
  27:SynaptiX_FDK/services/sleepmanager/sx_sleep_manager.h ****     /*  add another */
  28:SynaptiX_FDK/services/sleepmanager/sx_sleep_manager.h ****     sx_W25Q128_t *ex_flash;
  29:SynaptiX_FDK/services/sleepmanager/sx_sleep_manager.h **** }module_t;
  30:SynaptiX_FDK/services/sleepmanager/sx_sleep_manager.h **** 
  31:SynaptiX_FDK/services/sleepmanager/sx_sleep_manager.h **** typedef struct {
  32:SynaptiX_FDK/services/sleepmanager/sx_sleep_manager.h ****     uint32_t wake_elapsed_ms;
  33:SynaptiX_FDK/services/sleepmanager/sx_sleep_manager.h ****     uint32_t gps_elapsed_ms;
  34:SynaptiX_FDK/services/sleepmanager/sx_sleep_manager.h ****     uint32_t sim_elapsed_ms; 
  35:SynaptiX_FDK/services/sleepmanager/sx_sleep_manager.h **** } sx_wake_elapsed_t;
  36:SynaptiX_FDK/services/sleepmanager/sx_sleep_manager.h **** 
  37:SynaptiX_FDK/services/sleepmanager/sx_sleep_manager.h **** typedef struct {
  38:SynaptiX_FDK/services/sleepmanager/sx_sleep_manager.h ****     sx_sleep_t    *sleep;
  39:SynaptiX_FDK/services/sleepmanager/sx_sleep_manager.h ****     
  40:SynaptiX_FDK/services/sleepmanager/sx_sleep_manager.h ****     module_t module;
  41:SynaptiX_FDK/services/sleepmanager/sx_sleep_manager.h **** 
  42:SynaptiX_FDK/services/sleepmanager/sx_sleep_manager.h ****     sx_wake_elapsed_t   elapsed;   
  43:SynaptiX_FDK/services/sleepmanager/sx_sleep_manager.h **** 
  44:SynaptiX_FDK/services/sleepmanager/sx_sleep_manager.h ****     sx_wake_step_t wake_step;
  45:SynaptiX_FDK/services/sleepmanager/sx_sleep_manager.h ****     uint8_t        published;          
ARM GAS  C:\Users\LENOVO\AppData\Local\Temp\ccWRq5sC.s 			page 106


  46:SynaptiX_FDK/services/sleepmanager/sx_sleep_manager.h ****     uint32_t       sleep_ms;        
  47:SynaptiX_FDK/services/sleepmanager/sx_sleep_manager.h ****     uint32_t       wake_timeout_ms;
  48:SynaptiX_FDK/services/sleepmanager/sx_sleep_manager.h **** } sx_sleep_manager_t;
  49:SynaptiX_FDK/services/sleepmanager/sx_sleep_manager.h **** 
  50:SynaptiX_FDK/services/sleepmanager/sx_sleep_manager.h **** void sx_sleep_manager_init (sx_sleep_manager_t *mgr,
  51:SynaptiX_FDK/services/sleepmanager/sx_sleep_manager.h ****                             sx_sleep_t         *sleep,
  52:SynaptiX_FDK/services/sleepmanager/sx_sleep_manager.h ****                             sim76xx_t          *sim,
  53:SynaptiX_FDK/services/sleepmanager/sx_sleep_manager.h ****                             sx_gps_t           *gps);
  54:SynaptiX_FDK/services/sleepmanager/sx_sleep_manager.h **** 
  55:SynaptiX_FDK/services/sleepmanager/sx_sleep_manager.h **** void sx_sleep_manager_enter(sx_sleep_manager_t *mgr);
  56:SynaptiX_FDK/services/sleepmanager/sx_sleep_manager.h **** 
  57:SynaptiX_FDK/services/sleepmanager/sx_sleep_manager.h **** void sx_sleep_manager_wake_process(sx_sleep_manager_t *mgr, uint32_t delta_ms);
  58:SynaptiX_FDK/services/sleepmanager/sx_sleep_manager.h **** 
  59:SynaptiX_FDK/services/sleepmanager/sx_sleep_manager.h **** uint8_t sx_sleep_manager_is_wake_done(sx_sleep_manager_t *mgr);
  60:SynaptiX_FDK/services/sleepmanager/sx_sleep_manager.h **** 
  61:SynaptiX_FDK/services/sleepmanager/sx_sleep_manager.h **** uint8_t sx_sleep_manager_wake_tick(sx_sleep_manager_t *mgr, uint32_t delta_ms);
  62:SynaptiX_FDK/services/sleepmanager/sx_sleep_manager.h **** 
  63:SynaptiX_FDK/services/sleepmanager/sx_sleep_manager.h **** void sx_sleep_manager_reset_wake(sx_sleep_manager_t *mgr);
  64:SynaptiX_FDK/services/sleepmanager/sx_sleep_manager.h **** 
  65:SynaptiX_FDK/services/sleepmanager/sx_sleep_manager.h **** static inline wake_reason_t sx_sleep_manager_get_wake_reason(sx_sleep_manager_t *mgr) {
 3819              		.loc 4 65 29 view .LVU907
 3820              	.LBB46:
  66:SynaptiX_FDK/services/sleepmanager/sx_sleep_manager.h ****     return sx_sleep_get_wake_reason(mgr->sleep);
 3821              		.loc 4 66 5 view .LVU908
 3822              		.loc 4 66 12 is_stmt 0 view .LVU909
 3823 0204 2369     		ldr	r3, [r4, #16]
 3824              	.LVL333:
 3825              	.LBB47:
 3826              	.LBI47:
  37:SynaptiX_FDK/components/sleep/sx_sleep.h **** }
  38:SynaptiX_FDK/components/sleep/sx_sleep.h **** 
  39:SynaptiX_FDK/components/sleep/sx_sleep.h **** static inline void sx_sleep_enter_stop(sx_sleep_t *mgr)
  40:SynaptiX_FDK/components/sleep/sx_sleep.h **** {
  41:SynaptiX_FDK/components/sleep/sx_sleep.h ****     if (mgr->ops && mgr->ops->enter_stop)
  42:SynaptiX_FDK/components/sleep/sx_sleep.h ****         mgr->ops->enter_stop(mgr);
  43:SynaptiX_FDK/components/sleep/sx_sleep.h **** }
  44:SynaptiX_FDK/components/sleep/sx_sleep.h **** 
  45:SynaptiX_FDK/components/sleep/sx_sleep.h **** static inline void sx_sleep_set_rtc_wake(sx_sleep_t *mgr,
  46:SynaptiX_FDK/components/sleep/sx_sleep.h ****                                                    uint32_t period_sec)
  47:SynaptiX_FDK/components/sleep/sx_sleep.h **** {
  48:SynaptiX_FDK/components/sleep/sx_sleep.h ****     if (mgr->ops && mgr->ops->set_rtc_wake)
  49:SynaptiX_FDK/components/sleep/sx_sleep.h ****         mgr->ops->set_rtc_wake(mgr, period_sec);
  50:SynaptiX_FDK/components/sleep/sx_sleep.h **** }
  51:SynaptiX_FDK/components/sleep/sx_sleep.h **** 
  52:SynaptiX_FDK/components/sleep/sx_sleep.h **** static inline void sx_sleep_cancel_rtc(sx_sleep_t *mgr)
  53:SynaptiX_FDK/components/sleep/sx_sleep.h **** {
  54:SynaptiX_FDK/components/sleep/sx_sleep.h ****     if (mgr->ops && mgr->ops->cancel_rtc)
  55:SynaptiX_FDK/components/sleep/sx_sleep.h ****         mgr->ops->cancel_rtc(mgr);
  56:SynaptiX_FDK/components/sleep/sx_sleep.h **** }
  57:SynaptiX_FDK/components/sleep/sx_sleep.h **** 
  58:SynaptiX_FDK/components/sleep/sx_sleep.h **** static inline wake_reason_t sx_sleep_get_wake_reason(sx_sleep_t *mgr)
 3827              		.loc 3 58 29 is_stmt 1 view .LVU910
 3828              	.LBB48:
  59:SynaptiX_FDK/components/sleep/sx_sleep.h **** {
  60:SynaptiX_FDK/components/sleep/sx_sleep.h ****     return mgr->wake_reason;
 3829              		.loc 3 60 5 view .LVU911
 3830              		.loc 3 60 15 is_stmt 0 view .LVU912
ARM GAS  C:\Users\LENOVO\AppData\Local\Temp\ccWRq5sC.s 			page 107


 3831 0206 1C7A     		ldrb	r4, [r3, #8]	@ zero_extendqisi2
 3832              	.LVL334:
 3833              		.loc 3 60 15 view .LVU913
 3834              	.LBE48:
 3835              	.LBE47:
 3836              	.LBE46:
 3837              	.LBE45:
 951:SynaptiX_FDK/app/app.c ****             log_debug(TAG, "[SLEEP] wake_reason=%d after stop", wake_reason);
 3838              		.loc 1 951 13 is_stmt 1 view .LVU914
 3839 0208 2346     		mov	r3, r4
 3840 020a 274A     		ldr	r2, .L219+40
 3841 020c 1E49     		ldr	r1, .L219+8
 3842 020e 0420     		movs	r0, #4
 3843 0210 FFF7FEFF 		bl	log_func
 3844              	.LVL335:
 952:SynaptiX_FDK/app/app.c **** 
 953:SynaptiX_FDK/app/app.c ****             if (wake_reason == WAKE_REASON_RTC)
 3845              		.loc 1 953 13 view .LVU915
 3846              		.loc 1 953 16 is_stmt 0 view .LVU916
 3847 0214 012C     		cmp	r4, #1
 3848 0216 1AD0     		beq	.L214
 954:SynaptiX_FDK/app/app.c ****             {
 955:SynaptiX_FDK/app/app.c ****                 log_info(TAG, "Woke by RTC timer");
 956:SynaptiX_FDK/app/app.c ****                 g_app.app_mode = APP_MODE_WAKE_PUBLISH;
 957:SynaptiX_FDK/app/app.c ****             }
 958:SynaptiX_FDK/app/app.c ****             else if (wake_reason == WAKE_REASON_EXTI)
 3849              		.loc 1 958 18 is_stmt 1 view .LVU917
 3850              		.loc 1 958 21 is_stmt 0 view .LVU918
 3851 0218 022C     		cmp	r4, #2
 3852 021a 21D0     		beq	.L215
 959:SynaptiX_FDK/app/app.c ****             {
 960:SynaptiX_FDK/app/app.c ****                 log_info(TAG, "Woke by VBUS interrupt");
 961:SynaptiX_FDK/app/app.c ****                 app_notify_usb_connected();
 962:SynaptiX_FDK/app/app.c ****             }
 963:SynaptiX_FDK/app/app.c ****             else {
 964:SynaptiX_FDK/app/app.c ****                 log_warn(TAG, "Spurious wake — reason=%d", wake_reason);
 3853              		.loc 1 964 17 is_stmt 1 view .LVU919
 3854 021c 2346     		mov	r3, r4
 3855 021e 234A     		ldr	r2, .L219+44
 3856 0220 1949     		ldr	r1, .L219+8
 3857 0222 0220     		movs	r0, #2
 3858 0224 FFF7FEFF 		bl	log_func
 3859              	.LVL336:
 965:SynaptiX_FDK/app/app.c ****                 if (HAL_GPIO_ReadPin(VBUS_PORT, VBUS_PIN) == GPIO_PIN_SET) {
 3860              		.loc 1 965 17 view .LVU920
 3861              		.loc 1 965 21 is_stmt 0 view .LVU921
 3862 0228 0221     		movs	r1, #2
 3863 022a 2148     		ldr	r0, .L219+48
 3864 022c FFF7FEFF 		bl	HAL_GPIO_ReadPin
 3865              	.LVL337:
 3866              		.loc 1 965 20 discriminator 1 view .LVU922
 3867 0230 0128     		cmp	r0, #1
 3868 0232 1DD0     		beq	.L216
 966:SynaptiX_FDK/app/app.c ****                     log_info(TAG, "VBUS is HIGH after unknown wake — handling as USB connect");
 967:SynaptiX_FDK/app/app.c ****                     app_notify_usb_connected();
 968:SynaptiX_FDK/app/app.c ****                 } else {
 969:SynaptiX_FDK/app/app.c ****                     log_info(TAG, "VBUS is LOW after unknown wake — re-entering sleep");
ARM GAS  C:\Users\LENOVO\AppData\Local\Temp\ccWRq5sC.s 			page 108


 3869              		.loc 1 969 21 is_stmt 1 view .LVU923
 3870 0234 1F4A     		ldr	r2, .L219+52
 3871 0236 1449     		ldr	r1, .L219+8
 3872 0238 0320     		movs	r0, #3
 3873 023a FFF7FEFF 		bl	log_func
 3874              	.LVL338:
 970:SynaptiX_FDK/app/app.c ****                     g_app.app_mode = APP_MODE_SLEEP;
 3875              		.loc 1 970 21 view .LVU924
 3876              		.loc 1 970 36 is_stmt 0 view .LVU925
 3877 023e 104B     		ldr	r3, .L219
 3878 0240 0222     		movs	r2, #2
 3879 0242 1A70     		strb	r2, [r3]
 3880              	.L199:
 3881              	.LBE44:
 971:SynaptiX_FDK/app/app.c ****                 }
 972:SynaptiX_FDK/app/app.c ****             }
 973:SynaptiX_FDK/app/app.c ****         }
 974:SynaptiX_FDK/app/app.c **** 
 975:SynaptiX_FDK/app/app.c ****         sx_sleep_manager_reset_wake(&g_app.sleep_mgr);
 3882              		.loc 1 975 9 is_stmt 1 view .LVU926
 3883 0244 1C48     		ldr	r0, .L219+56
 3884 0246 FFF7FEFF 		bl	sx_sleep_manager_reset_wake
 3885              	.LVL339:
 976:SynaptiX_FDK/app/app.c ****         break;
 3886              		.loc 1 976 9 view .LVU927
 3887              	.L178:
 3888              		.loc 1 976 9 is_stmt 0 view .LVU928
 3889              	.LBE43:
 977:SynaptiX_FDK/app/app.c ****     /* ---------------------------------------------------------------- */
 978:SynaptiX_FDK/app/app.c ****     case APP_MODE_WAKE_PUBLISH:
 979:SynaptiX_FDK/app/app.c ****         gps_process(&g_app.board->gps, timestamp);
 980:SynaptiX_FDK/app/app.c ****         sx_sleep_manager_wake_process(&g_app.sleep_mgr, timestamp);
 981:SynaptiX_FDK/app/app.c **** 
 982:SynaptiX_FDK/app/app.c ****         if (g_app.sleep_mgr.wake_step >= SX_WAKE_STEP_UART_RESUME) {
 983:SynaptiX_FDK/app/app.c ****             sx_user_mqtt_poll(timestamp);
 984:SynaptiX_FDK/app/app.c ****         }
 985:SynaptiX_FDK/app/app.c **** 
 986:SynaptiX_FDK/app/app.c ****         if (sx_sleep_manager_wake_tick(&g_app.sleep_mgr, timestamp))
 987:SynaptiX_FDK/app/app.c ****         {
 988:SynaptiX_FDK/app/app.c ****             log_warn(TAG, "Wake timeout — force sleep");
 989:SynaptiX_FDK/app/app.c ****             g_app.last_publish_done = 0;
 990:SynaptiX_FDK/app/app.c ****             g_app.publish_count = 0;
 991:SynaptiX_FDK/app/app.c ****             g_app.app_mode = APP_MODE_SLEEP;
 992:SynaptiX_FDK/app/app.c ****             break;
 993:SynaptiX_FDK/app/app.c ****         }
 994:SynaptiX_FDK/app/app.c **** 
 995:SynaptiX_FDK/app/app.c ****         if (!sx_sleep_manager_is_wake_done(&g_app.sleep_mgr))
 996:SynaptiX_FDK/app/app.c ****             break;
 997:SynaptiX_FDK/app/app.c **** 
 998:SynaptiX_FDK/app/app.c ****         if (!g_app.sleep_mgr.published && sx_user_mqtt_is_connected())
 999:SynaptiX_FDK/app/app.c ****         {
1000:SynaptiX_FDK/app/app.c ****             g_app.sleep_mgr.published = 1;
1001:SynaptiX_FDK/app/app.c ****             g_app.last_publish_done   = 0;
1002:SynaptiX_FDK/app/app.c ****             g_app.publish_count       = 0;
1003:SynaptiX_FDK/app/app.c ****             set_time_exrtc(board.gps.tim.tm_sec, board.gps.tim.tm_min, board.gps.tim.tm_hour, (boar
1004:SynaptiX_FDK/app/app.c ****                             board.gps.tim.tm_mon, board.gps.tim.tm_year - 100);
1005:SynaptiX_FDK/app/app.c ****             publish_gsm("wake up");
ARM GAS  C:\Users\LENOVO\AppData\Local\Temp\ccWRq5sC.s 			page 109


1006:SynaptiX_FDK/app/app.c ****             publish_gps("wake up");
1007:SynaptiX_FDK/app/app.c ****         }
1008:SynaptiX_FDK/app/app.c **** 
1009:SynaptiX_FDK/app/app.c ****         if (g_app.sleep_mgr.published && g_app.last_publish_done)
1010:SynaptiX_FDK/app/app.c ****         {
1011:SynaptiX_FDK/app/app.c ****             write_gps_log("enter_sleep");
1012:SynaptiX_FDK/app/app.c ****             set_time_exrtc(board.gps.tim.tm_sec, board.gps.tim.tm_min, board.gps.tim.tm_hour, (boar
1013:SynaptiX_FDK/app/app.c ****                             board.gps.tim.tm_mon, board.gps.tim.tm_year - 100);
1014:SynaptiX_FDK/app/app.c ****             g_app.last_publish_done = 0;
1015:SynaptiX_FDK/app/app.c ****             g_app.publish_count = 0;
1016:SynaptiX_FDK/app/app.c ****             g_app.app_mode = APP_MODE_SLEEP;
1017:SynaptiX_FDK/app/app.c ****         }
1018:SynaptiX_FDK/app/app.c ****         break;
1019:SynaptiX_FDK/app/app.c **** 
1020:SynaptiX_FDK/app/app.c ****     default:
1021:SynaptiX_FDK/app/app.c ****         break;
1022:SynaptiX_FDK/app/app.c ****     }
1023:SynaptiX_FDK/app/app.c **** }...
 3890              		.loc 1 1023 1 view .LVU929
 3891 024a 14B0     		add	sp, sp, #80
 3892              	.LCFI42:
 3893              		.cfi_remember_state
 3894              		.cfi_def_cfa_offset 16
 3895              		@ sp needed
 3896 024c 70BD     		pop	{r4, r5, r6, pc}
 3897              	.LVL340:
 3898              	.L214:
 3899              	.LCFI43:
 3900              		.cfi_restore_state
 3901              	.LBB50:
 3902              	.LBB49:
 955:SynaptiX_FDK/app/app.c ****                 log_info(TAG, "Woke by RTC timer");
 3903              		.loc 1 955 17 is_stmt 1 view .LVU930
 3904 024e 1B4A     		ldr	r2, .L219+60
 3905 0250 0D49     		ldr	r1, .L219+8
 3906 0252 0320     		movs	r0, #3
 3907 0254 FFF7FEFF 		bl	log_func
 3908              	.LVL341:
 956:SynaptiX_FDK/app/app.c ****                 g_app.app_mode = APP_MODE_WAKE_PUBLISH;
 3909              		.loc 1 956 17 view .LVU931
 956:SynaptiX_FDK/app/app.c ****                 g_app.app_mode = APP_MODE_WAKE_PUBLISH;
 3910              		.loc 1 956 32 is_stmt 0 view .LVU932
 3911 0258 094B     		ldr	r3, .L219
 3912 025a 0322     		movs	r2, #3
 3913 025c 1A70     		strb	r2, [r3]
 3914 025e F1E7     		b	.L199
 3915              	.L215:
 960:SynaptiX_FDK/app/app.c ****                 log_info(TAG, "Woke by VBUS interrupt");
 3916              		.loc 1 960 17 is_stmt 1 view .LVU933
 3917 0260 174A     		ldr	r2, .L219+64
 3918 0262 0949     		ldr	r1, .L219+8
 3919 0264 0320     		movs	r0, #3
 3920 0266 FFF7FEFF 		bl	log_func
 3921              	.LVL342:
 961:SynaptiX_FDK/app/app.c ****                 app_notify_usb_connected();
 3922              		.loc 1 961 17 view .LVU934
 3923 026a FFF7FEFF 		bl	app_notify_usb_connected
ARM GAS  C:\Users\LENOVO\AppData\Local\Temp\ccWRq5sC.s 			page 110


 3924              	.LVL343:
 3925 026e E9E7     		b	.L199
 3926              	.L216:
 966:SynaptiX_FDK/app/app.c ****                     log_info(TAG, "VBUS is HIGH after unknown wake — handling as USB connect");
 3927              		.loc 1 966 21 view .LVU935
 3928 0270 144A     		ldr	r2, .L219+68
 3929 0272 0549     		ldr	r1, .L219+8
 3930 0274 0320     		movs	r0, #3
 3931 0276 FFF7FEFF 		bl	log_func
 3932              	.LVL344:
 967:SynaptiX_FDK/app/app.c ****                     app_notify_usb_connected();
 3933              		.loc 1 967 21 view .LVU936
 3934 027a FFF7FEFF 		bl	app_notify_usb_connected
 3935              	.LVL345:
 3936 027e E1E7     		b	.L199
 3937              	.L220:
 3938              		.align	2
 3939              	.L219:
 3940 0280 00000000 		.word	g_app
 3941 0284 00000000 		.word	.LC84
 3942 0288 18000000 		.word	.LC3
 3943 028c 00000000 		.word	config_json
 3944 0290 30000000 		.word	.LC86
 3945 0294 24000000 		.word	.LC85
 3946 0298 38000000 		.word	.LC87
 3947 029c 60000000 		.word	.LC89
 3948 02a0 44000000 		.word	.LC88
 3949 02a4 84000000 		.word	.LC90
 3950 02a8 9C000000 		.word	.LC91
 3951 02ac EC000000 		.word	.LC94
 3952 02b0 00080242 		.word	1107429376
 3953 02b4 44010000 		.word	.LC96
 3954 02b8 10000000 		.word	g_app+16
 3955 02bc C0000000 		.word	.LC92
 3956 02c0 D4000000 		.word	.LC93
 3957 02c4 08010000 		.word	.LC95
 3958              	.LVL346:
 3959              	.L184:
 967:SynaptiX_FDK/app/app.c ****                     app_notify_usb_connected();
 3960              		.loc 1 967 21 is_stmt 0 view .LVU937
 3961              	.LBE49:
 979:SynaptiX_FDK/app/app.c ****         gps_process(&g_app.board->gps, timestamp);
 3962              		.loc 1 979 9 is_stmt 1 view .LVU938
 979:SynaptiX_FDK/app/app.c ****         gps_process(&g_app.board->gps, timestamp);
 3963              		.loc 1 979 27 is_stmt 0 view .LVU939
 3964 02c8 4C4D     		ldr	r5, .L221
 3965 02ca E86C     		ldr	r0, [r5, #76]
 979:SynaptiX_FDK/app/app.c ****         gps_process(&g_app.board->gps, timestamp);
 3966              		.loc 1 979 9 view .LVU940
 3967 02cc 2146     		mov	r1, r4
 3968 02ce 00F54270 		add	r0, r0, #776
 3969 02d2 FFF7FEFF 		bl	gps_process
 3970              	.LVL347:
 980:SynaptiX_FDK/app/app.c ****         sx_sleep_manager_wake_process(&g_app.sleep_mgr, timestamp);
 3971              		.loc 1 980 9 is_stmt 1 view .LVU941
 3972 02d6 2146     		mov	r1, r4
 3973 02d8 05F11000 		add	r0, r5, #16
ARM GAS  C:\Users\LENOVO\AppData\Local\Temp\ccWRq5sC.s 			page 111


 3974 02dc FFF7FEFF 		bl	sx_sleep_manager_wake_process
 3975              	.LVL348:
 982:SynaptiX_FDK/app/app.c ****         if (g_app.sleep_mgr.wake_step >= SX_WAKE_STEP_UART_RESUME) {
 3976              		.loc 1 982 9 view .LVU942
 982:SynaptiX_FDK/app/app.c ****         if (g_app.sleep_mgr.wake_step >= SX_WAKE_STEP_UART_RESUME) {
 3977              		.loc 1 982 28 is_stmt 0 view .LVU943
 3978 02e0 95F82C30 		ldrb	r3, [r5, #44]	@ zero_extendqisi2
 3979 02e4 DBB2     		uxtb	r3, r3
 982:SynaptiX_FDK/app/app.c ****         if (g_app.sleep_mgr.wake_step >= SX_WAKE_STEP_UART_RESUME) {
 3980              		.loc 1 982 12 view .LVU944
 3981 02e6 022B     		cmp	r3, #2
 3982 02e8 12D8     		bhi	.L217
 3983              	.L202:
 986:SynaptiX_FDK/app/app.c ****         if (sx_sleep_manager_wake_tick(&g_app.sleep_mgr, timestamp))
 3984              		.loc 1 986 9 is_stmt 1 view .LVU945
 986:SynaptiX_FDK/app/app.c ****         if (sx_sleep_manager_wake_tick(&g_app.sleep_mgr, timestamp))
 3985              		.loc 1 986 13 is_stmt 0 view .LVU946
 3986 02ea 2146     		mov	r1, r4
 3987 02ec 4448     		ldr	r0, .L221+4
 3988 02ee FFF7FEFF 		bl	sx_sleep_manager_wake_tick
 3989              	.LVL349:
 986:SynaptiX_FDK/app/app.c ****         if (sx_sleep_manager_wake_tick(&g_app.sleep_mgr, timestamp))
 3990              		.loc 1 986 12 discriminator 1 view .LVU947
 3991 02f2 88B1     		cbz	r0, .L203
 988:SynaptiX_FDK/app/app.c ****             log_warn(TAG, "Wake timeout — force sleep");
 3992              		.loc 1 988 13 is_stmt 1 view .LVU948
 3993 02f4 434A     		ldr	r2, .L221+8
 3994 02f6 4449     		ldr	r1, .L221+12
 3995 02f8 0220     		movs	r0, #2
 3996 02fa FFF7FEFF 		bl	log_func
 3997              	.LVL350:
 989:SynaptiX_FDK/app/app.c ****             g_app.last_publish_done = 0;
 3998              		.loc 1 989 13 view .LVU949
 989:SynaptiX_FDK/app/app.c ****             g_app.last_publish_done = 0;
 3999              		.loc 1 989 37 is_stmt 0 view .LVU950
 4000 02fe 3F4B     		ldr	r3, .L221
 4001 0300 0022     		movs	r2, #0
 4002 0302 83F83D20 		strb	r2, [r3, #61]
 990:SynaptiX_FDK/app/app.c ****             g_app.publish_count = 0;
 4003              		.loc 1 990 13 is_stmt 1 view .LVU951
 990:SynaptiX_FDK/app/app.c ****             g_app.publish_count = 0;
 4004              		.loc 1 990 33 is_stmt 0 view .LVU952
 4005 0306 83F84020 		strb	r2, [r3, #64]
 991:SynaptiX_FDK/app/app.c ****             g_app.app_mode = APP_MODE_SLEEP;
 4006              		.loc 1 991 13 is_stmt 1 view .LVU953
 991:SynaptiX_FDK/app/app.c ****             g_app.app_mode = APP_MODE_SLEEP;
 4007              		.loc 1 991 28 is_stmt 0 view .LVU954
 4008 030a 0222     		movs	r2, #2
 4009 030c 1A70     		strb	r2, [r3]
 992:SynaptiX_FDK/app/app.c ****             break;
 4010              		.loc 1 992 13 is_stmt 1 view .LVU955
 4011 030e 9CE7     		b	.L178
 4012              	.L217:
 983:SynaptiX_FDK/app/app.c ****             sx_user_mqtt_poll(timestamp);
 4013              		.loc 1 983 13 view .LVU956
 4014 0310 2046     		mov	r0, r4
 4015 0312 FFF7FEFF 		bl	sx_user_mqtt_poll
ARM GAS  C:\Users\LENOVO\AppData\Local\Temp\ccWRq5sC.s 			page 112


 4016              	.LVL351:
 4017 0316 E8E7     		b	.L202
 4018              	.L203:
 995:SynaptiX_FDK/app/app.c ****         if (!sx_sleep_manager_is_wake_done(&g_app.sleep_mgr))
 4019              		.loc 1 995 9 view .LVU957
 995:SynaptiX_FDK/app/app.c ****         if (!sx_sleep_manager_is_wake_done(&g_app.sleep_mgr))
 4020              		.loc 1 995 14 is_stmt 0 view .LVU958
 4021 0318 3948     		ldr	r0, .L221+4
 4022 031a FFF7FEFF 		bl	sx_sleep_manager_is_wake_done
 4023              	.LVL352:
 995:SynaptiX_FDK/app/app.c ****         if (!sx_sleep_manager_is_wake_done(&g_app.sleep_mgr))
 4024              		.loc 1 995 12 discriminator 1 view .LVU959
 4025 031e 0028     		cmp	r0, #0
 4026 0320 93D0     		beq	.L178
 998:SynaptiX_FDK/app/app.c ****         if (!g_app.sleep_mgr.published && sx_user_mqtt_is_connected())
 4027              		.loc 1 998 9 is_stmt 1 view .LVU960
 998:SynaptiX_FDK/app/app.c ****         if (!g_app.sleep_mgr.published && sx_user_mqtt_is_connected())
 4028              		.loc 1 998 29 is_stmt 0 view .LVU961
 4029 0322 364B     		ldr	r3, .L221
 4030 0324 93F82D30 		ldrb	r3, [r3, #45]	@ zero_extendqisi2
 998:SynaptiX_FDK/app/app.c ****         if (!g_app.sleep_mgr.published && sx_user_mqtt_is_connected())
 4031              		.loc 1 998 12 view .LVU962
 4032 0328 002B     		cmp	r3, #0
 4033 032a 33D0     		beq	.L218
 4034              	.LVL353:
 4035              	.L204:
1009:SynaptiX_FDK/app/app.c ****         if (g_app.sleep_mgr.published && g_app.last_publish_done)
 4036              		.loc 1 1009 9 is_stmt 1 view .LVU963
1009:SynaptiX_FDK/app/app.c ****         if (g_app.sleep_mgr.published && g_app.last_publish_done)
 4037              		.loc 1 1009 28 is_stmt 0 view .LVU964
 4038 032c 334B     		ldr	r3, .L221
 4039 032e 93F82D30 		ldrb	r3, [r3, #45]	@ zero_extendqisi2
1009:SynaptiX_FDK/app/app.c ****         if (g_app.sleep_mgr.published && g_app.last_publish_done)
 4040              		.loc 1 1009 12 view .LVU965
 4041 0332 002B     		cmp	r3, #0
 4042 0334 89D0     		beq	.L178
1009:SynaptiX_FDK/app/app.c ****         if (g_app.sleep_mgr.published && g_app.last_publish_done)
 4043              		.loc 1 1009 47 discriminator 1 view .LVU966
 4044 0336 314B     		ldr	r3, .L221
 4045 0338 93F83D30 		ldrb	r3, [r3, #61]	@ zero_extendqisi2
1009:SynaptiX_FDK/app/app.c ****         if (g_app.sleep_mgr.published && g_app.last_publish_done)
 4046              		.loc 1 1009 39 discriminator 1 view .LVU967
 4047 033c 002B     		cmp	r3, #0
 4048 033e 84D0     		beq	.L178
1011:SynaptiX_FDK/app/app.c ****             write_gps_log("enter_sleep");
 4049              		.loc 1 1011 13 is_stmt 1 view .LVU968
 4050 0340 3248     		ldr	r0, .L221+16
 4051 0342 FFF7FEFF 		bl	write_gps_log
 4052              	.LVL354:
1012:SynaptiX_FDK/app/app.c ****             set_time_exrtc(board.gps.tim.tm_sec, board.gps.tim.tm_min, board.gps.tim.tm_hour, (boar
 4053              		.loc 1 1012 13 view .LVU969
1012:SynaptiX_FDK/app/app.c ****             set_time_exrtc(board.gps.tim.tm_sec, board.gps.tim.tm_min, board.gps.tim.tm_hour, (boar
 4054              		.loc 1 1012 41 is_stmt 0 view .LVU970
 4055 0346 3248     		ldr	r0, .L221+20
1012:SynaptiX_FDK/app/app.c ****             set_time_exrtc(board.gps.tim.tm_sec, board.gps.tim.tm_min, board.gps.tim.tm_hour, (boar
 4056              		.loc 1 1012 109 view .LVU971
 4057 0348 D0F87C23 		ldr	r2, [r0, #892]
ARM GAS  C:\Users\LENOVO\AppData\Local\Temp\ccWRq5sC.s 			page 113


1012:SynaptiX_FDK/app/app.c ****             set_time_exrtc(board.gps.tim.tm_sec, board.gps.tim.tm_min, board.gps.tim.tm_hour, (boar
 4058              		.loc 1 1012 118 view .LVU972
 4059 034c 3149     		ldr	r1, .L221+24
 4060 034e 81FB0231 		smull	r3, r1, r1, r2
 4061 0352 1144     		add	r1, r1, r2
 4062 0354 D317     		asrs	r3, r2, #31
 4063 0356 C3EBA103 		rsb	r3, r3, r1, asr #2
1013:SynaptiX_FDK/app/app.c ****                             board.gps.tim.tm_mon, board.gps.tim.tm_year - 100);
 4064              		.loc 1 1013 64 view .LVU973
 4065 035a D0F88413 		ldr	r1, [r0, #900]
1012:SynaptiX_FDK/app/app.c ****             set_time_exrtc(board.gps.tim.tm_sec, board.gps.tim.tm_min, board.gps.tim.tm_hour, (boar
 4066              		.loc 1 1012 13 view .LVU974
 4067 035e 0133     		adds	r3, r3, #1
 4068 0360 6439     		subs	r1, r1, #100
 4069 0362 C9B2     		uxtb	r1, r1
 4070 0364 0291     		str	r1, [sp, #8]
 4071 0366 90F88013 		ldrb	r1, [r0, #896]	@ zero_extendqisi2
 4072 036a 0191     		str	r1, [sp, #4]
 4073 036c D2B2     		uxtb	r2, r2
 4074 036e 0092     		str	r2, [sp]
 4075 0370 DBB2     		uxtb	r3, r3
 4076 0372 90F87823 		ldrb	r2, [r0, #888]	@ zero_extendqisi2
 4077 0376 90F87413 		ldrb	r1, [r0, #884]	@ zero_extendqisi2
 4078 037a 90F87003 		ldrb	r0, [r0, #880]	@ zero_extendqisi2
 4079 037e FFF7FEFF 		bl	set_time_exrtc
 4080              	.LVL355:
1014:SynaptiX_FDK/app/app.c ****             g_app.last_publish_done = 0;
 4081              		.loc 1 1014 13 is_stmt 1 view .LVU975
1014:SynaptiX_FDK/app/app.c ****             g_app.last_publish_done = 0;
 4082              		.loc 1 1014 37 is_stmt 0 view .LVU976
 4083 0382 1E4B     		ldr	r3, .L221
 4084 0384 0022     		movs	r2, #0
 4085 0386 83F83D20 		strb	r2, [r3, #61]
1015:SynaptiX_FDK/app/app.c ****             g_app.publish_count = 0;
 4086              		.loc 1 1015 13 is_stmt 1 view .LVU977
1015:SynaptiX_FDK/app/app.c ****             g_app.publish_count = 0;
 4087              		.loc 1 1015 33 is_stmt 0 view .LVU978
 4088 038a 83F84020 		strb	r2, [r3, #64]
1016:SynaptiX_FDK/app/app.c ****             g_app.app_mode = APP_MODE_SLEEP;
 4089              		.loc 1 1016 13 is_stmt 1 view .LVU979
1016:SynaptiX_FDK/app/app.c ****             g_app.app_mode = APP_MODE_SLEEP;
 4090              		.loc 1 1016 28 is_stmt 0 view .LVU980
 4091 038e 0222     		movs	r2, #2
 4092 0390 1A70     		strb	r2, [r3]
 4093              	.LBE50:
 4094              		.loc 1 1023 1 view .LVU981
 4095 0392 5AE7     		b	.L178
 4096              	.LVL356:
 4097              	.L218:
 4098              	.LBB51:
 998:SynaptiX_FDK/app/app.c ****         if (!g_app.sleep_mgr.published && sx_user_mqtt_is_connected())
 4099              		.loc 1 998 43 discriminator 1 view .LVU982
 4100 0394 FFF7FEFF 		bl	sx_user_mqtt_is_connected
 4101              	.LVL357:
 998:SynaptiX_FDK/app/app.c ****         if (!g_app.sleep_mgr.published && sx_user_mqtt_is_connected())
 4102              		.loc 1 998 40 discriminator 1 view .LVU983
 4103 0398 0028     		cmp	r0, #0
ARM GAS  C:\Users\LENOVO\AppData\Local\Temp\ccWRq5sC.s 			page 114


 4104 039a C7D0     		beq	.L204
1000:SynaptiX_FDK/app/app.c ****             g_app.sleep_mgr.published = 1;
 4105              		.loc 1 1000 13 is_stmt 1 view .LVU984
1000:SynaptiX_FDK/app/app.c ****             g_app.sleep_mgr.published = 1;
 4106              		.loc 1 1000 39 is_stmt 0 view .LVU985
 4107 039c 174B     		ldr	r3, .L221
 4108 039e 0122     		movs	r2, #1
 4109 03a0 83F82D20 		strb	r2, [r3, #45]
1001:SynaptiX_FDK/app/app.c ****             g_app.last_publish_done   = 0;
 4110              		.loc 1 1001 13 is_stmt 1 view .LVU986
1001:SynaptiX_FDK/app/app.c ****             g_app.last_publish_done   = 0;
 4111              		.loc 1 1001 39 is_stmt 0 view .LVU987
 4112 03a4 0022     		movs	r2, #0
 4113 03a6 83F83D20 		strb	r2, [r3, #61]
1002:SynaptiX_FDK/app/app.c ****             g_app.publish_count       = 0;
 4114              		.loc 1 1002 13 is_stmt 1 view .LVU988
1002:SynaptiX_FDK/app/app.c ****             g_app.publish_count       = 0;
 4115              		.loc 1 1002 39 is_stmt 0 view .LVU989
 4116 03aa 83F84020 		strb	r2, [r3, #64]
1003:SynaptiX_FDK/app/app.c ****             set_time_exrtc(board.gps.tim.tm_sec, board.gps.tim.tm_min, board.gps.tim.tm_hour, (boar
 4117              		.loc 1 1003 13 is_stmt 1 view .LVU990
1003:SynaptiX_FDK/app/app.c ****             set_time_exrtc(board.gps.tim.tm_sec, board.gps.tim.tm_min, board.gps.tim.tm_hour, (boar
 4118              		.loc 1 1003 41 is_stmt 0 view .LVU991
 4119 03ae 1848     		ldr	r0, .L221+20
1003:SynaptiX_FDK/app/app.c ****             set_time_exrtc(board.gps.tim.tm_sec, board.gps.tim.tm_min, board.gps.tim.tm_hour, (boar
 4120              		.loc 1 1003 109 view .LVU992
 4121 03b0 D0F87C23 		ldr	r2, [r0, #892]
1003:SynaptiX_FDK/app/app.c ****             set_time_exrtc(board.gps.tim.tm_sec, board.gps.tim.tm_min, board.gps.tim.tm_hour, (boar
 4122              		.loc 1 1003 118 view .LVU993
 4123 03b4 1749     		ldr	r1, .L221+24
 4124 03b6 81FB0231 		smull	r3, r1, r1, r2
 4125 03ba 1144     		add	r1, r1, r2
 4126 03bc D317     		asrs	r3, r2, #31
 4127 03be C3EBA103 		rsb	r3, r3, r1, asr #2
1004:SynaptiX_FDK/app/app.c ****                             board.gps.tim.tm_mon, board.gps.tim.tm_year - 100);
 4128              		.loc 1 1004 64 view .LVU994
 4129 03c2 D0F88413 		ldr	r1, [r0, #900]
1003:SynaptiX_FDK/app/app.c ****             set_time_exrtc(board.gps.tim.tm_sec, board.gps.tim.tm_min, board.gps.tim.tm_hour, (boar
 4130              		.loc 1 1003 13 view .LVU995
 4131 03c6 0133     		adds	r3, r3, #1
 4132 03c8 6439     		subs	r1, r1, #100
 4133 03ca C9B2     		uxtb	r1, r1
 4134 03cc 0291     		str	r1, [sp, #8]
 4135 03ce 90F88013 		ldrb	r1, [r0, #896]	@ zero_extendqisi2
 4136 03d2 0191     		str	r1, [sp, #4]
 4137 03d4 D2B2     		uxtb	r2, r2
 4138 03d6 0092     		str	r2, [sp]
 4139 03d8 DBB2     		uxtb	r3, r3
 4140 03da 90F87823 		ldrb	r2, [r0, #888]	@ zero_extendqisi2
 4141 03de 90F87413 		ldrb	r1, [r0, #884]	@ zero_extendqisi2
 4142 03e2 90F87003 		ldrb	r0, [r0, #880]	@ zero_extendqisi2
 4143 03e6 FFF7FEFF 		bl	set_time_exrtc
 4144              	.LVL358:
1005:SynaptiX_FDK/app/app.c ****             publish_gsm("wake up");
 4145              		.loc 1 1005 13 is_stmt 1 view .LVU996
 4146 03ea 0B4C     		ldr	r4, .L221+28
 4147              	.LVL359:
ARM GAS  C:\Users\LENOVO\AppData\Local\Temp\ccWRq5sC.s 			page 115


1005:SynaptiX_FDK/app/app.c ****             publish_gsm("wake up");
 4148              		.loc 1 1005 13 is_stmt 0 view .LVU997
 4149 03ec 2046     		mov	r0, r4
 4150 03ee FFF7FEFF 		bl	publish_gsm
 4151              	.LVL360:
1006:SynaptiX_FDK/app/app.c ****             publish_gps("wake up");
 4152              		.loc 1 1006 13 is_stmt 1 view .LVU998
 4153 03f2 2046     		mov	r0, r4
 4154 03f4 FFF7FEFF 		bl	publish_gps
 4155              	.LVL361:
 4156 03f8 98E7     		b	.L204
 4157              	.L222:
 4158 03fa 00BF     		.align	2
 4159              	.L221:
 4160 03fc 00000000 		.word	g_app
 4161 0400 10000000 		.word	g_app+16
 4162 0404 7C010000 		.word	.LC97
 4163 0408 18000000 		.word	.LC3
 4164 040c A4010000 		.word	.LC99
 4165 0410 00000000 		.word	board
 4166 0414 93244992 		.word	-1840700269
 4167 0418 9C010000 		.word	.LC98
 4168              	.LBE51:
 4169              		.cfi_endproc
 4170              	.LFE571:
 4172              		.section	.bss.s_log_count.0,"aw",%nobits
 4173              		.align	2
 4176              	s_log_count.0:
 4177 0000 00000000 		.space	4
 4178              		.section	.bss.s_csv_line.1,"aw",%nobits
 4179              		.align	2
 4182              	s_csv_line.1:
 4183 0000 00000000 		.space	192
 4183      00000000 
 4183      00000000 
 4183      00000000 
 4183      00000000 
 4184              		.section	.bss.s_tail_buf.2,"aw",%nobits
 4185              		.align	2
 4188              	s_tail_buf.2:
 4189 0000 00000000 		.space	256
 4189      00000000 
 4189      00000000 
 4189      00000000 
 4189      00000000 
 4190              		.section	.rodata.str1.4,"aMS",%progbits,1
 4191              		.align	2
 4192              	.LC100:
 4193 0000 696F742E 		.ascii	"iot.coreflux.cloud\000"
 4193      636F7265 
 4193      666C7578 
 4193      2E636C6F 
 4193      756400
 4194 0013 00       		.align	2
 4195              	.LC101:
 4196 0014 73746D33 		.ascii	"stm32h5_001\000"
 4196      3268355F 
ARM GAS  C:\Users\LENOVO\AppData\Local\Temp\ccWRq5sC.s 			page 116


 4196      30303100 
 4197              		.align	2
 4198              	.LC102:
 4199 0020 00       		.ascii	"\000"
 4200              		.section	.data.s_mqtt_cfg,"aw"
 4201              		.align	2
 4204              	s_mqtt_cfg:
 4205 0000 762D696E 		.ascii	"v-internet\000"
 4205      7465726E 
 4205      657400
 4206 000b 00000000 		.space	9
 4206      00000000 
 4206      00
 4207 0014 00       		.ascii	"\000"
 4208 0015 00000000 		.space	19
 4208      00000000 
 4208      00000000 
 4208      00000000 
 4208      000000
 4209 0028 00       		.ascii	"\000"
 4210 0029 00000000 		.space	19
 4210      00000000 
 4210      00000000 
 4210      00000000 
 4210      000000
 4211 003c 00000000 		.word	.LC100
 4212 0040 5B07     		.short	1883
 4213 0042 0000     		.space	2
 4214 0044 14000000 		.word	.LC101
 4215 0048 20000000 		.word	.LC102
 4216 004c 20000000 		.word	.LC102
 4217 0050 3C00     		.short	60
 4218 0052 00       		.byte	0
 4219 0053 00000000 		.space	5
 4219      00
 4220 0058 00000000 		.word	_on_connected
 4221 005c 00000000 		.word	_on_disconnected
 4222 0060 00000000 		.word	_on_message
 4223 0064 00000000 		.word	_on_publish
 4224              		.section	.bss.config_json,"aw",%nobits
 4225              		.align	2
 4228              	config_json:
 4229 0000 00000000 		.space	820
 4229      00000000 
 4229      00000000 
 4229      00000000 
 4229      00000000 
 4230              		.global	g_app
 4231              		.section	.bss.g_app,"aw",%nobits
 4232              		.align	2
 4235              	g_app:
 4236 0000 00000000 		.space	252
 4236      00000000 
 4236      00000000 
 4236      00000000 
 4236      00000000 
 4237              		.text
ARM GAS  C:\Users\LENOVO\AppData\Local\Temp\ccWRq5sC.s 			page 117


 4238              	.Letext0:
 4239              		.file 5 "C:\\ST\\STM32CubeCLT_1.20.0\\GNU-tools-for-STM32\\bin/../lib/gcc/arm-none-eabi/13.3.1/../
 4240              		.file 6 "C:\\ST\\STM32CubeCLT_1.20.0\\GNU-tools-for-STM32\\bin/../lib/gcc/arm-none-eabi/13.3.1/../
 4241              		.file 7 "SynaptiX_FDK/app/app.h"
 4242              		.file 8 "C:\\ST\\STM32CubeCLT_1.20.0\\GNU-tools-for-STM32\\bin/../lib/gcc/arm-none-eabi/13.3.1/inc
 4243              		.file 9 "SynaptiX_FDK/services/logger/logger.h"
 4244              		.file 10 "Drivers/CMSIS/Device/ST/STM32H5xx/Include/stm32h563xx.h"
 4245              		.file 11 "Drivers/STM32H5xx_HAL_Driver/Inc/stm32h5xx_hal_def.h"
 4246              		.file 12 "Drivers/STM32H5xx_HAL_Driver/Inc/stm32h5xx_hal_gpio.h"
 4247              		.file 13 "Drivers/STM32H5xx_HAL_Driver/Inc/stm32h5xx_hal_dma.h"
 4248              		.file 14 "Drivers/STM32H5xx_HAL_Driver/Inc/stm32h5xx_hal_dma_ex.h"
 4249              		.file 15 "Drivers/STM32H5xx_HAL_Driver/Inc/stm32h5xx_ll_lptim.h"
 4250              		.file 16 "Drivers/STM32H5xx_HAL_Driver/Inc/stm32h5xx_hal_rtc.h"
 4251              		.file 17 "Drivers/STM32H5xx_HAL_Driver/Inc/stm32h5xx_hal_spi.h"
 4252              		.file 18 "SynaptiX_FDK/components/gpio/sx_gpio.h"
 4253              		.file 19 "SynaptiX_FDK/components/spi/sx_spi.h"
 4254              		.file 20 "SynaptiX_FDK/utils/cqueue/cqueue.h"
 4255              		.file 21 "SynaptiX_FDK/components/uart/sx_uart.h"
 4256              		.file 22 "C:\\ST\\STM32CubeCLT_1.20.0\\GNU-tools-for-STM32\\bin/../lib/gcc/arm-none-eabi/13.3.1/..
 4257              		.file 23 "C:\\ST\\STM32CubeCLT_1.20.0\\GNU-tools-for-STM32\\bin/../lib/gcc/arm-none-eabi/13.3.1/..
 4258              		.file 24 "SynaptiX_FDK/components/gps/minmea.h"
 4259              		.file 25 "SynaptiX_FDK/components/gps/gps.h"
 4260              		.file 26 "SynaptiX_FDK/components/modem/modem.h"
 4261              		.file 27 "SynaptiX_FDK/components/external_flash/sx_W25Q128.h"
 4262              		.file 28 "SynaptiX_FDK/app/user/sx_ex_storage/sx_ex_storage.h"
 4263              		.file 29 "SynaptiX_FDK/components/usb_cdc_tiny/sx_usb_tiny_cdc.h"
 4264              		.file 30 "SynaptiX_FDK/components/i2c/sx_i2c.h"
 4265              		.file 31 "SynaptiX_FDK/components/rtc/sx_ex_rtc.h"
 4266              		.file 32 "SynaptiX_FDK/components/imu/bno055.h"
 4267              		.file 33 "SynaptiX_FDK/utils/filter/sx_filter.h"
 4268              		.file 34 "SynaptiX_FDK/services/read_bat/sx_read_bat.h"
 4269              		.file 35 "SynaptiX_FDK/board/sx_board.h"
 4270              		.file 36 "SynaptiX_FDK/app/user/sx_mqtt/sx_user_mqtt.h"
 4271              		.file 37 "Core/Inc/rtc.h"
 4272              		.file 38 "SynaptiX_FDK/services/fatfs/ff.h"
 4273              		.file 39 "SynaptiX_FDK/app/user/sx_msc/sx_user_msc.h"
 4274              		.file 40 "SynaptiX_FDK/services/cJSON/cJSON.h"
 4275              		.file 41 "C:\\ST\\STM32CubeCLT_1.20.0\\GNU-tools-for-STM32\\bin/../lib/gcc/arm-none-eabi/13.3.1/..
 4276              		.file 42 "SynaptiX_FDK/app/user/at_usb/test_at.h"
 4277              		.file 43 "SynaptiX_FDK/services/sx_fatfs/sx_diskio.h"
 4278              		.file 44 "C:\\ST\\STM32CubeCLT_1.20.0\\GNU-tools-for-STM32\\bin/../lib/gcc/arm-none-eabi/13.3.1/..
 4279              		.file 45 "C:\\ST\\STM32CubeCLT_1.20.0\\GNU-tools-for-STM32\\bin/../lib/gcc/arm-none-eabi/13.3.1/..
 4280              		.file 46 "SynaptiX_FDK/services/sx_fatfs/sx_fatfs.h"
 4281              		.file 47 "<built-in>"
ARM GAS  C:\Users\LENOVO\AppData\Local\Temp\ccWRq5sC.s 			page 118


DEFINED SYMBOLS
                            *ABS*:00000000 app.c
C:\Users\LENOVO\AppData\Local\Temp\ccWRq5sC.s:22     .rodata._on_publish.str1.4:00000000 $d
C:\Users\LENOVO\AppData\Local\Temp\ccWRq5sC.s:38     .text._on_publish:00000000 $t
C:\Users\LENOVO\AppData\Local\Temp\ccWRq5sC.s:43     .text._on_publish:00000000 _on_publish
C:\Users\LENOVO\AppData\Local\Temp\ccWRq5sC.s:133    .text._on_publish:00000060 $d
C:\Users\LENOVO\AppData\Local\Temp\ccWRq5sC.s:4235   .bss.g_app:00000000 g_app
C:\Users\LENOVO\AppData\Local\Temp\ccWRq5sC.s:143    .rodata._on_message.str1.4:00000000 $d
C:\Users\LENOVO\AppData\Local\Temp\ccWRq5sC.s:147    .text._on_message:00000000 $t
C:\Users\LENOVO\AppData\Local\Temp\ccWRq5sC.s:152    .text._on_message:00000000 _on_message
C:\Users\LENOVO\AppData\Local\Temp\ccWRq5sC.s:198    .text._on_message:00000020 $d
C:\Users\LENOVO\AppData\Local\Temp\ccWRq5sC.s:204    .rodata._on_disconnected.str1.4:00000000 $d
C:\Users\LENOVO\AppData\Local\Temp\ccWRq5sC.s:208    .text._on_disconnected:00000000 $t
C:\Users\LENOVO\AppData\Local\Temp\ccWRq5sC.s:213    .text._on_disconnected:00000000 _on_disconnected
C:\Users\LENOVO\AppData\Local\Temp\ccWRq5sC.s:261    .text._on_disconnected:00000030 $d
C:\Users\LENOVO\AppData\Local\Temp\ccWRq5sC.s:268    .rodata._on_connected.str1.4:00000000 $d
C:\Users\LENOVO\AppData\Local\Temp\ccWRq5sC.s:272    .text._on_connected:00000000 $t
C:\Users\LENOVO\AppData\Local\Temp\ccWRq5sC.s:277    .text._on_connected:00000000 _on_connected
C:\Users\LENOVO\AppData\Local\Temp\ccWRq5sC.s:304    .text._on_connected:00000018 $d
C:\Users\LENOVO\AppData\Local\Temp\ccWRq5sC.s:311    .rodata._apply_default_config.str1.4:00000000 $d
C:\Users\LENOVO\AppData\Local\Temp\ccWRq5sC.s:318    .text._apply_default_config:00000000 $t
C:\Users\LENOVO\AppData\Local\Temp\ccWRq5sC.s:323    .text._apply_default_config:00000000 _apply_default_config
C:\Users\LENOVO\AppData\Local\Temp\ccWRq5sC.s:349    .text._apply_default_config:00000010 $d
C:\Users\LENOVO\AppData\Local\Temp\ccWRq5sC.s:355    .rodata.app_read_config_file.str1.4:00000000 $d
C:\Users\LENOVO\AppData\Local\Temp\ccWRq5sC.s:471    .text.app_read_config_file:00000000 $t
C:\Users\LENOVO\AppData\Local\Temp\ccWRq5sC.s:476    .text.app_read_config_file:00000000 app_read_config_file
C:\Users\LENOVO\AppData\Local\Temp\ccWRq5sC.s:1062   .text.app_read_config_file:000002a4 $d
C:\Users\LENOVO\AppData\Local\Temp\ccWRq5sC.s:4228   .bss.config_json:00000000 config_json
C:\Users\LENOVO\AppData\Local\Temp\ccWRq5sC.s:4204   .data.s_mqtt_cfg:00000000 s_mqtt_cfg
C:\Users\LENOVO\AppData\Local\Temp\ccWRq5sC.s:1098   .text.app_read_config_file:0000032c $t
C:\Users\LENOVO\AppData\Local\Temp\ccWRq5sC.s:1274   .text.app_read_config_file:00000410 $d
C:\Users\LENOVO\AppData\Local\Temp\ccWRq5sC.s:1293   .rodata.read_last_gps.str1.4:00000000 $d
C:\Users\LENOVO\AppData\Local\Temp\ccWRq5sC.s:1330   .text.read_last_gps:00000000 $t
C:\Users\LENOVO\AppData\Local\Temp\ccWRq5sC.s:1335   .text.read_last_gps:00000000 read_last_gps
C:\Users\LENOVO\AppData\Local\Temp\ccWRq5sC.s:1751   .text.read_last_gps:00000208 $d
C:\Users\LENOVO\AppData\Local\Temp\ccWRq5sC.s:4188   .bss.s_tail_buf.2:00000000 s_tail_buf.2
C:\Users\LENOVO\AppData\Local\Temp\ccWRq5sC.s:1770   .rodata._handle_usb_connected.str1.4:00000000 $d
C:\Users\LENOVO\AppData\Local\Temp\ccWRq5sC.s:1774   .text._handle_usb_connected:00000000 $t
C:\Users\LENOVO\AppData\Local\Temp\ccWRq5sC.s:1779   .text._handle_usb_connected:00000000 _handle_usb_connected
C:\Users\LENOVO\AppData\Local\Temp\ccWRq5sC.s:1888   .text._handle_usb_connected:0000007c $d
C:\Users\LENOVO\AppData\Local\Temp\ccWRq5sC.s:1895   .rodata._sync_gps_log_to_disk.str1.4:00000000 $d
C:\Users\LENOVO\AppData\Local\Temp\ccWRq5sC.s:1920   .text._sync_gps_log_to_disk:00000000 $t
C:\Users\LENOVO\AppData\Local\Temp\ccWRq5sC.s:1925   .text._sync_gps_log_to_disk:00000000 _sync_gps_log_to_disk
C:\Users\LENOVO\AppData\Local\Temp\ccWRq5sC.s:2074   .text._sync_gps_log_to_disk:000000d8 $d
C:\Users\LENOVO\AppData\Local\Temp\ccWRq5sC.s:4182   .bss.s_csv_line.1:00000000 s_csv_line.1
C:\Users\LENOVO\AppData\Local\Temp\ccWRq5sC.s:2090   .rodata.publish_gsm.str1.4:00000000 $d
C:\Users\LENOVO\AppData\Local\Temp\ccWRq5sC.s:2105   .text.publish_gsm:00000000 $t
C:\Users\LENOVO\AppData\Local\Temp\ccWRq5sC.s:2110   .text.publish_gsm:00000000 publish_gsm
C:\Users\LENOVO\AppData\Local\Temp\ccWRq5sC.s:2272   .text.publish_gsm:000000b0 $d
C:\Users\LENOVO\AppData\Local\Temp\ccWRq5sC.s:2282   .rodata.write_gps_log.str1.4:00000000 $d
C:\Users\LENOVO\AppData\Local\Temp\ccWRq5sC.s:2296   .text.write_gps_log:00000000 $t
C:\Users\LENOVO\AppData\Local\Temp\ccWRq5sC.s:2301   .text.write_gps_log:00000000 write_gps_log
C:\Users\LENOVO\AppData\Local\Temp\ccWRq5sC.s:2515   .text.write_gps_log:00000128 $d
C:\Users\LENOVO\AppData\Local\Temp\ccWRq5sC.s:4176   .bss.s_log_count.0:00000000 s_log_count.0
C:\Users\LENOVO\AppData\Local\Temp\ccWRq5sC.s:2526   .text.set_time_exrtc:00000000 $t
C:\Users\LENOVO\AppData\Local\Temp\ccWRq5sC.s:2531   .text.set_time_exrtc:00000000 set_time_exrtc
C:\Users\LENOVO\AppData\Local\Temp\ccWRq5sC.s:2588   .text.set_time_exrtc:00000038 $d
ARM GAS  C:\Users\LENOVO\AppData\Local\Temp\ccWRq5sC.s 			page 119


C:\Users\LENOVO\AppData\Local\Temp\ccWRq5sC.s:2594   .rodata.publish_gps.str1.4:00000000 $d
C:\Users\LENOVO\AppData\Local\Temp\ccWRq5sC.s:2614   .text.publish_gps:00000000 $t
C:\Users\LENOVO\AppData\Local\Temp\ccWRq5sC.s:2619   .text.publish_gps:00000000 publish_gps
C:\Users\LENOVO\AppData\Local\Temp\ccWRq5sC.s:2890   .text.publish_gps:0000016c $d
C:\Users\LENOVO\AppData\Local\Temp\ccWRq5sC.s:2905   .text.app_mode_full_pw:00000000 $t
C:\Users\LENOVO\AppData\Local\Temp\ccWRq5sC.s:2911   .text.app_mode_full_pw:00000000 app_mode_full_pw
C:\Users\LENOVO\AppData\Local\Temp\ccWRq5sC.s:2928   .text.app_mode_full_pw:00000008 $d
C:\Users\LENOVO\AppData\Local\Temp\ccWRq5sC.s:2933   .text.app_mode_enter_sleep:00000000 $t
C:\Users\LENOVO\AppData\Local\Temp\ccWRq5sC.s:2939   .text.app_mode_enter_sleep:00000000 app_mode_enter_sleep
C:\Users\LENOVO\AppData\Local\Temp\ccWRq5sC.s:2956   .text.app_mode_enter_sleep:00000008 $d
C:\Users\LENOVO\AppData\Local\Temp\ccWRq5sC.s:2961   .text.app_mode_sleep:00000000 $t
C:\Users\LENOVO\AppData\Local\Temp\ccWRq5sC.s:2967   .text.app_mode_sleep:00000000 app_mode_sleep
C:\Users\LENOVO\AppData\Local\Temp\ccWRq5sC.s:2984   .text.app_mode_sleep:00000008 $d
C:\Users\LENOVO\AppData\Local\Temp\ccWRq5sC.s:2989   .text.app_notify_usb_connected:00000000 $t
C:\Users\LENOVO\AppData\Local\Temp\ccWRq5sC.s:2995   .text.app_notify_usb_connected:00000000 app_notify_usb_connected
C:\Users\LENOVO\AppData\Local\Temp\ccWRq5sC.s:3016   .text.app_notify_usb_connected:00000010 $d
C:\Users\LENOVO\AppData\Local\Temp\ccWRq5sC.s:3021   .text.app_sync_gps_log_to_disk:00000000 $t
C:\Users\LENOVO\AppData\Local\Temp\ccWRq5sC.s:3027   .text.app_sync_gps_log_to_disk:00000000 app_sync_gps_log_to_disk
C:\Users\LENOVO\AppData\Local\Temp\ccWRq5sC.s:3044   .text.app_sync_gps_log_to_disk:0000000c $d
C:\Users\LENOVO\AppData\Local\Temp\ccWRq5sC.s:3049   .rodata.app_request_sleep.str1.4:00000000 $d
C:\Users\LENOVO\AppData\Local\Temp\ccWRq5sC.s:3053   .text.app_request_sleep:00000000 $t
C:\Users\LENOVO\AppData\Local\Temp\ccWRq5sC.s:3059   .text.app_request_sleep:00000000 app_request_sleep
C:\Users\LENOVO\AppData\Local\Temp\ccWRq5sC.s:3114   .text.app_request_sleep:00000038 $d
C:\Users\LENOVO\AppData\Local\Temp\ccWRq5sC.s:3121   .rodata.app_init.str1.4:00000000 $d
C:\Users\LENOVO\AppData\Local\Temp\ccWRq5sC.s:3135   .text.app_init:00000000 $t
C:\Users\LENOVO\AppData\Local\Temp\ccWRq5sC.s:3141   .text.app_init:00000000 app_init
C:\Users\LENOVO\AppData\Local\Temp\ccWRq5sC.s:3300   .text.app_init:000000b4 $d
C:\Users\LENOVO\AppData\Local\Temp\ccWRq5sC.s:3316   .rodata.app_process.str1.4:00000000 $d
C:\Users\LENOVO\AppData\Local\Temp\ccWRq5sC.s:3367   .text.app_process:00000000 $t
C:\Users\LENOVO\AppData\Local\Temp\ccWRq5sC.s:3373   .text.app_process:00000000 app_process
C:\Users\LENOVO\AppData\Local\Temp\ccWRq5sC.s:3445   .text.app_process:0000004c $d
C:\Users\LENOVO\AppData\Local\Temp\ccWRq5sC.s:3450   .text.app_process:00000054 $t
C:\Users\LENOVO\AppData\Local\Temp\ccWRq5sC.s:3940   .text.app_process:00000280 $d
C:\Users\LENOVO\AppData\Local\Temp\ccWRq5sC.s:3964   .text.app_process:000002c8 $t
C:\Users\LENOVO\AppData\Local\Temp\ccWRq5sC.s:4160   .text.app_process:000003fc $d
C:\Users\LENOVO\AppData\Local\Temp\ccWRq5sC.s:4173   .bss.s_log_count.0:00000000 $d
C:\Users\LENOVO\AppData\Local\Temp\ccWRq5sC.s:4179   .bss.s_csv_line.1:00000000 $d
C:\Users\LENOVO\AppData\Local\Temp\ccWRq5sC.s:4185   .bss.s_tail_buf.2:00000000 $d
C:\Users\LENOVO\AppData\Local\Temp\ccWRq5sC.s:4191   .rodata.str1.4:00000000 $d
C:\Users\LENOVO\AppData\Local\Temp\ccWRq5sC.s:4201   .data.s_mqtt_cfg:00000000 $d
C:\Users\LENOVO\AppData\Local\Temp\ccWRq5sC.s:4225   .bss.config_json:00000000 $d
C:\Users\LENOVO\AppData\Local\Temp\ccWRq5sC.s:4232   .bss.g_app:00000000 $d

UNDEFINED SYMBOLS
log_func
sx_fatfs_remount
sx_fatfs_debug_list
f_stat
sx_user_msc_read
cJSON_Parse
cJSON_GetObjectItem
cJSON_IsNull
strncpy
cJSON_IsNumber
cJSON_Delete
__aeabi_f2d
sx_storage_size
ARM GAS  C:\Users\LENOVO\AppData\Local\Temp\ccWRq5sC.s 			page 120


sx_storage_read_partial
sscanf
strtof
snprintf
strtol
sx_sleep_manager_reset_wake
sx_user_mqtt_force_disconnect
memset
sx_board_uart_resume_it
sim76xx_power_off
sim76xx_power_on
sim76xx_start
gps_power_on
gps_it_handle
sx_storage_exists
strlen
sx_user_msc_write
sx_user_msc_remount_disk
rx8130ce_get_time
sx_user_mqtt_publish
sx_storage_delete
sx_storage_append
rx8130ce_set_time
board
mktime
sx_sleep_manager_init
sx_user_mqtt_nontls_init
app_at_init
sx_sleep_ops
hrtc
sx_usb_tiny_process
sx_diskio_process
sx_usb_tiny_available
read_vol_pin
check_charge
sx_usb_tiny_read
app_at_process
gps_process
sx_user_mqtt_poll
sx_user_mqtt_is_connected
sx_user_mqtt_is_publishing
sx_user_mqtt_subscribe
sx_usb_tiny_connected
sx_user_mqtt_queue_flush
sx_sleep_manager_enter
HAL_GPIO_ReadPin
sx_sleep_manager_wake_process
sx_sleep_manager_wake_tick
sx_sleep_manager_is_wake_done
