ARM GAS  C:\Users\LENOVO\AppData\Local\Temp\ccMSvD0S.s 			page 1


   1              		.cpu cortex-m33
   2              		.arch armv8-m.main
   3              		.fpu fpv5-sp-d16
   4              		.arch_extension dsp
   5              		.eabi_attribute 27, 1
   6              		.eabi_attribute 28, 1
   7              		.eabi_attribute 20, 1
   8              		.eabi_attribute 21, 1
   9              		.eabi_attribute 23, 3
  10              		.eabi_attribute 24, 1
  11              		.eabi_attribute 25, 1
  12              		.eabi_attribute 26, 1
  13              		.eabi_attribute 30, 1
  14              		.eabi_attribute 34, 1
  15              		.eabi_attribute 18, 4
  16              		.file	"app.c"
  17              		.text
  18              	.Ltext0:
  19              		.cfi_sections	.debug_frame
  20              		.file 1 "SynaptiX_FDK/app/app.c"
  21              		.section	.rodata._on_publish.str1.4,"aMS",%progbits,1
  22              		.align	2
  23              	.LC0:
  24 0000 4F4B00   		.ascii	"OK\000"
  25 0003 00       		.align	2
  26              	.LC1:
  27 0004 4641494C 		.ascii	"FAIL\000"
  27      00
  28 0009 000000   		.align	2
  29              	.LC2:
  30 000c 5075626C 		.ascii	"Publish %s\000"
  30      69736820 
  30      257300
  31 0017 00       		.align	2
  32              	.LC3:
  33 0018 41707000 		.ascii	"App\000"
  34              		.align	2
  35              	.LC4:
  36 001c 7075626C 		.ascii	"publish_count = %d\000"
  36      6973685F 
  36      636F756E 
  36      74203D20 
  36      256400
  37              		.section	.text._on_publish,"ax",%progbits
  38              		.align	1
  39              		.syntax unified
  40              		.thumb
  41              		.thumb_func
  43              	_on_publish:
  44              	.LVL0:
  45              	.LFB562:
   1:SynaptiX_FDK/app/app.c **** #include "app.h"
   2:SynaptiX_FDK/app/app.c **** #include "logger.h"
   3:SynaptiX_FDK/app/app.c **** #include "sx_board.h"
   4:SynaptiX_FDK/app/app.c **** #include "sx_user_mqtt.h"
   5:SynaptiX_FDK/app/app.c **** #include "sx_sleep_manager.h"
   6:SynaptiX_FDK/app/app.c **** #include "sx_sleep.h"
ARM GAS  C:\Users\LENOVO\AppData\Local\Temp\ccMSvD0S.s 			page 2


   7:SynaptiX_FDK/app/app.c **** #include "sx_ex_storage.h"
   8:SynaptiX_FDK/app/app.c **** #include "app_config.h"
   9:SynaptiX_FDK/app/app.c **** #include "ff.h"
  10:SynaptiX_FDK/app/app.c **** #include "sx_fatfs.h"
  11:SynaptiX_FDK/app/app.c **** #include "sx_diskio.h"
  12:SynaptiX_FDK/app/app.c **** #include "sx_user_msc.h"
  13:SynaptiX_FDK/app/app.c **** #include "cJSON.h"
  14:SynaptiX_FDK/app/app.c **** #include "bno055.h"
  15:SynaptiX_FDK/app/app.c **** #include "test_at.h"
  16:SynaptiX_FDK/app/app.c **** 
  17:SynaptiX_FDK/app/app.c **** static const char *TAG = "App";
  18:SynaptiX_FDK/app/app.c **** 
  19:SynaptiX_FDK/app/app.c **** typedef struct TrackingApp
  20:SynaptiX_FDK/app/app.c **** {
  21:SynaptiX_FDK/app/app.c ****     // Add any app-level state here if needed
  22:SynaptiX_FDK/app/app.c ****     app_mode_t app_mode;
  23:SynaptiX_FDK/app/app.c **** 
  24:SynaptiX_FDK/app/app.c ****     sx_sleep_t sleep;
  25:SynaptiX_FDK/app/app.c ****     sx_sleep_manager_t sleep_mgr;
  26:SynaptiX_FDK/app/app.c **** 
  27:SynaptiX_FDK/app/app.c ****     uint32_t publish_elapsed;
  28:SynaptiX_FDK/app/app.c ****     uint8_t subscribed ;
  29:SynaptiX_FDK/app/app.c ****     uint8_t last_publish_done;
  30:SynaptiX_FDK/app/app.c ****     uint8_t enter_sleep_published;
  31:SynaptiX_FDK/app/app.c ****     uint8_t mqtt_stopped;
  32:SynaptiX_FDK/app/app.c **** 
  33:SynaptiX_FDK/app/app.c ****     uint8_t publish_count;
  34:SynaptiX_FDK/app/app.c **** 
  35:SynaptiX_FDK/app/app.c ****     uint32_t enter_sleep_elapsed_ms;
  36:SynaptiX_FDK/app/app.c ****     uint8_t sleep_requested;
  37:SynaptiX_FDK/app/app.c **** 
  38:SynaptiX_FDK/app/app.c ****     uint8_t s_wake_publish_started;//
  39:SynaptiX_FDK/app/app.c **** 
  40:SynaptiX_FDK/app/app.c ****     uint8_t usb_connect_pending;
  41:SynaptiX_FDK/app/app.c **** 
  42:SynaptiX_FDK/app/app.c ****     Board_t *board;
  43:SynaptiX_FDK/app/app.c ****     /*Parse JSon*/
  44:SynaptiX_FDK/app/app.c ****     const char *json_str;
  45:SynaptiX_FDK/app/app.c ****     /*RTC*/
  46:SynaptiX_FDK/app/app.c ****     rx8130ce_time_t time;
  47:SynaptiX_FDK/app/app.c ****     /*Synch gps*/
  48:SynaptiX_FDK/app/app.c ****     uint8_t s_sync_disk_pending;
  49:SynaptiX_FDK/app/app.c **** 
  50:SynaptiX_FDK/app/app.c ****     /*IMU*/
  51:SynaptiX_FDK/app/app.c ****     bno055_euler_t euler;
  52:SynaptiX_FDK/app/app.c ****     bno055_vec3_t accel;
  53:SynaptiX_FDK/app/app.c ****     bno055_vec3_t gyro;
  54:SynaptiX_FDK/app/app.c ****     bno055_vec3_t l_accel;
  55:SynaptiX_FDK/app/app.c ****     bno055_quat_t quat;
  56:SynaptiX_FDK/app/app.c ****     bno055_calib_stat_t calib;
  57:SynaptiX_FDK/app/app.c ****     bool calib_saved;
  58:SynaptiX_FDK/app/app.c ****     float linear_accel;
  59:SynaptiX_FDK/app/app.c ****     float vel;
  60:SynaptiX_FDK/app/app.c ****     float pos;
  61:SynaptiX_FDK/app/app.c **** 
  62:SynaptiX_FDK/app/app.c ****     // last gps
  63:SynaptiX_FDK/app/app.c ****     float last_lat;
ARM GAS  C:\Users\LENOVO\AppData\Local\Temp\ccMSvD0S.s 			page 3


  64:SynaptiX_FDK/app/app.c ****     float last_lon;
  65:SynaptiX_FDK/app/app.c ****     float last_alt;  
  66:SynaptiX_FDK/app/app.c ****     float last_spd;  
  67:SynaptiX_FDK/app/app.c ****     int   last_sat;  
  68:SynaptiX_FDK/app/app.c **** 
  69:SynaptiX_FDK/app/app.c ****     char last_time_str[12];
  70:SynaptiX_FDK/app/app.c ****     char last_date_str[12];
  71:SynaptiX_FDK/app/app.c ****     
  72:SynaptiX_FDK/app/app.c ****     char device_name[64];
  73:SynaptiX_FDK/app/app.c **** } TrackingApp_t;
  74:SynaptiX_FDK/app/app.c **** 
  75:SynaptiX_FDK/app/app.c **** volatile TrackingApp_t g_app;
  76:SynaptiX_FDK/app/app.c **** 
  77:SynaptiX_FDK/app/app.c **** typedef struct 
  78:SynaptiX_FDK/app/app.c **** {
  79:SynaptiX_FDK/app/app.c ****     /* data */
  80:SynaptiX_FDK/app/app.c ****     uint8_t  s_cfg_buf[512];
  81:SynaptiX_FDK/app/app.c ****     char     s_mqtt_host[64];
  82:SynaptiX_FDK/app/app.c ****     char     s_mqtt_client_id[64];
  83:SynaptiX_FDK/app/app.c ****     char     s_mqtt_user[32];
  84:SynaptiX_FDK/app/app.c ****     char     s_mqtt_pass[32];
  85:SynaptiX_FDK/app/app.c ****     char     s_apn_name[32];
  86:SynaptiX_FDK/app/app.c ****     uint32_t time_sleep_ms;
  87:SynaptiX_FDK/app/app.c ****     uint32_t time_wake_ms;
  88:SynaptiX_FDK/app/app.c **** 
  89:SynaptiX_FDK/app/app.c ****     char    s_device_name[64];
  90:SynaptiX_FDK/app/app.c **** 
  91:SynaptiX_FDK/app/app.c ****     // TIME IMU
  92:SynaptiX_FDK/app/app.c ****     uint32_t s_elapsed_data;
  93:SynaptiX_FDK/app/app.c ****     uint32_t s_elapsed_calib;
  94:SynaptiX_FDK/app/app.c ****     uint32_t s_time_publish;
  95:SynaptiX_FDK/app/app.c **** }config_json_t;
  96:SynaptiX_FDK/app/app.c **** 
  97:SynaptiX_FDK/app/app.c **** static config_json_t config_json;
  98:SynaptiX_FDK/app/app.c **** 
  99:SynaptiX_FDK/app/app.c **** static void set_time_exrtc(uint8_t sec, uint8_t min, uint8_t hour, uint8_t week, uint8_t day, uint8
 100:SynaptiX_FDK/app/app.c ****     g_app.time.sec = sec; 
 101:SynaptiX_FDK/app/app.c ****     g_app.time.min = min;
 102:SynaptiX_FDK/app/app.c ****     g_app.time.hour = hour;
 103:SynaptiX_FDK/app/app.c ****     g_app.time.week = week;
 104:SynaptiX_FDK/app/app.c ****     g_app.time.day = day;
 105:SynaptiX_FDK/app/app.c ****     g_app.time.month = month;
 106:SynaptiX_FDK/app/app.c ****     g_app.time.year = year;
 107:SynaptiX_FDK/app/app.c ****     rx8130ce_set_time(&board.rtc, &g_app.time);
 108:SynaptiX_FDK/app/app.c **** }
 109:SynaptiX_FDK/app/app.c **** 
 110:SynaptiX_FDK/app/app.c **** static void get_time_exrtc(void){
 111:SynaptiX_FDK/app/app.c ****     rx8130ce_get_time(&board.rtc, &g_app.time);
 112:SynaptiX_FDK/app/app.c ****     log_info("RTC", "%02d:%02d:%02d %02d/%02d/20%02d",
 113:SynaptiX_FDK/app/app.c ****          g_app.time.hour, g_app.time.min, g_app.time.sec,
 114:SynaptiX_FDK/app/app.c ****          g_app.time.day, g_app.time.month, g_app.time.year);
 115:SynaptiX_FDK/app/app.c **** }
 116:SynaptiX_FDK/app/app.c **** 
 117:SynaptiX_FDK/app/app.c **** void app_mode_full_pw(void){
 118:SynaptiX_FDK/app/app.c ****     g_app.app_mode = APP_MODE_FULL_POWER;
 119:SynaptiX_FDK/app/app.c **** }
 120:SynaptiX_FDK/app/app.c **** 
ARM GAS  C:\Users\LENOVO\AppData\Local\Temp\ccMSvD0S.s 			page 4


 121:SynaptiX_FDK/app/app.c **** void app_mode_enter_sleep(void){
 122:SynaptiX_FDK/app/app.c ****     g_app.app_mode = APP_MODE_ENTER_SLEEP;
 123:SynaptiX_FDK/app/app.c **** }
 124:SynaptiX_FDK/app/app.c **** 
 125:SynaptiX_FDK/app/app.c **** void app_mode_sleep(void){
 126:SynaptiX_FDK/app/app.c ****     g_app.app_mode = APP_MODE_SLEEP;
 127:SynaptiX_FDK/app/app.c **** }
 128:SynaptiX_FDK/app/app.c **** 
 129:SynaptiX_FDK/app/app.c **** static void write_gps_log(const char *event)
 130:SynaptiX_FDK/app/app.c **** {
 131:SynaptiX_FDK/app/app.c ****     static uint32_t s_log_count = 0;
 132:SynaptiX_FDK/app/app.c ****     char line[192];
 133:SynaptiX_FDK/app/app.c ****     sx_gps_t *gps = &g_app.board->gps;
 134:SynaptiX_FDK/app/app.c **** 
 135:SynaptiX_FDK/app/app.c ****     rx8130ce_get_time(&g_app.board->rtc, &g_app.time);
 136:SynaptiX_FDK/app/app.c **** 
 137:SynaptiX_FDK/app/app.c ****     if (gps->latitude != 0.0f && gps->longtitude != 0.0f)
 138:SynaptiX_FDK/app/app.c ****     {
 139:SynaptiX_FDK/app/app.c ****         snprintf(line, sizeof(line),
 140:SynaptiX_FDK/app/app.c ****                  "[%s] fix=1 lat=%.6f lon=%.6f rssi=%d alt=%.6f spd=%.6f sat=%d time=%02d:%02d:%02d
 141:SynaptiX_FDK/app/app.c ****                  event,
 142:SynaptiX_FDK/app/app.c ****                  gps->latitude, gps->longtitude,
 143:SynaptiX_FDK/app/app.c ****                  sim76xx_get_rssi(&g_app.board->sim76xx),
 144:SynaptiX_FDK/app/app.c ****                  gps->altitude, gps->speed, gps->satellites,
 145:SynaptiX_FDK/app/app.c ****                  g_app.time.hour, g_app.time.min, g_app.time.sec,
 146:SynaptiX_FDK/app/app.c ****                  g_app.time.day,  g_app.time.month+1, g_app.time.year);
 147:SynaptiX_FDK/app/app.c ****     }
 148:SynaptiX_FDK/app/app.c ****     else
 149:SynaptiX_FDK/app/app.c ****     {
 150:SynaptiX_FDK/app/app.c ****         snprintf(line, sizeof(line),
 151:SynaptiX_FDK/app/app.c ****                  "[%s] fix=0 lat=0.000000 lon=0.000000 rssi=%d alt=0.000000 spd=0.000000 sat=0 time
 152:SynaptiX_FDK/app/app.c ****                  event,
 153:SynaptiX_FDK/app/app.c ****                  sim76xx_get_rssi(&g_app.board->sim76xx),
 154:SynaptiX_FDK/app/app.c ****                  g_app.time.hour, g_app.time.min, g_app.time.sec,
 155:SynaptiX_FDK/app/app.c ****                  g_app.time.day,  g_app.time.month+1, g_app.time.year);
 156:SynaptiX_FDK/app/app.c ****     }
 157:SynaptiX_FDK/app/app.c **** 
 158:SynaptiX_FDK/app/app.c ****     sx_storage_delete(GPS_LOG_FILE_PATH);
 159:SynaptiX_FDK/app/app.c ****     sx_storage_append(GPS_LOG_FILE_PATH, line, strlen(line));
 160:SynaptiX_FDK/app/app.c ****     s_log_count++;
 161:SynaptiX_FDK/app/app.c ****     log_info(TAG, "GPS log written: %s", line);
 162:SynaptiX_FDK/app/app.c **** }
 163:SynaptiX_FDK/app/app.c **** 
 164:SynaptiX_FDK/app/app.c **** static void write_calib_imu_data(void){
 165:SynaptiX_FDK/app/app.c ****     bno055_calib_data_t cal = {0};
 166:SynaptiX_FDK/app/app.c ****     if(bno055_get_calib_data(&board.imu, &cal)!=0)return;
 167:SynaptiX_FDK/app/app.c ****     char line[128];
 168:SynaptiX_FDK/app/app.c ****     snprintf(line, sizeof(line),
 169:SynaptiX_FDK/app/app.c ****              "acc_x=%d acc_y=%d acc_z=%d "
 170:SynaptiX_FDK/app/app.c ****              "mag_x=%d mag_y=%d mag_z=%d "
 171:SynaptiX_FDK/app/app.c ****              "gyr_x=%d gyr_y=%d gyr_z=%d "
 172:SynaptiX_FDK/app/app.c ****              "acc_r=%d mag_r=%d\n",
 173:SynaptiX_FDK/app/app.c ****              cal.acc_x, cal.acc_y, cal.acc_z,
 174:SynaptiX_FDK/app/app.c ****              cal.mag_x, cal.mag_y, cal.mag_z,
 175:SynaptiX_FDK/app/app.c ****              cal.gyr_x, cal.gyr_y, cal.gyr_z,
 176:SynaptiX_FDK/app/app.c ****              cal.acc_radius, cal.mag_radius);
 177:SynaptiX_FDK/app/app.c ****     sx_storage_write(IMU_CALIB_FILE_PATH, line, strlen(line));
ARM GAS  C:\Users\LENOVO\AppData\Local\Temp\ccMSvD0S.s 			page 5


 178:SynaptiX_FDK/app/app.c ****     log_info(TAG, "calib saved: %s", line);
 179:SynaptiX_FDK/app/app.c **** }
 180:SynaptiX_FDK/app/app.c **** 
 181:SynaptiX_FDK/app/app.c **** static bool imu_calib_load(void)
 182:SynaptiX_FDK/app/app.c **** {
 183:SynaptiX_FDK/app/app.c ****     if (!sx_storage_exists(IMU_CALIB_FILE_PATH)) return false;
 184:SynaptiX_FDK/app/app.c **** 
 185:SynaptiX_FDK/app/app.c ****     char line[128] = {0};
 186:SynaptiX_FDK/app/app.c ****     if (sx_storage_read(IMU_CALIB_FILE_PATH, line, sizeof(line) - 1) != SX_STORAGE_OK) return false
 187:SynaptiX_FDK/app/app.c **** 
 188:SynaptiX_FDK/app/app.c ****     bno055_calib_data_t cal = {0};
 189:SynaptiX_FDK/app/app.c ****     int parsed = sscanf(line,
 190:SynaptiX_FDK/app/app.c ****                         "acc_x=%hd acc_y=%hd acc_z=%hd "
 191:SynaptiX_FDK/app/app.c ****                         "mag_x=%hd mag_y=%hd mag_z=%hd "
 192:SynaptiX_FDK/app/app.c ****                         "gyr_x=%hd gyr_y=%hd gyr_z=%hd "
 193:SynaptiX_FDK/app/app.c ****                         "acc_r=%hd mag_r=%hd",
 194:SynaptiX_FDK/app/app.c ****                         &cal.acc_x, &cal.acc_y, &cal.acc_z,
 195:SynaptiX_FDK/app/app.c ****                         &cal.mag_x, &cal.mag_y, &cal.mag_z,
 196:SynaptiX_FDK/app/app.c ****                         &cal.gyr_x, &cal.gyr_y, &cal.gyr_z,
 197:SynaptiX_FDK/app/app.c ****                         &cal.acc_radius, &cal.mag_radius);
 198:SynaptiX_FDK/app/app.c **** 
 199:SynaptiX_FDK/app/app.c ****     if (parsed != 11) {
 200:SynaptiX_FDK/app/app.c ****         log_error(TAG, "calib parse failed: %d/11", parsed);
 201:SynaptiX_FDK/app/app.c ****         return false;
 202:SynaptiX_FDK/app/app.c ****     }
 203:SynaptiX_FDK/app/app.c **** 
 204:SynaptiX_FDK/app/app.c ****     bno055_set_calib_data(&board.imu, &cal);
 205:SynaptiX_FDK/app/app.c ****     log_info(TAG, "calib loaded OK");
 206:SynaptiX_FDK/app/app.c ****     return true;
 207:SynaptiX_FDK/app/app.c **** }
 208:SynaptiX_FDK/app/app.c **** 
 209:SynaptiX_FDK/app/app.c **** void app_notify_usb_connected(void)
 210:SynaptiX_FDK/app/app.c **** {
 211:SynaptiX_FDK/app/app.c ****     g_app.usb_connect_pending = 1;
 212:SynaptiX_FDK/app/app.c ****     g_app.app_mode = APP_MODE_FULL_POWER;
 213:SynaptiX_FDK/app/app.c **** }
 214:SynaptiX_FDK/app/app.c **** 
 215:SynaptiX_FDK/app/app.c **** static void _apply_default_config(sx_user_mqtt_cfg_t *cfg){
 216:SynaptiX_FDK/app/app.c ****     log_warn("AppCfg", "Using default hardcoded config");
 217:SynaptiX_FDK/app/app.c **** }
 218:SynaptiX_FDK/app/app.c **** 
 219:SynaptiX_FDK/app/app.c **** static void _handle_usb_connected(void)
 220:SynaptiX_FDK/app/app.c **** {
 221:SynaptiX_FDK/app/app.c ****     g_app.sleep.wake_reason = WAKE_REASON_EXTI;
 222:SynaptiX_FDK/app/app.c **** 
 223:SynaptiX_FDK/app/app.c ****     log_info(TAG, "=== USB connected — restarting ===");
 224:SynaptiX_FDK/app/app.c **** 
 225:SynaptiX_FDK/app/app.c ****     g_app.last_publish_done = 0;
 226:SynaptiX_FDK/app/app.c ****     g_app.publish_count = 0;
 227:SynaptiX_FDK/app/app.c ****     g_app.enter_sleep_published = 0;
 228:SynaptiX_FDK/app/app.c ****     g_app.mqtt_stopped = 0;
 229:SynaptiX_FDK/app/app.c ****     g_app.subscribed = 0;
 230:SynaptiX_FDK/app/app.c ****     g_app.publish_elapsed = 0;
 231:SynaptiX_FDK/app/app.c **** 
 232:SynaptiX_FDK/app/app.c ****     sx_sleep_manager_reset_wake(&g_app.sleep_mgr);
 233:SynaptiX_FDK/app/app.c ****     sx_user_mqtt_force_disconnect();
 234:SynaptiX_FDK/app/app.c **** 
ARM GAS  C:\Users\LENOVO\AppData\Local\Temp\ccMSvD0S.s 			page 6


 235:SynaptiX_FDK/app/app.c ****     g_app.board->sim76xx.base.isBusy = 0;
 236:SynaptiX_FDK/app/app.c ****     g_app.board->sim76xx.base.buff_id = 0;
 237:SynaptiX_FDK/app/app.c ****     memset(g_app.board->sim76xx.base.buff, 0, MODEM_RX_BUFFER_SIZE);
 238:SynaptiX_FDK/app/app.c ****     g_app.board->sim76xx.state = SIM76XX_STATE_IDLE;
 239:SynaptiX_FDK/app/app.c **** 
 240:SynaptiX_FDK/app/app.c ****     sx_board_uart_resume_it();
 241:SynaptiX_FDK/app/app.c **** 
 242:SynaptiX_FDK/app/app.c ****     sim76xx_power_off(&g_app.board->sim76xx);
 243:SynaptiX_FDK/app/app.c ****     sim76xx_power_on(&g_app.board->sim76xx);
 244:SynaptiX_FDK/app/app.c ****     sim76xx_start(&g_app.board->sim76xx);
 245:SynaptiX_FDK/app/app.c **** 
 246:SynaptiX_FDK/app/app.c ****     gps_power_on(&g_app.board->gps);
 247:SynaptiX_FDK/app/app.c ****     gps_it_handle();
 248:SynaptiX_FDK/app/app.c **** }
 249:SynaptiX_FDK/app/app.c **** 
 250:SynaptiX_FDK/app/app.c **** /*  MQTT callbacks  */
 251:SynaptiX_FDK/app/app.c **** static void _on_connected(void)
 252:SynaptiX_FDK/app/app.c **** {
 253:SynaptiX_FDK/app/app.c ****     log_info(TAG, "MQTT connected");
 254:SynaptiX_FDK/app/app.c ****     g_app.subscribed = 0;
 255:SynaptiX_FDK/app/app.c **** }
 256:SynaptiX_FDK/app/app.c **** 
 257:SynaptiX_FDK/app/app.c **** static void _on_disconnected(void)
 258:SynaptiX_FDK/app/app.c **** {
 259:SynaptiX_FDK/app/app.c ****     log_warn(TAG, "MQTT disconnected");
 260:SynaptiX_FDK/app/app.c ****     g_app.subscribed = 0;
 261:SynaptiX_FDK/app/app.c **** 
 262:SynaptiX_FDK/app/app.c ****     //
 263:SynaptiX_FDK/app/app.c ****     if (g_app.app_mode == APP_MODE_WAKE_PUBLISH && !g_app.last_publish_done) {
 264:SynaptiX_FDK/app/app.c ****         g_app.sleep_mgr.published = 0;
 265:SynaptiX_FDK/app/app.c ****     }
 266:SynaptiX_FDK/app/app.c **** }
 267:SynaptiX_FDK/app/app.c **** 
 268:SynaptiX_FDK/app/app.c **** static void _on_message(const char *topic, const char *message)
 269:SynaptiX_FDK/app/app.c **** {
 270:SynaptiX_FDK/app/app.c ****     if (!message || message[0] == '\0')
 271:SynaptiX_FDK/app/app.c ****         return;
 272:SynaptiX_FDK/app/app.c ****     log_info(TAG, "SUB [%s] = %s", topic, message);
 273:SynaptiX_FDK/app/app.c **** }
 274:SynaptiX_FDK/app/app.c **** 
 275:SynaptiX_FDK/app/app.c **** static void _on_publish(int success)
 276:SynaptiX_FDK/app/app.c **** {
  46              		.loc 1 276 1 view -0
  47              		.cfi_startproc
  48              		@ args = 0, pretend = 0, frame = 0
  49              		@ frame_needed = 0, uses_anonymous_args = 0
  50              		.loc 1 276 1 is_stmt 0 view .LVU1
  51 0000 10B5     		push	{r4, lr}
  52              	.LCFI0:
  53              		.cfi_def_cfa_offset 8
  54              		.cfi_offset 4, -8
  55              		.cfi_offset 14, -4
 277:SynaptiX_FDK/app/app.c ****     log_debug(TAG, "Publish %s", success ? "OK" : "FAIL");
  56              		.loc 1 277 5 is_stmt 1 view .LVU2
  57 0002 88B1     		cbz	r0, .L5
  58              		.loc 1 277 5 is_stmt 0 discriminator 1 view .LVU3
  59 0004 164B     		ldr	r3, .L8
ARM GAS  C:\Users\LENOVO\AppData\Local\Temp\ccMSvD0S.s 			page 7


  60              	.L2:
  61              		.loc 1 277 5 discriminator 4 view .LVU4
  62 0006 174A     		ldr	r2, .L8+4
  63 0008 1749     		ldr	r1, .L8+8
  64 000a 0420     		movs	r0, #4
  65              	.LVL1:
  66              		.loc 1 277 5 discriminator 4 view .LVU5
  67 000c FFF7FEFF 		bl	log_func
  68              	.LVL2:
 278:SynaptiX_FDK/app/app.c **** 
 279:SynaptiX_FDK/app/app.c ****     if (g_app.app_mode == APP_MODE_WAKE_PUBLISH)
  69              		.loc 1 279 5 is_stmt 1 view .LVU6
  70              		.loc 1 279 14 is_stmt 0 view .LVU7
  71 0010 164B     		ldr	r3, .L8+12
  72 0012 1B78     		ldrb	r3, [r3]	@ zero_extendqisi2
  73 0014 DBB2     		uxtb	r3, r3
  74              		.loc 1 279 8 view .LVU8
  75 0016 032B     		cmp	r3, #3
  76 0018 08D0     		beq	.L7
  77              	.L3:
 280:SynaptiX_FDK/app/app.c ****     {
 281:SynaptiX_FDK/app/app.c ****         g_app.publish_count++;
 282:SynaptiX_FDK/app/app.c ****         log_debug(TAG, "publish_count = %d", g_app.publish_count);
 283:SynaptiX_FDK/app/app.c ****         if (g_app.publish_count >= 2)
 284:SynaptiX_FDK/app/app.c ****         {
 285:SynaptiX_FDK/app/app.c ****             g_app.last_publish_done = 1;
 286:SynaptiX_FDK/app/app.c ****             g_app.publish_count     = 0;
 287:SynaptiX_FDK/app/app.c ****         }
 288:SynaptiX_FDK/app/app.c ****     }
 289:SynaptiX_FDK/app/app.c **** 
 290:SynaptiX_FDK/app/app.c ****     if (g_app.app_mode == APP_MODE_FULL_POWER)
  78              		.loc 1 290 5 is_stmt 1 view .LVU9
  79              		.loc 1 290 14 is_stmt 0 view .LVU10
  80 001a 144B     		ldr	r3, .L8+12
  81 001c 1B78     		ldrb	r3, [r3]	@ zero_extendqisi2
  82              		.loc 1 290 8 view .LVU11
  83 001e 13B9     		cbnz	r3, .L1
 291:SynaptiX_FDK/app/app.c ****         g_app.publish_elapsed = 0;
  84              		.loc 1 291 9 is_stmt 1 view .LVU12
  85              		.loc 1 291 31 is_stmt 0 view .LVU13
  86 0020 124B     		ldr	r3, .L8+12
  87 0022 0022     		movs	r2, #0
  88 0024 9A63     		str	r2, [r3, #56]
  89              	.L1:
 292:SynaptiX_FDK/app/app.c **** }
  90              		.loc 1 292 1 view .LVU14
  91 0026 10BD     		pop	{r4, pc}
  92              	.LVL3:
  93              	.L5:
 277:SynaptiX_FDK/app/app.c **** 
  94              		.loc 1 277 5 discriminator 2 view .LVU15
  95 0028 114B     		ldr	r3, .L8+16
  96 002a ECE7     		b	.L2
  97              	.LVL4:
  98              	.L7:
 281:SynaptiX_FDK/app/app.c ****         log_debug(TAG, "publish_count = %d", g_app.publish_count);
  99              		.loc 1 281 9 is_stmt 1 view .LVU16
ARM GAS  C:\Users\LENOVO\AppData\Local\Temp\ccMSvD0S.s 			page 8


 281:SynaptiX_FDK/app/app.c ****         log_debug(TAG, "publish_count = %d", g_app.publish_count);
 100              		.loc 1 281 14 is_stmt 0 view .LVU17
 101 002c 0F4C     		ldr	r4, .L8+12
 102 002e 94F84030 		ldrb	r3, [r4, #64]	@ zero_extendqisi2
 281:SynaptiX_FDK/app/app.c ****         log_debug(TAG, "publish_count = %d", g_app.publish_count);
 103              		.loc 1 281 28 view .LVU18
 104 0032 0133     		adds	r3, r3, #1
 105 0034 DBB2     		uxtb	r3, r3
 106 0036 84F84030 		strb	r3, [r4, #64]
 282:SynaptiX_FDK/app/app.c ****         if (g_app.publish_count >= 2)
 107              		.loc 1 282 9 is_stmt 1 view .LVU19
 108 003a 94F84030 		ldrb	r3, [r4, #64]	@ zero_extendqisi2
 109 003e 0D4A     		ldr	r2, .L8+20
 110 0040 0949     		ldr	r1, .L8+8
 111 0042 0420     		movs	r0, #4
 112 0044 FFF7FEFF 		bl	log_func
 113              	.LVL5:
 283:SynaptiX_FDK/app/app.c ****         {
 114              		.loc 1 283 9 view .LVU20
 283:SynaptiX_FDK/app/app.c ****         {
 115              		.loc 1 283 18 is_stmt 0 view .LVU21
 116 0048 94F84030 		ldrb	r3, [r4, #64]	@ zero_extendqisi2
 117 004c DBB2     		uxtb	r3, r3
 283:SynaptiX_FDK/app/app.c ****         {
 118              		.loc 1 283 12 view .LVU22
 119 004e 012B     		cmp	r3, #1
 120 0050 E3D9     		bls	.L3
 285:SynaptiX_FDK/app/app.c ****             g_app.publish_count     = 0;
 121              		.loc 1 285 13 is_stmt 1 view .LVU23
 285:SynaptiX_FDK/app/app.c ****             g_app.publish_count     = 0;
 122              		.loc 1 285 37 is_stmt 0 view .LVU24
 123 0052 0122     		movs	r2, #1
 124 0054 84F83D20 		strb	r2, [r4, #61]
 286:SynaptiX_FDK/app/app.c ****         }
 125              		.loc 1 286 13 is_stmt 1 view .LVU25
 286:SynaptiX_FDK/app/app.c ****         }
 126              		.loc 1 286 37 is_stmt 0 view .LVU26
 127 0058 0022     		movs	r2, #0
 128 005a 84F84020 		strb	r2, [r4, #64]
 129 005e DCE7     		b	.L3
 130              	.L9:
 131              		.align	2
 132              	.L8:
 133 0060 00000000 		.word	.LC0
 134 0064 0C000000 		.word	.LC2
 135 0068 18000000 		.word	.LC3
 136 006c 00000000 		.word	g_app
 137 0070 04000000 		.word	.LC1
 138 0074 1C000000 		.word	.LC4
 139              		.cfi_endproc
 140              	.LFE562:
 142              		.section	.rodata._on_message.str1.4,"aMS",%progbits,1
 143              		.align	2
 144              	.LC5:
 145 0000 53554220 		.ascii	"SUB [%s] = %s\000"
 145      5B25735D 
 145      203D2025 
ARM GAS  C:\Users\LENOVO\AppData\Local\Temp\ccMSvD0S.s 			page 9


 145      7300
 146              		.section	.text._on_message,"ax",%progbits
 147              		.align	1
 148              		.syntax unified
 149              		.thumb
 150              		.thumb_func
 152              	_on_message:
 153              	.LVL6:
 154              	.LFB561:
 269:SynaptiX_FDK/app/app.c ****     if (!message || message[0] == '\0')
 155              		.loc 1 269 1 is_stmt 1 view -0
 156              		.cfi_startproc
 157              		@ args = 0, pretend = 0, frame = 0
 158              		@ frame_needed = 0, uses_anonymous_args = 0
 270:SynaptiX_FDK/app/app.c ****         return;
 159              		.loc 1 270 5 view .LVU28
 270:SynaptiX_FDK/app/app.c ****         return;
 160              		.loc 1 270 8 is_stmt 0 view .LVU29
 161 0000 09B1     		cbz	r1, .L13
 270:SynaptiX_FDK/app/app.c ****         return;
 162              		.loc 1 270 28 discriminator 1 view .LVU30
 163 0002 0A78     		ldrb	r2, [r1]	@ zero_extendqisi2
 270:SynaptiX_FDK/app/app.c ****         return;
 164              		.loc 1 270 18 discriminator 1 view .LVU31
 165 0004 02B9     		cbnz	r2, .L16
 166              	.L13:
 167 0006 7047     		bx	lr
 168              	.L16:
 269:SynaptiX_FDK/app/app.c ****     if (!message || message[0] == '\0')
 169              		.loc 1 269 1 view .LVU32
 170 0008 00B5     		push	{lr}
 171              	.LCFI1:
 172              		.cfi_def_cfa_offset 4
 173              		.cfi_offset 14, -4
 174 000a 83B0     		sub	sp, sp, #12
 175              	.LCFI2:
 176              		.cfi_def_cfa_offset 16
 272:SynaptiX_FDK/app/app.c **** }
 177              		.loc 1 272 5 is_stmt 1 view .LVU33
 178 000c 0091     		str	r1, [sp]
 179 000e 0346     		mov	r3, r0
 180 0010 034A     		ldr	r2, .L17
 181 0012 0449     		ldr	r1, .L17+4
 182              	.LVL7:
 272:SynaptiX_FDK/app/app.c **** }
 183              		.loc 1 272 5 is_stmt 0 view .LVU34
 184 0014 0320     		movs	r0, #3
 185              	.LVL8:
 272:SynaptiX_FDK/app/app.c **** }
 186              		.loc 1 272 5 view .LVU35
 187 0016 FFF7FEFF 		bl	log_func
 188              	.LVL9:
 273:SynaptiX_FDK/app/app.c **** 
 189              		.loc 1 273 1 view .LVU36
 190 001a 03B0     		add	sp, sp, #12
 191              	.LCFI3:
 192              		.cfi_def_cfa_offset 4
ARM GAS  C:\Users\LENOVO\AppData\Local\Temp\ccMSvD0S.s 			page 10


 193              		@ sp needed
 194 001c 5DF804FB 		ldr	pc, [sp], #4
 195              	.L18:
 196              		.align	2
 197              	.L17:
 198 0020 00000000 		.word	.LC5
 199 0024 18000000 		.word	.LC3
 200              		.cfi_endproc
 201              	.LFE561:
 203              		.section	.rodata._on_disconnected.str1.4,"aMS",%progbits,1
 204              		.align	2
 205              	.LC6:
 206 0000 4D515454 		.ascii	"MQTT disconnected\000"
 206      20646973 
 206      636F6E6E 
 206      65637465 
 206      6400
 207              		.section	.text._on_disconnected,"ax",%progbits
 208              		.align	1
 209              		.syntax unified
 210              		.thumb
 211              		.thumb_func
 213              	_on_disconnected:
 214              	.LFB560:
 258:SynaptiX_FDK/app/app.c ****     log_warn(TAG, "MQTT disconnected");
 215              		.loc 1 258 1 is_stmt 1 view -0
 216              		.cfi_startproc
 217              		@ args = 0, pretend = 0, frame = 0
 218              		@ frame_needed = 0, uses_anonymous_args = 0
 219 0000 08B5     		push	{r3, lr}
 220              	.LCFI4:
 221              		.cfi_def_cfa_offset 8
 222              		.cfi_offset 3, -8
 223              		.cfi_offset 14, -4
 259:SynaptiX_FDK/app/app.c ****     g_app.subscribed = 0;
 224              		.loc 1 259 5 view .LVU38
 225 0002 0B4A     		ldr	r2, .L23
 226 0004 0B49     		ldr	r1, .L23+4
 227 0006 0220     		movs	r0, #2
 228 0008 FFF7FEFF 		bl	log_func
 229              	.LVL10:
 260:SynaptiX_FDK/app/app.c **** 
 230              		.loc 1 260 5 view .LVU39
 260:SynaptiX_FDK/app/app.c **** 
 231              		.loc 1 260 22 is_stmt 0 view .LVU40
 232 000c 0A4B     		ldr	r3, .L23+8
 233 000e 0022     		movs	r2, #0
 234 0010 83F83C20 		strb	r2, [r3, #60]
 263:SynaptiX_FDK/app/app.c ****         g_app.sleep_mgr.published = 0;
 235              		.loc 1 263 5 is_stmt 1 view .LVU41
 263:SynaptiX_FDK/app/app.c ****         g_app.sleep_mgr.published = 0;
 236              		.loc 1 263 14 is_stmt 0 view .LVU42
 237 0014 1B78     		ldrb	r3, [r3]	@ zero_extendqisi2
 238 0016 DBB2     		uxtb	r3, r3
 263:SynaptiX_FDK/app/app.c ****         g_app.sleep_mgr.published = 0;
 239              		.loc 1 263 8 view .LVU43
 240 0018 032B     		cmp	r3, #3
ARM GAS  C:\Users\LENOVO\AppData\Local\Temp\ccMSvD0S.s 			page 11


 241 001a 00D0     		beq	.L22
 242              	.L19:
 266:SynaptiX_FDK/app/app.c **** 
 243              		.loc 1 266 1 view .LVU44
 244 001c 08BD     		pop	{r3, pc}
 245              	.L22:
 263:SynaptiX_FDK/app/app.c ****         g_app.sleep_mgr.published = 0;
 246              		.loc 1 263 58 discriminator 1 view .LVU45
 247 001e 064B     		ldr	r3, .L23+8
 248 0020 93F83D30 		ldrb	r3, [r3, #61]	@ zero_extendqisi2
 263:SynaptiX_FDK/app/app.c ****         g_app.sleep_mgr.published = 0;
 249              		.loc 1 263 49 discriminator 1 view .LVU46
 250 0024 002B     		cmp	r3, #0
 251 0026 F9D1     		bne	.L19
 264:SynaptiX_FDK/app/app.c ****     }
 252              		.loc 1 264 9 is_stmt 1 view .LVU47
 264:SynaptiX_FDK/app/app.c ****     }
 253              		.loc 1 264 35 is_stmt 0 view .LVU48
 254 0028 034B     		ldr	r3, .L23+8
 255 002a 83F82D20 		strb	r2, [r3, #45]
 266:SynaptiX_FDK/app/app.c **** 
 256              		.loc 1 266 1 view .LVU49
 257 002e F5E7     		b	.L19
 258              	.L24:
 259              		.align	2
 260              	.L23:
 261 0030 00000000 		.word	.LC6
 262 0034 18000000 		.word	.LC3
 263 0038 00000000 		.word	g_app
 264              		.cfi_endproc
 265              	.LFE560:
 267              		.section	.rodata._on_connected.str1.4,"aMS",%progbits,1
 268              		.align	2
 269              	.LC7:
 270 0000 4D515454 		.ascii	"MQTT connected\000"
 270      20636F6E 
 270      6E656374 
 270      656400
 271              		.section	.text._on_connected,"ax",%progbits
 272              		.align	1
 273              		.syntax unified
 274              		.thumb
 275              		.thumb_func
 277              	_on_connected:
 278              	.LFB559:
 252:SynaptiX_FDK/app/app.c ****     log_info(TAG, "MQTT connected");
 279              		.loc 1 252 1 is_stmt 1 view -0
 280              		.cfi_startproc
 281              		@ args = 0, pretend = 0, frame = 0
 282              		@ frame_needed = 0, uses_anonymous_args = 0
 283 0000 08B5     		push	{r3, lr}
 284              	.LCFI5:
 285              		.cfi_def_cfa_offset 8
 286              		.cfi_offset 3, -8
 287              		.cfi_offset 14, -4
 253:SynaptiX_FDK/app/app.c ****     g_app.subscribed = 0;
 288              		.loc 1 253 5 view .LVU51
ARM GAS  C:\Users\LENOVO\AppData\Local\Temp\ccMSvD0S.s 			page 12


 289 0002 054A     		ldr	r2, .L27
 290 0004 0549     		ldr	r1, .L27+4
 291 0006 0320     		movs	r0, #3
 292 0008 FFF7FEFF 		bl	log_func
 293              	.LVL11:
 254:SynaptiX_FDK/app/app.c **** }
 294              		.loc 1 254 5 view .LVU52
 254:SynaptiX_FDK/app/app.c **** }
 295              		.loc 1 254 22 is_stmt 0 view .LVU53
 296 000c 044B     		ldr	r3, .L27+8
 297 000e 0022     		movs	r2, #0
 298 0010 83F83C20 		strb	r2, [r3, #60]
 255:SynaptiX_FDK/app/app.c **** 
 299              		.loc 1 255 1 view .LVU54
 300 0014 08BD     		pop	{r3, pc}
 301              	.L28:
 302 0016 00BF     		.align	2
 303              	.L27:
 304 0018 00000000 		.word	.LC7
 305 001c 18000000 		.word	.LC3
 306 0020 00000000 		.word	g_app
 307              		.cfi_endproc
 308              	.LFE559:
 310              		.section	.rodata._apply_default_config.str1.4,"aMS",%progbits,1
 311              		.align	2
 312              	.LC8:
 313 0000 5573696E 		.ascii	"Using default hardcoded config\000"
 313      67206465 
 313      6661756C 
 313      74206861 
 313      7264636F 
 314 001f 00       		.align	2
 315              	.LC9:
 316 0020 41707043 		.ascii	"AppCfg\000"
 316      666700
 317              		.section	.text._apply_default_config,"ax",%progbits
 318              		.align	1
 319              		.syntax unified
 320              		.thumb
 321              		.thumb_func
 323              	_apply_default_config:
 324              	.LVL12:
 325              	.LFB557:
 215:SynaptiX_FDK/app/app.c ****     log_warn("AppCfg", "Using default hardcoded config");
 326              		.loc 1 215 59 is_stmt 1 view -0
 327              		.cfi_startproc
 328              		@ args = 0, pretend = 0, frame = 0
 329              		@ frame_needed = 0, uses_anonymous_args = 0
 215:SynaptiX_FDK/app/app.c ****     log_warn("AppCfg", "Using default hardcoded config");
 330              		.loc 1 215 59 is_stmt 0 view .LVU56
 331 0000 08B5     		push	{r3, lr}
 332              	.LCFI6:
 333              		.cfi_def_cfa_offset 8
 334              		.cfi_offset 3, -8
 335              		.cfi_offset 14, -4
 216:SynaptiX_FDK/app/app.c **** }
 336              		.loc 1 216 5 is_stmt 1 view .LVU57
ARM GAS  C:\Users\LENOVO\AppData\Local\Temp\ccMSvD0S.s 			page 13


 337 0002 034A     		ldr	r2, .L31
 338 0004 0349     		ldr	r1, .L31+4
 339 0006 0220     		movs	r0, #2
 340              	.LVL13:
 216:SynaptiX_FDK/app/app.c **** }
 341              		.loc 1 216 5 is_stmt 0 view .LVU58
 342 0008 FFF7FEFF 		bl	log_func
 343              	.LVL14:
 217:SynaptiX_FDK/app/app.c **** 
 344              		.loc 1 217 1 view .LVU59
 345 000c 08BD     		pop	{r3, pc}
 346              	.L32:
 347 000e 00BF     		.align	2
 348              	.L31:
 349 0010 00000000 		.word	.LC8
 350 0014 20000000 		.word	.LC9
 351              		.cfi_endproc
 352              	.LFE557:
 354              		.section	.rodata.app_read_config_file.str1.4,"aMS",%progbits,1
 355              		.align	2
 356              	.LC10:
 357 0000 4E554C4C 		.ascii	"NULL\000"
 357      00
 358 0005 000000   		.align	2
 359              	.LC11:
 360 0008 46617446 		.ascii	"FatFS remount failed (%d) \342\200\224 using defaul"
 360      53207265 
 360      6D6F756E 
 360      74206661 
 360      696C6564 
 361 0032 7420636F 		.ascii	"t config\000"
 361      6E666967 
 361      00
 362 003b 00       		.align	2
 363              	.LC12:
 364 003c 303A2F63 		.ascii	"0:/config.json\000"
 364      6F6E6669 
 364      672E6A73 
 364      6F6E00
 365 004b 00       		.align	2
 366              	.LC13:
 367 004c 636F6E66 		.ascii	"config.json not found (f_stat=%d) \342\200\224 usin"
 367      69672E6A 
 367      736F6E20 
 367      6E6F7420 
 367      666F756E 
 368 0076 67206465 		.ascii	"g default config\000"
 368      6661756C 
 368      7420636F 
 368      6E666967 
 368      00
 369 0087 00       		.align	2
 370              	.LC14:
 371 0088 636F6E66 		.ascii	"config.json found, size=%lu bytes\000"
 371      69672E6A 
 371      736F6E20 
 371      666F756E 
ARM GAS  C:\Users\LENOVO\AppData\Local\Temp\ccMSvD0S.s 			page 14


 371      642C2073 
 372 00aa 0000     		.align	2
 373              	.LC15:
 374 00ac 52656164 		.ascii	"Read config.json failed (err=%d) \342\200\224 using"
 374      20636F6E 
 374      6669672E 
 374      6A736F6E 
 374      20666169 
 375 00d6 20646566 		.ascii	" default config\000"
 375      61756C74 
 375      20636F6E 
 375      66696700 
 376 00e6 0000     		.align	2
 377              	.LC16:
 378 00e8 6366672E 		.ascii	"cfg.json content: %s\000"
 378      6A736F6E 
 378      20636F6E 
 378      74656E74 
 378      3A202573 
 379 00fd 000000   		.align	2
 380              	.LC17:
 381 0100 4A534F4E 		.ascii	"JSON parse failed \342\200\224 using default config"
 381      20706172 
 381      73652066 
 381      61696C65 
 381      6420E280 
 382 012a 00       		.ascii	"\000"
 383 012b 00       		.align	2
 384              	.LC18:
 385 012c 61706E00 		.ascii	"apn\000"
 386              		.align	2
 387              	.LC19:
 388 0130 6E616D65 		.ascii	"name\000"
 388      00
 389 0135 000000   		.align	2
 390              	.LC20:
 391 0138 75736572 		.ascii	"user\000"
 391      00
 392 013d 000000   		.align	2
 393              	.LC21:
 394 0140 70617373 		.ascii	"password\000"
 394      776F7264 
 394      00
 395 0149 000000   		.align	2
 396              	.LC22:
 397 014c 41504E20 		.ascii	"APN name    : %s\000"
 397      6E616D65 
 397      20202020 
 397      3A202573 
 397      00
 398 015d 000000   		.align	2
 399              	.LC23:
 400 0160 41504E20 		.ascii	"APN user    : %s\000"
 400      75736572 
 400      20202020 
 400      3A202573 
 400      00
ARM GAS  C:\Users\LENOVO\AppData\Local\Temp\ccMSvD0S.s 			page 15


 401 0171 000000   		.align	2
 402              	.LC24:
 403 0174 41504E20 		.ascii	"APN pass    : %s\000"
 403      70617373 
 403      20202020 
 403      3A202573 
 403      00
 404 0185 000000   		.align	2
 405              	.LC25:
 406 0188 4E6F2027 		.ascii	"No 'apn' field in config\000"
 406      61706E27 
 406      20666965 
 406      6C642069 
 406      6E20636F 
 407 01a1 000000   		.align	2
 408              	.LC26:
 409 01a4 6D717474 		.ascii	"mqtt\000"
 409      00
 410 01a9 000000   		.align	2
 411              	.LC27:
 412 01ac 686F7374 		.ascii	"host\000"
 412      00
 413 01b1 000000   		.align	2
 414              	.LC28:
 415 01b4 706F7274 		.ascii	"port\000"
 415      00
 416 01b9 000000   		.align	2
 417              	.LC29:
 418 01bc 636C6965 		.ascii	"client_id\000"
 418      6E745F69 
 418      6400
 419 01c6 0000     		.align	2
 420              	.LC30:
 421 01c8 75736572 		.ascii	"user_name\000"
 421      5F6E616D 
 421      6500
 422 01d2 0000     		.align	2
 423              	.LC31:
 424 01d4 4D515454 		.ascii	"MQTT host     : %s\000"
 424      20686F73 
 424      74202020 
 424      20203A20 
 424      257300
 425 01e7 00       		.align	2
 426              	.LC32:
 427 01e8 4D515454 		.ascii	"MQTT port     : %d\000"
 427      20706F72 
 427      74202020 
 427      20203A20 
 427      256400
 428 01fb 00       		.align	2
 429              	.LC33:
 430 01fc 4D515454 		.ascii	"MQTT client_id: %s\000"
 430      20636C69 
 430      656E745F 
 430      69643A20 
 430      257300
ARM GAS  C:\Users\LENOVO\AppData\Local\Temp\ccMSvD0S.s 			page 16


 431 020f 00       		.align	2
 432              	.LC34:
 433 0210 4D515454 		.ascii	"MQTT user     : %s\000"
 433      20757365 
 433      72202020 
 433      20203A20 
 433      257300
 434 0223 00       		.align	2
 435              	.LC35:
 436 0224 4D515454 		.ascii	"MQTT pass     : %s\000"
 436      20706173 
 436      73202020 
 436      20203A20 
 436      257300
 437 0237 00       		.align	2
 438              	.LC36:
 439 0238 4E6F2027 		.ascii	"No 'mqtt' field in config \342\200\224 using defaul"
 439      6D717474 
 439      27206669 
 439      656C6420 
 439      696E2063 
 440 0262 74204D51 		.ascii	"t MQTT config\000"
 440      54542063 
 440      6F6E6669 
 440      6700
 441              		.align	2
 442              	.LC37:
 443 0270 74696D65 		.ascii	"time_sleeps\000"
 443      5F736C65 
 443      65707300 
 444              		.align	2
 445              	.LC38:
 446 027c 74696D65 		.ascii	"time_sleeps loaded: %lu ms\000"
 446      5F736C65 
 446      65707320 
 446      6C6F6164 
 446      65643A20 
 447 0297 00       		.align	2
 448              	.LC39:
 449 0298 4E6F2076 		.ascii	"No valid 'time_sleeps' \342\200\224 using default %"
 449      616C6964 
 449      20277469 
 449      6D655F73 
 449      6C656570 
 450 02c2 6C75206D 		.ascii	"lu ms\000"
 450      7300
 451              		.align	2
 452              	.LC40:
 453 02c8 64657669 		.ascii	"device_id\000"
 453      63655F69 
 453      6400
 454 02d2 0000     		.align	2
 455              	.LC41:
 456 02d4 44657669 		.ascii	"Device ID     : %s\000"
 456      63652049 
 456      44202020 
 456      20203A20 
ARM GAS  C:\Users\LENOVO\AppData\Local\Temp\ccMSvD0S.s 			page 17


 456      257300
 457 02e7 00       		.align	2
 458              	.LC42:
 459 02e8 74696D65 		.ascii	"time_publish\000"
 459      5F707562 
 459      6C697368 
 459      00
 460 02f5 000000   		.align	2
 461              	.LC43:
 462 02f8 74696D65 		.ascii	"time_publish loaded: %lu ms\000"
 462      5F707562 
 462      6C697368 
 462      206C6F61 
 462      6465643A 
 463              		.align	2
 464              	.LC44:
 465 0314 4E6F2076 		.ascii	"No valid 'time_publish' \342\200\224 using default "
 465      616C6964 
 465      20277469 
 465      6D655F70 
 465      75626C69 
 466 033e 256C7520 		.ascii	"%lu ms\000"
 466      6D7300
 467 0345 000000   		.align	2
 468              	.LC45:
 469 0348 436F6E66 		.ascii	"Config loaded OK\000"
 469      6967206C 
 469      6F616465 
 469      64204F4B 
 469      00
 470              		.section	.text.app_read_config_file,"ax",%progbits
 471              		.align	1
 472              		.syntax unified
 473              		.thumb
 474              		.thumb_func
 476              	app_read_config_file:
 477              	.LVL15:
 478              	.LFB569:
 293:SynaptiX_FDK/app/app.c **** 
 294:SynaptiX_FDK/app/app.c **** static sx_user_mqtt_cfg_t s_mqtt_cfg = {
 295:SynaptiX_FDK/app/app.c ****     .apn = APN,
 296:SynaptiX_FDK/app/app.c ****     .username_apn = USERNAME_APN,
 297:SynaptiX_FDK/app/app.c ****     .password_apn = PASSWORD_APN,
 298:SynaptiX_FDK/app/app.c ****     .broker = MQTT_HOST,
 299:SynaptiX_FDK/app/app.c ****     .port = MQTT_PORT,
 300:SynaptiX_FDK/app/app.c ****     .client_id = MQTT_CLIENT_ID,
 301:SynaptiX_FDK/app/app.c ****     .username = MQTT_USER,
 302:SynaptiX_FDK/app/app.c ****     .password = MQTT_PASS,
 303:SynaptiX_FDK/app/app.c ****     .keepalive = MQTT_KEEPALIVE,
 304:SynaptiX_FDK/app/app.c ****     .clean_session = 0,
 305:SynaptiX_FDK/app/app.c ****     .on_connected = _on_connected,
 306:SynaptiX_FDK/app/app.c ****     .on_disconnected = _on_disconnected,
 307:SynaptiX_FDK/app/app.c ****     .on_message = _on_message,
 308:SynaptiX_FDK/app/app.c ****     .on_publish = _on_publish,
 309:SynaptiX_FDK/app/app.c **** };
 310:SynaptiX_FDK/app/app.c **** 
 311:SynaptiX_FDK/app/app.c **** static void read_last_gps(void);
ARM GAS  C:\Users\LENOVO\AppData\Local\Temp\ccMSvD0S.s 			page 18


 312:SynaptiX_FDK/app/app.c **** 
 313:SynaptiX_FDK/app/app.c **** /*  Publish helpers  */
 314:SynaptiX_FDK/app/app.c **** static void publish_gsm(char *mode)
 315:SynaptiX_FDK/app/app.c **** {
 316:SynaptiX_FDK/app/app.c ****     char msg[256];
 317:SynaptiX_FDK/app/app.c ****     char topic[128];
 318:SynaptiX_FDK/app/app.c ****     
 319:SynaptiX_FDK/app/app.c ****     rx8130ce_get_time(&g_app.board->rtc, &g_app.time);
 320:SynaptiX_FDK/app/app.c **** 
 321:SynaptiX_FDK/app/app.c ****     snprintf(topic, sizeof(topic), "%s%s", MQTT_TOPIC_GSM, g_app.device_name);
 322:SynaptiX_FDK/app/app.c **** 
 323:SynaptiX_FDK/app/app.c ****     snprintf(msg, sizeof(msg),
 324:SynaptiX_FDK/app/app.c ****              "{\"mode\":\"%s\",\"rssi\":%d,\"ip\":\"%s\",\"imei\":\"%s\",\"apn\":\"%s\",\"vbat\":%f
 325:SynaptiX_FDK/app/app.c ****              "\"time\":\"%02d:%02d:%02d\",\"date\":\"%02d/%02d/20%02d\"}",
 326:SynaptiX_FDK/app/app.c ****              mode,
 327:SynaptiX_FDK/app/app.c ****              sim76xx_get_rssi(&g_app.board->sim76xx),
 328:SynaptiX_FDK/app/app.c ****              sim76xx_get_ip(&g_app.board->sim76xx),
 329:SynaptiX_FDK/app/app.c ****              sim76xx_get_imei(&g_app.board->sim76xx),
 330:SynaptiX_FDK/app/app.c ****              sim76xx_get_apn(&g_app.board->sim76xx), g_app.board->voltage.v_bat,
 331:SynaptiX_FDK/app/app.c ****              g_app.time.hour, g_app.time.min, g_app.time.sec,
 332:SynaptiX_FDK/app/app.c ****              g_app.time.day, g_app.time.month+1, g_app.time.year);
 333:SynaptiX_FDK/app/app.c **** 
 334:SynaptiX_FDK/app/app.c ****     sx_user_mqtt_publish(topic, msg);
 335:SynaptiX_FDK/app/app.c ****     log_info(TAG, "GSM: %s", msg);
 336:SynaptiX_FDK/app/app.c **** }
 337:SynaptiX_FDK/app/app.c **** 
 338:SynaptiX_FDK/app/app.c **** static void publish_gps(char *mode)
 339:SynaptiX_FDK/app/app.c **** {
 340:SynaptiX_FDK/app/app.c ****     char v_str[128];
 341:SynaptiX_FDK/app/app.c ****     char msg[256];
 342:SynaptiX_FDK/app/app.c ****     char topic[128];
 343:SynaptiX_FDK/app/app.c ****     sx_gps_t *gps = &g_app.board->gps;
 344:SynaptiX_FDK/app/app.c ****     struct tm t = {0};
 345:SynaptiX_FDK/app/app.c ****     rx8130ce_get_time(&g_app.board->rtc, &g_app.time);
 346:SynaptiX_FDK/app/app.c ****     t.tm_year = g_app.time.year + 100;  
 347:SynaptiX_FDK/app/app.c ****     t.tm_mon  = g_app.time.month;
 348:SynaptiX_FDK/app/app.c ****     t.tm_mday = g_app.time.day;
 349:SynaptiX_FDK/app/app.c ****     t.tm_hour = g_app.time.hour;
 350:SynaptiX_FDK/app/app.c ****     t.tm_min  = g_app.time.min;
 351:SynaptiX_FDK/app/app.c ****     t.tm_sec  = g_app.time.sec;
 352:SynaptiX_FDK/app/app.c ****     time_t unix_ts = mktime(&t);
 353:SynaptiX_FDK/app/app.c ****     snprintf(topic, sizeof(topic), "%s%s", MQTT_TOPIC_GPS, g_app.device_name);
 354:SynaptiX_FDK/app/app.c ****     float lat = 0.0f, lon = 0.0f, alt = 0.0f, spd = 0.0f;
 355:SynaptiX_FDK/app/app.c ****     int sat = 0;
 356:SynaptiX_FDK/app/app.c ****     int fix = 0; 
 357:SynaptiX_FDK/app/app.c **** 
 358:SynaptiX_FDK/app/app.c ****     if (gps->latitude != 0.0f && gps->longtitude != 0.0f)
 359:SynaptiX_FDK/app/app.c ****     {
 360:SynaptiX_FDK/app/app.c ****         lat = gps->latitude;
 361:SynaptiX_FDK/app/app.c ****         lon = gps->longtitude;
 362:SynaptiX_FDK/app/app.c ****         alt = gps->altitude;
 363:SynaptiX_FDK/app/app.c ****         spd = gps->speed;
 364:SynaptiX_FDK/app/app.c ****         sat = gps->satellites;
 365:SynaptiX_FDK/app/app.c ****         fix = 1; 
 366:SynaptiX_FDK/app/app.c ****         set_time_exrtc(board.gps.tim.tm_sec, board.gps.tim.tm_min, board.gps.tim.tm_hour,
 367:SynaptiX_FDK/app/app.c ****                        (board.gps.tim.tm_mday / 7 + 1), board.gps.tim.tm_mday,
 368:SynaptiX_FDK/app/app.c ****                        board.gps.tim.tm_mon, board.gps.tim.tm_year - 100);
ARM GAS  C:\Users\LENOVO\AppData\Local\Temp\ccMSvD0S.s 			page 19


 369:SynaptiX_FDK/app/app.c ****     }
 370:SynaptiX_FDK/app/app.c ****     else
 371:SynaptiX_FDK/app/app.c ****     {
 372:SynaptiX_FDK/app/app.c ****         fix = 0;
 373:SynaptiX_FDK/app/app.c ****         // read_last_gps();
 374:SynaptiX_FDK/app/app.c ****         lat = g_app.last_lat;
 375:SynaptiX_FDK/app/app.c ****         lon = g_app.last_lon;
 376:SynaptiX_FDK/app/app.c ****     }
 377:SynaptiX_FDK/app/app.c **** 
 378:SynaptiX_FDK/app/app.c ****     // Build inner JSON string (escaped) - thêm \"fix\"
 379:SynaptiX_FDK/app/app.c ****     snprintf(v_str, sizeof(v_str),
 380:SynaptiX_FDK/app/app.c ****              "{\\\"lat\\\":%.6f,\\\"lon\\\":%.6f,\\\"alt\\\":%.6f,\\\"spd\\\":%.6f,\\\"sat\\\":%d,\
 381:SynaptiX_FDK/app/app.c ****              lat, lon, alt, spd, sat, fix); // <-- thêm fix vào cuối
 382:SynaptiX_FDK/app/app.c **** 
 383:SynaptiX_FDK/app/app.c ****     // Build outer JSON
 384:SynaptiX_FDK/app/app.c ****     snprintf(msg, sizeof(msg),
 385:SynaptiX_FDK/app/app.c ****              "{\"v\":\"%s\",\"time\":%ld}",
 386:SynaptiX_FDK/app/app.c ****              v_str, (long)unix_ts);
 387:SynaptiX_FDK/app/app.c ****     sx_user_mqtt_publish(topic, msg);
 388:SynaptiX_FDK/app/app.c ****     log_info(TAG, "GPS: %s", msg);
 389:SynaptiX_FDK/app/app.c **** }
 390:SynaptiX_FDK/app/app.c **** 
 391:SynaptiX_FDK/app/app.c **** static void read_last_gps(void)
 392:SynaptiX_FDK/app/app.c **** {
 393:SynaptiX_FDK/app/app.c ****     int32_t file_size = sx_storage_size(GPS_LOG_FILE_PATH);
 394:SynaptiX_FDK/app/app.c ****     if (file_size <= 0) {
 395:SynaptiX_FDK/app/app.c ****         log_info(TAG, "NO DATA FROM EXFLASH!");
 396:SynaptiX_FDK/app/app.c ****         return;
 397:SynaptiX_FDK/app/app.c ****     }
 398:SynaptiX_FDK/app/app.c **** 
 399:SynaptiX_FDK/app/app.c ****     static uint8_t s_tail_buf[256];
 400:SynaptiX_FDK/app/app.c ****     uint32_t read_len = (file_size < (int32_t)sizeof(s_tail_buf))
 401:SynaptiX_FDK/app/app.c ****                             ? (uint32_t)file_size
 402:SynaptiX_FDK/app/app.c ****                             : (uint32_t)sizeof(s_tail_buf) - 1;
 403:SynaptiX_FDK/app/app.c ****     uint32_t offset = (uint32_t)file_size - read_len;
 404:SynaptiX_FDK/app/app.c **** 
 405:SynaptiX_FDK/app/app.c ****     sx_storage_err_t err = sx_storage_read_partial(
 406:SynaptiX_FDK/app/app.c ****         GPS_LOG_FILE_PATH, s_tail_buf, offset, read_len);
 407:SynaptiX_FDK/app/app.c ****     if (err != SX_STORAGE_OK) {
 408:SynaptiX_FDK/app/app.c ****         log_error(TAG, "Flash read failed");
 409:SynaptiX_FDK/app/app.c ****         return;
 410:SynaptiX_FDK/app/app.c ****     }
 411:SynaptiX_FDK/app/app.c ****     s_tail_buf[read_len] = '\0';
 412:SynaptiX_FDK/app/app.c **** 
 413:SynaptiX_FDK/app/app.c ****     int32_t end = (int32_t)read_len - 1;
 414:SynaptiX_FDK/app/app.c ****     while (end >= 0 && (s_tail_buf[end] == '\n' || s_tail_buf[end] == '\r'))
 415:SynaptiX_FDK/app/app.c ****         end--;
 416:SynaptiX_FDK/app/app.c **** 
 417:SynaptiX_FDK/app/app.c ****     int32_t start = end;
 418:SynaptiX_FDK/app/app.c ****     while (start > 0 && s_tail_buf[start - 1] != '\n')
 419:SynaptiX_FDK/app/app.c ****         start--;
 420:SynaptiX_FDK/app/app.c **** 
 421:SynaptiX_FDK/app/app.c ****     if (start > end) {
 422:SynaptiX_FDK/app/app.c ****         log_warn(TAG, "Cannot find last line");
 423:SynaptiX_FDK/app/app.c ****         return;
 424:SynaptiX_FDK/app/app.c ****     }
 425:SynaptiX_FDK/app/app.c **** 
ARM GAS  C:\Users\LENOVO\AppData\Local\Temp\ccMSvD0S.s 			page 20


 426:SynaptiX_FDK/app/app.c ****     s_tail_buf[end + 1] = '\0';
 427:SynaptiX_FDK/app/app.c ****     char *last_line = (char *)(s_tail_buf + start);
 428:SynaptiX_FDK/app/app.c ****     log_info(TAG, "Last log line: %s", last_line);
 429:SynaptiX_FDK/app/app.c **** 
 430:SynaptiX_FDK/app/app.c ****     // Parse
 431:SynaptiX_FDK/app/app.c ****     int   fix = 0, rssi = 0;
 432:SynaptiX_FDK/app/app.c ****     char  lat_str[16] = {0};
 433:SynaptiX_FDK/app/app.c ****     char  lon_str[16] = {0};
 434:SynaptiX_FDK/app/app.c ****     char  alt_str[16] = {0};
 435:SynaptiX_FDK/app/app.c ****     char  spd_str[16] = {0};
 436:SynaptiX_FDK/app/app.c ****     char  sat_str[16] = {0};
 437:SynaptiX_FDK/app/app.c ****     char  time_str[12] = {0};
 438:SynaptiX_FDK/app/app.c ****     char  date_str[12] = {0};
 439:SynaptiX_FDK/app/app.c **** 
 440:SynaptiX_FDK/app/app.c ****     int parsed = sscanf(last_line,
 441:SynaptiX_FDK/app/app.c ****                         "%*s fix=%d lat=%15s lon=%15s rssi=%d alt=%15s spd=%15s sat=%15s time=%11s 
 442:SynaptiX_FDK/app/app.c ****                         &fix, lat_str, lon_str, &rssi, alt_str, spd_str, sat_str, time_str, date_st
 443:SynaptiX_FDK/app/app.c **** 
 444:SynaptiX_FDK/app/app.c ****     if (parsed >= 3 && fix == 1) {
 445:SynaptiX_FDK/app/app.c ****         g_app.last_lat = strtof(lat_str, NULL);
 446:SynaptiX_FDK/app/app.c ****         g_app.last_lon = strtof(lon_str, NULL);
 447:SynaptiX_FDK/app/app.c ****         g_app.last_alt = (parsed >= 5) ? strtof(alt_str, NULL) : 0.0f;
 448:SynaptiX_FDK/app/app.c ****         g_app.last_spd = (parsed >= 6) ? strtof(spd_str, NULL) : 0.0f;
 449:SynaptiX_FDK/app/app.c ****         g_app.last_sat = (parsed >= 7) ? (int)strtol(sat_str, NULL, 10) : 0;
 450:SynaptiX_FDK/app/app.c ****         snprintf(g_app.last_time_str, sizeof(g_app.last_time_str), "%s", time_str);
 451:SynaptiX_FDK/app/app.c ****         snprintf(g_app.last_date_str, sizeof(g_app.last_date_str), "%s", date_str);
 452:SynaptiX_FDK/app/app.c ****         log_info(TAG, "Last GPS loaded: lat=%.6f lon=%.6f alt=%.2f spd=%.2f sat=%d time=%s date=%s"
 453:SynaptiX_FDK/app/app.c ****                 g_app.last_lat, g_app.last_lon, g_app.last_alt, g_app.last_spd, g_app.last_sat,
 454:SynaptiX_FDK/app/app.c ****                 g_app.last_time_str, g_app.last_date_str);
 455:SynaptiX_FDK/app/app.c ****     } else {
 456:SynaptiX_FDK/app/app.c ****         log_warn(TAG, "No valid fix in last log");
 457:SynaptiX_FDK/app/app.c ****     }
 458:SynaptiX_FDK/app/app.c **** }
 459:SynaptiX_FDK/app/app.c **** 
 460:SynaptiX_FDK/app/app.c **** // static void _sync_gps_log_to_disk(void)
 461:SynaptiX_FDK/app/app.c **** // {
 462:SynaptiX_FDK/app/app.c **** //     log_info(TAG, "Syncing last GPS log entry to disk...");
 463:SynaptiX_FDK/app/app.c **** 
 464:SynaptiX_FDK/app/app.c **** //     if (!sx_storage_exists(GPS_LOG_FILE_PATH))
 465:SynaptiX_FDK/app/app.c **** //     {
 466:SynaptiX_FDK/app/app.c **** //         log_warn(TAG, "No GPS log on flash");
 467:SynaptiX_FDK/app/app.c **** //         sx_user_msc_write(GPS_CSV_FILE_PATH,
 468:SynaptiX_FDK/app/app.c **** //                           (const uint8_t *)"no data\n",
 469:SynaptiX_FDK/app/app.c **** //                           strlen("no data\n"));
 470:SynaptiX_FDK/app/app.c **** //         sx_user_msc_remount_disk();
 471:SynaptiX_FDK/app/app.c **** //         return;
 472:SynaptiX_FDK/app/app.c **** //     }
 473:SynaptiX_FDK/app/app.c **** 
 474:SynaptiX_FDK/app/app.c **** //     int32_t file_size = sx_storage_size(GPS_LOG_FILE_PATH);
 475:SynaptiX_FDK/app/app.c **** //     if (file_size <= 0)
 476:SynaptiX_FDK/app/app.c **** //     {
 477:SynaptiX_FDK/app/app.c **** //         log_warn(TAG, "GPS log empty");
 478:SynaptiX_FDK/app/app.c **** //         sx_user_msc_write(GPS_CSV_FILE_PATH,
 479:SynaptiX_FDK/app/app.c **** //                           (const uint8_t *)"no data\n",
 480:SynaptiX_FDK/app/app.c **** //                           strlen("no data\n"));
 481:SynaptiX_FDK/app/app.c **** //         sx_user_msc_remount_disk();
 482:SynaptiX_FDK/app/app.c **** //         return;
ARM GAS  C:\Users\LENOVO\AppData\Local\Temp\ccMSvD0S.s 			page 21


 483:SynaptiX_FDK/app/app.c **** //     }
 484:SynaptiX_FDK/app/app.c **** 
 485:SynaptiX_FDK/app/app.c **** //     static uint8_t s_tail_buf[256];
 486:SynaptiX_FDK/app/app.c **** //     uint32_t read_len = (file_size < (int32_t)sizeof(s_tail_buf))
 487:SynaptiX_FDK/app/app.c **** //                             ? (uint32_t)file_size
 488:SynaptiX_FDK/app/app.c **** //                             : (uint32_t)sizeof(s_tail_buf) - 1;
 489:SynaptiX_FDK/app/app.c **** //     uint32_t offset = (uint32_t)file_size - read_len;
 490:SynaptiX_FDK/app/app.c **** 
 491:SynaptiX_FDK/app/app.c **** //     sx_storage_err_t err = sx_storage_read_partial(
 492:SynaptiX_FDK/app/app.c **** //         GPS_LOG_FILE_PATH,
 493:SynaptiX_FDK/app/app.c **** //         s_tail_buf,
 494:SynaptiX_FDK/app/app.c **** //         offset,
 495:SynaptiX_FDK/app/app.c **** //         read_len);
 496:SynaptiX_FDK/app/app.c **** //     if (err != SX_STORAGE_OK)
 497:SynaptiX_FDK/app/app.c **** //     {
 498:SynaptiX_FDK/app/app.c **** //         log_error(TAG, "Flash read failed");
 499:SynaptiX_FDK/app/app.c **** //         sx_user_msc_write(GPS_CSV_FILE_PATH,
 500:SynaptiX_FDK/app/app.c **** //                           (const uint8_t *)"no data\n",
 501:SynaptiX_FDK/app/app.c **** //                           strlen("no data\n"));
 502:SynaptiX_FDK/app/app.c **** //         sx_user_msc_remount_disk();
 503:SynaptiX_FDK/app/app.c **** //         return;
 504:SynaptiX_FDK/app/app.c **** //     }
 505:SynaptiX_FDK/app/app.c **** 
 506:SynaptiX_FDK/app/app.c **** //     s_tail_buf[read_len] = '\0';
 507:SynaptiX_FDK/app/app.c **** 
 508:SynaptiX_FDK/app/app.c **** //     int32_t end = (int32_t)read_len - 1;
 509:SynaptiX_FDK/app/app.c **** //     while (end >= 0 && (s_tail_buf[end] == '\n' || s_tail_buf[end] == '\r'))
 510:SynaptiX_FDK/app/app.c **** //         end--;
 511:SynaptiX_FDK/app/app.c **** 
 512:SynaptiX_FDK/app/app.c **** //     int32_t start = end;
 513:SynaptiX_FDK/app/app.c **** //     while (start > 0 && s_tail_buf[start - 1] != '\n')
 514:SynaptiX_FDK/app/app.c **** //         start--;
 515:SynaptiX_FDK/app/app.c **** 
 516:SynaptiX_FDK/app/app.c **** //     if (start > end)
 517:SynaptiX_FDK/app/app.c **** //     {
 518:SynaptiX_FDK/app/app.c **** //         log_warn(TAG, "Cannot find last line");
 519:SynaptiX_FDK/app/app.c **** //         sx_user_msc_write(GPS_CSV_FILE_PATH,
 520:SynaptiX_FDK/app/app.c **** //                           (const uint8_t *)"no data\n",
 521:SynaptiX_FDK/app/app.c **** //                           strlen("no data\n"));
 522:SynaptiX_FDK/app/app.c **** //         sx_user_msc_remount_disk();
 523:SynaptiX_FDK/app/app.c **** //         return;
 524:SynaptiX_FDK/app/app.c **** //     }
 525:SynaptiX_FDK/app/app.c **** 
 526:SynaptiX_FDK/app/app.c **** //     s_tail_buf[end + 1] = '\0';
 527:SynaptiX_FDK/app/app.c **** //     char *last_line = (char *)(s_tail_buf + start);
 528:SynaptiX_FDK/app/app.c **** //     log_info(TAG, "Last log line: %s", last_line);
 529:SynaptiX_FDK/app/app.c **** 
 530:SynaptiX_FDK/app/app.c **** //     /* --- Parse --- */
 531:SynaptiX_FDK/app/app.c **** //     int  fix  = 0;
 532:SynaptiX_FDK/app/app.c **** //     int  rssi = 0;
 533:SynaptiX_FDK/app/app.c **** //     char lat_str[16]  = {0};
 534:SynaptiX_FDK/app/app.c **** //     char lon_str[16]  = {0};
 535:SynaptiX_FDK/app/app.c **** //     char time_str[12] = {0};
 536:SynaptiX_FDK/app/app.c **** //     char date_str[12] = {0};
 537:SynaptiX_FDK/app/app.c **** 
 538:SynaptiX_FDK/app/app.c **** //     static char s_csv_line[128];
 539:SynaptiX_FDK/app/app.c **** 
ARM GAS  C:\Users\LENOVO\AppData\Local\Temp\ccMSvD0S.s 			page 22


 540:SynaptiX_FDK/app/app.c **** //     int parsed = sscanf(last_line,
 541:SynaptiX_FDK/app/app.c **** //                         "%*s fix=%d lat=%15s lon=%15s rssi=%d time=%11s date=%11s",
 542:SynaptiX_FDK/app/app.c **** //                         &fix, lat_str, lon_str, &rssi, time_str, date_str);
 543:SynaptiX_FDK/app/app.c **** 
 544:SynaptiX_FDK/app/app.c **** //     log_info(TAG, "parsed=%d fix=%d lat=%s lon=%s rssi=%d t=%s d=%s",
 545:SynaptiX_FDK/app/app.c **** //              parsed, fix, lat_str, lon_str, rssi, time_str, date_str);
 546:SynaptiX_FDK/app/app.c **** 
 547:SynaptiX_FDK/app/app.c **** //     if (parsed == 6 && fix == 1)
 548:SynaptiX_FDK/app/app.c **** //     {
 549:SynaptiX_FDK/app/app.c **** //         snprintf(s_csv_line, sizeof(s_csv_line),
 550:SynaptiX_FDK/app/app.c **** //                  "%s1,%s,%s,%d,%s,%s",
 551:SynaptiX_FDK/app/app.c **** //                  GPS_CSV_HEADER, lat_str, lon_str, rssi, time_str, date_str);
 552:SynaptiX_FDK/app/app.c **** //     }
 553:SynaptiX_FDK/app/app.c **** //     else
 554:SynaptiX_FDK/app/app.c **** //     {
 555:SynaptiX_FDK/app/app.c **** //         fix = 0; rssi = 0;
 556:SynaptiX_FDK/app/app.c **** //         memset(time_str, 0, sizeof(time_str));
 557:SynaptiX_FDK/app/app.c **** //         memset(date_str, 0, sizeof(date_str));
 558:SynaptiX_FDK/app/app.c **** 
 559:SynaptiX_FDK/app/app.c **** //         parsed = sscanf(last_line,
 560:SynaptiX_FDK/app/app.c **** //                         "%*s fix=%d rssi=%d time=%11s date=%11s",
 561:SynaptiX_FDK/app/app.c **** //                         &fix, &rssi, time_str, date_str);
 562:SynaptiX_FDK/app/app.c **** 
 563:SynaptiX_FDK/app/app.c **** //         log_info(TAG, "fix=0 parsed=%d rssi=%d t=%s d=%s",
 564:SynaptiX_FDK/app/app.c **** //                  parsed, rssi, time_str, date_str);
 565:SynaptiX_FDK/app/app.c **** 
 566:SynaptiX_FDK/app/app.c **** //         snprintf(s_csv_line, sizeof(s_csv_line),
 567:SynaptiX_FDK/app/app.c **** //                  "%s0,0.000000,0.000000,%d,%s,%s",
 568:SynaptiX_FDK/app/app.c **** //                  GPS_CSV_HEADER,
 569:SynaptiX_FDK/app/app.c **** //                  rssi,
 570:SynaptiX_FDK/app/app.c **** //                  time_str[0] ? time_str : "N/A",
 571:SynaptiX_FDK/app/app.c **** //                  date_str[0] ? date_str : "N/A");
 572:SynaptiX_FDK/app/app.c **** //     }
 573:SynaptiX_FDK/app/app.c **** 
 574:SynaptiX_FDK/app/app.c **** //     sx_user_msc_write(GPS_CSV_FILE_PATH,
 575:SynaptiX_FDK/app/app.c **** //                       (const uint8_t *)s_csv_line,
 576:SynaptiX_FDK/app/app.c **** //                       strlen(s_csv_line));
 577:SynaptiX_FDK/app/app.c **** 
 578:SynaptiX_FDK/app/app.c **** //     snprintf(lat_str, sizeof(lat_str), "%.6f", g_app.last_lat);
 579:SynaptiX_FDK/app/app.c **** //     snprintf(lon_str, sizeof(lon_str), "%.6f", g_app.last_lon);
 580:SynaptiX_FDK/app/app.c **** //     sx_user_msc_remount_disk();
 581:SynaptiX_FDK/app/app.c **** //     log_info(TAG, "GPS CSV written: %s", s_csv_line);
 582:SynaptiX_FDK/app/app.c **** // }
 583:SynaptiX_FDK/app/app.c **** 
 584:SynaptiX_FDK/app/app.c **** static void _sync_gps_log_to_disk(void)
 585:SynaptiX_FDK/app/app.c **** {
 586:SynaptiX_FDK/app/app.c ****     log_info(TAG, "Syncing last GPS log entry to disk...");
 587:SynaptiX_FDK/app/app.c **** 
 588:SynaptiX_FDK/app/app.c ****     if (!sx_storage_exists(GPS_LOG_FILE_PATH))
 589:SynaptiX_FDK/app/app.c ****     {
 590:SynaptiX_FDK/app/app.c ****         log_warn(TAG, "No GPS log on flash");
 591:SynaptiX_FDK/app/app.c ****         sx_user_msc_write(GPS_CSV_FILE_PATH,
 592:SynaptiX_FDK/app/app.c ****                           (const uint8_t *)"no data\n",
 593:SynaptiX_FDK/app/app.c ****                           strlen("no data\n"));
 594:SynaptiX_FDK/app/app.c ****         sx_user_msc_remount_disk();
 595:SynaptiX_FDK/app/app.c ****         return;
 596:SynaptiX_FDK/app/app.c ****     }
ARM GAS  C:\Users\LENOVO\AppData\Local\Temp\ccMSvD0S.s 			page 23


 597:SynaptiX_FDK/app/app.c **** 
 598:SynaptiX_FDK/app/app.c ****     read_last_gps();
 599:SynaptiX_FDK/app/app.c **** 
 600:SynaptiX_FDK/app/app.c ****     static char s_csv_line[192];
 601:SynaptiX_FDK/app/app.c **** 
 602:SynaptiX_FDK/app/app.c ****     if (g_app.last_lat != 0.0f && g_app.last_lon != 0.0f)
 603:SynaptiX_FDK/app/app.c ****     {
 604:SynaptiX_FDK/app/app.c ****         snprintf(s_csv_line, sizeof(s_csv_line),
 605:SynaptiX_FDK/app/app.c ****                 "%s1,%.6f,%.6f,%.6f,%.6f,%d,%s,%s",
 606:SynaptiX_FDK/app/app.c ****                 GPS_CSV_HEADER,
 607:SynaptiX_FDK/app/app.c ****                 g_app.last_lat, g_app.last_lon,
 608:SynaptiX_FDK/app/app.c ****                 g_app.last_alt, g_app.last_spd, g_app.last_sat,
 609:SynaptiX_FDK/app/app.c ****                 g_app.last_time_str, g_app.last_date_str);
 610:SynaptiX_FDK/app/app.c ****     }
 611:SynaptiX_FDK/app/app.c ****     else
 612:SynaptiX_FDK/app/app.c ****     {
 613:SynaptiX_FDK/app/app.c ****         snprintf(s_csv_line, sizeof(s_csv_line),
 614:SynaptiX_FDK/app/app.c ****                 "%s0,0.000000,0.000000,0.000000,0.000000,0,N/A,N/A",
 615:SynaptiX_FDK/app/app.c ****                 GPS_CSV_HEADER);
 616:SynaptiX_FDK/app/app.c ****     }
 617:SynaptiX_FDK/app/app.c **** 
 618:SynaptiX_FDK/app/app.c ****     sx_user_msc_write(GPS_CSV_FILE_PATH,
 619:SynaptiX_FDK/app/app.c ****                       (const uint8_t *)s_csv_line,
 620:SynaptiX_FDK/app/app.c ****                       strlen(s_csv_line));
 621:SynaptiX_FDK/app/app.c ****     sx_user_msc_remount_disk();
 622:SynaptiX_FDK/app/app.c ****     log_info(TAG, "GPS CSV written: %s", s_csv_line);
 623:SynaptiX_FDK/app/app.c **** }
 624:SynaptiX_FDK/app/app.c **** 
 625:SynaptiX_FDK/app/app.c **** void app_sync_gps_log_to_disk(void)
 626:SynaptiX_FDK/app/app.c **** {
 627:SynaptiX_FDK/app/app.c ****     g_app.s_sync_disk_pending = 1;
 628:SynaptiX_FDK/app/app.c **** }
 629:SynaptiX_FDK/app/app.c **** 
 630:SynaptiX_FDK/app/app.c **** void app_request_sleep(void)
 631:SynaptiX_FDK/app/app.c **** {
 632:SynaptiX_FDK/app/app.c ****     if (g_app.sleep_requested)
 633:SynaptiX_FDK/app/app.c ****         return;
 634:SynaptiX_FDK/app/app.c ****     g_app.sleep_requested = 1;
 635:SynaptiX_FDK/app/app.c ****     g_app.enter_sleep_elapsed_ms = 0;
 636:SynaptiX_FDK/app/app.c ****     g_app.enter_sleep_published = 0;
 637:SynaptiX_FDK/app/app.c ****     g_app.last_publish_done = 0;
 638:SynaptiX_FDK/app/app.c ****     g_app.publish_count = 0;
 639:SynaptiX_FDK/app/app.c ****     g_app.mqtt_stopped = 0;
 640:SynaptiX_FDK/app/app.c ****     g_app.app_mode = APP_MODE_ENTER_SLEEP;
 641:SynaptiX_FDK/app/app.c ****     log_info(TAG, "Sleep requested");
 642:SynaptiX_FDK/app/app.c **** }
 643:SynaptiX_FDK/app/app.c **** 
 644:SynaptiX_FDK/app/app.c **** static void app_read_config_file(TrackingApp_t *app)
 645:SynaptiX_FDK/app/app.c **** {
 479              		.loc 1 645 1 is_stmt 1 view -0
 480              		.cfi_startproc
 481              		@ args = 0, pretend = 0, frame = 288
 482              		@ frame_needed = 0, uses_anonymous_args = 0
 483              		.loc 1 645 1 is_stmt 0 view .LVU61
 484 0000 2DE9F047 		push	{r4, r5, r6, r7, r8, r9, r10, lr}
 485              	.LCFI7:
 486              		.cfi_def_cfa_offset 32
ARM GAS  C:\Users\LENOVO\AppData\Local\Temp\ccMSvD0S.s 			page 24


 487              		.cfi_offset 4, -32
 488              		.cfi_offset 5, -28
 489              		.cfi_offset 6, -24
 490              		.cfi_offset 7, -20
 491              		.cfi_offset 8, -16
 492              		.cfi_offset 9, -12
 493              		.cfi_offset 10, -8
 494              		.cfi_offset 14, -4
 495 0004 C8B0     		sub	sp, sp, #288
 496              	.LCFI8:
 497              		.cfi_def_cfa_offset 320
 646:SynaptiX_FDK/app/app.c ****     // Read config file to initialize MQTT config (e.g. broker address, credentials)
 647:SynaptiX_FDK/app/app.c ****     // For simplicity, we use hardcoded config in this example, but in real application, you can re
 648:SynaptiX_FDK/app/app.c ****     // and populate s_mqtt_cfg accordingly.
 649:SynaptiX_FDK/app/app.c **** 
 650:SynaptiX_FDK/app/app.c ****     int ret = sx_fatfs_remount();
 498              		.loc 1 650 5 is_stmt 1 view .LVU62
 499              		.loc 1 650 15 is_stmt 0 view .LVU63
 500 0006 FFF7FEFF 		bl	sx_fatfs_remount
 501              	.LVL16:
 502              		.loc 1 650 15 view .LVU64
 503 000a 0446     		mov	r4, r0
 504              	.LVL17:
 651:SynaptiX_FDK/app/app.c ****     sx_fatfs_debug_list();
 505              		.loc 1 651 5 is_stmt 1 view .LVU65
 506 000c FFF7FEFF 		bl	sx_fatfs_debug_list
 507              	.LVL18:
 652:SynaptiX_FDK/app/app.c ****     if (ret != 0) {
 508              		.loc 1 652 5 view .LVU66
 509              		.loc 1 652 8 is_stmt 0 view .LVU67
 510 0010 0CBB     		cbnz	r4, .L75
 653:SynaptiX_FDK/app/app.c ****         log_warn("AppCfg", "FatFS remount failed (%d) — using default config", ret);
 654:SynaptiX_FDK/app/app.c ****         _apply_default_config(&s_mqtt_cfg);
 655:SynaptiX_FDK/app/app.c ****         return;
 656:SynaptiX_FDK/app/app.c ****     }
 657:SynaptiX_FDK/app/app.c **** 
 658:SynaptiX_FDK/app/app.c ****     FILINFO fno;
 511              		.loc 1 658 5 is_stmt 1 view .LVU68
 659:SynaptiX_FDK/app/app.c ****     FRESULT fres = f_stat("0:/config.json", &fno);
 512              		.loc 1 659 5 view .LVU69
 513              		.loc 1 659 20 is_stmt 0 view .LVU70
 514 0012 02A9     		add	r1, sp, #8
 515 0014 A348     		ldr	r0, .L85
 516 0016 FFF7FEFF 		bl	f_stat
 517              	.LVL19:
 660:SynaptiX_FDK/app/app.c ****     if (fres != FR_OK) {
 518              		.loc 1 660 5 is_stmt 1 view .LVU71
 519              		.loc 1 660 8 is_stmt 0 view .LVU72
 520 001a 0346     		mov	r3, r0
 521 001c 38BB     		cbnz	r0, .L76
 661:SynaptiX_FDK/app/app.c ****         log_warn("AppCfg", "config.json not found (f_stat=%d) — using default config", fres);
 662:SynaptiX_FDK/app/app.c ****         _apply_default_config(&s_mqtt_cfg);
 663:SynaptiX_FDK/app/app.c ****         return;
 664:SynaptiX_FDK/app/app.c ****     }
 665:SynaptiX_FDK/app/app.c ****     log_info("AppCfg", "config.json found, size=%lu bytes", fno.fsize);
 522              		.loc 1 665 5 is_stmt 1 view .LVU73
 523 001e 029B     		ldr	r3, [sp, #8]
ARM GAS  C:\Users\LENOVO\AppData\Local\Temp\ccMSvD0S.s 			page 25


 524 0020 A14A     		ldr	r2, .L85+4
 525 0022 A249     		ldr	r1, .L85+8
 526 0024 0320     		movs	r0, #3
 527              	.LVL20:
 528              		.loc 1 665 5 is_stmt 0 view .LVU74
 529 0026 FFF7FEFF 		bl	log_func
 530              	.LVL21:
 666:SynaptiX_FDK/app/app.c **** 
 667:SynaptiX_FDK/app/app.c ****     /*  3. read content file  */
 668:SynaptiX_FDK/app/app.c ****     uint32_t out_len = 0;
 531              		.loc 1 668 5 is_stmt 1 view .LVU75
 532              		.loc 1 668 14 is_stmt 0 view .LVU76
 533 002a 0023     		movs	r3, #0
 534 002c 0193     		str	r3, [sp, #4]
 669:SynaptiX_FDK/app/app.c ****     sx_user_msc_err_t err = sx_user_msc_read(
 535              		.loc 1 669 5 is_stmt 1 view .LVU77
 536              		.loc 1 669 29 is_stmt 0 view .LVU78
 537 002e 01AB     		add	r3, sp, #4
 538 0030 40F2FF12 		movw	r2, #511
 539 0034 9E49     		ldr	r1, .L85+12
 540 0036 9B48     		ldr	r0, .L85
 541 0038 FFF7FEFF 		bl	sx_user_msc_read
 542              	.LVL22:
 670:SynaptiX_FDK/app/app.c ****         "0:/config.json",
 671:SynaptiX_FDK/app/app.c ****         config_json.s_cfg_buf,
 672:SynaptiX_FDK/app/app.c ****         sizeof(config_json.s_cfg_buf) - 1,
 673:SynaptiX_FDK/app/app.c ****         &out_len
 674:SynaptiX_FDK/app/app.c ****     );
 675:SynaptiX_FDK/app/app.c ****     if (err != SX_USER_MSC_OK || out_len == 0) {
 543              		.loc 1 675 5 is_stmt 1 view .LVU79
 544              		.loc 1 675 8 is_stmt 0 view .LVU80
 545 003c 0346     		mov	r3, r0
 546 003e 08B9     		cbnz	r0, .L37
 547              		.loc 1 675 42 discriminator 1 view .LVU81
 548 0040 019A     		ldr	r2, [sp, #4]
 549              		.loc 1 675 31 discriminator 1 view .LVU82
 550 0042 EAB9     		cbnz	r2, .L38
 551              	.L37:
 676:SynaptiX_FDK/app/app.c ****         log_error("AppCfg", "Read config.json failed (err=%d) — using default config", err);
 552              		.loc 1 676 9 is_stmt 1 view .LVU83
 553 0044 9B4A     		ldr	r2, .L85+16
 554 0046 9949     		ldr	r1, .L85+8
 555 0048 0120     		movs	r0, #1
 556              	.LVL23:
 557              		.loc 1 676 9 is_stmt 0 view .LVU84
 558 004a FFF7FEFF 		bl	log_func
 559              	.LVL24:
 677:SynaptiX_FDK/app/app.c ****         _apply_default_config(&s_mqtt_cfg);
 560              		.loc 1 677 9 is_stmt 1 view .LVU85
 561 004e 9A48     		ldr	r0, .L85+20
 562 0050 FFF7FEFF 		bl	_apply_default_config
 563              	.LVL25:
 678:SynaptiX_FDK/app/app.c ****         return;
 564              		.loc 1 678 9 view .LVU86
 565 0054 08E0     		b	.L33
 566              	.LVL26:
 567              	.L75:
ARM GAS  C:\Users\LENOVO\AppData\Local\Temp\ccMSvD0S.s 			page 26


 653:SynaptiX_FDK/app/app.c ****         _apply_default_config(&s_mqtt_cfg);
 568              		.loc 1 653 9 view .LVU87
 569 0056 2346     		mov	r3, r4
 570 0058 984A     		ldr	r2, .L85+24
 571 005a 9449     		ldr	r1, .L85+8
 572 005c 0220     		movs	r0, #2
 573 005e FFF7FEFF 		bl	log_func
 574              	.LVL27:
 654:SynaptiX_FDK/app/app.c ****         return;
 575              		.loc 1 654 9 view .LVU88
 576 0062 9548     		ldr	r0, .L85+20
 577 0064 FFF7FEFF 		bl	_apply_default_config
 578              	.LVL28:
 655:SynaptiX_FDK/app/app.c ****     }
 579              		.loc 1 655 9 view .LVU89
 580              	.L33:
 679:SynaptiX_FDK/app/app.c ****     }
 680:SynaptiX_FDK/app/app.c ****     config_json.s_cfg_buf[out_len] = '\0';
 681:SynaptiX_FDK/app/app.c ****     log_info("AppCfg", "cfg.json content: %s", (char *)config_json.s_cfg_buf);
 682:SynaptiX_FDK/app/app.c **** 
 683:SynaptiX_FDK/app/app.c ****     /*  4. Parse JSON  */
 684:SynaptiX_FDK/app/app.c ****     cJSON *root = cJSON_Parse((const char *)config_json.s_cfg_buf);
 685:SynaptiX_FDK/app/app.c ****     if (root == NULL) {
 686:SynaptiX_FDK/app/app.c ****         log_error("AppCfg", "JSON parse failed — using default config");
 687:SynaptiX_FDK/app/app.c ****         _apply_default_config(&s_mqtt_cfg);
 688:SynaptiX_FDK/app/app.c ****         return;
 689:SynaptiX_FDK/app/app.c ****     }
 690:SynaptiX_FDK/app/app.c **** 
 691:SynaptiX_FDK/app/app.c ****     /*  5. APN  */
 692:SynaptiX_FDK/app/app.c ****     cJSON *apn = cJSON_GetObjectItem(root, "apn");
 693:SynaptiX_FDK/app/app.c ****     if (apn) {
 694:SynaptiX_FDK/app/app.c ****         cJSON *name = cJSON_GetObjectItem(apn, "name");
 695:SynaptiX_FDK/app/app.c ****         cJSON *user = cJSON_GetObjectItem(apn, "user");
 696:SynaptiX_FDK/app/app.c ****         cJSON *pass = cJSON_GetObjectItem(apn, "password");
 697:SynaptiX_FDK/app/app.c **** 
 698:SynaptiX_FDK/app/app.c ****         log_info("AppCfg", "APN name    : %s", (!name || cJSON_IsNull(name))   ? "NULL" : name->val
 699:SynaptiX_FDK/app/app.c ****         log_info("AppCfg", "APN user    : %s", (!user || cJSON_IsNull(user))   ? "NULL" : user->val
 700:SynaptiX_FDK/app/app.c ****         log_info("AppCfg", "APN pass    : %s", (!pass || cJSON_IsNull(pass))   ? "NULL" : pass->val
 701:SynaptiX_FDK/app/app.c **** 
 702:SynaptiX_FDK/app/app.c ****         if (name && !cJSON_IsNull(name) && name->valuestring) {
 703:SynaptiX_FDK/app/app.c ****             strncpy(config_json.s_apn_name, name->valuestring, sizeof(config_json.s_apn_name) - 1);
 704:SynaptiX_FDK/app/app.c ****             strncpy(s_mqtt_cfg.apn, config_json.s_apn_name, sizeof(s_mqtt_cfg.apn) - 1);
 705:SynaptiX_FDK/app/app.c ****         }
 706:SynaptiX_FDK/app/app.c ****     } else {
 707:SynaptiX_FDK/app/app.c ****         log_warn("AppCfg", "No 'apn' field in config");
 708:SynaptiX_FDK/app/app.c ****     }
 709:SynaptiX_FDK/app/app.c **** 
 710:SynaptiX_FDK/app/app.c ****     /*  6. MQTT  */
 711:SynaptiX_FDK/app/app.c ****     cJSON *mqtt = cJSON_GetObjectItem(root, "mqtt");
 712:SynaptiX_FDK/app/app.c ****     if (mqtt) {
 713:SynaptiX_FDK/app/app.c ****         cJSON *host      = cJSON_GetObjectItem(mqtt, "host");
 714:SynaptiX_FDK/app/app.c ****         cJSON *port      = cJSON_GetObjectItem(mqtt, "port");
 715:SynaptiX_FDK/app/app.c ****         cJSON *client_id = cJSON_GetObjectItem(mqtt, "client_id");
 716:SynaptiX_FDK/app/app.c ****         cJSON *user      = cJSON_GetObjectItem(mqtt, "user_name");
 717:SynaptiX_FDK/app/app.c ****         cJSON *pass      = cJSON_GetObjectItem(mqtt, "password");
 718:SynaptiX_FDK/app/app.c **** 
 719:SynaptiX_FDK/app/app.c ****         log_info("AppCfg", "MQTT host     : %s", (host && host->valuestring)           ? host->valu
ARM GAS  C:\Users\LENOVO\AppData\Local\Temp\ccMSvD0S.s 			page 27


 720:SynaptiX_FDK/app/app.c ****         log_info("AppCfg", "MQTT port     : %d", port                                  ? port->valu
 721:SynaptiX_FDK/app/app.c ****         log_info("AppCfg", "MQTT client_id: %s", (client_id && client_id->valuestring) ? client_id-
 722:SynaptiX_FDK/app/app.c ****         log_info("AppCfg", "MQTT user     : %s", (user && user->valuestring)            ? user->val
 723:SynaptiX_FDK/app/app.c ****         log_info("AppCfg", "MQTT pass     : %s", (pass && pass->valuestring)            ? pass->val
 724:SynaptiX_FDK/app/app.c **** 
 725:SynaptiX_FDK/app/app.c ****         if (host && host->valuestring) {
 726:SynaptiX_FDK/app/app.c ****             strncpy(config_json.s_mqtt_host, host->valuestring, sizeof(config_json.s_mqtt_host) - 1
 727:SynaptiX_FDK/app/app.c ****             s_mqtt_cfg.broker = config_json.s_mqtt_host;
 728:SynaptiX_FDK/app/app.c ****         }
 729:SynaptiX_FDK/app/app.c ****         if (port) {
 730:SynaptiX_FDK/app/app.c ****             s_mqtt_cfg.port = (uint16_t)port->valueint;
 731:SynaptiX_FDK/app/app.c ****         }
 732:SynaptiX_FDK/app/app.c ****         if (client_id && client_id->valuestring) {
 733:SynaptiX_FDK/app/app.c ****             strncpy(config_json.s_mqtt_client_id, client_id->valuestring, sizeof(config_json.s_mqtt
 734:SynaptiX_FDK/app/app.c ****             s_mqtt_cfg.client_id = config_json.s_mqtt_client_id;
 735:SynaptiX_FDK/app/app.c ****         }
 736:SynaptiX_FDK/app/app.c ****         if (user && user->valuestring) {
 737:SynaptiX_FDK/app/app.c ****             strncpy(config_json.s_mqtt_user, user->valuestring, sizeof(config_json.s_mqtt_user) - 1
 738:SynaptiX_FDK/app/app.c ****             s_mqtt_cfg.username = config_json.s_mqtt_user;
 739:SynaptiX_FDK/app/app.c ****         }
 740:SynaptiX_FDK/app/app.c ****         if (pass && pass->valuestring) {
 741:SynaptiX_FDK/app/app.c ****             strncpy(config_json.s_mqtt_pass, pass->valuestring, sizeof(config_json.s_mqtt_pass) - 1
 742:SynaptiX_FDK/app/app.c ****             s_mqtt_cfg.password = config_json.s_mqtt_pass;
 743:SynaptiX_FDK/app/app.c ****         }
 744:SynaptiX_FDK/app/app.c ****     } else {
 745:SynaptiX_FDK/app/app.c ****         log_warn("AppCfg", "No 'mqtt' field in config — using default MQTT config");
 746:SynaptiX_FDK/app/app.c ****     }
 747:SynaptiX_FDK/app/app.c **** 
 748:SynaptiX_FDK/app/app.c ****     /* 7. time_sleeps  */
 749:SynaptiX_FDK/app/app.c ****     cJSON *sleep_t = cJSON_GetObjectItem(root, "time_sleeps");
 750:SynaptiX_FDK/app/app.c ****     if (sleep_t && cJSON_IsNumber(sleep_t) && sleep_t->valueint > 0) {
 751:SynaptiX_FDK/app/app.c ****         config_json.time_sleep_ms = (uint32_t)sleep_t->valueint * 1000U;
 752:SynaptiX_FDK/app/app.c ****         log_info("AppCfg", "time_sleeps loaded: %lu ms", config_json.time_sleep_ms);
 753:SynaptiX_FDK/app/app.c ****     } else {
 754:SynaptiX_FDK/app/app.c ****         log_warn("AppCfg", "No valid 'time_sleeps' — using default %lu ms",
 755:SynaptiX_FDK/app/app.c ****                 config_json.time_sleep_ms);
 756:SynaptiX_FDK/app/app.c ****     }
 757:SynaptiX_FDK/app/app.c **** 
 758:SynaptiX_FDK/app/app.c ****     /* 8. Device ID */
 759:SynaptiX_FDK/app/app.c ****     cJSON *device_t = cJSON_GetObjectItem(root, "device_id");
 760:SynaptiX_FDK/app/app.c ****     log_info("AppCfg", "Device ID     : %s", (device_t && device_t->valuestring) ? device_t->values
 761:SynaptiX_FDK/app/app.c ****     if (device_t && device_t->valuestring) {
 762:SynaptiX_FDK/app/app.c ****         strncpy(config_json.s_device_name, device_t->valuestring, sizeof(config_json.s_device_name)
 763:SynaptiX_FDK/app/app.c ****         strncpy(g_app.device_name, config_json.s_device_name, sizeof(g_app.device_name) - 1);
 764:SynaptiX_FDK/app/app.c ****     }
 765:SynaptiX_FDK/app/app.c **** 
 766:SynaptiX_FDK/app/app.c ****     cJSON *time_pub_t = cJSON_GetObjectItem(root, "time_publish");
 767:SynaptiX_FDK/app/app.c ****     if (time_pub_t && cJSON_IsNumber(time_pub_t) && time_pub_t->valueint > 0) {
 768:SynaptiX_FDK/app/app.c ****         config_json.s_time_publish = (uint32_t)time_pub_t->valueint * 1000U;
 769:SynaptiX_FDK/app/app.c ****         log_info("AppCfg", "time_publish loaded: %lu ms", config_json.s_time_publish);
 770:SynaptiX_FDK/app/app.c ****     } else {
 771:SynaptiX_FDK/app/app.c ****         log_warn("AppCfg", "No valid 'time_publish' — using default %lu ms",
 772:SynaptiX_FDK/app/app.c ****                 config_json.s_time_publish);
 773:SynaptiX_FDK/app/app.c ****     }
 774:SynaptiX_FDK/app/app.c **** 
 775:SynaptiX_FDK/app/app.c ****     cJSON_Delete(root);
 776:SynaptiX_FDK/app/app.c ****     log_info("AppCfg", "Config loaded OK");
ARM GAS  C:\Users\LENOVO\AppData\Local\Temp\ccMSvD0S.s 			page 28


 777:SynaptiX_FDK/app/app.c ****     
 778:SynaptiX_FDK/app/app.c ****     /*
 779:SynaptiX_FDK/app/app.c ****     Crete a default config file if it doesn't exist, or if parsing failed. This is optional and can
 780:SynaptiX_FDK/app/app.c ****     create_default_config_file:
 781:SynaptiX_FDK/app/app.c ****         // Create a JSON object with default config values
 782:SynaptiX_FDK/app/app.c ****         // goto application init again to read the newly created config file
 783:SynaptiX_FDK/app/app.c ****     */
 784:SynaptiX_FDK/app/app.c **** }
 581              		.loc 1 784 1 is_stmt 0 view .LVU90
 582 0068 48B0     		add	sp, sp, #288
 583              	.LCFI9:
 584              		.cfi_remember_state
 585              		.cfi_def_cfa_offset 32
 586              		@ sp needed
 587 006a BDE8F087 		pop	{r4, r5, r6, r7, r8, r9, r10, pc}
 588              	.LVL29:
 589              	.L76:
 590              	.LCFI10:
 591              		.cfi_restore_state
 661:SynaptiX_FDK/app/app.c ****         _apply_default_config(&s_mqtt_cfg);
 592              		.loc 1 661 9 is_stmt 1 view .LVU91
 593 006e 944A     		ldr	r2, .L85+28
 594 0070 8E49     		ldr	r1, .L85+8
 595 0072 0220     		movs	r0, #2
 596              	.LVL30:
 661:SynaptiX_FDK/app/app.c ****         _apply_default_config(&s_mqtt_cfg);
 597              		.loc 1 661 9 is_stmt 0 view .LVU92
 598 0074 FFF7FEFF 		bl	log_func
 599              	.LVL31:
 662:SynaptiX_FDK/app/app.c ****         return;
 600              		.loc 1 662 9 is_stmt 1 view .LVU93
 601 0078 8F48     		ldr	r0, .L85+20
 602 007a FFF7FEFF 		bl	_apply_default_config
 603              	.LVL32:
 663:SynaptiX_FDK/app/app.c ****     }
 604              		.loc 1 663 9 view .LVU94
 605 007e F3E7     		b	.L33
 606              	.LVL33:
 607              	.L38:
 680:SynaptiX_FDK/app/app.c ****     log_info("AppCfg", "cfg.json content: %s", (char *)config_json.s_cfg_buf);
 608              		.loc 1 680 5 view .LVU95
 680:SynaptiX_FDK/app/app.c ****     log_info("AppCfg", "cfg.json content: %s", (char *)config_json.s_cfg_buf);
 609              		.loc 1 680 36 is_stmt 0 view .LVU96
 610 0080 8B4D     		ldr	r5, .L85+12
 611 0082 0023     		movs	r3, #0
 612 0084 AB54     		strb	r3, [r5, r2]
 681:SynaptiX_FDK/app/app.c **** 
 613              		.loc 1 681 5 is_stmt 1 view .LVU97
 614 0086 2B46     		mov	r3, r5
 615 0088 8E4A     		ldr	r2, .L85+32
 616 008a 8849     		ldr	r1, .L85+8
 617 008c 0320     		movs	r0, #3
 618              	.LVL34:
 681:SynaptiX_FDK/app/app.c **** 
 619              		.loc 1 681 5 is_stmt 0 view .LVU98
 620 008e FFF7FEFF 		bl	log_func
 621              	.LVL35:
ARM GAS  C:\Users\LENOVO\AppData\Local\Temp\ccMSvD0S.s 			page 29


 684:SynaptiX_FDK/app/app.c ****     if (root == NULL) {
 622              		.loc 1 684 5 is_stmt 1 view .LVU99
 684:SynaptiX_FDK/app/app.c ****     if (root == NULL) {
 623              		.loc 1 684 19 is_stmt 0 view .LVU100
 624 0092 2846     		mov	r0, r5
 625 0094 FFF7FEFF 		bl	cJSON_Parse
 626              	.LVL36:
 685:SynaptiX_FDK/app/app.c ****         log_error("AppCfg", "JSON parse failed — using default config");
 627              		.loc 1 685 5 is_stmt 1 view .LVU101
 685:SynaptiX_FDK/app/app.c ****         log_error("AppCfg", "JSON parse failed — using default config");
 628              		.loc 1 685 8 is_stmt 0 view .LVU102
 629 0098 0546     		mov	r5, r0
 630 009a D0B1     		cbz	r0, .L77
 692:SynaptiX_FDK/app/app.c ****     if (apn) {
 631              		.loc 1 692 5 is_stmt 1 view .LVU103
 692:SynaptiX_FDK/app/app.c ****     if (apn) {
 632              		.loc 1 692 18 is_stmt 0 view .LVU104
 633 009c 8A49     		ldr	r1, .L85+36
 634 009e FFF7FEFF 		bl	cJSON_GetObjectItem
 635              	.LVL37:
 693:SynaptiX_FDK/app/app.c ****         cJSON *name = cJSON_GetObjectItem(apn, "name");
 636              		.loc 1 693 5 is_stmt 1 view .LVU105
 693:SynaptiX_FDK/app/app.c ****         cJSON *name = cJSON_GetObjectItem(apn, "name");
 637              		.loc 1 693 8 is_stmt 0 view .LVU106
 638 00a2 0746     		mov	r7, r0
 639 00a4 0028     		cmp	r0, #0
 640 00a6 58D0     		beq	.L40
 641              	.LBB25:
 694:SynaptiX_FDK/app/app.c ****         cJSON *user = cJSON_GetObjectItem(apn, "user");
 642              		.loc 1 694 9 is_stmt 1 view .LVU107
 694:SynaptiX_FDK/app/app.c ****         cJSON *user = cJSON_GetObjectItem(apn, "user");
 643              		.loc 1 694 23 is_stmt 0 view .LVU108
 644 00a8 8849     		ldr	r1, .L85+40
 645 00aa FFF7FEFF 		bl	cJSON_GetObjectItem
 646              	.LVL38:
 694:SynaptiX_FDK/app/app.c ****         cJSON *user = cJSON_GetObjectItem(apn, "user");
 647              		.loc 1 694 23 view .LVU109
 648 00ae 0646     		mov	r6, r0
 649              	.LVL39:
 695:SynaptiX_FDK/app/app.c ****         cJSON *pass = cJSON_GetObjectItem(apn, "password");
 650              		.loc 1 695 9 is_stmt 1 view .LVU110
 695:SynaptiX_FDK/app/app.c ****         cJSON *pass = cJSON_GetObjectItem(apn, "password");
 651              		.loc 1 695 23 is_stmt 0 view .LVU111
 652 00b0 8749     		ldr	r1, .L85+44
 653 00b2 3846     		mov	r0, r7
 654              	.LVL40:
 695:SynaptiX_FDK/app/app.c ****         cJSON *pass = cJSON_GetObjectItem(apn, "password");
 655              		.loc 1 695 23 view .LVU112
 656 00b4 FFF7FEFF 		bl	cJSON_GetObjectItem
 657              	.LVL41:
 658 00b8 8046     		mov	r8, r0
 659              	.LVL42:
 696:SynaptiX_FDK/app/app.c **** 
 660              		.loc 1 696 9 is_stmt 1 view .LVU113
 696:SynaptiX_FDK/app/app.c **** 
 661              		.loc 1 696 23 is_stmt 0 view .LVU114
 662 00ba 8649     		ldr	r1, .L85+48
ARM GAS  C:\Users\LENOVO\AppData\Local\Temp\ccMSvD0S.s 			page 30


 663 00bc 3846     		mov	r0, r7
 664              	.LVL43:
 696:SynaptiX_FDK/app/app.c **** 
 665              		.loc 1 696 23 view .LVU115
 666 00be FFF7FEFF 		bl	cJSON_GetObjectItem
 667              	.LVL44:
 668 00c2 0746     		mov	r7, r0
 669              	.LVL45:
 698:SynaptiX_FDK/app/app.c ****         log_info("AppCfg", "APN user    : %s", (!user || cJSON_IsNull(user))   ? "NULL" : user->val
 670              		.loc 1 698 9 is_stmt 1 view .LVU116
 671 00c4 76B1     		cbz	r6, .L63
 698:SynaptiX_FDK/app/app.c ****         log_info("AppCfg", "APN user    : %s", (!user || cJSON_IsNull(user))   ? "NULL" : user->val
 672              		.loc 1 698 9 is_stmt 0 discriminator 1 view .LVU117
 673 00c6 3046     		mov	r0, r6
 674              	.LVL46:
 698:SynaptiX_FDK/app/app.c ****         log_info("AppCfg", "APN user    : %s", (!user || cJSON_IsNull(user))   ? "NULL" : user->val
 675              		.loc 1 698 9 discriminator 1 view .LVU118
 676 00c8 FFF7FEFF 		bl	cJSON_IsNull
 677              	.LVL47:
 678 00cc D0B9     		cbnz	r0, .L64
 698:SynaptiX_FDK/app/app.c ****         log_info("AppCfg", "APN user    : %s", (!user || cJSON_IsNull(user))   ? "NULL" : user->val
 679              		.loc 1 698 9 discriminator 3 view .LVU119
 680 00ce 3369     		ldr	r3, [r6, #16]
 698:SynaptiX_FDK/app/app.c ****         log_info("AppCfg", "APN user    : %s", (!user || cJSON_IsNull(user))   ? "NULL" : user->val
 681              		.loc 1 698 9 view .LVU120
 682 00d0 09E0     		b	.L41
 683              	.LVL48:
 684              	.L77:
 698:SynaptiX_FDK/app/app.c ****         log_info("AppCfg", "APN user    : %s", (!user || cJSON_IsNull(user))   ? "NULL" : user->val
 685              		.loc 1 698 9 view .LVU121
 686              	.LBE25:
 686:SynaptiX_FDK/app/app.c ****         _apply_default_config(&s_mqtt_cfg);
 687              		.loc 1 686 9 is_stmt 1 view .LVU122
 688 00d2 814A     		ldr	r2, .L85+52
 689 00d4 7549     		ldr	r1, .L85+8
 690 00d6 0120     		movs	r0, #1
 691              	.LVL49:
 686:SynaptiX_FDK/app/app.c ****         _apply_default_config(&s_mqtt_cfg);
 692              		.loc 1 686 9 is_stmt 0 view .LVU123
 693 00d8 FFF7FEFF 		bl	log_func
 694              	.LVL50:
 687:SynaptiX_FDK/app/app.c ****         return;
 695              		.loc 1 687 9 is_stmt 1 view .LVU124
 696 00dc 7648     		ldr	r0, .L85+20
 697 00de FFF7FEFF 		bl	_apply_default_config
 698              	.LVL51:
 688:SynaptiX_FDK/app/app.c ****     }
 699              		.loc 1 688 9 view .LVU125
 700 00e2 C1E7     		b	.L33
 701              	.LVL52:
 702              	.L63:
 703              	.LBB26:
 698:SynaptiX_FDK/app/app.c ****         log_info("AppCfg", "APN user    : %s", (!user || cJSON_IsNull(user))   ? "NULL" : user->val
 704              		.loc 1 698 9 is_stmt 0 discriminator 4 view .LVU126
 705 00e4 7D4B     		ldr	r3, .L85+56
 706              	.LVL53:
 707              	.L41:
ARM GAS  C:\Users\LENOVO\AppData\Local\Temp\ccMSvD0S.s 			page 31


 698:SynaptiX_FDK/app/app.c ****         log_info("AppCfg", "APN user    : %s", (!user || cJSON_IsNull(user))   ? "NULL" : user->val
 708              		.loc 1 698 9 discriminator 6 view .LVU127
 709 00e6 7E4A     		ldr	r2, .L85+60
 710 00e8 7049     		ldr	r1, .L85+8
 711 00ea 0320     		movs	r0, #3
 712 00ec FFF7FEFF 		bl	log_func
 713              	.LVL54:
 699:SynaptiX_FDK/app/app.c ****         log_info("AppCfg", "APN pass    : %s", (!pass || cJSON_IsNull(pass))   ? "NULL" : pass->val
 714              		.loc 1 699 9 is_stmt 1 view .LVU128
 715 00f0 B8F1000F 		cmp	r8, #0
 716 00f4 08D0     		beq	.L65
 699:SynaptiX_FDK/app/app.c ****         log_info("AppCfg", "APN pass    : %s", (!pass || cJSON_IsNull(pass))   ? "NULL" : pass->val
 717              		.loc 1 699 9 is_stmt 0 discriminator 1 view .LVU129
 718 00f6 4046     		mov	r0, r8
 719 00f8 FFF7FEFF 		bl	cJSON_IsNull
 720              	.LVL55:
 721 00fc 88B9     		cbnz	r0, .L66
 699:SynaptiX_FDK/app/app.c ****         log_info("AppCfg", "APN pass    : %s", (!pass || cJSON_IsNull(pass))   ? "NULL" : pass->val
 722              		.loc 1 699 9 discriminator 3 view .LVU130
 723 00fe D8F81030 		ldr	r3, [r8, #16]
 699:SynaptiX_FDK/app/app.c ****         log_info("AppCfg", "APN pass    : %s", (!pass || cJSON_IsNull(pass))   ? "NULL" : pass->val
 724              		.loc 1 699 9 view .LVU131
 725 0102 02E0     		b	.L42
 726              	.L64:
 698:SynaptiX_FDK/app/app.c ****         log_info("AppCfg", "APN user    : %s", (!user || cJSON_IsNull(user))   ? "NULL" : user->val
 727              		.loc 1 698 9 discriminator 4 view .LVU132
 728 0104 754B     		ldr	r3, .L85+56
 729 0106 EEE7     		b	.L41
 730              	.L65:
 699:SynaptiX_FDK/app/app.c ****         log_info("AppCfg", "APN pass    : %s", (!pass || cJSON_IsNull(pass))   ? "NULL" : pass->val
 731              		.loc 1 699 9 discriminator 4 view .LVU133
 732 0108 744B     		ldr	r3, .L85+56
 733              	.L42:
 699:SynaptiX_FDK/app/app.c ****         log_info("AppCfg", "APN pass    : %s", (!pass || cJSON_IsNull(pass))   ? "NULL" : pass->val
 734              		.loc 1 699 9 discriminator 6 view .LVU134
 735 010a 764A     		ldr	r2, .L85+64
 736 010c 6749     		ldr	r1, .L85+8
 737 010e 0320     		movs	r0, #3
 738 0110 FFF7FEFF 		bl	log_func
 739              	.LVL56:
 700:SynaptiX_FDK/app/app.c **** 
 740              		.loc 1 700 9 is_stmt 1 view .LVU135
 741 0114 3FB1     		cbz	r7, .L67
 700:SynaptiX_FDK/app/app.c **** 
 742              		.loc 1 700 9 is_stmt 0 discriminator 1 view .LVU136
 743 0116 3846     		mov	r0, r7
 744 0118 FFF7FEFF 		bl	cJSON_IsNull
 745              	.LVL57:
 746 011c D8B9     		cbnz	r0, .L68
 700:SynaptiX_FDK/app/app.c **** 
 747              		.loc 1 700 9 discriminator 3 view .LVU137
 748 011e 3B69     		ldr	r3, [r7, #16]
 700:SynaptiX_FDK/app/app.c **** 
 749              		.loc 1 700 9 view .LVU138
 750 0120 02E0     		b	.L43
 751              	.L66:
 699:SynaptiX_FDK/app/app.c ****         log_info("AppCfg", "APN pass    : %s", (!pass || cJSON_IsNull(pass))   ? "NULL" : pass->val
ARM GAS  C:\Users\LENOVO\AppData\Local\Temp\ccMSvD0S.s 			page 32


 752              		.loc 1 699 9 discriminator 4 view .LVU139
 753 0122 6E4B     		ldr	r3, .L85+56
 754 0124 F1E7     		b	.L42
 755              	.L67:
 700:SynaptiX_FDK/app/app.c **** 
 756              		.loc 1 700 9 discriminator 4 view .LVU140
 757 0126 6D4B     		ldr	r3, .L85+56
 758              	.L43:
 700:SynaptiX_FDK/app/app.c **** 
 759              		.loc 1 700 9 discriminator 6 view .LVU141
 760 0128 6F4A     		ldr	r2, .L85+68
 761 012a 6049     		ldr	r1, .L85+8
 762 012c 0320     		movs	r0, #3
 763 012e FFF7FEFF 		bl	log_func
 764              	.LVL58:
 702:SynaptiX_FDK/app/app.c ****             strncpy(config_json.s_apn_name, name->valuestring, sizeof(config_json.s_apn_name) - 1);
 765              		.loc 1 702 9 is_stmt 1 view .LVU142
 702:SynaptiX_FDK/app/app.c ****             strncpy(config_json.s_apn_name, name->valuestring, sizeof(config_json.s_apn_name) - 1);
 766              		.loc 1 702 12 is_stmt 0 view .LVU143
 767 0132 BEB1     		cbz	r6, .L44
 702:SynaptiX_FDK/app/app.c ****             strncpy(config_json.s_apn_name, name->valuestring, sizeof(config_json.s_apn_name) - 1);
 768              		.loc 1 702 22 discriminator 1 view .LVU144
 769 0134 3046     		mov	r0, r6
 770 0136 FFF7FEFF 		bl	cJSON_IsNull
 771              	.LVL59:
 702:SynaptiX_FDK/app/app.c ****             strncpy(config_json.s_apn_name, name->valuestring, sizeof(config_json.s_apn_name) - 1);
 772              		.loc 1 702 18 discriminator 1 view .LVU145
 773 013a 98B9     		cbnz	r0, .L44
 702:SynaptiX_FDK/app/app.c ****             strncpy(config_json.s_apn_name, name->valuestring, sizeof(config_json.s_apn_name) - 1);
 774              		.loc 1 702 48 discriminator 2 view .LVU146
 775 013c 3169     		ldr	r1, [r6, #16]
 702:SynaptiX_FDK/app/app.c ****             strncpy(config_json.s_apn_name, name->valuestring, sizeof(config_json.s_apn_name) - 1);
 776              		.loc 1 702 41 discriminator 2 view .LVU147
 777 013e 89B1     		cbz	r1, .L44
 703:SynaptiX_FDK/app/app.c ****             strncpy(s_mqtt_cfg.apn, config_json.s_apn_name, sizeof(s_mqtt_cfg.apn) - 1);
 778              		.loc 1 703 13 is_stmt 1 view .LVU148
 779 0140 6A4E     		ldr	r6, .L85+72
 780              	.LVL60:
 703:SynaptiX_FDK/app/app.c ****             strncpy(s_mqtt_cfg.apn, config_json.s_apn_name, sizeof(s_mqtt_cfg.apn) - 1);
 781              		.loc 1 703 13 is_stmt 0 view .LVU149
 782 0142 1F22     		movs	r2, #31
 783 0144 3046     		mov	r0, r6
 784 0146 FFF7FEFF 		bl	strncpy
 785              	.LVL61:
 704:SynaptiX_FDK/app/app.c ****         }
 786              		.loc 1 704 13 is_stmt 1 view .LVU150
 787 014a 1322     		movs	r2, #19
 788 014c 3146     		mov	r1, r6
 789 014e 5A48     		ldr	r0, .L85+20
 790 0150 FFF7FEFF 		bl	strncpy
 791              	.LVL62:
 792 0154 06E0     		b	.L44
 793              	.LVL63:
 794              	.L68:
 700:SynaptiX_FDK/app/app.c **** 
 795              		.loc 1 700 9 is_stmt 0 discriminator 4 view .LVU151
 796 0156 614B     		ldr	r3, .L85+56
ARM GAS  C:\Users\LENOVO\AppData\Local\Temp\ccMSvD0S.s 			page 33


 797 0158 E6E7     		b	.L43
 798              	.LVL64:
 799              	.L40:
 700:SynaptiX_FDK/app/app.c **** 
 800              		.loc 1 700 9 discriminator 4 view .LVU152
 801              	.LBE26:
 707:SynaptiX_FDK/app/app.c ****     }
 802              		.loc 1 707 9 is_stmt 1 view .LVU153
 803 015a 654A     		ldr	r2, .L85+76
 804 015c 5349     		ldr	r1, .L85+8
 805 015e 0220     		movs	r0, #2
 806              	.LVL65:
 707:SynaptiX_FDK/app/app.c ****     }
 807              		.loc 1 707 9 is_stmt 0 view .LVU154
 808 0160 FFF7FEFF 		bl	log_func
 809              	.LVL66:
 810              	.L44:
 711:SynaptiX_FDK/app/app.c ****     if (mqtt) {
 811              		.loc 1 711 5 is_stmt 1 view .LVU155
 711:SynaptiX_FDK/app/app.c ****     if (mqtt) {
 812              		.loc 1 711 19 is_stmt 0 view .LVU156
 813 0164 6349     		ldr	r1, .L85+80
 814 0166 2846     		mov	r0, r5
 815 0168 FFF7FEFF 		bl	cJSON_GetObjectItem
 816              	.LVL67:
 712:SynaptiX_FDK/app/app.c ****         cJSON *host      = cJSON_GetObjectItem(mqtt, "host");
 817              		.loc 1 712 5 is_stmt 1 view .LVU157
 712:SynaptiX_FDK/app/app.c ****         cJSON *host      = cJSON_GetObjectItem(mqtt, "host");
 818              		.loc 1 712 8 is_stmt 0 view .LVU158
 819 016c 0646     		mov	r6, r0
 820 016e 0028     		cmp	r0, #0
 821 0170 00F0DE80 		beq	.L45
 822              	.LBB27:
 713:SynaptiX_FDK/app/app.c ****         cJSON *port      = cJSON_GetObjectItem(mqtt, "port");
 823              		.loc 1 713 9 is_stmt 1 view .LVU159
 713:SynaptiX_FDK/app/app.c ****         cJSON *port      = cJSON_GetObjectItem(mqtt, "port");
 824              		.loc 1 713 28 is_stmt 0 view .LVU160
 825 0174 6049     		ldr	r1, .L85+84
 826 0176 FFF7FEFF 		bl	cJSON_GetObjectItem
 827              	.LVL68:
 713:SynaptiX_FDK/app/app.c ****         cJSON *port      = cJSON_GetObjectItem(mqtt, "port");
 828              		.loc 1 713 28 view .LVU161
 829 017a 8246     		mov	r10, r0
 830              	.LVL69:
 714:SynaptiX_FDK/app/app.c ****         cJSON *client_id = cJSON_GetObjectItem(mqtt, "client_id");
 831              		.loc 1 714 9 is_stmt 1 view .LVU162
 714:SynaptiX_FDK/app/app.c ****         cJSON *client_id = cJSON_GetObjectItem(mqtt, "client_id");
 832              		.loc 1 714 28 is_stmt 0 view .LVU163
 833 017c 5F49     		ldr	r1, .L85+88
 834 017e 3046     		mov	r0, r6
 835              	.LVL70:
 714:SynaptiX_FDK/app/app.c ****         cJSON *client_id = cJSON_GetObjectItem(mqtt, "client_id");
 836              		.loc 1 714 28 view .LVU164
 837 0180 FFF7FEFF 		bl	cJSON_GetObjectItem
 838              	.LVL71:
 839 0184 8146     		mov	r9, r0
 840              	.LVL72:
ARM GAS  C:\Users\LENOVO\AppData\Local\Temp\ccMSvD0S.s 			page 34


 715:SynaptiX_FDK/app/app.c ****         cJSON *user      = cJSON_GetObjectItem(mqtt, "user_name");
 841              		.loc 1 715 9 is_stmt 1 view .LVU165
 715:SynaptiX_FDK/app/app.c ****         cJSON *user      = cJSON_GetObjectItem(mqtt, "user_name");
 842              		.loc 1 715 28 is_stmt 0 view .LVU166
 843 0186 5E49     		ldr	r1, .L85+92
 844 0188 3046     		mov	r0, r6
 845              	.LVL73:
 715:SynaptiX_FDK/app/app.c ****         cJSON *user      = cJSON_GetObjectItem(mqtt, "user_name");
 846              		.loc 1 715 28 view .LVU167
 847 018a FFF7FEFF 		bl	cJSON_GetObjectItem
 848              	.LVL74:
 849 018e 8046     		mov	r8, r0
 850              	.LVL75:
 716:SynaptiX_FDK/app/app.c ****         cJSON *pass      = cJSON_GetObjectItem(mqtt, "password");
 851              		.loc 1 716 9 is_stmt 1 view .LVU168
 716:SynaptiX_FDK/app/app.c ****         cJSON *pass      = cJSON_GetObjectItem(mqtt, "password");
 852              		.loc 1 716 28 is_stmt 0 view .LVU169
 853 0190 5C49     		ldr	r1, .L85+96
 854 0192 3046     		mov	r0, r6
 855              	.LVL76:
 716:SynaptiX_FDK/app/app.c ****         cJSON *pass      = cJSON_GetObjectItem(mqtt, "password");
 856              		.loc 1 716 28 view .LVU170
 857 0194 FFF7FEFF 		bl	cJSON_GetObjectItem
 858              	.LVL77:
 859 0198 0746     		mov	r7, r0
 860              	.LVL78:
 717:SynaptiX_FDK/app/app.c **** 
 861              		.loc 1 717 9 is_stmt 1 view .LVU171
 717:SynaptiX_FDK/app/app.c **** 
 862              		.loc 1 717 28 is_stmt 0 view .LVU172
 863 019a 4E49     		ldr	r1, .L85+48
 864 019c 3046     		mov	r0, r6
 865              	.LVL79:
 717:SynaptiX_FDK/app/app.c **** 
 866              		.loc 1 717 28 view .LVU173
 867 019e FFF7FEFF 		bl	cJSON_GetObjectItem
 868              	.LVL80:
 869 01a2 0646     		mov	r6, r0
 870              	.LVL81:
 719:SynaptiX_FDK/app/app.c ****         log_info("AppCfg", "MQTT port     : %d", port                                  ? port->valu
 871              		.loc 1 719 9 is_stmt 1 view .LVU174
 872 01a4 BAF1000F 		cmp	r10, #0
 873 01a8 6FD0     		beq	.L69
 719:SynaptiX_FDK/app/app.c ****         log_info("AppCfg", "MQTT port     : %d", port                                  ? port->valu
 874              		.loc 1 719 9 is_stmt 0 discriminator 1 view .LVU175
 875 01aa DAF81030 		ldr	r3, [r10, #16]
 876 01ae 002B     		cmp	r3, #0
 877 01b0 69D0     		beq	.L78
 878              	.L46:
 719:SynaptiX_FDK/app/app.c ****         log_info("AppCfg", "MQTT port     : %d", port                                  ? port->valu
 879              		.loc 1 719 9 discriminator 6 view .LVU176
 880 01b2 554A     		ldr	r2, .L85+100
 881 01b4 3D49     		ldr	r1, .L85+8
 882 01b6 0320     		movs	r0, #3
 883              	.LVL82:
 719:SynaptiX_FDK/app/app.c ****         log_info("AppCfg", "MQTT port     : %d", port                                  ? port->valu
 884              		.loc 1 719 9 discriminator 6 view .LVU177
ARM GAS  C:\Users\LENOVO\AppData\Local\Temp\ccMSvD0S.s 			page 35


 885 01b8 FFF7FEFF 		bl	log_func
 886              	.LVL83:
 720:SynaptiX_FDK/app/app.c ****         log_info("AppCfg", "MQTT client_id: %s", (client_id && client_id->valuestring) ? client_id-
 887              		.loc 1 720 9 is_stmt 1 view .LVU178
 888 01bc B9F1000F 		cmp	r9, #0
 889 01c0 01D0     		beq	.L47
 720:SynaptiX_FDK/app/app.c ****         log_info("AppCfg", "MQTT client_id: %s", (client_id && client_id->valuestring) ? client_id-
 890              		.loc 1 720 9 is_stmt 0 discriminator 1 view .LVU179
 891 01c2 D9F81440 		ldr	r4, [r9, #20]
 892              	.LVL84:
 893              	.L47:
 720:SynaptiX_FDK/app/app.c ****         log_info("AppCfg", "MQTT client_id: %s", (client_id && client_id->valuestring) ? client_id-
 894              		.loc 1 720 9 discriminator 4 view .LVU180
 895 01c6 2346     		mov	r3, r4
 896 01c8 504A     		ldr	r2, .L85+104
 897 01ca 3849     		ldr	r1, .L85+8
 898 01cc 0320     		movs	r0, #3
 899 01ce FFF7FEFF 		bl	log_func
 900              	.LVL85:
 721:SynaptiX_FDK/app/app.c ****         log_info("AppCfg", "MQTT user     : %s", (user && user->valuestring)            ? user->val
 901              		.loc 1 721 9 is_stmt 1 view .LVU181
 902 01d2 B8F1000F 		cmp	r8, #0
 903 01d6 5CD0     		beq	.L70
 721:SynaptiX_FDK/app/app.c ****         log_info("AppCfg", "MQTT user     : %s", (user && user->valuestring)            ? user->val
 904              		.loc 1 721 9 is_stmt 0 discriminator 1 view .LVU182
 905 01d8 D8F81030 		ldr	r3, [r8, #16]
 906 01dc 002B     		cmp	r3, #0
 907 01de 56D0     		beq	.L79
 908              	.L48:
 721:SynaptiX_FDK/app/app.c ****         log_info("AppCfg", "MQTT user     : %s", (user && user->valuestring)            ? user->val
 909              		.loc 1 721 9 discriminator 6 view .LVU183
 910 01e0 4B4A     		ldr	r2, .L85+108
 911 01e2 3249     		ldr	r1, .L85+8
 912 01e4 0320     		movs	r0, #3
 913 01e6 FFF7FEFF 		bl	log_func
 914              	.LVL86:
 722:SynaptiX_FDK/app/app.c ****         log_info("AppCfg", "MQTT pass     : %s", (pass && pass->valuestring)            ? pass->val
 915              		.loc 1 722 9 is_stmt 1 view .LVU184
 916 01ea 002F     		cmp	r7, #0
 917 01ec 55D0     		beq	.L71
 722:SynaptiX_FDK/app/app.c ****         log_info("AppCfg", "MQTT pass     : %s", (pass && pass->valuestring)            ? pass->val
 918              		.loc 1 722 9 is_stmt 0 discriminator 1 view .LVU185
 919 01ee 3B69     		ldr	r3, [r7, #16]
 920 01f0 002B     		cmp	r3, #0
 921 01f2 50D0     		beq	.L80
 922              	.L49:
 722:SynaptiX_FDK/app/app.c ****         log_info("AppCfg", "MQTT pass     : %s", (pass && pass->valuestring)            ? pass->val
 923              		.loc 1 722 9 discriminator 6 view .LVU186
 924 01f4 474A     		ldr	r2, .L85+112
 925 01f6 2D49     		ldr	r1, .L85+8
 926 01f8 0320     		movs	r0, #3
 927 01fa FFF7FEFF 		bl	log_func
 928              	.LVL87:
 723:SynaptiX_FDK/app/app.c **** 
 929              		.loc 1 723 9 is_stmt 1 view .LVU187
 930 01fe 002E     		cmp	r6, #0
 931 0200 00F09480 		beq	.L72
ARM GAS  C:\Users\LENOVO\AppData\Local\Temp\ccMSvD0S.s 			page 36


 723:SynaptiX_FDK/app/app.c **** 
 932              		.loc 1 723 9 is_stmt 0 discriminator 1 view .LVU188
 933 0204 3369     		ldr	r3, [r6, #16]
 934 0206 002B     		cmp	r3, #0
 935 0208 49D0     		beq	.L81
 936              	.L50:
 723:SynaptiX_FDK/app/app.c **** 
 937              		.loc 1 723 9 discriminator 6 view .LVU189
 938 020a 434A     		ldr	r2, .L85+116
 939 020c 2749     		ldr	r1, .L85+8
 940 020e 0320     		movs	r0, #3
 941 0210 FFF7FEFF 		bl	log_func
 942              	.LVL88:
 725:SynaptiX_FDK/app/app.c ****             strncpy(config_json.s_mqtt_host, host->valuestring, sizeof(config_json.s_mqtt_host) - 1
 943              		.loc 1 725 9 is_stmt 1 view .LVU190
 725:SynaptiX_FDK/app/app.c ****             strncpy(config_json.s_mqtt_host, host->valuestring, sizeof(config_json.s_mqtt_host) - 1
 944              		.loc 1 725 12 is_stmt 0 view .LVU191
 945 0214 BAF1000F 		cmp	r10, #0
 946 0218 09D0     		beq	.L51
 725:SynaptiX_FDK/app/app.c ****             strncpy(config_json.s_mqtt_host, host->valuestring, sizeof(config_json.s_mqtt_host) - 1
 947              		.loc 1 725 25 discriminator 1 view .LVU192
 948 021a DAF81010 		ldr	r1, [r10, #16]
 725:SynaptiX_FDK/app/app.c ****             strncpy(config_json.s_mqtt_host, host->valuestring, sizeof(config_json.s_mqtt_host) - 1
 949              		.loc 1 725 18 discriminator 1 view .LVU193
 950 021e 31B1     		cbz	r1, .L51
 726:SynaptiX_FDK/app/app.c ****             s_mqtt_cfg.broker = config_json.s_mqtt_host;
 951              		.loc 1 726 13 is_stmt 1 view .LVU194
 952 0220 3E4C     		ldr	r4, .L85+120
 953 0222 3F22     		movs	r2, #63
 954 0224 2046     		mov	r0, r4
 955 0226 FFF7FEFF 		bl	strncpy
 956              	.LVL89:
 727:SynaptiX_FDK/app/app.c ****         }
 957              		.loc 1 727 13 view .LVU195
 727:SynaptiX_FDK/app/app.c ****         }
 958              		.loc 1 727 31 is_stmt 0 view .LVU196
 959 022a 234B     		ldr	r3, .L85+20
 960 022c DC63     		str	r4, [r3, #60]
 961              	.L51:
 729:SynaptiX_FDK/app/app.c ****             s_mqtt_cfg.port = (uint16_t)port->valueint;
 962              		.loc 1 729 9 is_stmt 1 view .LVU197
 729:SynaptiX_FDK/app/app.c ****             s_mqtt_cfg.port = (uint16_t)port->valueint;
 963              		.loc 1 729 12 is_stmt 0 view .LVU198
 964 022e B9F1000F 		cmp	r9, #0
 965 0232 04D0     		beq	.L52
 730:SynaptiX_FDK/app/app.c ****         }
 966              		.loc 1 730 13 is_stmt 1 view .LVU199
 730:SynaptiX_FDK/app/app.c ****         }
 967              		.loc 1 730 31 is_stmt 0 view .LVU200
 968 0234 B9F81420 		ldrh	r2, [r9, #20]
 730:SynaptiX_FDK/app/app.c ****         }
 969              		.loc 1 730 29 view .LVU201
 970 0238 1F4B     		ldr	r3, .L85+20
 971 023a A3F84020 		strh	r2, [r3, #64]	@ movhi
 972              	.L52:
 732:SynaptiX_FDK/app/app.c ****             strncpy(config_json.s_mqtt_client_id, client_id->valuestring, sizeof(config_json.s_mqtt
 973              		.loc 1 732 9 is_stmt 1 view .LVU202
ARM GAS  C:\Users\LENOVO\AppData\Local\Temp\ccMSvD0S.s 			page 37


 732:SynaptiX_FDK/app/app.c ****             strncpy(config_json.s_mqtt_client_id, client_id->valuestring, sizeof(config_json.s_mqtt
 974              		.loc 1 732 12 is_stmt 0 view .LVU203
 975 023e B8F1000F 		cmp	r8, #0
 976 0242 09D0     		beq	.L53
 732:SynaptiX_FDK/app/app.c ****             strncpy(config_json.s_mqtt_client_id, client_id->valuestring, sizeof(config_json.s_mqtt
 977              		.loc 1 732 35 discriminator 1 view .LVU204
 978 0244 D8F81010 		ldr	r1, [r8, #16]
 732:SynaptiX_FDK/app/app.c ****             strncpy(config_json.s_mqtt_client_id, client_id->valuestring, sizeof(config_json.s_mqtt
 979              		.loc 1 732 23 discriminator 1 view .LVU205
 980 0248 31B1     		cbz	r1, .L53
 733:SynaptiX_FDK/app/app.c ****             s_mqtt_cfg.client_id = config_json.s_mqtt_client_id;
 981              		.loc 1 733 13 is_stmt 1 view .LVU206
 982 024a 354C     		ldr	r4, .L85+124
 983 024c 3F22     		movs	r2, #63
 984 024e 2046     		mov	r0, r4
 985 0250 FFF7FEFF 		bl	strncpy
 986              	.LVL90:
 734:SynaptiX_FDK/app/app.c ****         }
 987              		.loc 1 734 13 view .LVU207
 734:SynaptiX_FDK/app/app.c ****         }
 988              		.loc 1 734 34 is_stmt 0 view .LVU208
 989 0254 184B     		ldr	r3, .L85+20
 990 0256 5C64     		str	r4, [r3, #68]
 991              	.L53:
 736:SynaptiX_FDK/app/app.c ****             strncpy(config_json.s_mqtt_user, user->valuestring, sizeof(config_json.s_mqtt_user) - 1
 992              		.loc 1 736 9 is_stmt 1 view .LVU209
 736:SynaptiX_FDK/app/app.c ****             strncpy(config_json.s_mqtt_user, user->valuestring, sizeof(config_json.s_mqtt_user) - 1
 993              		.loc 1 736 12 is_stmt 0 view .LVU210
 994 0258 47B1     		cbz	r7, .L54
 736:SynaptiX_FDK/app/app.c ****             strncpy(config_json.s_mqtt_user, user->valuestring, sizeof(config_json.s_mqtt_user) - 1
 995              		.loc 1 736 25 discriminator 1 view .LVU211
 996 025a 3969     		ldr	r1, [r7, #16]
 736:SynaptiX_FDK/app/app.c ****             strncpy(config_json.s_mqtt_user, user->valuestring, sizeof(config_json.s_mqtt_user) - 1
 997              		.loc 1 736 18 discriminator 1 view .LVU212
 998 025c 31B1     		cbz	r1, .L54
 737:SynaptiX_FDK/app/app.c ****             s_mqtt_cfg.username = config_json.s_mqtt_user;
 999              		.loc 1 737 13 is_stmt 1 view .LVU213
 1000 025e 314C     		ldr	r4, .L85+128
 1001 0260 1F22     		movs	r2, #31
 1002 0262 2046     		mov	r0, r4
 1003 0264 FFF7FEFF 		bl	strncpy
 1004              	.LVL91:
 738:SynaptiX_FDK/app/app.c ****         }
 1005              		.loc 1 738 13 view .LVU214
 738:SynaptiX_FDK/app/app.c ****         }
 1006              		.loc 1 738 33 is_stmt 0 view .LVU215
 1007 0268 134B     		ldr	r3, .L85+20
 1008 026a 9C64     		str	r4, [r3, #72]
 1009              	.L54:
 740:SynaptiX_FDK/app/app.c ****             strncpy(config_json.s_mqtt_pass, pass->valuestring, sizeof(config_json.s_mqtt_pass) - 1
 1010              		.loc 1 740 9 is_stmt 1 view .LVU216
 740:SynaptiX_FDK/app/app.c ****             strncpy(config_json.s_mqtt_pass, pass->valuestring, sizeof(config_json.s_mqtt_pass) - 1
 1011              		.loc 1 740 12 is_stmt 0 view .LVU217
 1012 026c 002E     		cmp	r6, #0
 1013 026e 64D0     		beq	.L55
 740:SynaptiX_FDK/app/app.c ****             strncpy(config_json.s_mqtt_pass, pass->valuestring, sizeof(config_json.s_mqtt_pass) - 1
 1014              		.loc 1 740 25 discriminator 1 view .LVU218
ARM GAS  C:\Users\LENOVO\AppData\Local\Temp\ccMSvD0S.s 			page 38


 1015 0270 3169     		ldr	r1, [r6, #16]
 740:SynaptiX_FDK/app/app.c ****             strncpy(config_json.s_mqtt_pass, pass->valuestring, sizeof(config_json.s_mqtt_pass) - 1
 1016              		.loc 1 740 18 discriminator 1 view .LVU219
 1017 0272 0029     		cmp	r1, #0
 1018 0274 61D0     		beq	.L55
 741:SynaptiX_FDK/app/app.c ****             s_mqtt_cfg.password = config_json.s_mqtt_pass;
 1019              		.loc 1 741 13 is_stmt 1 view .LVU220
 1020 0276 2C4C     		ldr	r4, .L85+132
 1021 0278 1F22     		movs	r2, #31
 1022 027a 2046     		mov	r0, r4
 1023 027c FFF7FEFF 		bl	strncpy
 1024              	.LVL92:
 742:SynaptiX_FDK/app/app.c ****         }
 1025              		.loc 1 742 13 view .LVU221
 742:SynaptiX_FDK/app/app.c ****         }
 1026              		.loc 1 742 33 is_stmt 0 view .LVU222
 1027 0280 0D4B     		ldr	r3, .L85+20
 1028 0282 DC64     		str	r4, [r3, #76]
 1029 0284 59E0     		b	.L55
 1030              	.LVL93:
 1031              	.L78:
 719:SynaptiX_FDK/app/app.c ****         log_info("AppCfg", "MQTT port     : %d", port                                  ? port->valu
 1032              		.loc 1 719 9 discriminator 4 view .LVU223
 1033 0286 154B     		ldr	r3, .L85+56
 1034 0288 93E7     		b	.L46
 1035              	.L69:
 1036 028a 144B     		ldr	r3, .L85+56
 1037 028c 91E7     		b	.L46
 1038              	.LVL94:
 1039              	.L79:
 721:SynaptiX_FDK/app/app.c ****         log_info("AppCfg", "MQTT user     : %s", (user && user->valuestring)            ? user->val
 1040              		.loc 1 721 9 discriminator 4 view .LVU224
 1041 028e 134B     		ldr	r3, .L85+56
 1042 0290 A6E7     		b	.L48
 1043              	.L70:
 721:SynaptiX_FDK/app/app.c ****         log_info("AppCfg", "MQTT user     : %s", (user && user->valuestring)            ? user->val
 1044              		.loc 1 721 9 discriminator 4 view .LVU225
 1045 0292 124B     		ldr	r3, .L85+56
 1046 0294 A4E7     		b	.L48
 1047              	.L80:
 722:SynaptiX_FDK/app/app.c ****         log_info("AppCfg", "MQTT pass     : %s", (pass && pass->valuestring)            ? pass->val
 1048              		.loc 1 722 9 discriminator 4 view .LVU226
 1049 0296 114B     		ldr	r3, .L85+56
 1050 0298 ACE7     		b	.L49
 1051              	.L71:
 722:SynaptiX_FDK/app/app.c ****         log_info("AppCfg", "MQTT pass     : %s", (pass && pass->valuestring)            ? pass->val
 1052              		.loc 1 722 9 discriminator 4 view .LVU227
 1053 029a 104B     		ldr	r3, .L85+56
 1054 029c AAE7     		b	.L49
 1055              	.L81:
 723:SynaptiX_FDK/app/app.c **** 
 1056              		.loc 1 723 9 discriminator 4 view .LVU228
 1057 029e 0F4B     		ldr	r3, .L85+56
 1058 02a0 B3E7     		b	.L50
 1059              	.L86:
 1060 02a2 00BF     		.align	2
 1061              	.L85:
ARM GAS  C:\Users\LENOVO\AppData\Local\Temp\ccMSvD0S.s 			page 39


 1062 02a4 3C000000 		.word	.LC12
 1063 02a8 88000000 		.word	.LC14
 1064 02ac 20000000 		.word	.LC9
 1065 02b0 00000000 		.word	config_json
 1066 02b4 AC000000 		.word	.LC15
 1067 02b8 00000000 		.word	s_mqtt_cfg
 1068 02bc 08000000 		.word	.LC11
 1069 02c0 4C000000 		.word	.LC13
 1070 02c4 E8000000 		.word	.LC16
 1071 02c8 2C010000 		.word	.LC18
 1072 02cc 30010000 		.word	.LC19
 1073 02d0 38010000 		.word	.LC20
 1074 02d4 40010000 		.word	.LC21
 1075 02d8 00010000 		.word	.LC17
 1076 02dc 00000000 		.word	.LC10
 1077 02e0 4C010000 		.word	.LC22
 1078 02e4 60010000 		.word	.LC23
 1079 02e8 74010000 		.word	.LC24
 1080 02ec C0020000 		.word	config_json+704
 1081 02f0 88010000 		.word	.LC25
 1082 02f4 A4010000 		.word	.LC26
 1083 02f8 AC010000 		.word	.LC27
 1084 02fc B4010000 		.word	.LC28
 1085 0300 BC010000 		.word	.LC29
 1086 0304 C8010000 		.word	.LC30
 1087 0308 D4010000 		.word	.LC31
 1088 030c E8010000 		.word	.LC32
 1089 0310 FC010000 		.word	.LC33
 1090 0314 10020000 		.word	.LC34
 1091 0318 24020000 		.word	.LC35
 1092 031c 00020000 		.word	config_json+512
 1093 0320 40020000 		.word	config_json+576
 1094 0324 80020000 		.word	config_json+640
 1095 0328 A0020000 		.word	config_json+672
 1096              	.L72:
 723:SynaptiX_FDK/app/app.c **** 
 1097              		.loc 1 723 9 discriminator 4 view .LVU229
 1098 032c 384B     		ldr	r3, .L87
 1099 032e 6CE7     		b	.L50
 1100              	.LVL95:
 1101              	.L45:
 723:SynaptiX_FDK/app/app.c **** 
 1102              		.loc 1 723 9 discriminator 4 view .LVU230
 1103              	.LBE27:
 745:SynaptiX_FDK/app/app.c ****     }
 1104              		.loc 1 745 9 is_stmt 1 view .LVU231
 1105 0330 384A     		ldr	r2, .L87+4
 1106 0332 3949     		ldr	r1, .L87+8
 1107 0334 0220     		movs	r0, #2
 1108              	.LVL96:
 745:SynaptiX_FDK/app/app.c ****     }
 1109              		.loc 1 745 9 is_stmt 0 view .LVU232
 1110 0336 FFF7FEFF 		bl	log_func
 1111              	.LVL97:
 1112              	.L55:
 749:SynaptiX_FDK/app/app.c ****     if (sleep_t && cJSON_IsNumber(sleep_t) && sleep_t->valueint > 0) {
 1113              		.loc 1 749 5 is_stmt 1 view .LVU233
ARM GAS  C:\Users\LENOVO\AppData\Local\Temp\ccMSvD0S.s 			page 40


 749:SynaptiX_FDK/app/app.c ****     if (sleep_t && cJSON_IsNumber(sleep_t) && sleep_t->valueint > 0) {
 1114              		.loc 1 749 22 is_stmt 0 view .LVU234
 1115 033a 3849     		ldr	r1, .L87+12
 1116 033c 2846     		mov	r0, r5
 1117 033e FFF7FEFF 		bl	cJSON_GetObjectItem
 1118              	.LVL98:
 750:SynaptiX_FDK/app/app.c ****         config_json.time_sleep_ms = (uint32_t)sleep_t->valueint * 1000U;
 1119              		.loc 1 750 5 is_stmt 1 view .LVU235
 750:SynaptiX_FDK/app/app.c ****         config_json.time_sleep_ms = (uint32_t)sleep_t->valueint * 1000U;
 1120              		.loc 1 750 8 is_stmt 0 view .LVU236
 1121 0342 0446     		mov	r4, r0
 1122 0344 28B1     		cbz	r0, .L56
 750:SynaptiX_FDK/app/app.c ****         config_json.time_sleep_ms = (uint32_t)sleep_t->valueint * 1000U;
 1123              		.loc 1 750 20 discriminator 1 view .LVU237
 1124 0346 FFF7FEFF 		bl	cJSON_IsNumber
 1125              	.LVL99:
 750:SynaptiX_FDK/app/app.c ****         config_json.time_sleep_ms = (uint32_t)sleep_t->valueint * 1000U;
 1126              		.loc 1 750 17 discriminator 1 view .LVU238
 1127 034a 10B1     		cbz	r0, .L56
 750:SynaptiX_FDK/app/app.c ****         config_json.time_sleep_ms = (uint32_t)sleep_t->valueint * 1000U;
 1128              		.loc 1 750 54 discriminator 2 view .LVU239
 1129 034c 6369     		ldr	r3, [r4, #20]
 750:SynaptiX_FDK/app/app.c ****         config_json.time_sleep_ms = (uint32_t)sleep_t->valueint * 1000U;
 1130              		.loc 1 750 44 discriminator 2 view .LVU240
 1131 034e 002B     		cmp	r3, #0
 1132 0350 40DC     		bgt	.L82
 1133              	.L56:
 754:SynaptiX_FDK/app/app.c ****                 config_json.time_sleep_ms);
 1134              		.loc 1 754 9 is_stmt 1 view .LVU241
 1135 0352 334B     		ldr	r3, .L87+16
 1136 0354 D3F8E032 		ldr	r3, [r3, #736]
 1137 0358 324A     		ldr	r2, .L87+20
 1138 035a 2F49     		ldr	r1, .L87+8
 1139 035c 0220     		movs	r0, #2
 1140 035e FFF7FEFF 		bl	log_func
 1141              	.LVL100:
 1142              	.L57:
 759:SynaptiX_FDK/app/app.c ****     log_info("AppCfg", "Device ID     : %s", (device_t && device_t->valuestring) ? device_t->values
 1143              		.loc 1 759 5 view .LVU242
 759:SynaptiX_FDK/app/app.c ****     log_info("AppCfg", "Device ID     : %s", (device_t && device_t->valuestring) ? device_t->values
 1144              		.loc 1 759 23 is_stmt 0 view .LVU243
 1145 0362 3149     		ldr	r1, .L87+24
 1146 0364 2846     		mov	r0, r5
 1147 0366 FFF7FEFF 		bl	cJSON_GetObjectItem
 1148              	.LVL101:
 760:SynaptiX_FDK/app/app.c ****     if (device_t && device_t->valuestring) {
 1149              		.loc 1 760 5 is_stmt 1 view .LVU244
 1150 036a 0446     		mov	r4, r0
 1151              	.LVL102:
 760:SynaptiX_FDK/app/app.c ****     if (device_t && device_t->valuestring) {
 1152              		.loc 1 760 5 is_stmt 0 view .LVU245
 1153 036c 0028     		cmp	r0, #0
 1154 036e 40D0     		beq	.L73
 760:SynaptiX_FDK/app/app.c ****     if (device_t && device_t->valuestring) {
 1155              		.loc 1 760 5 discriminator 1 view .LVU246
 1156 0370 0369     		ldr	r3, [r0, #16]
 1157 0372 002B     		cmp	r3, #0
ARM GAS  C:\Users\LENOVO\AppData\Local\Temp\ccMSvD0S.s 			page 41


 1158 0374 3BD0     		beq	.L83
 1159              	.L58:
 760:SynaptiX_FDK/app/app.c ****     if (device_t && device_t->valuestring) {
 1160              		.loc 1 760 5 discriminator 6 view .LVU247
 1161 0376 2D4A     		ldr	r2, .L87+28
 1162 0378 2749     		ldr	r1, .L87+8
 1163 037a 0320     		movs	r0, #3
 1164              	.LVL103:
 760:SynaptiX_FDK/app/app.c ****     if (device_t && device_t->valuestring) {
 1165              		.loc 1 760 5 discriminator 6 view .LVU248
 1166 037c FFF7FEFF 		bl	log_func
 1167              	.LVL104:
 761:SynaptiX_FDK/app/app.c ****         strncpy(config_json.s_device_name, device_t->valuestring, sizeof(config_json.s_device_name)
 1168              		.loc 1 761 5 is_stmt 1 view .LVU249
 761:SynaptiX_FDK/app/app.c ****         strncpy(config_json.s_device_name, device_t->valuestring, sizeof(config_json.s_device_name)
 1169              		.loc 1 761 8 is_stmt 0 view .LVU250
 1170 0380 5CB1     		cbz	r4, .L59
 761:SynaptiX_FDK/app/app.c ****         strncpy(config_json.s_device_name, device_t->valuestring, sizeof(config_json.s_device_name)
 1171              		.loc 1 761 29 discriminator 1 view .LVU251
 1172 0382 2169     		ldr	r1, [r4, #16]
 761:SynaptiX_FDK/app/app.c ****         strncpy(config_json.s_device_name, device_t->valuestring, sizeof(config_json.s_device_name)
 1173              		.loc 1 761 18 discriminator 1 view .LVU252
 1174 0384 49B1     		cbz	r1, .L59
 762:SynaptiX_FDK/app/app.c ****         strncpy(g_app.device_name, config_json.s_device_name, sizeof(g_app.device_name) - 1);
 1175              		.loc 1 762 9 is_stmt 1 view .LVU253
 1176 0386 2A4C     		ldr	r4, .L87+32
 1177              	.LVL105:
 762:SynaptiX_FDK/app/app.c ****         strncpy(g_app.device_name, config_json.s_device_name, sizeof(g_app.device_name) - 1);
 1178              		.loc 1 762 9 is_stmt 0 view .LVU254
 1179 0388 3F22     		movs	r2, #63
 1180 038a 2046     		mov	r0, r4
 1181 038c FFF7FEFF 		bl	strncpy
 1182              	.LVL106:
 763:SynaptiX_FDK/app/app.c ****     }
 1183              		.loc 1 763 9 is_stmt 1 view .LVU255
 1184 0390 3F22     		movs	r2, #63
 1185 0392 2146     		mov	r1, r4
 1186 0394 2748     		ldr	r0, .L87+36
 1187 0396 FFF7FEFF 		bl	strncpy
 1188              	.LVL107:
 1189              	.L59:
 766:SynaptiX_FDK/app/app.c ****     if (time_pub_t && cJSON_IsNumber(time_pub_t) && time_pub_t->valueint > 0) {
 1190              		.loc 1 766 5 view .LVU256
 766:SynaptiX_FDK/app/app.c ****     if (time_pub_t && cJSON_IsNumber(time_pub_t) && time_pub_t->valueint > 0) {
 1191              		.loc 1 766 25 is_stmt 0 view .LVU257
 1192 039a 2749     		ldr	r1, .L87+40
 1193 039c 2846     		mov	r0, r5
 1194 039e FFF7FEFF 		bl	cJSON_GetObjectItem
 1195              	.LVL108:
 767:SynaptiX_FDK/app/app.c ****         config_json.s_time_publish = (uint32_t)time_pub_t->valueint * 1000U;
 1196              		.loc 1 767 5 is_stmt 1 view .LVU258
 767:SynaptiX_FDK/app/app.c ****         config_json.s_time_publish = (uint32_t)time_pub_t->valueint * 1000U;
 1197              		.loc 1 767 8 is_stmt 0 view .LVU259
 1198 03a2 0446     		mov	r4, r0
 1199 03a4 28B1     		cbz	r0, .L60
 767:SynaptiX_FDK/app/app.c ****         config_json.s_time_publish = (uint32_t)time_pub_t->valueint * 1000U;
 1200              		.loc 1 767 23 discriminator 1 view .LVU260
ARM GAS  C:\Users\LENOVO\AppData\Local\Temp\ccMSvD0S.s 			page 42


 1201 03a6 FFF7FEFF 		bl	cJSON_IsNumber
 1202              	.LVL109:
 767:SynaptiX_FDK/app/app.c ****         config_json.s_time_publish = (uint32_t)time_pub_t->valueint * 1000U;
 1203              		.loc 1 767 20 discriminator 1 view .LVU261
 1204 03aa 10B1     		cbz	r0, .L60
 767:SynaptiX_FDK/app/app.c ****         config_json.s_time_publish = (uint32_t)time_pub_t->valueint * 1000U;
 1205              		.loc 1 767 63 discriminator 2 view .LVU262
 1206 03ac 6369     		ldr	r3, [r4, #20]
 767:SynaptiX_FDK/app/app.c ****         config_json.s_time_publish = (uint32_t)time_pub_t->valueint * 1000U;
 1207              		.loc 1 767 50 discriminator 2 view .LVU263
 1208 03ae 002B     		cmp	r3, #0
 1209 03b0 21DC     		bgt	.L84
 1210              	.L60:
 771:SynaptiX_FDK/app/app.c ****                 config_json.s_time_publish);
 1211              		.loc 1 771 9 is_stmt 1 view .LVU264
 1212 03b2 1B4B     		ldr	r3, .L87+16
 1213 03b4 D3F83033 		ldr	r3, [r3, #816]
 1214 03b8 204A     		ldr	r2, .L87+44
 1215 03ba 1749     		ldr	r1, .L87+8
 1216 03bc 0220     		movs	r0, #2
 1217 03be FFF7FEFF 		bl	log_func
 1218              	.LVL110:
 1219              	.L61:
 775:SynaptiX_FDK/app/app.c ****     log_info("AppCfg", "Config loaded OK");
 1220              		.loc 1 775 5 view .LVU265
 1221 03c2 2846     		mov	r0, r5
 1222 03c4 FFF7FEFF 		bl	cJSON_Delete
 1223              	.LVL111:
 776:SynaptiX_FDK/app/app.c ****     
 1224              		.loc 1 776 5 view .LVU266
 1225 03c8 1D4A     		ldr	r2, .L87+48
 1226 03ca 1349     		ldr	r1, .L87+8
 1227 03cc 0320     		movs	r0, #3
 1228 03ce FFF7FEFF 		bl	log_func
 1229              	.LVL112:
 1230 03d2 49E6     		b	.L33
 1231              	.LVL113:
 1232              	.L82:
 751:SynaptiX_FDK/app/app.c ****         log_info("AppCfg", "time_sleeps loaded: %lu ms", config_json.time_sleep_ms);
 1233              		.loc 1 751 9 view .LVU267
 751:SynaptiX_FDK/app/app.c ****         log_info("AppCfg", "time_sleeps loaded: %lu ms", config_json.time_sleep_ms);
 1234              		.loc 1 751 65 is_stmt 0 view .LVU268
 1235 03d4 4FF47A72 		mov	r2, #1000
 1236 03d8 02FB03F3 		mul	r3, r2, r3
 751:SynaptiX_FDK/app/app.c ****         log_info("AppCfg", "time_sleeps loaded: %lu ms", config_json.time_sleep_ms);
 1237              		.loc 1 751 35 view .LVU269
 1238 03dc 104A     		ldr	r2, .L87+16
 1239 03de C2F8E032 		str	r3, [r2, #736]
 752:SynaptiX_FDK/app/app.c ****     } else {
 1240              		.loc 1 752 9 is_stmt 1 view .LVU270
 1241 03e2 184A     		ldr	r2, .L87+52
 1242 03e4 0C49     		ldr	r1, .L87+8
 1243 03e6 0320     		movs	r0, #3
 1244 03e8 FFF7FEFF 		bl	log_func
 1245              	.LVL114:
 1246 03ec B9E7     		b	.L57
 1247              	.LVL115:
ARM GAS  C:\Users\LENOVO\AppData\Local\Temp\ccMSvD0S.s 			page 43


 1248              	.L83:
 760:SynaptiX_FDK/app/app.c ****     if (device_t && device_t->valuestring) {
 1249              		.loc 1 760 5 is_stmt 0 discriminator 4 view .LVU271
 1250 03ee 084B     		ldr	r3, .L87
 1251 03f0 C1E7     		b	.L58
 1252              	.L73:
 1253 03f2 074B     		ldr	r3, .L87
 1254 03f4 BFE7     		b	.L58
 1255              	.LVL116:
 1256              	.L84:
 768:SynaptiX_FDK/app/app.c ****         log_info("AppCfg", "time_publish loaded: %lu ms", config_json.s_time_publish);
 1257              		.loc 1 768 9 is_stmt 1 view .LVU272
 768:SynaptiX_FDK/app/app.c ****         log_info("AppCfg", "time_publish loaded: %lu ms", config_json.s_time_publish);
 1258              		.loc 1 768 69 is_stmt 0 view .LVU273
 1259 03f6 4FF47A72 		mov	r2, #1000
 1260 03fa 02FB03F3 		mul	r3, r2, r3
 768:SynaptiX_FDK/app/app.c ****         log_info("AppCfg", "time_publish loaded: %lu ms", config_json.s_time_publish);
 1261              		.loc 1 768 36 view .LVU274
 1262 03fe 084A     		ldr	r2, .L87+16
 1263 0400 C2F83033 		str	r3, [r2, #816]
 769:SynaptiX_FDK/app/app.c ****     } else {
 1264              		.loc 1 769 9 is_stmt 1 view .LVU275
 1265 0404 104A     		ldr	r2, .L87+56
 1266 0406 0449     		ldr	r1, .L87+8
 1267 0408 0320     		movs	r0, #3
 1268 040a FFF7FEFF 		bl	log_func
 1269              	.LVL117:
 1270 040e D8E7     		b	.L61
 1271              	.L88:
 1272              		.align	2
 1273              	.L87:
 1274 0410 00000000 		.word	.LC10
 1275 0414 38020000 		.word	.LC36
 1276 0418 20000000 		.word	.LC9
 1277 041c 70020000 		.word	.LC37
 1278 0420 00000000 		.word	config_json
 1279 0424 98020000 		.word	.LC39
 1280 0428 C8020000 		.word	.LC40
 1281 042c D4020000 		.word	.LC41
 1282 0430 E8020000 		.word	config_json+744
 1283 0434 BC000000 		.word	g_app+188
 1284 0438 E8020000 		.word	.LC42
 1285 043c 14030000 		.word	.LC44
 1286 0440 48030000 		.word	.LC45
 1287 0444 7C020000 		.word	.LC38
 1288 0448 F8020000 		.word	.LC43
 1289              		.cfi_endproc
 1290              	.LFE569:
 1292              		.section	.rodata.read_last_gps.str1.4,"aMS",%progbits,1
 1293              		.align	2
 1294              	.LC46:
 1295 0000 2F6C6F67 		.ascii	"/log_gps\000"
 1295      5F677073 
 1295      00
 1296 0009 000000   		.align	2
 1297              	.LC47:
 1298 000c 4E4F2044 		.ascii	"NO DATA FROM EXFLASH!\000"
ARM GAS  C:\Users\LENOVO\AppData\Local\Temp\ccMSvD0S.s 			page 44


 1298      41544120 
 1298      46524F4D 
 1298      20455846 
 1298      4C415348 
 1299 0022 0000     		.align	2
 1300              	.LC48:
 1301 0024 466C6173 		.ascii	"Flash read failed\000"
 1301      68207265 
 1301      61642066 
 1301      61696C65 
 1301      6400
 1302 0036 0000     		.align	2
 1303              	.LC49:
 1304 0038 43616E6E 		.ascii	"Cannot find last line\000"
 1304      6F742066 
 1304      696E6420 
 1304      6C617374 
 1304      206C696E 
 1305 004e 0000     		.align	2
 1306              	.LC50:
 1307 0050 4C617374 		.ascii	"Last log line: %s\000"
 1307      206C6F67 
 1307      206C696E 
 1307      653A2025 
 1307      7300
 1308 0062 0000     		.align	2
 1309              	.LC51:
 1310 0064 252A7320 		.ascii	"%*s fix=%d lat=%15s lon=%15s rssi=%d alt=%15s spd=%"
 1310      6669783D 
 1310      2564206C 
 1310      61743D25 
 1310      31357320 
 1311 0097 31357320 		.ascii	"15s sat=%15s time=%11s date=%11s\000"
 1311      7361743D 
 1311      25313573 
 1311      2074696D 
 1311      653D2531 
 1312              		.align	2
 1313              	.LC52:
 1314 00b8 257300   		.ascii	"%s\000"
 1315 00bb 00       		.align	2
 1316              	.LC53:
 1317 00bc 4C617374 		.ascii	"Last GPS loaded: lat=%.6f lon=%.6f alt=%.2f spd=%.2"
 1317      20475053 
 1317      206C6F61 
 1317      6465643A 
 1317      206C6174 
 1318 00ef 66207361 		.ascii	"f sat=%d time=%s date=%s\000"
 1318      743D2564 
 1318      2074696D 
 1318      653D2573 
 1318      20646174 
 1319              		.global	__aeabi_f2d
 1320              		.align	2
 1321              	.LC54:
 1322 0108 4E6F2076 		.ascii	"No valid fix in last log\000"
 1322      616C6964 
ARM GAS  C:\Users\LENOVO\AppData\Local\Temp\ccMSvD0S.s 			page 45


 1322      20666978 
 1322      20696E20 
 1322      6C617374 
 1323              		.section	.text.read_last_gps,"ax",%progbits
 1324              		.align	1
 1325              		.syntax unified
 1326              		.thumb
 1327              		.thumb_func
 1329              	read_last_gps:
 1330              	.LFB565:
 392:SynaptiX_FDK/app/app.c ****     int32_t file_size = sx_storage_size(GPS_LOG_FILE_PATH);
 1331              		.loc 1 392 1 view -0
 1332              		.cfi_startproc
 1333              		@ args = 0, pretend = 0, frame = 112
 1334              		@ frame_needed = 0, uses_anonymous_args = 0
 1335 0000 2DE9F043 		push	{r4, r5, r6, r7, r8, r9, lr}
 1336              	.LCFI11:
 1337              		.cfi_def_cfa_offset 28
 1338              		.cfi_offset 4, -28
 1339              		.cfi_offset 5, -24
 1340              		.cfi_offset 6, -20
 1341              		.cfi_offset 7, -16
 1342              		.cfi_offset 8, -12
 1343              		.cfi_offset 9, -8
 1344              		.cfi_offset 14, -4
 1345 0004 A9B0     		sub	sp, sp, #164
 1346              	.LCFI12:
 1347              		.cfi_def_cfa_offset 192
 393:SynaptiX_FDK/app/app.c ****     if (file_size <= 0) {
 1348              		.loc 1 393 5 view .LVU277
 393:SynaptiX_FDK/app/app.c ****     if (file_size <= 0) {
 1349              		.loc 1 393 25 is_stmt 0 view .LVU278
 1350 0006 7948     		ldr	r0, .L115
 1351 0008 FFF7FEFF 		bl	sx_storage_size
 1352              	.LVL118:
 394:SynaptiX_FDK/app/app.c ****         log_info(TAG, "NO DATA FROM EXFLASH!");
 1353              		.loc 1 394 5 is_stmt 1 view .LVU279
 394:SynaptiX_FDK/app/app.c ****         log_info(TAG, "NO DATA FROM EXFLASH!");
 1354              		.loc 1 394 8 is_stmt 0 view .LVU280
 1355 000c 0028     		cmp	r0, #0
 394:SynaptiX_FDK/app/app.c ****         log_info(TAG, "NO DATA FROM EXFLASH!");
 1356              		.loc 1 394 8 view .LVU281
 1357 000e 0FDD     		ble	.L110
 399:SynaptiX_FDK/app/app.c ****     uint32_t read_len = (file_size < (int32_t)sizeof(s_tail_buf))
 1358              		.loc 1 399 5 is_stmt 1 view .LVU282
 400:SynaptiX_FDK/app/app.c ****                             ? (uint32_t)file_size
 1359              		.loc 1 400 5 view .LVU283
 402:SynaptiX_FDK/app/app.c ****     uint32_t offset = (uint32_t)file_size - read_len;
 1360              		.loc 1 402 29 is_stmt 0 view .LVU284
 1361 0010 0446     		mov	r4, r0
 1362 0012 FF28     		cmp	r0, #255
 1363 0014 A8BF     		it	ge
 1364 0016 FF24     		movge	r4, #255
 1365              	.LVL119:
 403:SynaptiX_FDK/app/app.c **** 
 1366              		.loc 1 403 5 is_stmt 1 view .LVU285
 405:SynaptiX_FDK/app/app.c ****         GPS_LOG_FILE_PATH, s_tail_buf, offset, read_len);
ARM GAS  C:\Users\LENOVO\AppData\Local\Temp\ccMSvD0S.s 			page 46


 1367              		.loc 1 405 5 view .LVU286
 405:SynaptiX_FDK/app/app.c ****         GPS_LOG_FILE_PATH, s_tail_buf, offset, read_len);
 1368              		.loc 1 405 28 is_stmt 0 view .LVU287
 1369 0018 2346     		mov	r3, r4
 1370 001a 021B     		subs	r2, r0, r4
 1371              	.LVL120:
 405:SynaptiX_FDK/app/app.c ****         GPS_LOG_FILE_PATH, s_tail_buf, offset, read_len);
 1372              		.loc 1 405 28 view .LVU288
 1373 001c 7449     		ldr	r1, .L115+4
 1374 001e 7348     		ldr	r0, .L115
 1375              	.LVL121:
 405:SynaptiX_FDK/app/app.c ****         GPS_LOG_FILE_PATH, s_tail_buf, offset, read_len);
 1376              		.loc 1 405 28 view .LVU289
 1377 0020 FFF7FEFF 		bl	sx_storage_read_partial
 1378              	.LVL122:
 407:SynaptiX_FDK/app/app.c ****         log_error(TAG, "Flash read failed");
 1379              		.loc 1 407 5 is_stmt 1 view .LVU290
 407:SynaptiX_FDK/app/app.c ****         log_error(TAG, "Flash read failed");
 1380              		.loc 1 407 8 is_stmt 0 view .LVU291
 1381 0024 50B9     		cbnz	r0, .L111
 411:SynaptiX_FDK/app/app.c **** 
 1382              		.loc 1 411 5 is_stmt 1 view .LVU292
 411:SynaptiX_FDK/app/app.c **** 
 1383              		.loc 1 411 26 is_stmt 0 view .LVU293
 1384 0026 724B     		ldr	r3, .L115+4
 1385 0028 0022     		movs	r2, #0
 1386 002a 1A55     		strb	r2, [r3, r4]
 413:SynaptiX_FDK/app/app.c ****     while (end >= 0 && (s_tail_buf[end] == '\n' || s_tail_buf[end] == '\r'))
 1387              		.loc 1 413 5 is_stmt 1 view .LVU294
 413:SynaptiX_FDK/app/app.c ****     while (end >= 0 && (s_tail_buf[end] == '\n' || s_tail_buf[end] == '\r'))
 1388              		.loc 1 413 13 is_stmt 0 view .LVU295
 1389 002c 631E     		subs	r3, r4, #1
 1390              	.LVL123:
 414:SynaptiX_FDK/app/app.c ****         end--;
 1391              		.loc 1 414 5 is_stmt 1 view .LVU296
 414:SynaptiX_FDK/app/app.c ****         end--;
 1392              		.loc 1 414 11 is_stmt 0 view .LVU297
 1393 002e 0CE0     		b	.L93
 1394              	.LVL124:
 1395              	.L110:
 395:SynaptiX_FDK/app/app.c ****         return;
 1396              		.loc 1 395 9 is_stmt 1 view .LVU298
 1397 0030 704A     		ldr	r2, .L115+8
 1398 0032 7149     		ldr	r1, .L115+12
 1399 0034 0320     		movs	r0, #3
 1400              	.LVL125:
 395:SynaptiX_FDK/app/app.c ****         return;
 1401              		.loc 1 395 9 is_stmt 0 view .LVU299
 1402 0036 FFF7FEFF 		bl	log_func
 1403              	.LVL126:
 396:SynaptiX_FDK/app/app.c ****     }
 1404              		.loc 1 396 9 is_stmt 1 view .LVU300
 1405 003a 62E0     		b	.L89
 1406              	.LVL127:
 1407              	.L111:
 408:SynaptiX_FDK/app/app.c ****         return;
 1408              		.loc 1 408 9 view .LVU301
ARM GAS  C:\Users\LENOVO\AppData\Local\Temp\ccMSvD0S.s 			page 47


 1409 003c 6F4A     		ldr	r2, .L115+16
 1410 003e 6E49     		ldr	r1, .L115+12
 1411 0040 0120     		movs	r0, #1
 1412              	.LVL128:
 408:SynaptiX_FDK/app/app.c ****         return;
 1413              		.loc 1 408 9 is_stmt 0 view .LVU302
 1414 0042 FFF7FEFF 		bl	log_func
 1415              	.LVL129:
 409:SynaptiX_FDK/app/app.c ****     }
 1416              		.loc 1 409 9 is_stmt 1 view .LVU303
 1417 0046 5CE0     		b	.L89
 1418              	.LVL130:
 1419              	.L95:
 415:SynaptiX_FDK/app/app.c **** 
 1420              		.loc 1 415 9 view .LVU304
 415:SynaptiX_FDK/app/app.c **** 
 1421              		.loc 1 415 12 is_stmt 0 view .LVU305
 1422 0048 013B     		subs	r3, r3, #1
 1423              	.LVL131:
 1424              	.L93:
 414:SynaptiX_FDK/app/app.c ****         end--;
 1425              		.loc 1 414 21 is_stmt 1 view .LVU306
 1426 004a 002B     		cmp	r3, #0
 1427 004c 07DB     		blt	.L106
 414:SynaptiX_FDK/app/app.c ****         end--;
 1428              		.loc 1 414 35 is_stmt 0 discriminator 1 view .LVU307
 1429 004e 684A     		ldr	r2, .L115+4
 1430 0050 D25C     		ldrb	r2, [r2, r3]	@ zero_extendqisi2
 414:SynaptiX_FDK/app/app.c ****         end--;
 1431              		.loc 1 414 21 discriminator 1 view .LVU308
 1432 0052 0A2A     		cmp	r2, #10
 1433 0054 F8D0     		beq	.L95
 414:SynaptiX_FDK/app/app.c ****         end--;
 1434              		.loc 1 414 49 discriminator 2 view .LVU309
 1435 0056 0D2A     		cmp	r2, #13
 1436 0058 F6D0     		beq	.L95
 1437 005a 1A46     		mov	r2, r3
 1438 005c 02E0     		b	.L97
 1439              	.L106:
 414:SynaptiX_FDK/app/app.c ****         end--;
 1440              		.loc 1 414 49 discriminator 2 view .LVU310
 1441 005e 1A46     		mov	r2, r3
 1442 0060 00E0     		b	.L97
 1443              	.LVL132:
 1444              	.L107:
 419:SynaptiX_FDK/app/app.c **** 
 1445              		.loc 1 419 14 view .LVU311
 1446 0062 0A46     		mov	r2, r1
 1447              	.LVL133:
 1448              	.L97:
 418:SynaptiX_FDK/app/app.c ****         start--;
 1449              		.loc 1 418 22 is_stmt 1 view .LVU312
 1450 0064 002A     		cmp	r2, #0
 1451 0066 04DD     		ble	.L96
 418:SynaptiX_FDK/app/app.c ****         start--;
 1452              		.loc 1 418 42 is_stmt 0 discriminator 1 view .LVU313
 1453 0068 511E     		subs	r1, r2, #1
ARM GAS  C:\Users\LENOVO\AppData\Local\Temp\ccMSvD0S.s 			page 48


 418:SynaptiX_FDK/app/app.c ****         start--;
 1454              		.loc 1 418 35 discriminator 1 view .LVU314
 1455 006a 6148     		ldr	r0, .L115+4
 1456 006c 405C     		ldrb	r0, [r0, r1]	@ zero_extendqisi2
 418:SynaptiX_FDK/app/app.c ****         start--;
 1457              		.loc 1 418 22 discriminator 1 view .LVU315
 1458 006e 0A28     		cmp	r0, #10
 1459 0070 F7D1     		bne	.L107
 1460              	.L96:
 421:SynaptiX_FDK/app/app.c ****         log_warn(TAG, "Cannot find last line");
 1461              		.loc 1 421 5 is_stmt 1 view .LVU316
 421:SynaptiX_FDK/app/app.c ****         log_warn(TAG, "Cannot find last line");
 1462              		.loc 1 421 8 is_stmt 0 view .LVU317
 1463 0072 9342     		cmp	r3, r2
 1464 0074 48DB     		blt	.L112
 426:SynaptiX_FDK/app/app.c ****     char *last_line = (char *)(s_tail_buf + start);
 1465              		.loc 1 426 5 is_stmt 1 view .LVU318
 426:SynaptiX_FDK/app/app.c ****     char *last_line = (char *)(s_tail_buf + start);
 1466              		.loc 1 426 20 is_stmt 0 view .LVU319
 1467 0076 0133     		adds	r3, r3, #1
 1468              	.LVL134:
 426:SynaptiX_FDK/app/app.c ****     char *last_line = (char *)(s_tail_buf + start);
 1469              		.loc 1 426 25 view .LVU320
 1470 0078 5D4C     		ldr	r4, .L115+4
 1471              	.LVL135:
 426:SynaptiX_FDK/app/app.c ****     char *last_line = (char *)(s_tail_buf + start);
 1472              		.loc 1 426 25 view .LVU321
 1473 007a 0025     		movs	r5, #0
 1474 007c E554     		strb	r5, [r4, r3]
 427:SynaptiX_FDK/app/app.c ****     log_info(TAG, "Last log line: %s", last_line);
 1475              		.loc 1 427 5 is_stmt 1 view .LVU322
 427:SynaptiX_FDK/app/app.c ****     log_info(TAG, "Last log line: %s", last_line);
 1476              		.loc 1 427 11 is_stmt 0 view .LVU323
 1477 007e 1444     		add	r4, r4, r2
 1478              	.LVL136:
 428:SynaptiX_FDK/app/app.c **** 
 1479              		.loc 1 428 5 is_stmt 1 view .LVU324
 1480 0080 2346     		mov	r3, r4
 1481              	.LVL137:
 428:SynaptiX_FDK/app/app.c **** 
 1482              		.loc 1 428 5 is_stmt 0 view .LVU325
 1483 0082 5F4A     		ldr	r2, .L115+20
 1484              	.LVL138:
 428:SynaptiX_FDK/app/app.c **** 
 1485              		.loc 1 428 5 view .LVU326
 1486 0084 5C49     		ldr	r1, .L115+12
 1487 0086 0320     		movs	r0, #3
 1488 0088 FFF7FEFF 		bl	log_func
 1489              	.LVL139:
 431:SynaptiX_FDK/app/app.c ****     char  lat_str[16] = {0};
 1490              		.loc 1 431 5 is_stmt 1 view .LVU327
 431:SynaptiX_FDK/app/app.c ****     char  lat_str[16] = {0};
 1491              		.loc 1 431 11 is_stmt 0 view .LVU328
 1492 008c 2795     		str	r5, [sp, #156]
 431:SynaptiX_FDK/app/app.c ****     char  lat_str[16] = {0};
 1493              		.loc 1 431 20 view .LVU329
 1494 008e 2695     		str	r5, [sp, #152]
ARM GAS  C:\Users\LENOVO\AppData\Local\Temp\ccMSvD0S.s 			page 49


 432:SynaptiX_FDK/app/app.c ****     char  lon_str[16] = {0};
 1495              		.loc 1 432 5 is_stmt 1 view .LVU330
 432:SynaptiX_FDK/app/app.c ****     char  lon_str[16] = {0};
 1496              		.loc 1 432 11 is_stmt 0 view .LVU331
 1497 0090 2295     		str	r5, [sp, #136]
 1498 0092 2395     		str	r5, [sp, #140]
 1499 0094 2495     		str	r5, [sp, #144]
 1500 0096 2595     		str	r5, [sp, #148]
 433:SynaptiX_FDK/app/app.c ****     char  alt_str[16] = {0};
 1501              		.loc 1 433 5 is_stmt 1 view .LVU332
 433:SynaptiX_FDK/app/app.c ****     char  alt_str[16] = {0};
 1502              		.loc 1 433 11 is_stmt 0 view .LVU333
 1503 0098 1EAB     		add	r3, sp, #120
 1504 009a 1E95     		str	r5, [sp, #120]
 1505 009c 1F95     		str	r5, [sp, #124]
 1506 009e 2095     		str	r5, [sp, #128]
 1507 00a0 2195     		str	r5, [sp, #132]
 434:SynaptiX_FDK/app/app.c ****     char  spd_str[16] = {0};
 1508              		.loc 1 434 5 is_stmt 1 view .LVU334
 434:SynaptiX_FDK/app/app.c ****     char  spd_str[16] = {0};
 1509              		.loc 1 434 11 is_stmt 0 view .LVU335
 1510 00a2 1AAA     		add	r2, sp, #104
 1511 00a4 1A95     		str	r5, [sp, #104]
 1512 00a6 1B95     		str	r5, [sp, #108]
 1513 00a8 1C95     		str	r5, [sp, #112]
 1514 00aa 1D95     		str	r5, [sp, #116]
 435:SynaptiX_FDK/app/app.c ****     char  sat_str[16] = {0};
 1515              		.loc 1 435 5 is_stmt 1 view .LVU336
 435:SynaptiX_FDK/app/app.c ****     char  sat_str[16] = {0};
 1516              		.loc 1 435 11 is_stmt 0 view .LVU337
 1517 00ac 16A9     		add	r1, sp, #88
 1518 00ae 1695     		str	r5, [sp, #88]
 1519 00b0 1795     		str	r5, [sp, #92]
 1520 00b2 1895     		str	r5, [sp, #96]
 1521 00b4 1995     		str	r5, [sp, #100]
 436:SynaptiX_FDK/app/app.c ****     char  time_str[12] = {0};
 1522              		.loc 1 436 5 is_stmt 1 view .LVU338
 436:SynaptiX_FDK/app/app.c ****     char  time_str[12] = {0};
 1523              		.loc 1 436 11 is_stmt 0 view .LVU339
 1524 00b6 12A8     		add	r0, sp, #72
 1525 00b8 1295     		str	r5, [sp, #72]
 1526 00ba 1395     		str	r5, [sp, #76]
 1527 00bc 1495     		str	r5, [sp, #80]
 1528 00be 1595     		str	r5, [sp, #84]
 437:SynaptiX_FDK/app/app.c ****     char  date_str[12] = {0};
 1529              		.loc 1 437 5 is_stmt 1 view .LVU340
 437:SynaptiX_FDK/app/app.c ****     char  date_str[12] = {0};
 1530              		.loc 1 437 11 is_stmt 0 view .LVU341
 1531 00c0 0FAE     		add	r6, sp, #60
 1532 00c2 0F95     		str	r5, [sp, #60]
 1533 00c4 1095     		str	r5, [sp, #64]
 1534 00c6 1195     		str	r5, [sp, #68]
 438:SynaptiX_FDK/app/app.c **** 
 1535              		.loc 1 438 5 is_stmt 1 view .LVU342
 438:SynaptiX_FDK/app/app.c **** 
 1536              		.loc 1 438 11 is_stmt 0 view .LVU343
 1537 00c8 0CAF     		add	r7, sp, #48
ARM GAS  C:\Users\LENOVO\AppData\Local\Temp\ccMSvD0S.s 			page 50


 1538 00ca 0C95     		str	r5, [sp, #48]
 1539 00cc 0D95     		str	r5, [sp, #52]
 1540 00ce 0E95     		str	r5, [sp, #56]
 440:SynaptiX_FDK/app/app.c ****                         "%*s fix=%d lat=%15s lon=%15s rssi=%d alt=%15s spd=%15s sat=%15s time=%11s 
 1541              		.loc 1 440 5 is_stmt 1 view .LVU344
 440:SynaptiX_FDK/app/app.c ****                         "%*s fix=%d lat=%15s lon=%15s rssi=%d alt=%15s spd=%15s sat=%15s time=%11s 
 1542              		.loc 1 440 18 is_stmt 0 view .LVU345
 1543 00d0 0697     		str	r7, [sp, #24]
 1544 00d2 0596     		str	r6, [sp, #20]
 1545 00d4 0490     		str	r0, [sp, #16]
 1546 00d6 0391     		str	r1, [sp, #12]
 1547 00d8 0292     		str	r2, [sp, #8]
 1548 00da 26AA     		add	r2, sp, #152
 1549 00dc 0192     		str	r2, [sp, #4]
 1550 00de 0093     		str	r3, [sp]
 1551 00e0 22AB     		add	r3, sp, #136
 1552 00e2 27AA     		add	r2, sp, #156
 1553 00e4 4749     		ldr	r1, .L115+24
 1554 00e6 2046     		mov	r0, r4
 1555 00e8 FFF7FEFF 		bl	sscanf
 1556              	.LVL140:
 1557 00ec 0446     		mov	r4, r0
 1558              	.LVL141:
 444:SynaptiX_FDK/app/app.c ****         g_app.last_lat = strtof(lat_str, NULL);
 1559              		.loc 1 444 5 is_stmt 1 view .LVU346
 444:SynaptiX_FDK/app/app.c ****         g_app.last_lat = strtof(lat_str, NULL);
 1560              		.loc 1 444 8 is_stmt 0 view .LVU347
 1561 00ee 0228     		cmp	r0, #2
 1562 00f0 02DD     		ble	.L99
 444:SynaptiX_FDK/app/app.c ****         g_app.last_lat = strtof(lat_str, NULL);
 1563              		.loc 1 444 28 discriminator 1 view .LVU348
 1564 00f2 279B     		ldr	r3, [sp, #156]
 444:SynaptiX_FDK/app/app.c ****         g_app.last_lat = strtof(lat_str, NULL);
 1565              		.loc 1 444 21 discriminator 1 view .LVU349
 1566 00f4 012B     		cmp	r3, #1
 1567 00f6 0DD0     		beq	.L113
 1568              	.L99:
 456:SynaptiX_FDK/app/app.c ****     }
 1569              		.loc 1 456 9 is_stmt 1 view .LVU350
 1570 00f8 434A     		ldr	r2, .L115+28
 1571 00fa 3F49     		ldr	r1, .L115+12
 1572 00fc 0220     		movs	r0, #2
 1573              	.LVL142:
 456:SynaptiX_FDK/app/app.c ****     }
 1574              		.loc 1 456 9 is_stmt 0 view .LVU351
 1575 00fe FFF7FEFF 		bl	log_func
 1576              	.LVL143:
 1577              	.L89:
 458:SynaptiX_FDK/app/app.c **** 
 1578              		.loc 1 458 1 view .LVU352
 1579 0102 29B0     		add	sp, sp, #164
 1580              	.LCFI13:
 1581              		.cfi_remember_state
 1582              		.cfi_def_cfa_offset 28
 1583              		@ sp needed
 1584 0104 BDE8F083 		pop	{r4, r5, r6, r7, r8, r9, pc}
 1585              	.LVL144:
ARM GAS  C:\Users\LENOVO\AppData\Local\Temp\ccMSvD0S.s 			page 51


 1586              	.L112:
 1587              	.LCFI14:
 1588              		.cfi_restore_state
 422:SynaptiX_FDK/app/app.c ****         return;
 1589              		.loc 1 422 9 is_stmt 1 view .LVU353
 1590 0108 404A     		ldr	r2, .L115+32
 1591              	.LVL145:
 422:SynaptiX_FDK/app/app.c ****         return;
 1592              		.loc 1 422 9 is_stmt 0 view .LVU354
 1593 010a 3B49     		ldr	r1, .L115+12
 1594 010c 0220     		movs	r0, #2
 1595 010e FFF7FEFF 		bl	log_func
 1596              	.LVL146:
 423:SynaptiX_FDK/app/app.c ****     }
 1597              		.loc 1 423 9 is_stmt 1 view .LVU355
 1598 0112 F6E7     		b	.L89
 1599              	.LVL147:
 1600              	.L113:
 445:SynaptiX_FDK/app/app.c ****         g_app.last_lon = strtof(lon_str, NULL);
 1601              		.loc 1 445 9 view .LVU356
 445:SynaptiX_FDK/app/app.c ****         g_app.last_lon = strtof(lon_str, NULL);
 1602              		.loc 1 445 26 is_stmt 0 view .LVU357
 1603 0114 2946     		mov	r1, r5
 1604 0116 22A8     		add	r0, sp, #136
 1605              	.LVL148:
 445:SynaptiX_FDK/app/app.c ****         g_app.last_lon = strtof(lon_str, NULL);
 1606              		.loc 1 445 26 view .LVU358
 1607 0118 FFF7FEFF 		bl	strtof
 1608              	.LVL149:
 445:SynaptiX_FDK/app/app.c ****         g_app.last_lon = strtof(lon_str, NULL);
 1609              		.loc 1 445 24 discriminator 1 view .LVU359
 1610 011c 3C4D     		ldr	r5, .L115+36
 1611 011e 85ED240A 		vstr.32	s0, [r5, #144]
 446:SynaptiX_FDK/app/app.c ****         g_app.last_alt = (parsed >= 5) ? strtof(alt_str, NULL) : 0.0f;
 1612              		.loc 1 446 9 is_stmt 1 view .LVU360
 446:SynaptiX_FDK/app/app.c ****         g_app.last_alt = (parsed >= 5) ? strtof(alt_str, NULL) : 0.0f;
 1613              		.loc 1 446 26 is_stmt 0 view .LVU361
 1614 0122 0021     		movs	r1, #0
 1615 0124 1EA8     		add	r0, sp, #120
 1616 0126 FFF7FEFF 		bl	strtof
 1617              	.LVL150:
 446:SynaptiX_FDK/app/app.c ****         g_app.last_alt = (parsed >= 5) ? strtof(alt_str, NULL) : 0.0f;
 1618              		.loc 1 446 24 discriminator 1 view .LVU362
 1619 012a 85ED250A 		vstr.32	s0, [r5, #148]
 447:SynaptiX_FDK/app/app.c ****         g_app.last_spd = (parsed >= 6) ? strtof(spd_str, NULL) : 0.0f;
 1620              		.loc 1 447 9 is_stmt 1 view .LVU363
 447:SynaptiX_FDK/app/app.c ****         g_app.last_spd = (parsed >= 6) ? strtof(spd_str, NULL) : 0.0f;
 1621              		.loc 1 447 64 is_stmt 0 view .LVU364
 1622 012e 042C     		cmp	r4, #4
 1623 0130 43DC     		bgt	.L100
 447:SynaptiX_FDK/app/app.c ****         g_app.last_spd = (parsed >= 6) ? strtof(spd_str, NULL) : 0.0f;
 1624              		.loc 1 447 24 discriminator 4 view .LVU365
 1625 0132 9FED380A 		vldr.32	s0, .L115+40
 1626 0136 85ED260A 		vstr.32	s0, [r5, #152]
 448:SynaptiX_FDK/app/app.c ****         g_app.last_sat = (parsed >= 7) ? (int)strtol(sat_str, NULL, 10) : 0;
 1627              		.loc 1 448 9 is_stmt 1 view .LVU366
 1628              	.L101:
ARM GAS  C:\Users\LENOVO\AppData\Local\Temp\ccMSvD0S.s 			page 52


 448:SynaptiX_FDK/app/app.c ****         g_app.last_sat = (parsed >= 7) ? (int)strtol(sat_str, NULL, 10) : 0;
 1629              		.loc 1 448 24 is_stmt 0 discriminator 4 view .LVU367
 1630 013a 354B     		ldr	r3, .L115+36
 1631 013c 83ED270A 		vstr.32	s0, [r3, #156]
 449:SynaptiX_FDK/app/app.c ****         snprintf(g_app.last_time_str, sizeof(g_app.last_time_str), "%s", time_str);
 1632              		.loc 1 449 9 is_stmt 1 view .LVU368
 449:SynaptiX_FDK/app/app.c ****         snprintf(g_app.last_time_str, sizeof(g_app.last_time_str), "%s", time_str);
 1633              		.loc 1 449 73 is_stmt 0 view .LVU369
 1634 0140 062C     		cmp	r4, #6
 1635 0142 4DDC     		bgt	.L114
 449:SynaptiX_FDK/app/app.c ****         snprintf(g_app.last_time_str, sizeof(g_app.last_time_str), "%s", time_str);
 1636              		.loc 1 449 73 discriminator 2 view .LVU370
 1637 0144 0020     		movs	r0, #0
 1638              	.L103:
 449:SynaptiX_FDK/app/app.c ****         snprintf(g_app.last_time_str, sizeof(g_app.last_time_str), "%s", time_str);
 1639              		.loc 1 449 24 discriminator 4 view .LVU371
 1640 0146 324C     		ldr	r4, .L115+36
 1641              	.LVL151:
 449:SynaptiX_FDK/app/app.c ****         snprintf(g_app.last_time_str, sizeof(g_app.last_time_str), "%s", time_str);
 1642              		.loc 1 449 24 discriminator 4 view .LVU372
 1643 0148 C4F8A000 		str	r0, [r4, #160]
 450:SynaptiX_FDK/app/app.c ****         snprintf(g_app.last_date_str, sizeof(g_app.last_date_str), "%s", date_str);
 1644              		.loc 1 450 9 is_stmt 1 view .LVU373
 1645 014c 324F     		ldr	r7, .L115+44
 1646 014e 04F1A405 		add	r5, r4, #164
 1647 0152 0FAB     		add	r3, sp, #60
 1648 0154 3A46     		mov	r2, r7
 1649 0156 0C21     		movs	r1, #12
 1650 0158 2846     		mov	r0, r5
 1651 015a FFF7FEFF 		bl	snprintf
 1652              	.LVL152:
 451:SynaptiX_FDK/app/app.c ****         log_info(TAG, "Last GPS loaded: lat=%.6f lon=%.6f alt=%.2f spd=%.2f sat=%d time=%s date=%s"
 1653              		.loc 1 451 9 view .LVU374
 1654 015e 04F1B006 		add	r6, r4, #176
 1655 0162 0CAB     		add	r3, sp, #48
 1656 0164 3A46     		mov	r2, r7
 1657 0166 0C21     		movs	r1, #12
 1658 0168 3046     		mov	r0, r6
 1659 016a FFF7FEFF 		bl	snprintf
 1660              	.LVL153:
 452:SynaptiX_FDK/app/app.c ****                 g_app.last_lat, g_app.last_lon, g_app.last_alt, g_app.last_spd, g_app.last_sat,
 1661              		.loc 1 452 9 view .LVU375
 1662 016e D4F89070 		ldr	r7, [r4, #144]	@ float
 1663 0172 D4F89480 		ldr	r8, [r4, #148]	@ float
 1664 0176 D4F89890 		ldr	r9, [r4, #152]	@ float
 1665 017a D4F89C00 		ldr	r0, [r4, #156]	@ float
 1666 017e D4F8A030 		ldr	r3, [r4, #160]
 1667 0182 0A96     		str	r6, [sp, #40]
 1668 0184 0995     		str	r5, [sp, #36]
 1669 0186 0893     		str	r3, [sp, #32]
 1670 0188 FFF7FEFF 		bl	__aeabi_f2d
 1671              	.LVL154:
 1672 018c CDE90601 		strd	r0, [sp, #24]
 1673 0190 4846     		mov	r0, r9	@ float
 1674 0192 FFF7FEFF 		bl	__aeabi_f2d
 1675              	.LVL155:
 1676 0196 CDE90401 		strd	r0, [sp, #16]
ARM GAS  C:\Users\LENOVO\AppData\Local\Temp\ccMSvD0S.s 			page 53


 1677 019a 4046     		mov	r0, r8	@ float
 1678 019c FFF7FEFF 		bl	__aeabi_f2d
 1679              	.LVL156:
 1680 01a0 CDE90201 		strd	r0, [sp, #8]
 1681 01a4 3846     		mov	r0, r7	@ float
 1682 01a6 FFF7FEFF 		bl	__aeabi_f2d
 1683              	.LVL157:
 1684 01aa CDE90001 		strd	r0, [sp]
 1685 01ae 1B4A     		ldr	r2, .L115+48
 1686 01b0 1149     		ldr	r1, .L115+12
 1687 01b2 0320     		movs	r0, #3
 1688 01b4 FFF7FEFF 		bl	log_func
 1689              	.LVL158:
 1690 01b8 A3E7     		b	.L89
 1691              	.LVL159:
 1692              	.L100:
 447:SynaptiX_FDK/app/app.c ****         g_app.last_spd = (parsed >= 6) ? strtof(spd_str, NULL) : 0.0f;
 1693              		.loc 1 447 42 is_stmt 0 discriminator 1 view .LVU376
 1694 01ba 0021     		movs	r1, #0
 1695 01bc 1AA8     		add	r0, sp, #104
 1696 01be FFF7FEFF 		bl	strtof
 1697              	.LVL160:
 447:SynaptiX_FDK/app/app.c ****         g_app.last_spd = (parsed >= 6) ? strtof(spd_str, NULL) : 0.0f;
 1698              		.loc 1 447 24 discriminator 4 view .LVU377
 1699 01c2 134B     		ldr	r3, .L115+36
 1700 01c4 83ED260A 		vstr.32	s0, [r3, #152]
 448:SynaptiX_FDK/app/app.c ****         g_app.last_sat = (parsed >= 7) ? (int)strtol(sat_str, NULL, 10) : 0;
 1701              		.loc 1 448 9 is_stmt 1 view .LVU378
 448:SynaptiX_FDK/app/app.c ****         g_app.last_sat = (parsed >= 7) ? (int)strtol(sat_str, NULL, 10) : 0;
 1702              		.loc 1 448 64 is_stmt 0 view .LVU379
 1703 01c8 052C     		cmp	r4, #5
 1704 01ca 04DC     		bgt	.L102
 448:SynaptiX_FDK/app/app.c ****         g_app.last_sat = (parsed >= 7) ? (int)strtol(sat_str, NULL, 10) : 0;
 1705              		.loc 1 448 24 discriminator 4 view .LVU380
 1706 01cc 0022     		movs	r2, #0
 1707 01ce C3F89C20 		str	r2, [r3, #156]	@ float
 449:SynaptiX_FDK/app/app.c ****         snprintf(g_app.last_time_str, sizeof(g_app.last_time_str), "%s", time_str);
 1708              		.loc 1 449 9 is_stmt 1 view .LVU381
 449:SynaptiX_FDK/app/app.c ****         snprintf(g_app.last_time_str, sizeof(g_app.last_time_str), "%s", time_str);
 1709              		.loc 1 449 73 is_stmt 0 discriminator 2 view .LVU382
 1710 01d2 0020     		movs	r0, #0
 1711 01d4 B7E7     		b	.L103
 1712              	.L102:
 448:SynaptiX_FDK/app/app.c ****         g_app.last_sat = (parsed >= 7) ? (int)strtol(sat_str, NULL, 10) : 0;
 1713              		.loc 1 448 42 discriminator 1 view .LVU383
 1714 01d6 0021     		movs	r1, #0
 1715 01d8 16A8     		add	r0, sp, #88
 1716 01da FFF7FEFF 		bl	strtof
 1717              	.LVL161:
 1718 01de ACE7     		b	.L101
 1719              	.L114:
 449:SynaptiX_FDK/app/app.c ****         snprintf(g_app.last_time_str, sizeof(g_app.last_time_str), "%s", time_str);
 1720              		.loc 1 449 47 discriminator 1 view .LVU384
 1721 01e0 0A22     		movs	r2, #10
 1722 01e2 0021     		movs	r1, #0
 1723 01e4 12A8     		add	r0, sp, #72
 1724 01e6 FFF7FEFF 		bl	strtol
ARM GAS  C:\Users\LENOVO\AppData\Local\Temp\ccMSvD0S.s 			page 54


 1725              	.LVL162:
 1726 01ea ACE7     		b	.L103
 1727              	.L116:
 1728              		.align	2
 1729              	.L115:
 1730 01ec 00000000 		.word	.LC46
 1731 01f0 00000000 		.word	s_tail_buf.2
 1732 01f4 0C000000 		.word	.LC47
 1733 01f8 18000000 		.word	.LC3
 1734 01fc 24000000 		.word	.LC48
 1735 0200 50000000 		.word	.LC50
 1736 0204 64000000 		.word	.LC51
 1737 0208 08010000 		.word	.LC54
 1738 020c 38000000 		.word	.LC49
 1739 0210 00000000 		.word	g_app
 1740 0214 00000000 		.word	0
 1741 0218 B8000000 		.word	.LC52
 1742 021c BC000000 		.word	.LC53
 1743              		.cfi_endproc
 1744              	.LFE565:
 1746              		.section	.rodata.publish_gsm.str1.4,"aMS",%progbits,1
 1747              		.align	2
 1748              	.LC55:
 1749 0000 76696E64 		.ascii	"vindynamic/tracking/gsm/\000"
 1749      796E616D 
 1749      69632F74 
 1749      7261636B 
 1749      696E672F 
 1750 0019 000000   		.align	2
 1751              	.LC56:
 1752 001c 25732573 		.ascii	"%s%s\000"
 1752      00
 1753 0021 000000   		.align	2
 1754              	.LC57:
 1755 0024 7B226D6F 		.ascii	"{\"mode\":\"%s\",\"rssi\":%d,\"ip\":\"%s\",\"imei\""
 1755      6465223A 
 1755      22257322 
 1755      2C227273 
 1755      7369223A 
 1756 004b 3A222573 		.ascii	":\"%s\",\"apn\":\"%s\",\"vbat\":%f,\"time\":\"%02d:"
 1756      222C2261 
 1756      706E223A 
 1756      22257322 
 1756      2C227662 
 1757 0073 25303264 		.ascii	"%02d:%02d\",\"date\":\"%02d/%02d/20%02d\"}\000"
 1757      3A253032 
 1757      64222C22 
 1757      64617465 
 1757      223A2225 
 1758 0099 000000   		.align	2
 1759              	.LC58:
 1760 009c 47534D3A 		.ascii	"GSM: %s\000"
 1760      20257300 
 1761              		.section	.text.publish_gsm,"ax",%progbits
 1762              		.align	1
 1763              		.syntax unified
 1764              		.thumb
ARM GAS  C:\Users\LENOVO\AppData\Local\Temp\ccMSvD0S.s 			page 55


 1765              		.thumb_func
 1767              	publish_gsm:
 1768              	.LVL163:
 1769              	.LFB563:
 315:SynaptiX_FDK/app/app.c ****     char msg[256];
 1770              		.loc 1 315 1 is_stmt 1 view -0
 1771              		.cfi_startproc
 1772              		@ args = 0, pretend = 0, frame = 384
 1773              		@ frame_needed = 0, uses_anonymous_args = 0
 315:SynaptiX_FDK/app/app.c ****     char msg[256];
 1774              		.loc 1 315 1 is_stmt 0 view .LVU386
 1775 0000 2DE9F043 		push	{r4, r5, r6, r7, r8, r9, lr}
 1776              	.LCFI15:
 1777              		.cfi_def_cfa_offset 28
 1778              		.cfi_offset 4, -28
 1779              		.cfi_offset 5, -24
 1780              		.cfi_offset 6, -20
 1781              		.cfi_offset 7, -16
 1782              		.cfi_offset 8, -12
 1783              		.cfi_offset 9, -8
 1784              		.cfi_offset 14, -4
 1785 0004 EDB0     		sub	sp, sp, #436
 1786              	.LCFI16:
 1787              		.cfi_def_cfa_offset 464
 1788 0006 0546     		mov	r5, r0
 316:SynaptiX_FDK/app/app.c ****     char topic[128];
 1789              		.loc 1 316 5 is_stmt 1 view .LVU387
 317:SynaptiX_FDK/app/app.c ****     
 1790              		.loc 1 317 5 view .LVU388
 319:SynaptiX_FDK/app/app.c **** 
 1791              		.loc 1 319 5 view .LVU389
 319:SynaptiX_FDK/app/app.c **** 
 1792              		.loc 1 319 29 is_stmt 0 view .LVU390
 1793 0008 294C     		ldr	r4, .L119
 1794 000a E06C     		ldr	r0, [r4, #76]
 1795              	.LVL164:
 319:SynaptiX_FDK/app/app.c **** 
 1796              		.loc 1 319 5 view .LVU391
 1797 000c 04F15401 		add	r1, r4, #84
 1798 0010 00F5B260 		add	r0, r0, #1424
 1799 0014 FFF7FEFF 		bl	rx8130ce_get_time
 1800              	.LVL165:
 321:SynaptiX_FDK/app/app.c **** 
 1801              		.loc 1 321 5 is_stmt 1 view .LVU392
 1802 0018 04F1BC03 		add	r3, r4, #188
 1803 001c 0093     		str	r3, [sp]
 1804 001e 254B     		ldr	r3, .L119+4
 1805 0020 254A     		ldr	r2, .L119+8
 1806 0022 8021     		movs	r1, #128
 1807 0024 0CA8     		add	r0, sp, #48
 1808 0026 FFF7FEFF 		bl	snprintf
 1809              	.LVL166:
 323:SynaptiX_FDK/app/app.c ****              "{\"mode\":\"%s\",\"rssi\":%d,\"ip\":\"%s\",\"imei\":\"%s\",\"apn\":\"%s\",\"vbat\":%f
 1810              		.loc 1 323 5 view .LVU393
 327:SynaptiX_FDK/app/app.c ****              sim76xx_get_ip(&g_app.board->sim76xx),
 1811              		.loc 1 327 37 is_stmt 0 view .LVU394
 1812 002a E36C     		ldr	r3, [r4, #76]
ARM GAS  C:\Users\LENOVO\AppData\Local\Temp\ccMSvD0S.s 			page 56


 1813              	.LVL167:
 1814              	.LBB28:
 1815              	.LBI28:
 1816              		.file 2 "SynaptiX_FDK/components/sim76xx/sim76xx.h"
   1:SynaptiX_FDK/components/sim76xx/sim76xx.h **** #ifndef SIM70XX_H
   2:SynaptiX_FDK/components/sim76xx/sim76xx.h **** #define SIM70XX_H
   3:SynaptiX_FDK/components/sim76xx/sim76xx.h **** #ifdef __cplusplus
   4:SynaptiX_FDK/components/sim76xx/sim76xx.h **** extern "C" {
   5:SynaptiX_FDK/components/sim76xx/sim76xx.h **** #endif
   6:SynaptiX_FDK/components/sim76xx/sim76xx.h **** 
   7:SynaptiX_FDK/components/sim76xx/sim76xx.h **** #include "modem.h"
   8:SynaptiX_FDK/components/sim76xx/sim76xx.h **** #include <stdint.h>
   9:SynaptiX_FDK/components/sim76xx/sim76xx.h **** 
  10:SynaptiX_FDK/components/sim76xx/sim76xx.h **** /*  Retry and timeout config  */
  11:SynaptiX_FDK/components/sim76xx/sim76xx.h **** #define SIM76XX_MAX_RETRY           3
  12:SynaptiX_FDK/components/sim76xx/sim76xx.h **** #define SIM76XX_TIMEOUT_AT          2500U
  13:SynaptiX_FDK/components/sim76xx/sim76xx.h **** #define SIM76XX_TIMEOUT_NETWORK     10000U
  14:SynaptiX_FDK/components/sim76xx/sim76xx.h **** #define SIM76XX_TIMEOUT_NETOPEN     10000U
  15:SynaptiX_FDK/components/sim76xx/sim76xx.h **** #define SIM76XX_TIMEOUT_CFUN        15000U 
  16:SynaptiX_FDK/components/sim76xx/sim76xx.h **** 
  17:SynaptiX_FDK/components/sim76xx/sim76xx.h **** /*  Init state machine  */
  18:SynaptiX_FDK/components/sim76xx/sim76xx.h **** typedef enum {
  19:SynaptiX_FDK/components/sim76xx/sim76xx.h ****     SIM76XX_STATE_IDLE = 0,
  20:SynaptiX_FDK/components/sim76xx/sim76xx.h ****     SIM76XX_STATE_AT,
  21:SynaptiX_FDK/components/sim76xx/sim76xx.h ****     SIM76XX_STATE_CGSN,
  22:SynaptiX_FDK/components/sim76xx/sim76xx.h ****     SIM76XX_STATE_COPS_QUERY,
  23:SynaptiX_FDK/components/sim76xx/sim76xx.h ****     SIM76XX_STATE_COPS_SET,
  24:SynaptiX_FDK/components/sim76xx/sim76xx.h ****     SIM76XX_STATE_CSQ,
  25:SynaptiX_FDK/components/sim76xx/sim76xx.h ****     SIM76XX_STATE_CFUN,
  26:SynaptiX_FDK/components/sim76xx/sim76xx.h ****     SIM76XX_STATE_CGATT,
  27:SynaptiX_FDK/components/sim76xx/sim76xx.h ****     SIM76XX_STATE_CGDCONT,
  28:SynaptiX_FDK/components/sim76xx/sim76xx.h ****     SIM76XX_STATE_CGAUTH,
  29:SynaptiX_FDK/components/sim76xx/sim76xx.h ****     SIM76XX_STATE_CGREG,
  30:SynaptiX_FDK/components/sim76xx/sim76xx.h ****     SIM76XX_STATE_NETOPEN,
  31:SynaptiX_FDK/components/sim76xx/sim76xx.h ****     SIM76XX_STATE_IPADDR,        
  32:SynaptiX_FDK/components/sim76xx/sim76xx.h ****     SIM76XX_STATE_READY,
  33:SynaptiX_FDK/components/sim76xx/sim76xx.h ****     SIM76XX_STATE_ERROR,
  34:SynaptiX_FDK/components/sim76xx/sim76xx.h ****     SIM76XX_STATE_CGDCONT_QUERY,
  35:SynaptiX_FDK/components/sim76xx/sim76xx.h **** } sim76xx_state_t;
  36:SynaptiX_FDK/components/sim76xx/sim76xx.h **** 
  37:SynaptiX_FDK/components/sim76xx/sim76xx.h **** typedef struct sim76xx sim76xx_t;
  38:SynaptiX_FDK/components/sim76xx/sim76xx.h **** 
  39:SynaptiX_FDK/components/sim76xx/sim76xx.h **** typedef void (*sim76xx_on_ready_cb_t)(sim76xx_t *dce);
  40:SynaptiX_FDK/components/sim76xx/sim76xx.h **** 
  41:SynaptiX_FDK/components/sim76xx/sim76xx.h **** typedef void (*sim76xx_on_error_cb_t)(sim76xx_t *dce);
  42:SynaptiX_FDK/components/sim76xx/sim76xx.h **** 
  43:SynaptiX_FDK/components/sim76xx/sim76xx.h **** typedef void (*sim76xx_on_urc_cb_t)(sim76xx_t *dce, const char *urc_line);
  44:SynaptiX_FDK/components/sim76xx/sim76xx.h **** 
  45:SynaptiX_FDK/components/sim76xx/sim76xx.h **** struct sim76xx
  46:SynaptiX_FDK/components/sim76xx/sim76xx.h **** {
  47:SynaptiX_FDK/components/sim76xx/sim76xx.h ****     /* data */
  48:SynaptiX_FDK/components/sim76xx/sim76xx.h ****     modem_t base;
  49:SynaptiX_FDK/components/sim76xx/sim76xx.h **** 
  50:SynaptiX_FDK/components/sim76xx/sim76xx.h ****     sim76xx_state_t state;
  51:SynaptiX_FDK/components/sim76xx/sim76xx.h ****     uint8_t retry_count;
  52:SynaptiX_FDK/components/sim76xx/sim76xx.h **** 
  53:SynaptiX_FDK/components/sim76xx/sim76xx.h ****     int rssi;
ARM GAS  C:\Users\LENOVO\AppData\Local\Temp\ccMSvD0S.s 			page 57


  54:SynaptiX_FDK/components/sim76xx/sim76xx.h ****     int ber;
  55:SynaptiX_FDK/components/sim76xx/sim76xx.h ****     char imei[16];
  56:SynaptiX_FDK/components/sim76xx/sim76xx.h ****     char ip[16];
  57:SynaptiX_FDK/components/sim76xx/sim76xx.h ****     char apn[32];
  58:SynaptiX_FDK/components/sim76xx/sim76xx.h **** 
  59:SynaptiX_FDK/components/sim76xx/sim76xx.h ****     char username[32];
  60:SynaptiX_FDK/components/sim76xx/sim76xx.h ****     char password[32];
  61:SynaptiX_FDK/components/sim76xx/sim76xx.h **** 
  62:SynaptiX_FDK/components/sim76xx/sim76xx.h ****     sim76xx_on_ready_cb_t on_ready;
  63:SynaptiX_FDK/components/sim76xx/sim76xx.h ****     sim76xx_on_error_cb_t on_error;
  64:SynaptiX_FDK/components/sim76xx/sim76xx.h ****     sim76xx_on_urc_cb_t   on_urc;
  65:SynaptiX_FDK/components/sim76xx/sim76xx.h **** };
  66:SynaptiX_FDK/components/sim76xx/sim76xx.h **** 
  67:SynaptiX_FDK/components/sim76xx/sim76xx.h **** void sim76xx_init(sim76xx_t *dce);
  68:SynaptiX_FDK/components/sim76xx/sim76xx.h **** void sim76xx_power_on(sim76xx_t *dce);
  69:SynaptiX_FDK/components/sim76xx/sim76xx.h **** void sim76xx_power_off(sim76xx_t *dce);
  70:SynaptiX_FDK/components/sim76xx/sim76xx.h **** void sim76xx_reset(sim76xx_t *dce);
  71:SynaptiX_FDK/components/sim76xx/sim76xx.h **** 
  72:SynaptiX_FDK/components/sim76xx/sim76xx.h **** int sim76xx_start(sim76xx_t *dce);
  73:SynaptiX_FDK/components/sim76xx/sim76xx.h **** void sim76xx_poll(sim76xx_t *dce, uint32_t ts);
  74:SynaptiX_FDK/components/sim76xx/sim76xx.h **** 
  75:SynaptiX_FDK/components/sim76xx/sim76xx.h **** int sim76xx_mqtt_stop(sim76xx_t *dce, modem_command_response_callback_t cb, uint32_t timeout_ms);
  76:SynaptiX_FDK/components/sim76xx/sim76xx.h **** 
  77:SynaptiX_FDK/components/sim76xx/sim76xx.h **** //Sleep mode
  78:SynaptiX_FDK/components/sim76xx/sim76xx.h **** int sim76xx_psm_enable(sim76xx_t *dce, uint32_t tau_sec, uint32_t active_sec);
  79:SynaptiX_FDK/components/sim76xx/sim76xx.h **** int sim76xx_psm_disable(sim76xx_t *dce);
  80:SynaptiX_FDK/components/sim76xx/sim76xx.h **** void sim76xx_wake(sim76xx_t *dce);
  81:SynaptiX_FDK/components/sim76xx/sim76xx.h **** void sim76xx_set_full_apn(sim76xx_t *dce, char* apn, char* user, char* pass);
  82:SynaptiX_FDK/components/sim76xx/sim76xx.h **** 
  83:SynaptiX_FDK/components/sim76xx/sim76xx.h **** static inline void sim76xx_set_on_ready(sim76xx_t *dce, sim76xx_on_ready_cb_t cb){
  84:SynaptiX_FDK/components/sim76xx/sim76xx.h ****     dce->on_ready = cb;
  85:SynaptiX_FDK/components/sim76xx/sim76xx.h **** }
  86:SynaptiX_FDK/components/sim76xx/sim76xx.h **** 
  87:SynaptiX_FDK/components/sim76xx/sim76xx.h **** static inline void sim76xx_set_on_error(sim76xx_t *dce, sim76xx_on_error_cb_t cb){
  88:SynaptiX_FDK/components/sim76xx/sim76xx.h ****     dce->on_error = cb;
  89:SynaptiX_FDK/components/sim76xx/sim76xx.h **** }
  90:SynaptiX_FDK/components/sim76xx/sim76xx.h **** 
  91:SynaptiX_FDK/components/sim76xx/sim76xx.h **** static inline void sim76xx_set_on_urc(sim76xx_t *dce, sim76xx_on_urc_cb_t cb){
  92:SynaptiX_FDK/components/sim76xx/sim76xx.h ****     dce->on_urc = cb;
  93:SynaptiX_FDK/components/sim76xx/sim76xx.h **** }
  94:SynaptiX_FDK/components/sim76xx/sim76xx.h **** 
  95:SynaptiX_FDK/components/sim76xx/sim76xx.h **** static inline uint8_t sim76xx_is_ready(sim76xx_t *dce){
  96:SynaptiX_FDK/components/sim76xx/sim76xx.h ****     return (dce->state == SIM76XX_STATE_READY);
  97:SynaptiX_FDK/components/sim76xx/sim76xx.h **** }
  98:SynaptiX_FDK/components/sim76xx/sim76xx.h **** 
  99:SynaptiX_FDK/components/sim76xx/sim76xx.h **** static inline sim76xx_state_t sim76xx_get_state(sim76xx_t *dce){
 100:SynaptiX_FDK/components/sim76xx/sim76xx.h ****     return dce->state;
 101:SynaptiX_FDK/components/sim76xx/sim76xx.h **** }
 102:SynaptiX_FDK/components/sim76xx/sim76xx.h **** 
 103:SynaptiX_FDK/components/sim76xx/sim76xx.h **** static inline const char *sim76xx_get_imei(sim76xx_t *dce){
 104:SynaptiX_FDK/components/sim76xx/sim76xx.h ****     return dce->imei;
 105:SynaptiX_FDK/components/sim76xx/sim76xx.h **** }
 106:SynaptiX_FDK/components/sim76xx/sim76xx.h **** 
 107:SynaptiX_FDK/components/sim76xx/sim76xx.h **** static inline const char *sim76xx_get_ip(sim76xx_t *dce){
 108:SynaptiX_FDK/components/sim76xx/sim76xx.h ****     return dce->ip;
 109:SynaptiX_FDK/components/sim76xx/sim76xx.h **** }
 110:SynaptiX_FDK/components/sim76xx/sim76xx.h **** 
ARM GAS  C:\Users\LENOVO\AppData\Local\Temp\ccMSvD0S.s 			page 58


 111:SynaptiX_FDK/components/sim76xx/sim76xx.h **** static inline int sim76xx_get_rssi(sim76xx_t *dce){
 1817              		.loc 2 111 19 is_stmt 1 view .LVU395
 1818              	.LBB29:
 112:SynaptiX_FDK/components/sim76xx/sim76xx.h ****     return dce->rssi;
 1819              		.loc 2 112 5 view .LVU396
 1820              		.loc 2 112 15 is_stmt 0 view .LVU397
 1821 002c D3F87492 		ldr	r9, [r3, #628]
 1822              	.LVL168:
 1823              		.loc 2 112 15 view .LVU398
 1824              	.LBE29:
 1825              	.LBE28:
 328:SynaptiX_FDK/app/app.c ****              sim76xx_get_imei(&g_app.board->sim76xx),
 1826              		.loc 1 328 35 view .LVU399
 1827 0030 E66C     		ldr	r6, [r4, #76]
 1828              	.LVL169:
 1829              	.LBB30:
 1830              	.LBI30:
 107:SynaptiX_FDK/components/sim76xx/sim76xx.h ****     return dce->ip;
 1831              		.loc 2 107 27 is_stmt 1 view .LVU400
 1832              	.LBB31:
 108:SynaptiX_FDK/components/sim76xx/sim76xx.h **** }
 1833              		.loc 2 108 5 view .LVU401
 108:SynaptiX_FDK/components/sim76xx/sim76xx.h **** }
 1834              		.loc 2 108 12 is_stmt 0 view .LVU402
 1835 0032 06F52376 		add	r6, r6, #652
 1836              	.LVL170:
 108:SynaptiX_FDK/components/sim76xx/sim76xx.h **** }
 1837              		.loc 2 108 12 view .LVU403
 1838              	.LBE31:
 1839              	.LBE30:
 329:SynaptiX_FDK/app/app.c ****              sim76xx_get_apn(&g_app.board->sim76xx), g_app.board->voltage.v_bat,
 1840              		.loc 1 329 37 view .LVU404
 1841 0036 E76C     		ldr	r7, [r4, #76]
 1842              	.LVL171:
 1843              	.LBB32:
 1844              	.LBI32:
 103:SynaptiX_FDK/components/sim76xx/sim76xx.h ****     return dce->imei;
 1845              		.loc 2 103 27 is_stmt 1 view .LVU405
 1846              	.LBB33:
 104:SynaptiX_FDK/components/sim76xx/sim76xx.h **** }
 1847              		.loc 2 104 5 view .LVU406
 104:SynaptiX_FDK/components/sim76xx/sim76xx.h **** }
 1848              		.loc 2 104 12 is_stmt 0 view .LVU407
 1849 0038 07F51F77 		add	r7, r7, #636
 1850              	.LVL172:
 104:SynaptiX_FDK/components/sim76xx/sim76xx.h **** }
 1851              		.loc 2 104 12 view .LVU408
 1852              	.LBE33:
 1853              	.LBE32:
 330:SynaptiX_FDK/app/app.c ****              g_app.time.hour, g_app.time.min, g_app.time.sec,
 1854              		.loc 1 330 36 view .LVU409
 1855 003c E36C     		ldr	r3, [r4, #76]
 1856              	.LVL173:
 1857              	.LBB34:
 1858              	.LBI34:
 113:SynaptiX_FDK/components/sim76xx/sim76xx.h **** }
 114:SynaptiX_FDK/components/sim76xx/sim76xx.h **** 
ARM GAS  C:\Users\LENOVO\AppData\Local\Temp\ccMSvD0S.s 			page 59


 115:SynaptiX_FDK/components/sim76xx/sim76xx.h **** static inline void sim76xx_set_apn(sim76xx_t *dce, const char *apn) {
 116:SynaptiX_FDK/components/sim76xx/sim76xx.h ****     strncpy(dce->apn, apn, sizeof(dce->apn) - 1);
 117:SynaptiX_FDK/components/sim76xx/sim76xx.h ****     dce->apn[sizeof(dce->apn) - 1] = '\0';
 118:SynaptiX_FDK/components/sim76xx/sim76xx.h **** }
 119:SynaptiX_FDK/components/sim76xx/sim76xx.h **** 
 120:SynaptiX_FDK/components/sim76xx/sim76xx.h **** static inline const char *sim76xx_get_apn(sim76xx_t *dce){
 1859              		.loc 2 120 27 is_stmt 1 view .LVU410
 1860              	.LBB35:
 121:SynaptiX_FDK/components/sim76xx/sim76xx.h ****     return dce->apn;
 1861              		.loc 2 121 5 view .LVU411
 1862              		.loc 2 121 12 is_stmt 0 view .LVU412
 1863 003e 03F52778 		add	r8, r3, #668
 1864              	.LVL174:
 1865              		.loc 2 121 12 view .LVU413
 1866              	.LBE35:
 1867              	.LBE34:
 330:SynaptiX_FDK/app/app.c ****              g_app.time.hour, g_app.time.min, g_app.time.sec,
 1868              		.loc 1 330 59 view .LVU414
 1869 0042 E36C     		ldr	r3, [r4, #76]
 330:SynaptiX_FDK/app/app.c ****              g_app.time.hour, g_app.time.min, g_app.time.sec,
 1870              		.loc 1 330 74 view .LVU415
 1871 0044 03F59E63 		add	r3, r3, #1264
 1872 0048 1868     		ldr	r0, [r3]	@ float
 331:SynaptiX_FDK/app/app.c ****              g_app.time.day, g_app.time.month+1, g_app.time.year);
 1873              		.loc 1 331 24 view .LVU416
 1874 004a 94F85620 		ldrb	r2, [r4, #86]	@ zero_extendqisi2
 331:SynaptiX_FDK/app/app.c ****              g_app.time.day, g_app.time.month+1, g_app.time.year);
 1875              		.loc 1 331 41 view .LVU417
 1876 004e 94F85510 		ldrb	r1, [r4, #85]	@ zero_extendqisi2
 331:SynaptiX_FDK/app/app.c ****              g_app.time.day, g_app.time.month+1, g_app.time.year);
 1877              		.loc 1 331 57 view .LVU418
 1878 0052 94F854C0 		ldrb	ip, [r4, #84]	@ zero_extendqisi2
 332:SynaptiX_FDK/app/app.c **** 
 1879              		.loc 1 332 24 view .LVU419
 1880 0056 94F858E0 		ldrb	lr, [r4, #88]	@ zero_extendqisi2
 332:SynaptiX_FDK/app/app.c **** 
 1881              		.loc 1 332 40 view .LVU420
 1882 005a 94F85930 		ldrb	r3, [r4, #89]	@ zero_extendqisi2
 332:SynaptiX_FDK/app/app.c **** 
 1883              		.loc 1 332 60 view .LVU421
 1884 005e 94F85A40 		ldrb	r4, [r4, #90]	@ zero_extendqisi2
 323:SynaptiX_FDK/app/app.c ****              "{\"mode\":\"%s\",\"rssi\":%d,\"ip\":\"%s\",\"imei\":\"%s\",\"apn\":\"%s\",\"vbat\":%f
 1885              		.loc 1 323 5 view .LVU422
 1886 0062 0B94     		str	r4, [sp, #44]
 1887 0064 0133     		adds	r3, r3, #1
 1888 0066 0A93     		str	r3, [sp, #40]
 1889 0068 CDF824E0 		str	lr, [sp, #36]
 1890 006c CDF820C0 		str	ip, [sp, #32]
 1891 0070 0791     		str	r1, [sp, #28]
 1892 0072 0692     		str	r2, [sp, #24]
 1893 0074 FFF7FEFF 		bl	__aeabi_f2d
 1894              	.LVL175:
 1895 0078 CDE90401 		strd	r0, [sp, #16]
 1896 007c CDF80C80 		str	r8, [sp, #12]
 1897 0080 0297     		str	r7, [sp, #8]
 1898 0082 0196     		str	r6, [sp, #4]
 1899 0084 CDF80090 		str	r9, [sp]
ARM GAS  C:\Users\LENOVO\AppData\Local\Temp\ccMSvD0S.s 			page 60


 1900 0088 2B46     		mov	r3, r5
 1901 008a 0C4A     		ldr	r2, .L119+12
 1902 008c 4FF48071 		mov	r1, #256
 1903 0090 2CA8     		add	r0, sp, #176
 1904 0092 FFF7FEFF 		bl	snprintf
 1905              	.LVL176:
 334:SynaptiX_FDK/app/app.c ****     log_info(TAG, "GSM: %s", msg);
 1906              		.loc 1 334 5 is_stmt 1 view .LVU423
 1907 0096 2CA9     		add	r1, sp, #176
 1908 0098 0CA8     		add	r0, sp, #48
 1909 009a FFF7FEFF 		bl	sx_user_mqtt_publish
 1910              	.LVL177:
 335:SynaptiX_FDK/app/app.c **** }
 1911              		.loc 1 335 5 view .LVU424
 1912 009e 2CAB     		add	r3, sp, #176
 1913 00a0 074A     		ldr	r2, .L119+16
 1914 00a2 0849     		ldr	r1, .L119+20
 1915 00a4 0320     		movs	r0, #3
 1916 00a6 FFF7FEFF 		bl	log_func
 1917              	.LVL178:
 336:SynaptiX_FDK/app/app.c **** 
 1918              		.loc 1 336 1 is_stmt 0 view .LVU425
 1919 00aa 6DB0     		add	sp, sp, #436
 1920              	.LCFI17:
 1921              		.cfi_def_cfa_offset 28
 1922              		@ sp needed
 1923 00ac BDE8F083 		pop	{r4, r5, r6, r7, r8, r9, pc}
 1924              	.LVL179:
 1925              	.L120:
 336:SynaptiX_FDK/app/app.c **** 
 1926              		.loc 1 336 1 view .LVU426
 1927              		.align	2
 1928              	.L119:
 1929 00b0 00000000 		.word	g_app
 1930 00b4 00000000 		.word	.LC55
 1931 00b8 1C000000 		.word	.LC56
 1932 00bc 24000000 		.word	.LC57
 1933 00c0 9C000000 		.word	.LC58
 1934 00c4 18000000 		.word	.LC3
 1935              		.cfi_endproc
 1936              	.LFE563:
 1938              		.section	.text.set_time_exrtc,"ax",%progbits
 1939              		.align	1
 1940              		.syntax unified
 1941              		.thumb
 1942              		.thumb_func
 1944              	set_time_exrtc:
 1945              	.LVL180:
 1946              	.LFB548:
  99:SynaptiX_FDK/app/app.c ****     g_app.time.sec = sec; 
 1947              		.loc 1 99 123 is_stmt 1 view -0
 1948              		.cfi_startproc
 1949              		@ args = 12, pretend = 0, frame = 0
 1950              		@ frame_needed = 0, uses_anonymous_args = 0
  99:SynaptiX_FDK/app/app.c ****     g_app.time.sec = sec; 
 1951              		.loc 1 99 123 is_stmt 0 view .LVU428
 1952 0000 10B5     		push	{r4, lr}
ARM GAS  C:\Users\LENOVO\AppData\Local\Temp\ccMSvD0S.s 			page 61


 1953              	.LCFI18:
 1954              		.cfi_def_cfa_offset 8
 1955              		.cfi_offset 4, -8
 1956              		.cfi_offset 14, -4
 100:SynaptiX_FDK/app/app.c ****     g_app.time.min = min;
 1957              		.loc 1 100 5 is_stmt 1 view .LVU429
 100:SynaptiX_FDK/app/app.c ****     g_app.time.min = min;
 1958              		.loc 1 100 20 is_stmt 0 view .LVU430
 1959 0002 0D4C     		ldr	r4, .L123
 1960 0004 84F85400 		strb	r0, [r4, #84]
 101:SynaptiX_FDK/app/app.c ****     g_app.time.hour = hour;
 1961              		.loc 1 101 5 is_stmt 1 view .LVU431
 101:SynaptiX_FDK/app/app.c ****     g_app.time.hour = hour;
 1962              		.loc 1 101 20 is_stmt 0 view .LVU432
 1963 0008 84F85510 		strb	r1, [r4, #85]
 102:SynaptiX_FDK/app/app.c ****     g_app.time.week = week;
 1964              		.loc 1 102 5 is_stmt 1 view .LVU433
 102:SynaptiX_FDK/app/app.c ****     g_app.time.week = week;
 1965              		.loc 1 102 21 is_stmt 0 view .LVU434
 1966 000c 84F85620 		strb	r2, [r4, #86]
 103:SynaptiX_FDK/app/app.c ****     g_app.time.day = day;
 1967              		.loc 1 103 5 is_stmt 1 view .LVU435
 103:SynaptiX_FDK/app/app.c ****     g_app.time.day = day;
 1968              		.loc 1 103 21 is_stmt 0 view .LVU436
 1969 0010 84F85730 		strb	r3, [r4, #87]
 104:SynaptiX_FDK/app/app.c ****     g_app.time.month = month;
 1970              		.loc 1 104 5 is_stmt 1 view .LVU437
 104:SynaptiX_FDK/app/app.c ****     g_app.time.month = month;
 1971              		.loc 1 104 20 is_stmt 0 view .LVU438
 1972 0014 9DF80830 		ldrb	r3, [sp, #8]	@ zero_extendqisi2
 1973              	.LVL181:
 104:SynaptiX_FDK/app/app.c ****     g_app.time.month = month;
 1974              		.loc 1 104 20 view .LVU439
 1975 0018 84F85830 		strb	r3, [r4, #88]
 1976              	.LVL182:
 105:SynaptiX_FDK/app/app.c ****     g_app.time.year = year;
 1977              		.loc 1 105 5 is_stmt 1 view .LVU440
 105:SynaptiX_FDK/app/app.c ****     g_app.time.year = year;
 1978              		.loc 1 105 22 is_stmt 0 view .LVU441
 1979 001c 9DF80C30 		ldrb	r3, [sp, #12]	@ zero_extendqisi2
 1980 0020 84F85930 		strb	r3, [r4, #89]
 106:SynaptiX_FDK/app/app.c ****     rx8130ce_set_time(&board.rtc, &g_app.time);
 1981              		.loc 1 106 5 is_stmt 1 view .LVU442
 106:SynaptiX_FDK/app/app.c ****     rx8130ce_set_time(&board.rtc, &g_app.time);
 1982              		.loc 1 106 21 is_stmt 0 view .LVU443
 1983 0024 9DF81030 		ldrb	r3, [sp, #16]	@ zero_extendqisi2
 1984 0028 84F85A30 		strb	r3, [r4, #90]
 107:SynaptiX_FDK/app/app.c **** }
 1985              		.loc 1 107 5 is_stmt 1 view .LVU444
 1986 002c 04F15401 		add	r1, r4, #84
 1987              	.LVL183:
 107:SynaptiX_FDK/app/app.c **** }
 1988              		.loc 1 107 5 is_stmt 0 view .LVU445
 1989 0030 0248     		ldr	r0, .L123+4
 1990              	.LVL184:
 107:SynaptiX_FDK/app/app.c **** }
 1991              		.loc 1 107 5 view .LVU446
ARM GAS  C:\Users\LENOVO\AppData\Local\Temp\ccMSvD0S.s 			page 62


 1992 0032 FFF7FEFF 		bl	rx8130ce_set_time
 1993              	.LVL185:
 108:SynaptiX_FDK/app/app.c **** 
 1994              		.loc 1 108 1 view .LVU447
 1995 0036 10BD     		pop	{r4, pc}
 1996              	.LVL186:
 1997              	.L124:
 108:SynaptiX_FDK/app/app.c **** 
 1998              		.loc 1 108 1 view .LVU448
 1999              		.align	2
 2000              	.L123:
 2001 0038 00000000 		.word	g_app
 2002 003c 90050000 		.word	board+1424
 2003              		.cfi_endproc
 2004              	.LFE548:
 2006              		.section	.rodata.publish_gps.str1.4,"aMS",%progbits,1
 2007              		.align	2
 2008              	.LC59:
 2009 0000 76696E64 		.ascii	"vindynamic/tracking/gps/\000"
 2009      796E616D 
 2009      69632F74 
 2009      7261636B 
 2009      696E672F 
 2010 0019 000000   		.align	2
 2011              	.LC60:
 2012 001c 7B5C226C 		.ascii	"{\\\"lat\\\":%.6f,\\\"lon\\\":%.6f,\\\"alt\\\":%.6f"
 2012      61745C22 
 2012      3A252E36 
 2012      662C5C22 
 2012      6C6F6E5C 
 2013 0043 2C5C2273 		.ascii	",\\\"spd\\\":%.6f,\\\"sat\\\":%d,\\\"fix\\\":%d}\000"
 2013      70645C22 
 2013      3A252E36 
 2013      662C5C22 
 2013      7361745C 
 2014              		.align	2
 2015              	.LC61:
 2016 0068 7B227622 		.ascii	"{\"v\":\"%s\",\"time\":%ld}\000"
 2016      3A222573 
 2016      222C2274 
 2016      696D6522 
 2016      3A256C64 
 2017 007e 0000     		.align	2
 2018              	.LC62:
 2019 0080 4750533A 		.ascii	"GPS: %s\000"
 2019      20257300 
 2020              		.section	.text.publish_gps,"ax",%progbits
 2021              		.align	1
 2022              		.syntax unified
 2023              		.thumb
 2024              		.thumb_func
 2026              	publish_gps:
 2027              	.LVL187:
 2028              	.LFB564:
 339:SynaptiX_FDK/app/app.c ****     char v_str[128];
 2029              		.loc 1 339 1 is_stmt 1 view -0
 2030              		.cfi_startproc
ARM GAS  C:\Users\LENOVO\AppData\Local\Temp\ccMSvD0S.s 			page 63


 2031              		@ args = 0, pretend = 0, frame = 552
 2032              		@ frame_needed = 0, uses_anonymous_args = 0
 339:SynaptiX_FDK/app/app.c ****     char v_str[128];
 2033              		.loc 1 339 1 is_stmt 0 view .LVU450
 2034 0000 2DE9F041 		push	{r4, r5, r6, r7, r8, lr}
 2035              	.LCFI19:
 2036              		.cfi_def_cfa_offset 24
 2037              		.cfi_offset 4, -24
 2038              		.cfi_offset 5, -20
 2039              		.cfi_offset 6, -16
 2040              		.cfi_offset 7, -12
 2041              		.cfi_offset 8, -8
 2042              		.cfi_offset 14, -4
 2043 0004 2DED028B 		vpush.64	{d8}
 2044              	.LCFI20:
 2045              		.cfi_def_cfa_offset 32
 2046              		.cfi_offset 80, -32
 2047              		.cfi_offset 81, -28
 2048 0008 ADF5147D 		sub	sp, sp, #592
 2049              	.LCFI21:
 2050              		.cfi_def_cfa_offset 624
 340:SynaptiX_FDK/app/app.c ****     char msg[256];
 2051              		.loc 1 340 5 is_stmt 1 view .LVU451
 341:SynaptiX_FDK/app/app.c ****     char topic[128];
 2052              		.loc 1 341 5 view .LVU452
 342:SynaptiX_FDK/app/app.c ****     sx_gps_t *gps = &g_app.board->gps;
 2053              		.loc 1 342 5 view .LVU453
 343:SynaptiX_FDK/app/app.c ****     struct tm t = {0};
 2054              		.loc 1 343 5 view .LVU454
 343:SynaptiX_FDK/app/app.c ****     struct tm t = {0};
 2055              		.loc 1 343 27 is_stmt 0 view .LVU455
 2056 000c 4F4C     		ldr	r4, .L130
 2057 000e E66C     		ldr	r6, [r4, #76]
 2058              	.LVL188:
 344:SynaptiX_FDK/app/app.c ****     rx8130ce_get_time(&g_app.board->rtc, &g_app.time);
 2059              		.loc 1 344 5 is_stmt 1 view .LVU456
 344:SynaptiX_FDK/app/app.c ****     rx8130ce_get_time(&g_app.board->rtc, &g_app.time);
 2060              		.loc 1 344 15 is_stmt 0 view .LVU457
 2061 0010 2422     		movs	r2, #36
 2062 0012 0021     		movs	r1, #0
 2063 0014 0BA8     		add	r0, sp, #44
 2064              	.LVL189:
 344:SynaptiX_FDK/app/app.c ****     rx8130ce_get_time(&g_app.board->rtc, &g_app.time);
 2065              		.loc 1 344 15 view .LVU458
 2066 0016 FFF7FEFF 		bl	memset
 2067              	.LVL190:
 345:SynaptiX_FDK/app/app.c ****     t.tm_year = g_app.time.year + 100;  
 2068              		.loc 1 345 5 is_stmt 1 view .LVU459
 345:SynaptiX_FDK/app/app.c ****     t.tm_year = g_app.time.year + 100;  
 2069              		.loc 1 345 29 is_stmt 0 view .LVU460
 2070 001a E06C     		ldr	r0, [r4, #76]
 345:SynaptiX_FDK/app/app.c ****     t.tm_year = g_app.time.year + 100;  
 2071              		.loc 1 345 5 view .LVU461
 2072 001c 04F15401 		add	r1, r4, #84
 2073 0020 00F5B260 		add	r0, r0, #1424
 2074 0024 FFF7FEFF 		bl	rx8130ce_get_time
 2075              	.LVL191:
ARM GAS  C:\Users\LENOVO\AppData\Local\Temp\ccMSvD0S.s 			page 64


 346:SynaptiX_FDK/app/app.c ****     t.tm_mon  = g_app.time.month;
 2076              		.loc 1 346 5 is_stmt 1 view .LVU462
 346:SynaptiX_FDK/app/app.c ****     t.tm_mon  = g_app.time.month;
 2077              		.loc 1 346 27 is_stmt 0 view .LVU463
 2078 0028 94F85A30 		ldrb	r3, [r4, #90]	@ zero_extendqisi2
 346:SynaptiX_FDK/app/app.c ****     t.tm_mon  = g_app.time.month;
 2079              		.loc 1 346 33 view .LVU464
 2080 002c 6433     		adds	r3, r3, #100
 346:SynaptiX_FDK/app/app.c ****     t.tm_mon  = g_app.time.month;
 2081              		.loc 1 346 15 view .LVU465
 2082 002e 1093     		str	r3, [sp, #64]
 347:SynaptiX_FDK/app/app.c ****     t.tm_mday = g_app.time.day;
 2083              		.loc 1 347 5 is_stmt 1 view .LVU466
 347:SynaptiX_FDK/app/app.c ****     t.tm_mday = g_app.time.day;
 2084              		.loc 1 347 27 is_stmt 0 view .LVU467
 2085 0030 94F85930 		ldrb	r3, [r4, #89]	@ zero_extendqisi2
 347:SynaptiX_FDK/app/app.c ****     t.tm_mday = g_app.time.day;
 2086              		.loc 1 347 15 view .LVU468
 2087 0034 0F93     		str	r3, [sp, #60]
 348:SynaptiX_FDK/app/app.c ****     t.tm_hour = g_app.time.hour;
 2088              		.loc 1 348 5 is_stmt 1 view .LVU469
 348:SynaptiX_FDK/app/app.c ****     t.tm_hour = g_app.time.hour;
 2089              		.loc 1 348 27 is_stmt 0 view .LVU470
 2090 0036 94F85830 		ldrb	r3, [r4, #88]	@ zero_extendqisi2
 348:SynaptiX_FDK/app/app.c ****     t.tm_hour = g_app.time.hour;
 2091              		.loc 1 348 15 view .LVU471
 2092 003a 0E93     		str	r3, [sp, #56]
 349:SynaptiX_FDK/app/app.c ****     t.tm_min  = g_app.time.min;
 2093              		.loc 1 349 5 is_stmt 1 view .LVU472
 349:SynaptiX_FDK/app/app.c ****     t.tm_min  = g_app.time.min;
 2094              		.loc 1 349 27 is_stmt 0 view .LVU473
 2095 003c 94F85630 		ldrb	r3, [r4, #86]	@ zero_extendqisi2
 349:SynaptiX_FDK/app/app.c ****     t.tm_min  = g_app.time.min;
 2096              		.loc 1 349 15 view .LVU474
 2097 0040 0D93     		str	r3, [sp, #52]
 350:SynaptiX_FDK/app/app.c ****     t.tm_sec  = g_app.time.sec;
 2098              		.loc 1 350 5 is_stmt 1 view .LVU475
 350:SynaptiX_FDK/app/app.c ****     t.tm_sec  = g_app.time.sec;
 2099              		.loc 1 350 27 is_stmt 0 view .LVU476
 2100 0042 94F85530 		ldrb	r3, [r4, #85]	@ zero_extendqisi2
 350:SynaptiX_FDK/app/app.c ****     t.tm_sec  = g_app.time.sec;
 2101              		.loc 1 350 15 view .LVU477
 2102 0046 0C93     		str	r3, [sp, #48]
 351:SynaptiX_FDK/app/app.c ****     time_t unix_ts = mktime(&t);
 2103              		.loc 1 351 5 is_stmt 1 view .LVU478
 351:SynaptiX_FDK/app/app.c ****     time_t unix_ts = mktime(&t);
 2104              		.loc 1 351 27 is_stmt 0 view .LVU479
 2105 0048 94F85430 		ldrb	r3, [r4, #84]	@ zero_extendqisi2
 351:SynaptiX_FDK/app/app.c ****     time_t unix_ts = mktime(&t);
 2106              		.loc 1 351 15 view .LVU480
 2107 004c 0B93     		str	r3, [sp, #44]
 352:SynaptiX_FDK/app/app.c ****     snprintf(topic, sizeof(topic), "%s%s", MQTT_TOPIC_GPS, g_app.device_name);
 2108              		.loc 1 352 5 is_stmt 1 view .LVU481
 352:SynaptiX_FDK/app/app.c ****     snprintf(topic, sizeof(topic), "%s%s", MQTT_TOPIC_GPS, g_app.device_name);
 2109              		.loc 1 352 22 is_stmt 0 view .LVU482
 2110 004e 0BA8     		add	r0, sp, #44
 2111 0050 FFF7FEFF 		bl	mktime
ARM GAS  C:\Users\LENOVO\AppData\Local\Temp\ccMSvD0S.s 			page 65


 2112              	.LVL192:
 2113 0054 0546     		mov	r5, r0
 2114              	.LVL193:
 353:SynaptiX_FDK/app/app.c ****     float lat = 0.0f, lon = 0.0f, alt = 0.0f, spd = 0.0f;
 2115              		.loc 1 353 5 is_stmt 1 view .LVU483
 2116 0056 BC34     		adds	r4, r4, #188
 2117 0058 0094     		str	r4, [sp]
 2118 005a 3D4B     		ldr	r3, .L130+4
 2119 005c 3D4A     		ldr	r2, .L130+8
 2120 005e 8021     		movs	r1, #128
 2121              	.LVL194:
 353:SynaptiX_FDK/app/app.c ****     float lat = 0.0f, lon = 0.0f, alt = 0.0f, spd = 0.0f;
 2122              		.loc 1 353 5 is_stmt 0 view .LVU484
 2123 0060 14A8     		add	r0, sp, #80
 353:SynaptiX_FDK/app/app.c ****     float lat = 0.0f, lon = 0.0f, alt = 0.0f, spd = 0.0f;
 2124              		.loc 1 353 5 view .LVU485
 2125 0062 FFF7FEFF 		bl	snprintf
 2126              	.LVL195:
 354:SynaptiX_FDK/app/app.c ****     int sat = 0;
 2127              		.loc 1 354 5 is_stmt 1 view .LVU486
 355:SynaptiX_FDK/app/app.c ****     int fix = 0; 
 2128              		.loc 1 355 5 view .LVU487
 356:SynaptiX_FDK/app/app.c **** 
 2129              		.loc 1 356 5 view .LVU488
 358:SynaptiX_FDK/app/app.c ****     {
 2130              		.loc 1 358 5 view .LVU489
 358:SynaptiX_FDK/app/app.c ****     {
 2131              		.loc 1 358 12 is_stmt 0 view .LVU490
 2132 0066 96EDD78A 		vldr.32	s16, [r6, #860]
 358:SynaptiX_FDK/app/app.c ****     {
 2133              		.loc 1 358 8 view .LVU491
 2134 006a B5EE408A 		vcmp.f32	s16, #0
 2135 006e F1EE10FA 		vmrs	APSR_nzcv, FPSCR
 2136 0072 08D0     		beq	.L126
 358:SynaptiX_FDK/app/app.c ****     {
 2137              		.loc 1 358 37 discriminator 1 view .LVU492
 2138 0074 D6F86043 		ldr	r4, [r6, #864]	@ float
 358:SynaptiX_FDK/app/app.c ****     {
 2139              		.loc 1 358 31 discriminator 1 view .LVU493
 2140 0078 07EE904A 		vmov	s15, r4
 2141 007c F5EE407A 		vcmp.f32	s15, #0
 2142 0080 F1EE10FA 		vmrs	APSR_nzcv, FPSCR
 2143 0084 3CD1     		bne	.L129
 2144              	.L126:
 372:SynaptiX_FDK/app/app.c ****         // read_last_gps();
 2145              		.loc 1 372 9 is_stmt 1 view .LVU494
 374:SynaptiX_FDK/app/app.c ****         lon = g_app.last_lon;
 2146              		.loc 1 374 9 view .LVU495
 374:SynaptiX_FDK/app/app.c ****         lon = g_app.last_lon;
 2147              		.loc 1 374 13 is_stmt 0 view .LVU496
 2148 0086 314B     		ldr	r3, .L130
 2149 0088 93ED248A 		vldr.32	s16, [r3, #144]
 2150              	.LVL196:
 375:SynaptiX_FDK/app/app.c ****     }
 2151              		.loc 1 375 9 is_stmt 1 view .LVU497
 375:SynaptiX_FDK/app/app.c ****     }
 2152              		.loc 1 375 13 is_stmt 0 view .LVU498
ARM GAS  C:\Users\LENOVO\AppData\Local\Temp\ccMSvD0S.s 			page 66


 2153 008c D3F89440 		ldr	r4, [r3, #148]	@ float
 2154              	.LVL197:
 372:SynaptiX_FDK/app/app.c ****         // read_last_gps();
 2155              		.loc 1 372 13 view .LVU499
 2156 0090 0023     		movs	r3, #0
 355:SynaptiX_FDK/app/app.c ****     int fix = 0; 
 2157              		.loc 1 355 9 view .LVU500
 2158 0092 1E46     		mov	r6, r3
 2159              	.LVL198:
 354:SynaptiX_FDK/app/app.c ****     int sat = 0;
 2160              		.loc 1 354 47 view .LVU501
 2161 0094 0027     		movs	r7, #0
 354:SynaptiX_FDK/app/app.c ****     int sat = 0;
 2162              		.loc 1 354 35 view .LVU502
 2163 0096 B846     		mov	r8, r7	@ float
 2164              	.LVL199:
 2165              	.L127:
 379:SynaptiX_FDK/app/app.c ****              "{\\\"lat\\\":%.6f,\\\"lon\\\":%.6f,\\\"alt\\\":%.6f,\\\"spd\\\":%.6f,\\\"sat\\\":%d,\
 2166              		.loc 1 379 5 is_stmt 1 view .LVU503
 2167 0098 0993     		str	r3, [sp, #36]
 2168 009a 0896     		str	r6, [sp, #32]
 2169 009c 3846     		mov	r0, r7	@ float
 2170 009e FFF7FEFF 		bl	__aeabi_f2d
 2171              	.LVL200:
 379:SynaptiX_FDK/app/app.c ****              "{\\\"lat\\\":%.6f,\\\"lon\\\":%.6f,\\\"alt\\\":%.6f,\\\"spd\\\":%.6f,\\\"sat\\\":%d,\
 2172              		.loc 1 379 5 is_stmt 0 view .LVU504
 2173 00a2 CDE90601 		strd	r0, [sp, #24]
 2174 00a6 4046     		mov	r0, r8	@ float
 2175 00a8 FFF7FEFF 		bl	__aeabi_f2d
 2176              	.LVL201:
 2177 00ac CDE90401 		strd	r0, [sp, #16]
 2178 00b0 2046     		mov	r0, r4	@ float
 2179 00b2 FFF7FEFF 		bl	__aeabi_f2d
 2180              	.LVL202:
 2181 00b6 CDE90201 		strd	r0, [sp, #8]
 2182 00ba 18EE100A 		vmov	r0, s16
 2183 00be FFF7FEFF 		bl	__aeabi_f2d
 2184              	.LVL203:
 2185 00c2 CDE90001 		strd	r0, [sp]
 2186 00c6 244A     		ldr	r2, .L130+12
 2187 00c8 8021     		movs	r1, #128
 2188 00ca 74A8     		add	r0, sp, #464
 2189 00cc FFF7FEFF 		bl	snprintf
 2190              	.LVL204:
 384:SynaptiX_FDK/app/app.c ****              "{\"v\":\"%s\",\"time\":%ld}",
 2191              		.loc 1 384 5 is_stmt 1 view .LVU505
 2192 00d0 0095     		str	r5, [sp]
 2193 00d2 74AB     		add	r3, sp, #464
 2194 00d4 214A     		ldr	r2, .L130+16
 2195 00d6 4FF48071 		mov	r1, #256
 2196 00da 34A8     		add	r0, sp, #208
 2197 00dc FFF7FEFF 		bl	snprintf
 2198              	.LVL205:
 387:SynaptiX_FDK/app/app.c ****     log_info(TAG, "GPS: %s", msg);
 2199              		.loc 1 387 5 view .LVU506
 2200 00e0 34A9     		add	r1, sp, #208
 2201 00e2 14A8     		add	r0, sp, #80
ARM GAS  C:\Users\LENOVO\AppData\Local\Temp\ccMSvD0S.s 			page 67


 2202 00e4 FFF7FEFF 		bl	sx_user_mqtt_publish
 2203              	.LVL206:
 388:SynaptiX_FDK/app/app.c **** }
 2204              		.loc 1 388 5 view .LVU507
 2205 00e8 34AB     		add	r3, sp, #208
 2206 00ea 1D4A     		ldr	r2, .L130+20
 2207 00ec 1D49     		ldr	r1, .L130+24
 2208 00ee 0320     		movs	r0, #3
 2209 00f0 FFF7FEFF 		bl	log_func
 2210              	.LVL207:
 389:SynaptiX_FDK/app/app.c **** 
 2211              		.loc 1 389 1 is_stmt 0 view .LVU508
 2212 00f4 0DF5147D 		add	sp, sp, #592
 2213              	.LCFI22:
 2214              		.cfi_remember_state
 2215              		.cfi_def_cfa_offset 32
 2216              		@ sp needed
 2217 00f8 BDEC028B 		vldm	sp!, {d8}
 2218              	.LCFI23:
 2219              		.cfi_restore 80
 2220              		.cfi_restore 81
 2221              		.cfi_def_cfa_offset 24
 2222              	.LVL208:
 389:SynaptiX_FDK/app/app.c **** 
 2223              		.loc 1 389 1 view .LVU509
 2224 00fc BDE8F081 		pop	{r4, r5, r6, r7, r8, pc}
 2225              	.LVL209:
 2226              	.L129:
 2227              	.LCFI24:
 2228              		.cfi_restore_state
 360:SynaptiX_FDK/app/app.c ****         lon = gps->longtitude;
 2229              		.loc 1 360 9 is_stmt 1 view .LVU510
 361:SynaptiX_FDK/app/app.c ****         alt = gps->altitude;
 2230              		.loc 1 361 9 view .LVU511
 362:SynaptiX_FDK/app/app.c ****         spd = gps->speed;
 2231              		.loc 1 362 9 view .LVU512
 362:SynaptiX_FDK/app/app.c ****         spd = gps->speed;
 2232              		.loc 1 362 13 is_stmt 0 view .LVU513
 2233 0100 D6F86483 		ldr	r8, [r6, #868]	@ float
 2234              	.LVL210:
 363:SynaptiX_FDK/app/app.c ****         sat = gps->satellites;
 2235              		.loc 1 363 9 is_stmt 1 view .LVU514
 363:SynaptiX_FDK/app/app.c ****         sat = gps->satellites;
 2236              		.loc 1 363 13 is_stmt 0 view .LVU515
 2237 0104 D6F86873 		ldr	r7, [r6, #872]	@ float
 2238              	.LVL211:
 364:SynaptiX_FDK/app/app.c ****         fix = 1; 
 2239              		.loc 1 364 9 is_stmt 1 view .LVU516
 364:SynaptiX_FDK/app/app.c ****         fix = 1; 
 2240              		.loc 1 364 13 is_stmt 0 view .LVU517
 2241 0108 D6F86C63 		ldr	r6, [r6, #876]
 2242              	.LVL212:
 365:SynaptiX_FDK/app/app.c ****         set_time_exrtc(board.gps.tim.tm_sec, board.gps.tim.tm_min, board.gps.tim.tm_hour,
 2243              		.loc 1 365 9 is_stmt 1 view .LVU518
 366:SynaptiX_FDK/app/app.c ****                        (board.gps.tim.tm_mday / 7 + 1), board.gps.tim.tm_mday,
 2244              		.loc 1 366 9 view .LVU519
 366:SynaptiX_FDK/app/app.c ****                        (board.gps.tim.tm_mday / 7 + 1), board.gps.tim.tm_mday,
ARM GAS  C:\Users\LENOVO\AppData\Local\Temp\ccMSvD0S.s 			page 68


 2245              		.loc 1 366 37 is_stmt 0 view .LVU520
 2246 010c 1648     		ldr	r0, .L130+28
 367:SynaptiX_FDK/app/app.c ****                        board.gps.tim.tm_mon, board.gps.tim.tm_year - 100);
 2247              		.loc 1 367 38 view .LVU521
 2248 010e D0F87C23 		ldr	r2, [r0, #892]
 367:SynaptiX_FDK/app/app.c ****                        board.gps.tim.tm_mon, board.gps.tim.tm_year - 100);
 2249              		.loc 1 367 47 view .LVU522
 2250 0112 1649     		ldr	r1, .L130+32
 2251 0114 81FB0231 		smull	r3, r1, r1, r2
 2252 0118 1144     		add	r1, r1, r2
 2253 011a D317     		asrs	r3, r2, #31
 2254 011c C3EBA103 		rsb	r3, r3, r1, asr #2
 368:SynaptiX_FDK/app/app.c ****     }
 2255              		.loc 1 368 59 view .LVU523
 2256 0120 D0F88413 		ldr	r1, [r0, #900]
 366:SynaptiX_FDK/app/app.c ****                        (board.gps.tim.tm_mday / 7 + 1), board.gps.tim.tm_mday,
 2257              		.loc 1 366 9 view .LVU524
 2258 0124 0133     		adds	r3, r3, #1
 2259 0126 6439     		subs	r1, r1, #100
 2260 0128 C9B2     		uxtb	r1, r1
 2261 012a 0291     		str	r1, [sp, #8]
 2262 012c 90F88013 		ldrb	r1, [r0, #896]	@ zero_extendqisi2
 2263 0130 0191     		str	r1, [sp, #4]
 2264 0132 D2B2     		uxtb	r2, r2
 2265 0134 0092     		str	r2, [sp]
 2266 0136 DBB2     		uxtb	r3, r3
 2267 0138 90F87823 		ldrb	r2, [r0, #888]	@ zero_extendqisi2
 2268 013c 90F87413 		ldrb	r1, [r0, #884]	@ zero_extendqisi2
 2269 0140 90F87003 		ldrb	r0, [r0, #880]	@ zero_extendqisi2
 2270 0144 FFF7FEFF 		bl	set_time_exrtc
 2271              	.LVL213:
 365:SynaptiX_FDK/app/app.c ****         set_time_exrtc(board.gps.tim.tm_sec, board.gps.tim.tm_min, board.gps.tim.tm_hour,
 2272              		.loc 1 365 13 view .LVU525
 2273 0148 0123     		movs	r3, #1
 366:SynaptiX_FDK/app/app.c ****                        (board.gps.tim.tm_mday / 7 + 1), board.gps.tim.tm_mday,
 2274              		.loc 1 366 9 view .LVU526
 2275 014a A5E7     		b	.L127
 2276              	.L131:
 2277              		.align	2
 2278              	.L130:
 2279 014c 00000000 		.word	g_app
 2280 0150 00000000 		.word	.LC59
 2281 0154 1C000000 		.word	.LC56
 2282 0158 1C000000 		.word	.LC60
 2283 015c 68000000 		.word	.LC61
 2284 0160 80000000 		.word	.LC62
 2285 0164 18000000 		.word	.LC3
 2286 0168 00000000 		.word	board
 2287 016c 93244992 		.word	-1840700269
 2288              		.cfi_endproc
 2289              	.LFE564:
 2291              		.section	.rodata._handle_usb_connected.str1.4,"aMS",%progbits,1
 2292              		.align	2
 2293              	.LC63:
 2294 0000 3D3D3D20 		.ascii	"=== USB connected \342\200\224 restarting ===\000"
 2294      55534220 
 2294      636F6E6E 
ARM GAS  C:\Users\LENOVO\AppData\Local\Temp\ccMSvD0S.s 			page 69


 2294      65637465 
 2294      6420E280 
 2295              		.section	.text._handle_usb_connected,"ax",%progbits
 2296              		.align	1
 2297              		.syntax unified
 2298              		.thumb
 2299              		.thumb_func
 2301              	_handle_usb_connected:
 2302              	.LFB558:
 220:SynaptiX_FDK/app/app.c ****     g_app.sleep.wake_reason = WAKE_REASON_EXTI;
 2303              		.loc 1 220 1 is_stmt 1 view -0
 2304              		.cfi_startproc
 2305              		@ args = 0, pretend = 0, frame = 0
 2306              		@ frame_needed = 0, uses_anonymous_args = 0
 2307 0000 38B5     		push	{r3, r4, r5, lr}
 2308              	.LCFI25:
 2309              		.cfi_def_cfa_offset 16
 2310              		.cfi_offset 3, -16
 2311              		.cfi_offset 4, -12
 2312              		.cfi_offset 5, -8
 2313              		.cfi_offset 14, -4
 221:SynaptiX_FDK/app/app.c **** 
 2314              		.loc 1 221 5 view .LVU528
 221:SynaptiX_FDK/app/app.c **** 
 2315              		.loc 1 221 29 is_stmt 0 view .LVU529
 2316 0002 1E4C     		ldr	r4, .L134
 2317 0004 0223     		movs	r3, #2
 2318 0006 2373     		strb	r3, [r4, #12]
 223:SynaptiX_FDK/app/app.c **** 
 2319              		.loc 1 223 5 is_stmt 1 view .LVU530
 2320 0008 1D4A     		ldr	r2, .L134+4
 2321 000a 1E49     		ldr	r1, .L134+8
 2322 000c 0320     		movs	r0, #3
 2323 000e FFF7FEFF 		bl	log_func
 2324              	.LVL214:
 225:SynaptiX_FDK/app/app.c ****     g_app.publish_count = 0;
 2325              		.loc 1 225 5 view .LVU531
 225:SynaptiX_FDK/app/app.c ****     g_app.publish_count = 0;
 2326              		.loc 1 225 29 is_stmt 0 view .LVU532
 2327 0012 0025     		movs	r5, #0
 2328 0014 84F83D50 		strb	r5, [r4, #61]
 226:SynaptiX_FDK/app/app.c ****     g_app.enter_sleep_published = 0;
 2329              		.loc 1 226 5 is_stmt 1 view .LVU533
 226:SynaptiX_FDK/app/app.c ****     g_app.enter_sleep_published = 0;
 2330              		.loc 1 226 25 is_stmt 0 view .LVU534
 2331 0018 84F84050 		strb	r5, [r4, #64]
 227:SynaptiX_FDK/app/app.c ****     g_app.mqtt_stopped = 0;
 2332              		.loc 1 227 5 is_stmt 1 view .LVU535
 227:SynaptiX_FDK/app/app.c ****     g_app.mqtt_stopped = 0;
 2333              		.loc 1 227 33 is_stmt 0 view .LVU536
 2334 001c 84F83E50 		strb	r5, [r4, #62]
 228:SynaptiX_FDK/app/app.c ****     g_app.subscribed = 0;
 2335              		.loc 1 228 5 is_stmt 1 view .LVU537
 228:SynaptiX_FDK/app/app.c ****     g_app.subscribed = 0;
 2336              		.loc 1 228 24 is_stmt 0 view .LVU538
 2337 0020 84F83F50 		strb	r5, [r4, #63]
 229:SynaptiX_FDK/app/app.c ****     g_app.publish_elapsed = 0;
ARM GAS  C:\Users\LENOVO\AppData\Local\Temp\ccMSvD0S.s 			page 70


 2338              		.loc 1 229 5 is_stmt 1 view .LVU539
 229:SynaptiX_FDK/app/app.c ****     g_app.publish_elapsed = 0;
 2339              		.loc 1 229 22 is_stmt 0 view .LVU540
 2340 0024 84F83C50 		strb	r5, [r4, #60]
 230:SynaptiX_FDK/app/app.c **** 
 2341              		.loc 1 230 5 is_stmt 1 view .LVU541
 230:SynaptiX_FDK/app/app.c **** 
 2342              		.loc 1 230 27 is_stmt 0 view .LVU542
 2343 0028 A563     		str	r5, [r4, #56]
 232:SynaptiX_FDK/app/app.c ****     sx_user_mqtt_force_disconnect();
 2344              		.loc 1 232 5 is_stmt 1 view .LVU543
 2345 002a 04F11000 		add	r0, r4, #16
 2346 002e FFF7FEFF 		bl	sx_sleep_manager_reset_wake
 2347              	.LVL215:
 233:SynaptiX_FDK/app/app.c **** 
 2348              		.loc 1 233 5 view .LVU544
 2349 0032 FFF7FEFF 		bl	sx_user_mqtt_force_disconnect
 2350              	.LVL216:
 235:SynaptiX_FDK/app/app.c ****     g_app.board->sim76xx.base.buff_id = 0;
 2351              		.loc 1 235 5 view .LVU545
 235:SynaptiX_FDK/app/app.c ****     g_app.board->sim76xx.base.buff_id = 0;
 2352              		.loc 1 235 10 is_stmt 0 view .LVU546
 2353 0036 E36C     		ldr	r3, [r4, #76]
 235:SynaptiX_FDK/app/app.c ****     g_app.board->sim76xx.base.buff_id = 0;
 2354              		.loc 1 235 38 view .LVU547
 2355 0038 83F86052 		strb	r5, [r3, #608]
 236:SynaptiX_FDK/app/app.c ****     memset(g_app.board->sim76xx.base.buff, 0, MODEM_RX_BUFFER_SIZE);
 2356              		.loc 1 236 5 is_stmt 1 view .LVU548
 236:SynaptiX_FDK/app/app.c ****     memset(g_app.board->sim76xx.base.buff, 0, MODEM_RX_BUFFER_SIZE);
 2357              		.loc 1 236 10 is_stmt 0 view .LVU549
 2358 003c E36C     		ldr	r3, [r4, #76]
 236:SynaptiX_FDK/app/app.c ****     memset(g_app.board->sim76xx.base.buff, 0, MODEM_RX_BUFFER_SIZE);
 2359              		.loc 1 236 39 view .LVU550
 2360 003e C3F80052 		str	r5, [r3, #512]
 237:SynaptiX_FDK/app/app.c ****     g_app.board->sim76xx.state = SIM76XX_STATE_IDLE;
 2361              		.loc 1 237 5 is_stmt 1 view .LVU551
 237:SynaptiX_FDK/app/app.c ****     g_app.board->sim76xx.state = SIM76XX_STATE_IDLE;
 2362              		.loc 1 237 17 is_stmt 0 view .LVU552
 2363 0042 E06C     		ldr	r0, [r4, #76]
 237:SynaptiX_FDK/app/app.c ****     g_app.board->sim76xx.state = SIM76XX_STATE_IDLE;
 2364              		.loc 1 237 5 view .LVU553
 2365 0044 4FF40072 		mov	r2, #512
 2366 0048 2946     		mov	r1, r5
 2367 004a FFF7FEFF 		bl	memset
 2368              	.LVL217:
 238:SynaptiX_FDK/app/app.c **** 
 2369              		.loc 1 238 5 is_stmt 1 view .LVU554
 238:SynaptiX_FDK/app/app.c **** 
 2370              		.loc 1 238 10 is_stmt 0 view .LVU555
 2371 004e E36C     		ldr	r3, [r4, #76]
 238:SynaptiX_FDK/app/app.c **** 
 2372              		.loc 1 238 32 view .LVU556
 2373 0050 83F87052 		strb	r5, [r3, #624]
 240:SynaptiX_FDK/app/app.c **** 
 2374              		.loc 1 240 5 is_stmt 1 view .LVU557
 2375 0054 FFF7FEFF 		bl	sx_board_uart_resume_it
 2376              	.LVL218:
ARM GAS  C:\Users\LENOVO\AppData\Local\Temp\ccMSvD0S.s 			page 71


 242:SynaptiX_FDK/app/app.c ****     sim76xx_power_on(&g_app.board->sim76xx);
 2377              		.loc 1 242 5 view .LVU558
 242:SynaptiX_FDK/app/app.c ****     sim76xx_power_on(&g_app.board->sim76xx);
 2378              		.loc 1 242 29 is_stmt 0 view .LVU559
 2379 0058 E06C     		ldr	r0, [r4, #76]
 242:SynaptiX_FDK/app/app.c ****     sim76xx_power_on(&g_app.board->sim76xx);
 2380              		.loc 1 242 5 view .LVU560
 2381 005a FFF7FEFF 		bl	sim76xx_power_off
 2382              	.LVL219:
 243:SynaptiX_FDK/app/app.c ****     sim76xx_start(&g_app.board->sim76xx);
 2383              		.loc 1 243 5 is_stmt 1 view .LVU561
 243:SynaptiX_FDK/app/app.c ****     sim76xx_start(&g_app.board->sim76xx);
 2384              		.loc 1 243 28 is_stmt 0 view .LVU562
 2385 005e E06C     		ldr	r0, [r4, #76]
 243:SynaptiX_FDK/app/app.c ****     sim76xx_start(&g_app.board->sim76xx);
 2386              		.loc 1 243 5 view .LVU563
 2387 0060 FFF7FEFF 		bl	sim76xx_power_on
 2388              	.LVL220:
 244:SynaptiX_FDK/app/app.c **** 
 2389              		.loc 1 244 5 is_stmt 1 view .LVU564
 244:SynaptiX_FDK/app/app.c **** 
 2390              		.loc 1 244 25 is_stmt 0 view .LVU565
 2391 0064 E06C     		ldr	r0, [r4, #76]
 244:SynaptiX_FDK/app/app.c **** 
 2392              		.loc 1 244 5 view .LVU566
 2393 0066 FFF7FEFF 		bl	sim76xx_start
 2394              	.LVL221:
 246:SynaptiX_FDK/app/app.c ****     gps_it_handle();
 2395              		.loc 1 246 5 is_stmt 1 view .LVU567
 246:SynaptiX_FDK/app/app.c ****     gps_it_handle();
 2396              		.loc 1 246 24 is_stmt 0 view .LVU568
 2397 006a E06C     		ldr	r0, [r4, #76]
 246:SynaptiX_FDK/app/app.c ****     gps_it_handle();
 2398              		.loc 1 246 5 view .LVU569
 2399 006c 00F54270 		add	r0, r0, #776
 2400 0070 FFF7FEFF 		bl	gps_power_on
 2401              	.LVL222:
 247:SynaptiX_FDK/app/app.c **** }
 2402              		.loc 1 247 5 is_stmt 1 view .LVU570
 2403 0074 FFF7FEFF 		bl	gps_it_handle
 2404              	.LVL223:
 248:SynaptiX_FDK/app/app.c **** 
 2405              		.loc 1 248 1 is_stmt 0 view .LVU571
 2406 0078 38BD     		pop	{r3, r4, r5, pc}
 2407              	.L135:
 2408 007a 00BF     		.align	2
 2409              	.L134:
 2410 007c 00000000 		.word	g_app
 2411 0080 00000000 		.word	.LC63
 2412 0084 18000000 		.word	.LC3
 2413              		.cfi_endproc
 2414              	.LFE558:
 2416              		.section	.rodata._sync_gps_log_to_disk.str1.4,"aMS",%progbits,1
 2417              		.align	2
 2418              	.LC64:
 2419 0000 53796E63 		.ascii	"Syncing last GPS log entry to disk...\000"
 2419      696E6720 
ARM GAS  C:\Users\LENOVO\AppData\Local\Temp\ccMSvD0S.s 			page 72


 2419      6C617374 
 2419      20475053 
 2419      206C6F67 
 2420 0026 0000     		.align	2
 2421              	.LC65:
 2422 0028 4E6F2047 		.ascii	"No GPS log on flash\000"
 2422      5053206C 
 2422      6F67206F 
 2422      6E20666C 
 2422      61736800 
 2423              		.align	2
 2424              	.LC66:
 2425 003c 6E6F2064 		.ascii	"no data\012\000"
 2425      6174610A 
 2425      00
 2426 0045 000000   		.align	2
 2427              	.LC67:
 2428 0048 6C6F675F 		.ascii	"log_gps.csv\000"
 2428      6770732E 
 2428      63737600 
 2429              		.align	2
 2430              	.LC68:
 2431 0054 6669782C 		.ascii	"fix,lat,lon,alt,spd,sat,time,date\012\000"
 2431      6C61742C 
 2431      6C6F6E2C 
 2431      616C742C 
 2431      7370642C 
 2432 0077 00       		.align	2
 2433              	.LC69:
 2434 0078 2573312C 		.ascii	"%s1,%.6f,%.6f,%.6f,%.6f,%d,%s,%s\000"
 2434      252E3666 
 2434      2C252E36 
 2434      662C252E 
 2434      36662C25 
 2435 0099 000000   		.align	2
 2436              	.LC70:
 2437 009c 2573302C 		.ascii	"%s0,0.000000,0.000000,0.000000,0.000000,0,N/A,N/A\000"
 2437      302E3030 
 2437      30303030 
 2437      2C302E30 
 2437      30303030 
 2438 00ce 0000     		.align	2
 2439              	.LC71:
 2440 00d0 47505320 		.ascii	"GPS CSV written: %s\000"
 2440      43535620 
 2440      77726974 
 2440      74656E3A 
 2440      20257300 
 2441              		.section	.text._sync_gps_log_to_disk,"ax",%progbits
 2442              		.align	1
 2443              		.syntax unified
 2444              		.thumb
 2445              		.thumb_func
 2447              	_sync_gps_log_to_disk:
 2448              	.LFB566:
 585:SynaptiX_FDK/app/app.c ****     log_info(TAG, "Syncing last GPS log entry to disk...");
 2449              		.loc 1 585 1 is_stmt 1 view -0
ARM GAS  C:\Users\LENOVO\AppData\Local\Temp\ccMSvD0S.s 			page 73


 2450              		.cfi_startproc
 2451              		@ args = 0, pretend = 0, frame = 0
 2452              		@ frame_needed = 0, uses_anonymous_args = 0
 2453 0000 70B5     		push	{r4, r5, r6, lr}
 2454              	.LCFI26:
 2455              		.cfi_def_cfa_offset 16
 2456              		.cfi_offset 4, -16
 2457              		.cfi_offset 5, -12
 2458              		.cfi_offset 6, -8
 2459              		.cfi_offset 14, -4
 2460 0002 8CB0     		sub	sp, sp, #48
 2461              	.LCFI27:
 2462              		.cfi_def_cfa_offset 64
 586:SynaptiX_FDK/app/app.c **** 
 2463              		.loc 1 586 5 view .LVU573
 2464 0004 344A     		ldr	r2, .L144
 2465 0006 3549     		ldr	r1, .L144+4
 2466 0008 0320     		movs	r0, #3
 2467 000a FFF7FEFF 		bl	log_func
 2468              	.LVL224:
 588:SynaptiX_FDK/app/app.c ****     {
 2469              		.loc 1 588 5 view .LVU574
 588:SynaptiX_FDK/app/app.c ****     {
 2470              		.loc 1 588 10 is_stmt 0 view .LVU575
 2471 000e 3448     		ldr	r0, .L144+8
 2472 0010 FFF7FEFF 		bl	sx_storage_exists
 2473              	.LVL225:
 588:SynaptiX_FDK/app/app.c ****     {
 2474              		.loc 1 588 8 discriminator 1 view .LVU576
 2475 0014 48B3     		cbz	r0, .L142
 598:SynaptiX_FDK/app/app.c **** 
 2476              		.loc 1 598 5 is_stmt 1 view .LVU577
 2477 0016 FFF7FEFF 		bl	read_last_gps
 2478              	.LVL226:
 600:SynaptiX_FDK/app/app.c **** 
 2479              		.loc 1 600 5 view .LVU578
 602:SynaptiX_FDK/app/app.c ****     {
 2480              		.loc 1 602 5 view .LVU579
 602:SynaptiX_FDK/app/app.c ****     {
 2481              		.loc 1 602 14 is_stmt 0 view .LVU580
 2482 001a 324B     		ldr	r3, .L144+12
 2483 001c D3ED247A 		vldr.32	s15, [r3, #144]
 602:SynaptiX_FDK/app/app.c ****     {
 2484              		.loc 1 602 8 view .LVU581
 2485 0020 F5EE407A 		vcmp.f32	s15, #0
 2486 0024 F1EE10FA 		vmrs	APSR_nzcv, FPSCR
 2487 0028 06D0     		beq	.L139
 602:SynaptiX_FDK/app/app.c ****     {
 2488              		.loc 1 602 40 discriminator 1 view .LVU582
 2489 002a D3ED257A 		vldr.32	s15, [r3, #148]
 602:SynaptiX_FDK/app/app.c ****     {
 2490              		.loc 1 602 32 discriminator 1 view .LVU583
 2491 002e F5EE407A 		vcmp.f32	s15, #0
 2492 0032 F1EE10FA 		vmrs	APSR_nzcv, FPSCR
 2493 0036 25D1     		bne	.L143
 2494              	.L139:
 613:SynaptiX_FDK/app/app.c ****                 "%s0,0.000000,0.000000,0.000000,0.000000,0,N/A,N/A",
ARM GAS  C:\Users\LENOVO\AppData\Local\Temp\ccMSvD0S.s 			page 74


 2495              		.loc 1 613 9 is_stmt 1 view .LVU584
 2496 0038 2B4B     		ldr	r3, .L144+16
 2497 003a 2C4A     		ldr	r2, .L144+20
 2498 003c C021     		movs	r1, #192
 2499 003e 2C48     		ldr	r0, .L144+24
 2500 0040 FFF7FEFF 		bl	snprintf
 2501              	.LVL227:
 2502              	.L140:
 618:SynaptiX_FDK/app/app.c ****                       (const uint8_t *)s_csv_line,
 2503              		.loc 1 618 5 view .LVU585
 620:SynaptiX_FDK/app/app.c ****     sx_user_msc_remount_disk();
 2504              		.loc 1 620 23 is_stmt 0 view .LVU586
 2505 0044 2A4C     		ldr	r4, .L144+24
 2506 0046 2046     		mov	r0, r4
 2507 0048 FFF7FEFF 		bl	strlen
 2508              	.LVL228:
 2509 004c 0246     		mov	r2, r0
 618:SynaptiX_FDK/app/app.c ****                       (const uint8_t *)s_csv_line,
 2510              		.loc 1 618 5 view .LVU587
 2511 004e 2146     		mov	r1, r4
 2512 0050 2848     		ldr	r0, .L144+28
 2513 0052 FFF7FEFF 		bl	sx_user_msc_write
 2514              	.LVL229:
 621:SynaptiX_FDK/app/app.c ****     log_info(TAG, "GPS CSV written: %s", s_csv_line);
 2515              		.loc 1 621 5 is_stmt 1 view .LVU588
 2516 0056 FFF7FEFF 		bl	sx_user_msc_remount_disk
 2517              	.LVL230:
 622:SynaptiX_FDK/app/app.c **** }
 2518              		.loc 1 622 5 view .LVU589
 2519 005a 2346     		mov	r3, r4
 2520 005c 264A     		ldr	r2, .L144+32
 2521 005e 1F49     		ldr	r1, .L144+4
 2522 0060 0320     		movs	r0, #3
 2523 0062 FFF7FEFF 		bl	log_func
 2524              	.LVL231:
 2525              	.L136:
 623:SynaptiX_FDK/app/app.c **** 
 2526              		.loc 1 623 1 is_stmt 0 view .LVU590
 2527 0066 0CB0     		add	sp, sp, #48
 2528              	.LCFI28:
 2529              		.cfi_remember_state
 2530              		.cfi_def_cfa_offset 16
 2531              		@ sp needed
 2532 0068 70BD     		pop	{r4, r5, r6, pc}
 2533              	.L142:
 2534              	.LCFI29:
 2535              		.cfi_restore_state
 590:SynaptiX_FDK/app/app.c ****         sx_user_msc_write(GPS_CSV_FILE_PATH,
 2536              		.loc 1 590 9 is_stmt 1 view .LVU591
 2537 006a 244A     		ldr	r2, .L144+36
 2538 006c 1B49     		ldr	r1, .L144+4
 2539 006e 0220     		movs	r0, #2
 2540 0070 FFF7FEFF 		bl	log_func
 2541              	.LVL232:
 591:SynaptiX_FDK/app/app.c ****                           (const uint8_t *)"no data\n",
 2542              		.loc 1 591 9 view .LVU592
 2543 0074 0822     		movs	r2, #8
ARM GAS  C:\Users\LENOVO\AppData\Local\Temp\ccMSvD0S.s 			page 75


 2544 0076 2249     		ldr	r1, .L144+40
 2545 0078 1E48     		ldr	r0, .L144+28
 2546 007a FFF7FEFF 		bl	sx_user_msc_write
 2547              	.LVL233:
 594:SynaptiX_FDK/app/app.c ****         return;
 2548              		.loc 1 594 9 view .LVU593
 2549 007e FFF7FEFF 		bl	sx_user_msc_remount_disk
 2550              	.LVL234:
 595:SynaptiX_FDK/app/app.c ****     }
 2551              		.loc 1 595 9 view .LVU594
 2552 0082 F0E7     		b	.L136
 2553              	.L143:
 604:SynaptiX_FDK/app/app.c ****                 "%s1,%.6f,%.6f,%.6f,%.6f,%d,%s,%s",
 2554              		.loc 1 604 9 view .LVU595
 607:SynaptiX_FDK/app/app.c ****                 g_app.last_alt, g_app.last_spd, g_app.last_sat,
 2555              		.loc 1 607 22 is_stmt 0 view .LVU596
 2556 0084 D3F89040 		ldr	r4, [r3, #144]	@ float
 607:SynaptiX_FDK/app/app.c ****                 g_app.last_alt, g_app.last_spd, g_app.last_sat,
 2557              		.loc 1 607 38 view .LVU597
 2558 0088 D3F89450 		ldr	r5, [r3, #148]	@ float
 608:SynaptiX_FDK/app/app.c ****                 g_app.last_time_str, g_app.last_date_str);
 2559              		.loc 1 608 22 view .LVU598
 2560 008c D3F89860 		ldr	r6, [r3, #152]	@ float
 608:SynaptiX_FDK/app/app.c ****                 g_app.last_time_str, g_app.last_date_str);
 2561              		.loc 1 608 38 view .LVU599
 2562 0090 D3F89C00 		ldr	r0, [r3, #156]	@ float
 608:SynaptiX_FDK/app/app.c ****                 g_app.last_time_str, g_app.last_date_str);
 2563              		.loc 1 608 54 view .LVU600
 2564 0094 D3F8A020 		ldr	r2, [r3, #160]
 604:SynaptiX_FDK/app/app.c ****                 "%s1,%.6f,%.6f,%.6f,%.6f,%d,%s,%s",
 2565              		.loc 1 604 9 view .LVU601
 2566 0098 03F1B001 		add	r1, r3, #176
 2567 009c 0A91     		str	r1, [sp, #40]
 2568 009e A433     		adds	r3, r3, #164
 2569 00a0 0993     		str	r3, [sp, #36]
 2570 00a2 0892     		str	r2, [sp, #32]
 2571 00a4 FFF7FEFF 		bl	__aeabi_f2d
 2572              	.LVL235:
 2573 00a8 CDE90601 		strd	r0, [sp, #24]
 2574 00ac 3046     		mov	r0, r6	@ float
 2575 00ae FFF7FEFF 		bl	__aeabi_f2d
 2576              	.LVL236:
 2577 00b2 CDE90401 		strd	r0, [sp, #16]
 2578 00b6 2846     		mov	r0, r5	@ float
 2579 00b8 FFF7FEFF 		bl	__aeabi_f2d
 2580              	.LVL237:
 2581 00bc CDE90201 		strd	r0, [sp, #8]
 2582 00c0 2046     		mov	r0, r4	@ float
 2583 00c2 FFF7FEFF 		bl	__aeabi_f2d
 2584              	.LVL238:
 2585 00c6 CDE90001 		strd	r0, [sp]
 2586 00ca 074B     		ldr	r3, .L144+16
 2587 00cc 0D4A     		ldr	r2, .L144+44
 2588 00ce C021     		movs	r1, #192
 2589 00d0 0748     		ldr	r0, .L144+24
 2590 00d2 FFF7FEFF 		bl	snprintf
 2591              	.LVL239:
ARM GAS  C:\Users\LENOVO\AppData\Local\Temp\ccMSvD0S.s 			page 76


 2592 00d6 B5E7     		b	.L140
 2593              	.L145:
 2594              		.align	2
 2595              	.L144:
 2596 00d8 00000000 		.word	.LC64
 2597 00dc 18000000 		.word	.LC3
 2598 00e0 00000000 		.word	.LC46
 2599 00e4 00000000 		.word	g_app
 2600 00e8 54000000 		.word	.LC68
 2601 00ec 9C000000 		.word	.LC70
 2602 00f0 00000000 		.word	s_csv_line.1
 2603 00f4 48000000 		.word	.LC67
 2604 00f8 D0000000 		.word	.LC71
 2605 00fc 28000000 		.word	.LC65
 2606 0100 3C000000 		.word	.LC66
 2607 0104 78000000 		.word	.LC69
 2608              		.cfi_endproc
 2609              	.LFE566:
 2611              		.section	.rodata.write_gps_log.str1.4,"aMS",%progbits,1
 2612              		.align	2
 2613              	.LC72:
 2614 0000 5B25735D 		.ascii	"[%s] fix=1 lat=%.6f lon=%.6f rssi=%d alt=%.6f spd=%"
 2614      20666978 
 2614      3D31206C 
 2614      61743D25 
 2614      2E366620 
 2615 0033 2E366620 		.ascii	".6f sat=%d time=%02d:%02d:%02d date=%02d/%02d/20%02"
 2615      7361743D 
 2615      25642074 
 2615      696D653D 
 2615      25303264 
 2616 0066 640A00   		.ascii	"d\012\000"
 2617 0069 000000   		.align	2
 2618              	.LC73:
 2619 006c 5B25735D 		.ascii	"[%s] fix=0 lat=0.000000 lon=0.000000 rssi=%d alt=0."
 2619      20666978 
 2619      3D30206C 
 2619      61743D30 
 2619      2E303030 
 2620 009f 30303030 		.ascii	"000000 spd=0.000000 sat=0 time=%02d:%02d:%02d date="
 2620      30302073 
 2620      70643D30 
 2620      2E303030 
 2620      30303020 
 2621 00d2 25303264 		.ascii	"%02d/%02d/20%02d\012\000"
 2621      2F253032 
 2621      642F3230 
 2621      25303264 
 2621      0A00
 2622              		.align	2
 2623              	.LC74:
 2624 00e4 47505320 		.ascii	"GPS log written: %s\000"
 2624      6C6F6720 
 2624      77726974 
 2624      74656E3A 
 2624      20257300 
 2625              		.section	.text.write_gps_log,"ax",%progbits
ARM GAS  C:\Users\LENOVO\AppData\Local\Temp\ccMSvD0S.s 			page 77


 2626              		.align	1
 2627              		.syntax unified
 2628              		.thumb
 2629              		.thumb_func
 2631              	write_gps_log:
 2632              	.LVL240:
 2633              	.LFB553:
 130:SynaptiX_FDK/app/app.c ****     static uint32_t s_log_count = 0;
 2634              		.loc 1 130 1 is_stmt 1 view -0
 2635              		.cfi_startproc
 2636              		@ args = 0, pretend = 0, frame = 192
 2637              		@ frame_needed = 0, uses_anonymous_args = 0
 130:SynaptiX_FDK/app/app.c ****     static uint32_t s_log_count = 0;
 2638              		.loc 1 130 1 is_stmt 0 view .LVU603
 2639 0000 2DE9F041 		push	{r4, r5, r6, r7, r8, lr}
 2640              	.LCFI30:
 2641              		.cfi_def_cfa_offset 24
 2642              		.cfi_offset 4, -24
 2643              		.cfi_offset 5, -20
 2644              		.cfi_offset 6, -16
 2645              		.cfi_offset 7, -12
 2646              		.cfi_offset 8, -8
 2647              		.cfi_offset 14, -4
 2648 0004 2DED028B 		vpush.64	{d8}
 2649              	.LCFI31:
 2650              		.cfi_def_cfa_offset 32
 2651              		.cfi_offset 80, -32
 2652              		.cfi_offset 81, -28
 2653 0008 C2B0     		sub	sp, sp, #264
 2654              	.LCFI32:
 2655              		.cfi_def_cfa_offset 296
 2656 000a 0546     		mov	r5, r0
 131:SynaptiX_FDK/app/app.c ****     char line[192];
 2657              		.loc 1 131 5 is_stmt 1 view .LVU604
 132:SynaptiX_FDK/app/app.c ****     sx_gps_t *gps = &g_app.board->gps;
 2658              		.loc 1 132 5 view .LVU605
 133:SynaptiX_FDK/app/app.c **** 
 2659              		.loc 1 133 5 view .LVU606
 133:SynaptiX_FDK/app/app.c **** 
 2660              		.loc 1 133 27 is_stmt 0 view .LVU607
 2661 000c 4649     		ldr	r1, .L151
 2662 000e CC6C     		ldr	r4, [r1, #76]
 2663              	.LVL241:
 135:SynaptiX_FDK/app/app.c **** 
 2664              		.loc 1 135 5 is_stmt 1 view .LVU608
 135:SynaptiX_FDK/app/app.c **** 
 2665              		.loc 1 135 29 is_stmt 0 view .LVU609
 2666 0010 C86C     		ldr	r0, [r1, #76]
 2667              	.LVL242:
 135:SynaptiX_FDK/app/app.c **** 
 2668              		.loc 1 135 5 view .LVU610
 2669 0012 5431     		adds	r1, r1, #84
 2670 0014 00F5B260 		add	r0, r0, #1424
 2671 0018 FFF7FEFF 		bl	rx8130ce_get_time
 2672              	.LVL243:
 137:SynaptiX_FDK/app/app.c ****     {
 2673              		.loc 1 137 5 is_stmt 1 view .LVU611
ARM GAS  C:\Users\LENOVO\AppData\Local\Temp\ccMSvD0S.s 			page 78


 137:SynaptiX_FDK/app/app.c ****     {
 2674              		.loc 1 137 12 is_stmt 0 view .LVU612
 2675 001c 94EDD78A 		vldr.32	s16, [r4, #860]
 137:SynaptiX_FDK/app/app.c ****     {
 2676              		.loc 1 137 8 view .LVU613
 2677 0020 B5EE408A 		vcmp.f32	s16, #0
 2678 0024 F1EE10FA 		vmrs	APSR_nzcv, FPSCR
 2679 0028 06D0     		beq	.L147
 137:SynaptiX_FDK/app/app.c ****     {
 2680              		.loc 1 137 37 discriminator 1 view .LVU614
 2681 002a D4EDD88A 		vldr.32	s17, [r4, #864]
 137:SynaptiX_FDK/app/app.c ****     {
 2682              		.loc 1 137 31 discriminator 1 view .LVU615
 2683 002e F5EE408A 		vcmp.f32	s17, #0
 2684 0032 F1EE10FA 		vmrs	APSR_nzcv, FPSCR
 2685 0036 38D1     		bne	.L150
 2686              	.L147:
 150:SynaptiX_FDK/app/app.c ****                  "[%s] fix=0 lat=0.000000 lon=0.000000 rssi=%d alt=0.000000 spd=0.000000 sat=0 time
 2687              		.loc 1 150 9 is_stmt 1 view .LVU616
 153:SynaptiX_FDK/app/app.c ****                  g_app.time.hour, g_app.time.min, g_app.time.sec,
 2688              		.loc 1 153 41 is_stmt 0 view .LVU617
 2689 0038 3B4A     		ldr	r2, .L151
 2690 003a D36C     		ldr	r3, [r2, #76]
 2691              	.LVL244:
 2692              	.LBB36:
 2693              	.LBI36:
 111:SynaptiX_FDK/components/sim76xx/sim76xx.h ****     return dce->rssi;
 2694              		.loc 2 111 19 is_stmt 1 view .LVU618
 2695              	.LBB37:
 112:SynaptiX_FDK/components/sim76xx/sim76xx.h **** }
 2696              		.loc 2 112 5 view .LVU619
 112:SynaptiX_FDK/components/sim76xx/sim76xx.h **** }
 2697              		.loc 2 112 15 is_stmt 0 view .LVU620
 2698 003c D3F87432 		ldr	r3, [r3, #628]
 2699              	.LVL245:
 112:SynaptiX_FDK/components/sim76xx/sim76xx.h **** }
 2700              		.loc 2 112 15 view .LVU621
 2701              	.LBE37:
 2702              	.LBE36:
 154:SynaptiX_FDK/app/app.c ****                  g_app.time.day,  g_app.time.month+1, g_app.time.year);
 2703              		.loc 1 154 28 view .LVU622
 2704 0040 92F85600 		ldrb	r0, [r2, #86]	@ zero_extendqisi2
 154:SynaptiX_FDK/app/app.c ****                  g_app.time.day,  g_app.time.month+1, g_app.time.year);
 2705              		.loc 1 154 45 view .LVU623
 2706 0044 92F85540 		ldrb	r4, [r2, #85]	@ zero_extendqisi2
 2707              	.LVL246:
 154:SynaptiX_FDK/app/app.c ****                  g_app.time.day,  g_app.time.month+1, g_app.time.year);
 2708              		.loc 1 154 61 view .LVU624
 2709 0048 92F85460 		ldrb	r6, [r2, #84]	@ zero_extendqisi2
 155:SynaptiX_FDK/app/app.c ****     }
 2710              		.loc 1 155 28 view .LVU625
 2711 004c 92F85870 		ldrb	r7, [r2, #88]	@ zero_extendqisi2
 155:SynaptiX_FDK/app/app.c ****     }
 2712              		.loc 1 155 45 view .LVU626
 2713 0050 92F85910 		ldrb	r1, [r2, #89]	@ zero_extendqisi2
 155:SynaptiX_FDK/app/app.c ****     }
 2714              		.loc 1 155 65 view .LVU627
ARM GAS  C:\Users\LENOVO\AppData\Local\Temp\ccMSvD0S.s 			page 79


 2715 0054 92F85A20 		ldrb	r2, [r2, #90]	@ zero_extendqisi2
 150:SynaptiX_FDK/app/app.c ****                  "[%s] fix=0 lat=0.000000 lon=0.000000 rssi=%d alt=0.000000 spd=0.000000 sat=0 time
 2716              		.loc 1 150 9 view .LVU628
 2717 0058 0692     		str	r2, [sp, #24]
 2718 005a 0131     		adds	r1, r1, #1
 2719 005c 0591     		str	r1, [sp, #20]
 2720 005e 0497     		str	r7, [sp, #16]
 2721 0060 0396     		str	r6, [sp, #12]
 2722 0062 0294     		str	r4, [sp, #8]
 2723 0064 0190     		str	r0, [sp, #4]
 2724 0066 0093     		str	r3, [sp]
 2725 0068 2B46     		mov	r3, r5
 2726 006a 304A     		ldr	r2, .L151+4
 2727 006c C021     		movs	r1, #192
 2728 006e 12A8     		add	r0, sp, #72
 2729 0070 FFF7FEFF 		bl	snprintf
 2730              	.LVL247:
 2731              	.L148:
 158:SynaptiX_FDK/app/app.c ****     sx_storage_append(GPS_LOG_FILE_PATH, line, strlen(line));
 2732              		.loc 1 158 5 is_stmt 1 view .LVU629
 2733 0074 2E4C     		ldr	r4, .L151+8
 2734 0076 2046     		mov	r0, r4
 2735 0078 FFF7FEFF 		bl	sx_storage_delete
 2736              	.LVL248:
 159:SynaptiX_FDK/app/app.c ****     s_log_count++;
 2737              		.loc 1 159 5 view .LVU630
 159:SynaptiX_FDK/app/app.c ****     s_log_count++;
 2738              		.loc 1 159 48 is_stmt 0 view .LVU631
 2739 007c 12A8     		add	r0, sp, #72
 2740 007e FFF7FEFF 		bl	strlen
 2741              	.LVL249:
 2742 0082 0246     		mov	r2, r0
 159:SynaptiX_FDK/app/app.c ****     s_log_count++;
 2743              		.loc 1 159 5 discriminator 1 view .LVU632
 2744 0084 12A9     		add	r1, sp, #72
 2745 0086 2046     		mov	r0, r4
 2746 0088 FFF7FEFF 		bl	sx_storage_append
 2747              	.LVL250:
 160:SynaptiX_FDK/app/app.c ****     log_info(TAG, "GPS log written: %s", line);
 2748              		.loc 1 160 5 is_stmt 1 view .LVU633
 160:SynaptiX_FDK/app/app.c ****     log_info(TAG, "GPS log written: %s", line);
 2749              		.loc 1 160 16 is_stmt 0 view .LVU634
 2750 008c 294A     		ldr	r2, .L151+12
 2751 008e 1368     		ldr	r3, [r2]
 2752 0090 0133     		adds	r3, r3, #1
 2753 0092 1360     		str	r3, [r2]
 161:SynaptiX_FDK/app/app.c **** }
 2754              		.loc 1 161 5 is_stmt 1 view .LVU635
 2755 0094 12AB     		add	r3, sp, #72
 2756 0096 284A     		ldr	r2, .L151+16
 2757 0098 2849     		ldr	r1, .L151+20
 2758 009a 0320     		movs	r0, #3
 2759 009c FFF7FEFF 		bl	log_func
 2760              	.LVL251:
 162:SynaptiX_FDK/app/app.c **** 
 2761              		.loc 1 162 1 is_stmt 0 view .LVU636
 2762 00a0 42B0     		add	sp, sp, #264
ARM GAS  C:\Users\LENOVO\AppData\Local\Temp\ccMSvD0S.s 			page 80


 2763              	.LCFI33:
 2764              		.cfi_remember_state
 2765              		.cfi_def_cfa_offset 32
 2766              		@ sp needed
 2767 00a2 BDEC028B 		vldm	sp!, {d8}
 2768              	.LCFI34:
 2769              		.cfi_restore 80
 2770              		.cfi_restore 81
 2771              		.cfi_def_cfa_offset 24
 2772 00a6 BDE8F081 		pop	{r4, r5, r6, r7, r8, pc}
 2773              	.LVL252:
 2774              	.L150:
 2775              	.LCFI35:
 2776              		.cfi_restore_state
 139:SynaptiX_FDK/app/app.c ****                  "[%s] fix=1 lat=%.6f lon=%.6f rssi=%d alt=%.6f spd=%.6f sat=%d time=%02d:%02d:%02d
 2777              		.loc 1 139 9 is_stmt 1 view .LVU637
 143:SynaptiX_FDK/app/app.c ****                  gps->altitude, gps->speed, gps->satellites,
 2778              		.loc 1 143 41 is_stmt 0 view .LVU638
 2779 00aa 1F4B     		ldr	r3, .L151
 2780 00ac DA6C     		ldr	r2, [r3, #76]
 2781              	.LVL253:
 2782              	.LBB38:
 2783              	.LBI38:
 111:SynaptiX_FDK/components/sim76xx/sim76xx.h ****     return dce->rssi;
 2784              		.loc 2 111 19 is_stmt 1 view .LVU639
 2785              	.LBB39:
 112:SynaptiX_FDK/components/sim76xx/sim76xx.h **** }
 2786              		.loc 2 112 5 view .LVU640
 112:SynaptiX_FDK/components/sim76xx/sim76xx.h **** }
 2787              		.loc 2 112 15 is_stmt 0 view .LVU641
 2788 00ae D2F87462 		ldr	r6, [r2, #628]
 2789              	.LVL254:
 112:SynaptiX_FDK/components/sim76xx/sim76xx.h **** }
 2790              		.loc 2 112 15 view .LVU642
 2791              	.LBE39:
 2792              	.LBE38:
 144:SynaptiX_FDK/app/app.c ****                  g_app.time.hour, g_app.time.min, g_app.time.sec,
 2793              		.loc 1 144 21 view .LVU643
 2794 00b2 D4F86473 		ldr	r7, [r4, #868]	@ float
 144:SynaptiX_FDK/app/app.c ****                  g_app.time.hour, g_app.time.min, g_app.time.sec,
 2795              		.loc 1 144 36 view .LVU644
 2796 00b6 D4F86803 		ldr	r0, [r4, #872]	@ float
 145:SynaptiX_FDK/app/app.c ****                  g_app.time.day,  g_app.time.month+1, g_app.time.year);
 2797              		.loc 1 145 28 view .LVU645
 2798 00ba 93F85610 		ldrb	r1, [r3, #86]	@ zero_extendqisi2
 145:SynaptiX_FDK/app/app.c ****                  g_app.time.day,  g_app.time.month+1, g_app.time.year);
 2799              		.loc 1 145 45 view .LVU646
 2800 00be 93F855C0 		ldrb	ip, [r3, #85]	@ zero_extendqisi2
 145:SynaptiX_FDK/app/app.c ****                  g_app.time.day,  g_app.time.month+1, g_app.time.year);
 2801              		.loc 1 145 61 view .LVU647
 2802 00c2 93F854E0 		ldrb	lr, [r3, #84]	@ zero_extendqisi2
 146:SynaptiX_FDK/app/app.c ****     }
 2803              		.loc 1 146 28 view .LVU648
 2804 00c6 93F85880 		ldrb	r8, [r3, #88]	@ zero_extendqisi2
 146:SynaptiX_FDK/app/app.c ****     }
 2805              		.loc 1 146 45 view .LVU649
 2806 00ca 93F85920 		ldrb	r2, [r3, #89]	@ zero_extendqisi2
ARM GAS  C:\Users\LENOVO\AppData\Local\Temp\ccMSvD0S.s 			page 81


 146:SynaptiX_FDK/app/app.c ****     }
 2807              		.loc 1 146 65 view .LVU650
 2808 00ce 93F85A30 		ldrb	r3, [r3, #90]	@ zero_extendqisi2
 139:SynaptiX_FDK/app/app.c ****                  "[%s] fix=1 lat=%.6f lon=%.6f rssi=%d alt=%.6f spd=%.6f sat=%d time=%02d:%02d:%02d
 2809              		.loc 1 139 9 view .LVU651
 2810 00d2 1093     		str	r3, [sp, #64]
 2811 00d4 0132     		adds	r2, r2, #1
 2812 00d6 0F92     		str	r2, [sp, #60]
 2813 00d8 CDF83880 		str	r8, [sp, #56]
 2814 00dc CDF834E0 		str	lr, [sp, #52]
 2815 00e0 CDF830C0 		str	ip, [sp, #48]
 2816 00e4 0B91     		str	r1, [sp, #44]
 2817 00e6 D4F86C33 		ldr	r3, [r4, #876]
 2818 00ea 0A93     		str	r3, [sp, #40]
 2819 00ec FFF7FEFF 		bl	__aeabi_f2d
 2820              	.LVL255:
 2821 00f0 CDE90801 		strd	r0, [sp, #32]
 2822 00f4 3846     		mov	r0, r7	@ float
 2823 00f6 FFF7FEFF 		bl	__aeabi_f2d
 2824              	.LVL256:
 2825 00fa CDE90601 		strd	r0, [sp, #24]
 2826 00fe 0496     		str	r6, [sp, #16]
 2827 0100 18EE900A 		vmov	r0, s17
 2828 0104 FFF7FEFF 		bl	__aeabi_f2d
 2829              	.LVL257:
 2830 0108 CDE90201 		strd	r0, [sp, #8]
 2831 010c 18EE100A 		vmov	r0, s16
 2832 0110 FFF7FEFF 		bl	__aeabi_f2d
 2833              	.LVL258:
 2834 0114 CDE90001 		strd	r0, [sp]
 2835 0118 2B46     		mov	r3, r5
 2836 011a 094A     		ldr	r2, .L151+24
 2837 011c C021     		movs	r1, #192
 2838 011e 12A8     		add	r0, sp, #72
 2839 0120 FFF7FEFF 		bl	snprintf
 2840              	.LVL259:
 2841 0124 A6E7     		b	.L148
 2842              	.L152:
 2843 0126 00BF     		.align	2
 2844              	.L151:
 2845 0128 00000000 		.word	g_app
 2846 012c 6C000000 		.word	.LC73
 2847 0130 00000000 		.word	.LC46
 2848 0134 00000000 		.word	s_log_count.0
 2849 0138 E4000000 		.word	.LC74
 2850 013c 18000000 		.word	.LC3
 2851 0140 00000000 		.word	.LC72
 2852              		.cfi_endproc
 2853              	.LFE553:
 2855              		.section	.text.app_mode_full_pw,"ax",%progbits
 2856              		.align	1
 2857              		.global	app_mode_full_pw
 2858              		.syntax unified
 2859              		.thumb
 2860              		.thumb_func
 2862              	app_mode_full_pw:
 2863              	.LFB550:
ARM GAS  C:\Users\LENOVO\AppData\Local\Temp\ccMSvD0S.s 			page 82


 117:SynaptiX_FDK/app/app.c ****     g_app.app_mode = APP_MODE_FULL_POWER;
 2864              		.loc 1 117 28 is_stmt 1 view -0
 2865              		.cfi_startproc
 2866              		@ args = 0, pretend = 0, frame = 0
 2867              		@ frame_needed = 0, uses_anonymous_args = 0
 2868              		@ link register save eliminated.
 118:SynaptiX_FDK/app/app.c **** }
 2869              		.loc 1 118 5 view .LVU653
 118:SynaptiX_FDK/app/app.c **** }
 2870              		.loc 1 118 20 is_stmt 0 view .LVU654
 2871 0000 014B     		ldr	r3, .L154
 2872 0002 0022     		movs	r2, #0
 2873 0004 1A70     		strb	r2, [r3]
 119:SynaptiX_FDK/app/app.c **** 
 2874              		.loc 1 119 1 view .LVU655
 2875 0006 7047     		bx	lr
 2876              	.L155:
 2877              		.align	2
 2878              	.L154:
 2879 0008 00000000 		.word	g_app
 2880              		.cfi_endproc
 2881              	.LFE550:
 2883              		.section	.text.app_mode_enter_sleep,"ax",%progbits
 2884              		.align	1
 2885              		.global	app_mode_enter_sleep
 2886              		.syntax unified
 2887              		.thumb
 2888              		.thumb_func
 2890              	app_mode_enter_sleep:
 2891              	.LFB551:
 121:SynaptiX_FDK/app/app.c ****     g_app.app_mode = APP_MODE_ENTER_SLEEP;
 2892              		.loc 1 121 32 is_stmt 1 view -0
 2893              		.cfi_startproc
 2894              		@ args = 0, pretend = 0, frame = 0
 2895              		@ frame_needed = 0, uses_anonymous_args = 0
 2896              		@ link register save eliminated.
 122:SynaptiX_FDK/app/app.c **** }
 2897              		.loc 1 122 5 view .LVU657
 122:SynaptiX_FDK/app/app.c **** }
 2898              		.loc 1 122 20 is_stmt 0 view .LVU658
 2899 0000 014B     		ldr	r3, .L157
 2900 0002 0122     		movs	r2, #1
 2901 0004 1A70     		strb	r2, [r3]
 123:SynaptiX_FDK/app/app.c **** 
 2902              		.loc 1 123 1 view .LVU659
 2903 0006 7047     		bx	lr
 2904              	.L158:
 2905              		.align	2
 2906              	.L157:
 2907 0008 00000000 		.word	g_app
 2908              		.cfi_endproc
 2909              	.LFE551:
 2911              		.section	.text.app_mode_sleep,"ax",%progbits
 2912              		.align	1
 2913              		.global	app_mode_sleep
 2914              		.syntax unified
 2915              		.thumb
ARM GAS  C:\Users\LENOVO\AppData\Local\Temp\ccMSvD0S.s 			page 83


 2916              		.thumb_func
 2918              	app_mode_sleep:
 2919              	.LFB552:
 125:SynaptiX_FDK/app/app.c ****     g_app.app_mode = APP_MODE_SLEEP;
 2920              		.loc 1 125 26 is_stmt 1 view -0
 2921              		.cfi_startproc
 2922              		@ args = 0, pretend = 0, frame = 0
 2923              		@ frame_needed = 0, uses_anonymous_args = 0
 2924              		@ link register save eliminated.
 126:SynaptiX_FDK/app/app.c **** }
 2925              		.loc 1 126 5 view .LVU661
 126:SynaptiX_FDK/app/app.c **** }
 2926              		.loc 1 126 20 is_stmt 0 view .LVU662
 2927 0000 014B     		ldr	r3, .L160
 2928 0002 0222     		movs	r2, #2
 2929 0004 1A70     		strb	r2, [r3]
 127:SynaptiX_FDK/app/app.c **** 
 2930              		.loc 1 127 1 view .LVU663
 2931 0006 7047     		bx	lr
 2932              	.L161:
 2933              		.align	2
 2934              	.L160:
 2935 0008 00000000 		.word	g_app
 2936              		.cfi_endproc
 2937              	.LFE552:
 2939              		.section	.text.app_notify_usb_connected,"ax",%progbits
 2940              		.align	1
 2941              		.global	app_notify_usb_connected
 2942              		.syntax unified
 2943              		.thumb
 2944              		.thumb_func
 2946              	app_notify_usb_connected:
 2947              	.LFB556:
 210:SynaptiX_FDK/app/app.c ****     g_app.usb_connect_pending = 1;
 2948              		.loc 1 210 1 is_stmt 1 view -0
 2949              		.cfi_startproc
 2950              		@ args = 0, pretend = 0, frame = 0
 2951              		@ frame_needed = 0, uses_anonymous_args = 0
 2952              		@ link register save eliminated.
 211:SynaptiX_FDK/app/app.c ****     g_app.app_mode = APP_MODE_FULL_POWER;
 2953              		.loc 1 211 5 view .LVU665
 211:SynaptiX_FDK/app/app.c ****     g_app.app_mode = APP_MODE_FULL_POWER;
 2954              		.loc 1 211 31 is_stmt 0 view .LVU666
 2955 0000 034B     		ldr	r3, .L163
 2956 0002 0122     		movs	r2, #1
 2957 0004 83F84A20 		strb	r2, [r3, #74]
 212:SynaptiX_FDK/app/app.c **** }
 2958              		.loc 1 212 5 is_stmt 1 view .LVU667
 212:SynaptiX_FDK/app/app.c **** }
 2959              		.loc 1 212 20 is_stmt 0 view .LVU668
 2960 0008 0022     		movs	r2, #0
 2961 000a 1A70     		strb	r2, [r3]
 213:SynaptiX_FDK/app/app.c **** 
 2962              		.loc 1 213 1 view .LVU669
 2963 000c 7047     		bx	lr
 2964              	.L164:
 2965 000e 00BF     		.align	2
ARM GAS  C:\Users\LENOVO\AppData\Local\Temp\ccMSvD0S.s 			page 84


 2966              	.L163:
 2967 0010 00000000 		.word	g_app
 2968              		.cfi_endproc
 2969              	.LFE556:
 2971              		.section	.text.app_sync_gps_log_to_disk,"ax",%progbits
 2972              		.align	1
 2973              		.global	app_sync_gps_log_to_disk
 2974              		.syntax unified
 2975              		.thumb
 2976              		.thumb_func
 2978              	app_sync_gps_log_to_disk:
 2979              	.LFB567:
 626:SynaptiX_FDK/app/app.c ****     g_app.s_sync_disk_pending = 1;
 2980              		.loc 1 626 1 is_stmt 1 view -0
 2981              		.cfi_startproc
 2982              		@ args = 0, pretend = 0, frame = 0
 2983              		@ frame_needed = 0, uses_anonymous_args = 0
 2984              		@ link register save eliminated.
 627:SynaptiX_FDK/app/app.c **** }
 2985              		.loc 1 627 5 view .LVU671
 627:SynaptiX_FDK/app/app.c **** }
 2986              		.loc 1 627 31 is_stmt 0 view .LVU672
 2987 0000 024B     		ldr	r3, .L166
 2988 0002 0122     		movs	r2, #1
 2989 0004 83F85B20 		strb	r2, [r3, #91]
 628:SynaptiX_FDK/app/app.c **** 
 2990              		.loc 1 628 1 view .LVU673
 2991 0008 7047     		bx	lr
 2992              	.L167:
 2993 000a 00BF     		.align	2
 2994              	.L166:
 2995 000c 00000000 		.word	g_app
 2996              		.cfi_endproc
 2997              	.LFE567:
 2999              		.section	.rodata.app_request_sleep.str1.4,"aMS",%progbits,1
 3000              		.align	2
 3001              	.LC75:
 3002 0000 536C6565 		.ascii	"Sleep requested\000"
 3002      70207265 
 3002      71756573 
 3002      74656400 
 3003              		.section	.text.app_request_sleep,"ax",%progbits
 3004              		.align	1
 3005              		.global	app_request_sleep
 3006              		.syntax unified
 3007              		.thumb
 3008              		.thumb_func
 3010              	app_request_sleep:
 3011              	.LFB568:
 631:SynaptiX_FDK/app/app.c ****     if (g_app.sleep_requested)
 3012              		.loc 1 631 1 is_stmt 1 view -0
 3013              		.cfi_startproc
 3014              		@ args = 0, pretend = 0, frame = 0
 3015              		@ frame_needed = 0, uses_anonymous_args = 0
 3016 0000 08B5     		push	{r3, lr}
 3017              	.LCFI36:
 3018              		.cfi_def_cfa_offset 8
ARM GAS  C:\Users\LENOVO\AppData\Local\Temp\ccMSvD0S.s 			page 85


 3019              		.cfi_offset 3, -8
 3020              		.cfi_offset 14, -4
 632:SynaptiX_FDK/app/app.c ****         return;
 3021              		.loc 1 632 5 view .LVU675
 632:SynaptiX_FDK/app/app.c ****         return;
 3022              		.loc 1 632 14 is_stmt 0 view .LVU676
 3023 0002 0D4B     		ldr	r3, .L172
 3024 0004 93F84830 		ldrb	r3, [r3, #72]	@ zero_extendqisi2
 632:SynaptiX_FDK/app/app.c ****         return;
 3025              		.loc 1 632 8 view .LVU677
 3026 0008 03B1     		cbz	r3, .L171
 3027              	.L168:
 642:SynaptiX_FDK/app/app.c **** 
 3028              		.loc 1 642 1 view .LVU678
 3029 000a 08BD     		pop	{r3, pc}
 3030              	.L171:
 634:SynaptiX_FDK/app/app.c ****     g_app.enter_sleep_elapsed_ms = 0;
 3031              		.loc 1 634 5 is_stmt 1 view .LVU679
 634:SynaptiX_FDK/app/app.c ****     g_app.enter_sleep_elapsed_ms = 0;
 3032              		.loc 1 634 27 is_stmt 0 view .LVU680
 3033 000c 0A4B     		ldr	r3, .L172
 3034 000e 0121     		movs	r1, #1
 3035 0010 83F84810 		strb	r1, [r3, #72]
 635:SynaptiX_FDK/app/app.c ****     g_app.enter_sleep_published = 0;
 3036              		.loc 1 635 5 is_stmt 1 view .LVU681
 635:SynaptiX_FDK/app/app.c ****     g_app.enter_sleep_published = 0;
 3037              		.loc 1 635 34 is_stmt 0 view .LVU682
 3038 0014 0022     		movs	r2, #0
 3039 0016 5A64     		str	r2, [r3, #68]
 636:SynaptiX_FDK/app/app.c ****     g_app.last_publish_done = 0;
 3040              		.loc 1 636 5 is_stmt 1 view .LVU683
 636:SynaptiX_FDK/app/app.c ****     g_app.last_publish_done = 0;
 3041              		.loc 1 636 33 is_stmt 0 view .LVU684
 3042 0018 83F83E20 		strb	r2, [r3, #62]
 637:SynaptiX_FDK/app/app.c ****     g_app.publish_count = 0;
 3043              		.loc 1 637 5 is_stmt 1 view .LVU685
 637:SynaptiX_FDK/app/app.c ****     g_app.publish_count = 0;
 3044              		.loc 1 637 29 is_stmt 0 view .LVU686
 3045 001c 83F83D20 		strb	r2, [r3, #61]
 638:SynaptiX_FDK/app/app.c ****     g_app.mqtt_stopped = 0;
 3046              		.loc 1 638 5 is_stmt 1 view .LVU687
 638:SynaptiX_FDK/app/app.c ****     g_app.mqtt_stopped = 0;
 3047              		.loc 1 638 25 is_stmt 0 view .LVU688
 3048 0020 83F84020 		strb	r2, [r3, #64]
 639:SynaptiX_FDK/app/app.c ****     g_app.app_mode = APP_MODE_ENTER_SLEEP;
 3049              		.loc 1 639 5 is_stmt 1 view .LVU689
 639:SynaptiX_FDK/app/app.c ****     g_app.app_mode = APP_MODE_ENTER_SLEEP;
 3050              		.loc 1 639 24 is_stmt 0 view .LVU690
 3051 0024 83F83F20 		strb	r2, [r3, #63]
 640:SynaptiX_FDK/app/app.c ****     log_info(TAG, "Sleep requested");
 3052              		.loc 1 640 5 is_stmt 1 view .LVU691
 640:SynaptiX_FDK/app/app.c ****     log_info(TAG, "Sleep requested");
 3053              		.loc 1 640 20 is_stmt 0 view .LVU692
 3054 0028 1970     		strb	r1, [r3]
 641:SynaptiX_FDK/app/app.c **** }
 3055              		.loc 1 641 5 is_stmt 1 view .LVU693
 3056 002a 044A     		ldr	r2, .L172+4
ARM GAS  C:\Users\LENOVO\AppData\Local\Temp\ccMSvD0S.s 			page 86


 3057 002c 0449     		ldr	r1, .L172+8
 3058 002e 0320     		movs	r0, #3
 3059 0030 FFF7FEFF 		bl	log_func
 3060              	.LVL260:
 3061 0034 E9E7     		b	.L168
 3062              	.L173:
 3063 0036 00BF     		.align	2
 3064              	.L172:
 3065 0038 00000000 		.word	g_app
 3066 003c 00000000 		.word	.LC75
 3067 0040 18000000 		.word	.LC3
 3068              		.cfi_endproc
 3069              	.LFE568:
 3071              		.section	.rodata.app_init.str1.4,"aMS",%progbits,1
 3072              		.align	2
 3073              	.LC76:
 3074 0000 41707020 		.ascii	"App init\000"
 3074      696E6974 
 3074      00
 3075 0009 000000   		.align	2
 3076              	.LC77:
 3077 000c 52656164 		.ascii	"Read Config file...\000"
 3077      20436F6E 
 3077      66696720 
 3077      66696C65 
 3077      2E2E2E00 
 3078              		.align	2
 3079              	.LC78:
 3080 0020 536C6565 		.ascii	"Sleep config applied \342\200\224 sleep=%lu ms, wak"
 3080      7020636F 
 3080      6E666967 
 3080      20617070 
 3080      6C696564 
 3081 004a 653D256C 		.ascii	"e=%lu ms\000"
 3081      75206D73 
 3081      00
 3082 0053 00       		.align	2
 3083              	.LC79:
 3084 0054 696E6974 		.ascii	"init\000"
 3084      00
 3085 0059 000000   		.align	2
 3086              	.LC80:
 3087 005c 41707020 		.ascii	"App init done\000"
 3087      696E6974 
 3087      20646F6E 
 3087      6500
 3088              		.section	.text.app_init,"ax",%progbits
 3089              		.align	1
 3090              		.global	app_init
 3091              		.syntax unified
 3092              		.thumb
 3093              		.thumb_func
 3095              	app_init:
 3096              	.LFB570:
 785:SynaptiX_FDK/app/app.c **** 
 786:SynaptiX_FDK/app/app.c **** /*  Init  */
 787:SynaptiX_FDK/app/app.c **** void app_init(void)
ARM GAS  C:\Users\LENOVO\AppData\Local\Temp\ccMSvD0S.s 			page 87


 788:SynaptiX_FDK/app/app.c **** {
 3097              		.loc 1 788 1 view -0
 3098              		.cfi_startproc
 3099              		@ args = 0, pretend = 0, frame = 0
 3100              		@ frame_needed = 0, uses_anonymous_args = 0
 3101 0000 F0B5     		push	{r4, r5, r6, r7, lr}
 3102              	.LCFI37:
 3103              		.cfi_def_cfa_offset 20
 3104              		.cfi_offset 4, -20
 3105              		.cfi_offset 5, -16
 3106              		.cfi_offset 6, -12
 3107              		.cfi_offset 7, -8
 3108              		.cfi_offset 14, -4
 3109 0002 83B0     		sub	sp, sp, #12
 3110              	.LCFI38:
 3111              		.cfi_def_cfa_offset 32
 789:SynaptiX_FDK/app/app.c ****     log_info(TAG, "App init");
 3112              		.loc 1 789 5 view .LVU695
 3113 0004 2E4E     		ldr	r6, .L176
 3114 0006 2F4A     		ldr	r2, .L176+4
 3115 0008 3146     		mov	r1, r6
 3116 000a 0320     		movs	r0, #3
 3117 000c FFF7FEFF 		bl	log_func
 3118              	.LVL261:
 790:SynaptiX_FDK/app/app.c ****     config_json.time_sleep_ms = SX_TIME_IN_SLEEP;
 3119              		.loc 1 790 5 view .LVU696
 3120              		.loc 1 790 31 is_stmt 0 view .LVU697
 3121 0010 2D4F     		ldr	r7, .L176+8
 3122 0012 4EF66023 		movw	r3, #60000
 3123 0016 C7F8E032 		str	r3, [r7, #736]
 791:SynaptiX_FDK/app/app.c ****     config_json.time_wake_ms  = SX_TIME_IN_WAKE;
 3124              		.loc 1 791 5 is_stmt 1 view .LVU698
 3125              		.loc 1 791 31 is_stmt 0 view .LVU699
 3126 001a 2C4B     		ldr	r3, .L176+12
 3127 001c C7F8E432 		str	r3, [r7, #740]
 792:SynaptiX_FDK/app/app.c ****     // application_init:
 793:SynaptiX_FDK/app/app.c ****     g_app.board = &board;
 3128              		.loc 1 793 5 is_stmt 1 view .LVU700
 3129              		.loc 1 793 17 is_stmt 0 view .LVU701
 3130 0020 2B4C     		ldr	r4, .L176+16
 3131 0022 2C4B     		ldr	r3, .L176+20
 3132 0024 E364     		str	r3, [r4, #76]
 794:SynaptiX_FDK/app/app.c ****     g_app.app_mode = APP_MODE_FULL_POWER;
 3133              		.loc 1 794 5 is_stmt 1 view .LVU702
 3134              		.loc 1 794 20 is_stmt 0 view .LVU703
 3135 0026 0025     		movs	r5, #0
 3136 0028 2570     		strb	r5, [r4]
 795:SynaptiX_FDK/app/app.c ****     g_app.publish_elapsed = 0;
 3137              		.loc 1 795 5 is_stmt 1 view .LVU704
 3138              		.loc 1 795 27 is_stmt 0 view .LVU705
 3139 002a A563     		str	r5, [r4, #56]
 796:SynaptiX_FDK/app/app.c ****     g_app.subscribed = 0;
 3140              		.loc 1 796 5 is_stmt 1 view .LVU706
 3141              		.loc 1 796 22 is_stmt 0 view .LVU707
 3142 002c 84F83C50 		strb	r5, [r4, #60]
 797:SynaptiX_FDK/app/app.c ****     g_app.last_publish_done = 0;
 3143              		.loc 1 797 5 is_stmt 1 view .LVU708
ARM GAS  C:\Users\LENOVO\AppData\Local\Temp\ccMSvD0S.s 			page 88


 3144              		.loc 1 797 29 is_stmt 0 view .LVU709
 3145 0030 84F83D50 		strb	r5, [r4, #61]
 798:SynaptiX_FDK/app/app.c ****     g_app.enter_sleep_published = 0;
 3146              		.loc 1 798 5 is_stmt 1 view .LVU710
 3147              		.loc 1 798 33 is_stmt 0 view .LVU711
 3148 0034 84F83E50 		strb	r5, [r4, #62]
 799:SynaptiX_FDK/app/app.c ****     g_app.mqtt_stopped = 0;
 3149              		.loc 1 799 5 is_stmt 1 view .LVU712
 3150              		.loc 1 799 24 is_stmt 0 view .LVU713
 3151 0038 84F83F50 		strb	r5, [r4, #63]
 800:SynaptiX_FDK/app/app.c ****     g_app.publish_count = 0;
 3152              		.loc 1 800 5 is_stmt 1 view .LVU714
 3153              		.loc 1 800 25 is_stmt 0 view .LVU715
 3154 003c 84F84050 		strb	r5, [r4, #64]
 801:SynaptiX_FDK/app/app.c ****     g_app.enter_sleep_elapsed_ms = 0;
 3155              		.loc 1 801 5 is_stmt 1 view .LVU716
 3156              		.loc 1 801 34 is_stmt 0 view .LVU717
 3157 0040 6564     		str	r5, [r4, #68]
 802:SynaptiX_FDK/app/app.c ****     g_app.sleep_requested = 0;
 3158              		.loc 1 802 5 is_stmt 1 view .LVU718
 3159              		.loc 1 802 27 is_stmt 0 view .LVU719
 3160 0042 84F84850 		strb	r5, [r4, #72]
 803:SynaptiX_FDK/app/app.c ****     g_app.usb_connect_pending = 0;
 3161              		.loc 1 803 5 is_stmt 1 view .LVU720
 3162              		.loc 1 803 31 is_stmt 0 view .LVU721
 3163 0046 84F84A50 		strb	r5, [r4, #74]
 804:SynaptiX_FDK/app/app.c ****     
 805:SynaptiX_FDK/app/app.c ****     log_info(TAG, "Read Config file...");
 3164              		.loc 1 805 5 is_stmt 1 view .LVU722
 3165 004a 234A     		ldr	r2, .L176+24
 3166 004c 3146     		mov	r1, r6
 3167 004e 0320     		movs	r0, #3
 3168 0050 FFF7FEFF 		bl	log_func
 3169              	.LVL262:
 806:SynaptiX_FDK/app/app.c **** 
 807:SynaptiX_FDK/app/app.c ****     app_read_config_file(&g_app);
 3170              		.loc 1 807 5 view .LVU723
 3171 0054 2046     		mov	r0, r4
 3172 0056 FFF7FEFF 		bl	app_read_config_file
 3173              	.LVL263:
 808:SynaptiX_FDK/app/app.c ****     
 809:SynaptiX_FDK/app/app.c ****     sx_sleep_init(&g_app.sleep, &sx_sleep_ops, &hrtc);
 3174              		.loc 1 809 5 view .LVU724
 3175              	.LBB40:
 3176              	.LBI40:
 3177              		.file 3 "SynaptiX_FDK/components/sleep/sx_sleep.h"
   1:SynaptiX_FDK/components/sleep/sx_sleep.h **** #ifndef SX_SLEEP_H
   2:SynaptiX_FDK/components/sleep/sx_sleep.h **** #define SX_SLEEP_H
   3:SynaptiX_FDK/components/sleep/sx_sleep.h **** 
   4:SynaptiX_FDK/components/sleep/sx_sleep.h **** #ifdef __cplusplus
   5:SynaptiX_FDK/components/sleep/sx_sleep.h **** extern "C" {
   6:SynaptiX_FDK/components/sleep/sx_sleep.h **** #endif
   7:SynaptiX_FDK/components/sleep/sx_sleep.h ****  
   8:SynaptiX_FDK/components/sleep/sx_sleep.h **** #include <stdint.h>
   9:SynaptiX_FDK/components/sleep/sx_sleep.h **** 
  10:SynaptiX_FDK/components/sleep/sx_sleep.h **** typedef enum {
  11:SynaptiX_FDK/components/sleep/sx_sleep.h ****     WAKE_REASON_UNKNOWN = 0,
ARM GAS  C:\Users\LENOVO\AppData\Local\Temp\ccMSvD0S.s 			page 89


  12:SynaptiX_FDK/components/sleep/sx_sleep.h ****     WAKE_REASON_RTC,
  13:SynaptiX_FDK/components/sleep/sx_sleep.h ****     WAKE_REASON_EXTI,
