ARM GAS  C:\Users\LENOVO\AppData\Local\Temp\cc8VFWVx.s 			page 1


   1              		.cpu cortex-m33
   2              		.arch armv8-m.main
   3              		.fpu fpv5-sp-d16
   4              		.arch_extension dsp
   5              		.eabi_attribute 27, 1
   6              		.eabi_attribute 28, 1
   7              		.eabi_attribute 20, 1
   8              		.eabi_attribute 21, 1
   9              		.eabi_attribute 23, 3
  10              		.eabi_attribute 24, 1
  11              		.eabi_attribute 25, 1
  12              		.eabi_attribute 26, 1
  13              		.eabi_attribute 30, 1
  14              		.eabi_attribute 34, 1
  15              		.eabi_attribute 18, 4
  16              		.file	"dcache.c"
  17              		.text
  18              	.Ltext0:
  19              		.cfi_sections	.debug_frame
  20              		.file 1 "Core/Src/dcache.c"
  21              		.section	.text.MX_DCACHE1_Init,"ax",%progbits
  22              		.align	1
  23              		.global	MX_DCACHE1_Init
  24              		.syntax unified
  25              		.thumb
  26              		.thumb_func
  28              	MX_DCACHE1_Init:
  29              	.LFB496:
   1:Core/Src/dcache.c **** /* USER CODE BEGIN Header */
   2:Core/Src/dcache.c **** /**
   3:Core/Src/dcache.c ****   ******************************************************************************
   4:Core/Src/dcache.c ****   * @file    dcache.c
   5:Core/Src/dcache.c ****   * @brief   This file provides code for the configuration
   6:Core/Src/dcache.c ****   *          of the DCACHE instances.
   7:Core/Src/dcache.c ****   ******************************************************************************
   8:Core/Src/dcache.c ****   * @attention
   9:Core/Src/dcache.c ****   *
  10:Core/Src/dcache.c ****   * Copyright (c) 2026 STMicroelectronics.
  11:Core/Src/dcache.c ****   * All rights reserved.
  12:Core/Src/dcache.c ****   *
  13:Core/Src/dcache.c ****   * This software is licensed under terms that can be found in the LICENSE file
  14:Core/Src/dcache.c ****   * in the root directory of this software component.
  15:Core/Src/dcache.c ****   * If no LICENSE file comes with this software, it is provided AS-IS.
  16:Core/Src/dcache.c ****   *
  17:Core/Src/dcache.c ****   ******************************************************************************
  18:Core/Src/dcache.c ****   */
  19:Core/Src/dcache.c **** /* USER CODE END Header */
  20:Core/Src/dcache.c **** /* Includes ------------------------------------------------------------------*/
  21:Core/Src/dcache.c **** #include "dcache.h"
  22:Core/Src/dcache.c **** 
  23:Core/Src/dcache.c **** /* USER CODE BEGIN 0 */
  24:Core/Src/dcache.c **** 
  25:Core/Src/dcache.c **** /* USER CODE END 0 */
  26:Core/Src/dcache.c **** 
  27:Core/Src/dcache.c **** DCACHE_HandleTypeDef hdcache1;
  28:Core/Src/dcache.c **** 
  29:Core/Src/dcache.c **** /* DCACHE1 init function */
ARM GAS  C:\Users\LENOVO\AppData\Local\Temp\cc8VFWVx.s 			page 2


  30:Core/Src/dcache.c **** void MX_DCACHE1_Init(void)
  31:Core/Src/dcache.c **** {
  30              		.loc 1 31 1 view -0
  31              		.cfi_startproc
  32              		@ args = 0, pretend = 0, frame = 0
  33              		@ frame_needed = 0, uses_anonymous_args = 0
  34 0000 08B5     		push	{r3, lr}
  35              	.LCFI0:
  36              		.cfi_def_cfa_offset 8
  37              		.cfi_offset 3, -8
  38              		.cfi_offset 14, -4
  32:Core/Src/dcache.c **** 
  33:Core/Src/dcache.c ****   /* USER CODE BEGIN DCACHE1_Init 0 */
  34:Core/Src/dcache.c **** 
  35:Core/Src/dcache.c ****   /* USER CODE END DCACHE1_Init 0 */
  36:Core/Src/dcache.c **** 
  37:Core/Src/dcache.c ****   /* USER CODE BEGIN DCACHE1_Init 1 */
  38:Core/Src/dcache.c **** 
  39:Core/Src/dcache.c ****   /* USER CODE END DCACHE1_Init 1 */
  40:Core/Src/dcache.c ****   hdcache1.Instance = DCACHE1;
  39              		.loc 1 40 3 view .LVU1
  40              		.loc 1 40 21 is_stmt 0 view .LVU2
  41 0002 0648     		ldr	r0, .L5
  42 0004 064B     		ldr	r3, .L5+4
  43 0006 0360     		str	r3, [r0]
  41:Core/Src/dcache.c ****   hdcache1.Init.ReadBurstType = DCACHE_READ_BURST_WRAP;
  44              		.loc 1 41 3 is_stmt 1 view .LVU3
  45              		.loc 1 41 31 is_stmt 0 view .LVU4
  46 0008 0023     		movs	r3, #0
  47 000a 4360     		str	r3, [r0, #4]
  42:Core/Src/dcache.c ****   if (HAL_DCACHE_Init(&hdcache1) != HAL_OK)
  48              		.loc 1 42 3 is_stmt 1 view .LVU5
  49              		.loc 1 42 7 is_stmt 0 view .LVU6
  50 000c FFF7FEFF 		bl	HAL_DCACHE_Init
  51              	.LVL0:
  52              		.loc 1 42 6 discriminator 1 view .LVU7
  53 0010 00B9     		cbnz	r0, .L4
  54              	.L1:
  43:Core/Src/dcache.c ****   {
  44:Core/Src/dcache.c ****     Error_Handler();
  45:Core/Src/dcache.c ****   }
  46:Core/Src/dcache.c ****   /* USER CODE BEGIN DCACHE1_Init 2 */
  47:Core/Src/dcache.c **** 
  48:Core/Src/dcache.c ****   /* USER CODE END DCACHE1_Init 2 */
  49:Core/Src/dcache.c **** 
  50:Core/Src/dcache.c **** }
  55              		.loc 1 50 1 view .LVU8
  56 0012 08BD     		pop	{r3, pc}
  57              	.L4:
  44:Core/Src/dcache.c ****   }
  58              		.loc 1 44 5 is_stmt 1 view .LVU9
  59 0014 FFF7FEFF 		bl	Error_Handler
  60              	.LVL1:
  61              		.loc 1 50 1 is_stmt 0 view .LVU10
  62 0018 FBE7     		b	.L1
  63              	.L6:
  64 001a 00BF     		.align	2
ARM GAS  C:\Users\LENOVO\AppData\Local\Temp\cc8VFWVx.s 			page 3


  65              	.L5:
  66 001c 00000000 		.word	hdcache1
  67 0020 00140340 		.word	1073943552
  68              		.cfi_endproc
  69              	.LFE496:
  71              		.section	.text.HAL_DCACHE_MspInit,"ax",%progbits
  72              		.align	1
  73              		.global	HAL_DCACHE_MspInit
  74              		.syntax unified
  75              		.thumb
  76              		.thumb_func
  78              	HAL_DCACHE_MspInit:
  79              	.LVL2:
  80              	.LFB497:
  51:Core/Src/dcache.c **** 
  52:Core/Src/dcache.c **** void HAL_DCACHE_MspInit(DCACHE_HandleTypeDef* dcacheHandle)
  53:Core/Src/dcache.c **** {
  81              		.loc 1 53 1 is_stmt 1 view -0
  82              		.cfi_startproc
  83              		@ args = 0, pretend = 0, frame = 8
  84              		@ frame_needed = 0, uses_anonymous_args = 0
  85              		@ link register save eliminated.
  54:Core/Src/dcache.c **** 
  55:Core/Src/dcache.c ****   if(dcacheHandle->Instance==DCACHE1)
  86              		.loc 1 55 3 view .LVU12
  87              		.loc 1 55 18 is_stmt 0 view .LVU13
  88 0000 0268     		ldr	r2, [r0]
  89              		.loc 1 55 5 view .LVU14
  90 0002 0A4B     		ldr	r3, .L14
  91 0004 9A42     		cmp	r2, r3
  92 0006 00D0     		beq	.L13
  93 0008 7047     		bx	lr
  94              	.L13:
  53:Core/Src/dcache.c **** 
  95              		.loc 1 53 1 view .LVU15
  96 000a 82B0     		sub	sp, sp, #8
  97              	.LCFI1:
  98              		.cfi_def_cfa_offset 8
  56:Core/Src/dcache.c ****   {
  57:Core/Src/dcache.c ****   /* USER CODE BEGIN DCACHE1_MspInit 0 */
  58:Core/Src/dcache.c **** 
  59:Core/Src/dcache.c ****   /* USER CODE END DCACHE1_MspInit 0 */
  60:Core/Src/dcache.c ****     /* DCACHE1 clock enable */
  61:Core/Src/dcache.c ****     __HAL_RCC_DCACHE1_CLK_ENABLE();
  99              		.loc 1 61 5 is_stmt 1 view .LVU16
 100              	.LBB2:
 101              		.loc 1 61 5 view .LVU17
 102              		.loc 1 61 5 view .LVU18
 103 000c 084B     		ldr	r3, .L14+4
 104 000e D3F88820 		ldr	r2, [r3, #136]
 105 0012 42F08042 		orr	r2, r2, #1073741824
 106 0016 C3F88820 		str	r2, [r3, #136]
 107              		.loc 1 61 5 view .LVU19
 108 001a D3F88830 		ldr	r3, [r3, #136]
 109 001e 03F08043 		and	r3, r3, #1073741824
 110 0022 0193     		str	r3, [sp, #4]
 111              		.loc 1 61 5 view .LVU20
ARM GAS  C:\Users\LENOVO\AppData\Local\Temp\cc8VFWVx.s 			page 4


 112 0024 019B     		ldr	r3, [sp, #4]
 113              	.LBE2:
 114              		.loc 1 61 5 discriminator 1 view .LVU21
  62:Core/Src/dcache.c ****   /* USER CODE BEGIN DCACHE1_MspInit 1 */
  63:Core/Src/dcache.c **** 
  64:Core/Src/dcache.c ****   /* USER CODE END DCACHE1_MspInit 1 */
  65:Core/Src/dcache.c ****   }
  66:Core/Src/dcache.c **** }
 115              		.loc 1 66 1 is_stmt 0 view .LVU22
 116 0026 02B0     		add	sp, sp, #8
 117              	.LCFI2:
 118              		.cfi_def_cfa_offset 0
 119              		@ sp needed
 120 0028 7047     		bx	lr
 121              	.L15:
 122 002a 00BF     		.align	2
 123              	.L14:
 124 002c 00140340 		.word	1073943552
 125 0030 000C0244 		.word	1140984832
 126              		.cfi_endproc
 127              	.LFE497:
 129              		.section	.text.HAL_DCACHE_MspDeInit,"ax",%progbits
 130              		.align	1
 131              		.global	HAL_DCACHE_MspDeInit
 132              		.syntax unified
 133              		.thumb
 134              		.thumb_func
 136              	HAL_DCACHE_MspDeInit:
 137              	.LVL3:
 138              	.LFB498:
  67:Core/Src/dcache.c **** 
  68:Core/Src/dcache.c **** void HAL_DCACHE_MspDeInit(DCACHE_HandleTypeDef* dcacheHandle)
  69:Core/Src/dcache.c **** {
 139              		.loc 1 69 1 is_stmt 1 view -0
 140              		.cfi_startproc
 141              		@ args = 0, pretend = 0, frame = 0
 142              		@ frame_needed = 0, uses_anonymous_args = 0
 143              		@ link register save eliminated.
  70:Core/Src/dcache.c **** 
  71:Core/Src/dcache.c ****   if(dcacheHandle->Instance==DCACHE1)
 144              		.loc 1 71 3 view .LVU24
 145              		.loc 1 71 18 is_stmt 0 view .LVU25
 146 0000 0268     		ldr	r2, [r0]
 147              		.loc 1 71 5 view .LVU26
 148 0002 064B     		ldr	r3, .L19
 149 0004 9A42     		cmp	r2, r3
 150 0006 00D0     		beq	.L18
 151              	.L16:
  72:Core/Src/dcache.c ****   {
  73:Core/Src/dcache.c ****   /* USER CODE BEGIN DCACHE1_MspDeInit 0 */
  74:Core/Src/dcache.c **** 
  75:Core/Src/dcache.c ****   /* USER CODE END DCACHE1_MspDeInit 0 */
  76:Core/Src/dcache.c ****     /* Peripheral clock disable */
  77:Core/Src/dcache.c ****     __HAL_RCC_DCACHE1_CLK_DISABLE();
  78:Core/Src/dcache.c ****   /* USER CODE BEGIN DCACHE1_MspDeInit 1 */
  79:Core/Src/dcache.c **** 
  80:Core/Src/dcache.c ****   /* USER CODE END DCACHE1_MspDeInit 1 */
ARM GAS  C:\Users\LENOVO\AppData\Local\Temp\cc8VFWVx.s 			page 5


  81:Core/Src/dcache.c ****   }
  82:Core/Src/dcache.c **** }
 152              		.loc 1 82 1 view .LVU27
 153 0008 7047     		bx	lr
 154              	.L18:
  77:Core/Src/dcache.c ****   /* USER CODE BEGIN DCACHE1_MspDeInit 1 */
 155              		.loc 1 77 5 is_stmt 1 view .LVU28
 156 000a 054A     		ldr	r2, .L19+4
 157 000c D2F88830 		ldr	r3, [r2, #136]
 158 0010 23F08043 		bic	r3, r3, #1073741824
 159 0014 C2F88830 		str	r3, [r2, #136]
 160              		.loc 1 82 1 is_stmt 0 view .LVU29
 161 0018 F6E7     		b	.L16
 162              	.L20:
 163 001a 00BF     		.align	2
 164              	.L19:
 165 001c 00140340 		.word	1073943552
 166 0020 000C0244 		.word	1140984832
 167              		.cfi_endproc
 168              	.LFE498:
 170              		.global	hdcache1
 171              		.section	.bss.hdcache1,"aw",%nobits
 172              		.align	2
 175              	hdcache1:
 176 0000 00000000 		.space	44
 176      00000000 
 176      00000000 
 176      00000000 
 176      00000000 
 177              		.text
 178              	.Letext0:
 179              		.file 2 "C:\\ST\\STM32CubeCLT_1.20.0\\GNU-tools-for-STM32\\bin/../lib/gcc/arm-none-eabi/13.3.1/../
 180              		.file 3 "C:\\ST\\STM32CubeCLT_1.20.0\\GNU-tools-for-STM32\\bin/../lib/gcc/arm-none-eabi/13.3.1/../
 181              		.file 4 "Drivers/CMSIS/Device/ST/STM32H5xx/Include/stm32h563xx.h"
 182              		.file 5 "Drivers/STM32H5xx_HAL_Driver/Inc/stm32h5xx_hal_def.h"
 183              		.file 6 "Drivers/STM32H5xx_HAL_Driver/Inc/stm32h5xx_hal_dcache.h"
 184              		.file 7 "Drivers/STM32H5xx_HAL_Driver/Inc/stm32h5xx_ll_lptim.h"
 185              		.file 8 "Core/Inc/dcache.h"
 186              		.file 9 "Core/Inc/main.h"
ARM GAS  C:\Users\LENOVO\AppData\Local\Temp\cc8VFWVx.s 			page 6

