ARM GAS  C:\Users\LENOVO\AppData\Local\Temp\ccJJ0tqb.s 			page 1


   1              		.cpu cortex-m33
   2              		.arch armv8-m.main
   3              		.fpu fpv5-sp-d16
   4              		.arch_extension dsp
   5              		.eabi_attribute 27, 1
   6              		.eabi_attribute 28, 1
   7              		.eabi_attribute 20, 1
   8              		.eabi_attribute 21, 1
   9              		.eabi_attribute 23, 3
  10              		.eabi_attribute 24, 1
  11              		.eabi_attribute 25, 1
  12              		.eabi_attribute 26, 1
  13              		.eabi_attribute 30, 1
  14              		.eabi_attribute 34, 1
  15              		.eabi_attribute 18, 4
  16              		.file	"gpio.c"
  17              		.text
  18              	.Ltext0:
  19              		.cfi_sections	.debug_frame
  20              		.file 1 "Core/Src/gpio.c"
  21              		.section	.text.MX_GPIO_Init,"ax",%progbits
  22              		.align	1
  23              		.global	MX_GPIO_Init
  24              		.syntax unified
  25              		.thumb
  26              		.thumb_func
  28              	MX_GPIO_Init:
  29              	.LFB496:
   1:Core/Src/gpio.c **** /* USER CODE BEGIN Header */
   2:Core/Src/gpio.c **** /**
   3:Core/Src/gpio.c ****   ******************************************************************************
   4:Core/Src/gpio.c ****   * @file    gpio.c
   5:Core/Src/gpio.c ****   * @brief   This file provides code for the configuration
   6:Core/Src/gpio.c ****   *          of all used GPIO pins.
   7:Core/Src/gpio.c ****   ******************************************************************************
   8:Core/Src/gpio.c ****   * @attention
   9:Core/Src/gpio.c ****   *
  10:Core/Src/gpio.c ****   * Copyright (c) 2026 STMicroelectronics.
  11:Core/Src/gpio.c ****   * All rights reserved.
  12:Core/Src/gpio.c ****   *
  13:Core/Src/gpio.c ****   * This software is licensed under terms that can be found in the LICENSE file
  14:Core/Src/gpio.c ****   * in the root directory of this software component.
  15:Core/Src/gpio.c ****   * If no LICENSE file comes with this software, it is provided AS-IS.
  16:Core/Src/gpio.c ****   *
  17:Core/Src/gpio.c ****   ******************************************************************************
  18:Core/Src/gpio.c ****   */
  19:Core/Src/gpio.c **** /* USER CODE END Header */
  20:Core/Src/gpio.c **** 
  21:Core/Src/gpio.c **** /* Includes ------------------------------------------------------------------*/
  22:Core/Src/gpio.c **** #include "gpio.h"
  23:Core/Src/gpio.c **** 
  24:Core/Src/gpio.c **** /* USER CODE BEGIN 0 */
  25:Core/Src/gpio.c **** 
  26:Core/Src/gpio.c **** /* USER CODE END 0 */
  27:Core/Src/gpio.c **** 
  28:Core/Src/gpio.c **** /*----------------------------------------------------------------------------*/
  29:Core/Src/gpio.c **** /* Configure GPIO                                                             */
ARM GAS  C:\Users\LENOVO\AppData\Local\Temp\ccJJ0tqb.s 			page 2


  30:Core/Src/gpio.c **** /*----------------------------------------------------------------------------*/
  31:Core/Src/gpio.c **** /* USER CODE BEGIN 1 */
  32:Core/Src/gpio.c **** 
  33:Core/Src/gpio.c **** /* USER CODE END 1 */
  34:Core/Src/gpio.c **** 
  35:Core/Src/gpio.c **** /** Configure pins
  36:Core/Src/gpio.c ****      PH0-OSC_IN(PH0)   ------> RCC_OSC_IN
  37:Core/Src/gpio.c ****      PH1-OSC_OUT(PH1)   ------> RCC_OSC_OUT
  38:Core/Src/gpio.c ****      PA13(JTMS/SWDIO)   ------> DEBUG_JTMS-SWDIO
  39:Core/Src/gpio.c ****      PA14(JTCK/SWCLK)   ------> DEBUG_JTCK-SWCLK
  40:Core/Src/gpio.c **** */
  41:Core/Src/gpio.c **** void MX_GPIO_Init(void)
  42:Core/Src/gpio.c **** {
  30              		.loc 1 42 1 view -0
  31              		.cfi_startproc
  32              		@ args = 0, pretend = 0, frame = 40
  33              		@ frame_needed = 0, uses_anonymous_args = 0
  34 0000 2DE9F043 		push	{r4, r5, r6, r7, r8, r9, lr}
  35              	.LCFI0:
  36              		.cfi_def_cfa_offset 28
  37              		.cfi_offset 4, -28
  38              		.cfi_offset 5, -24
  39              		.cfi_offset 6, -20
  40              		.cfi_offset 7, -16
  41              		.cfi_offset 8, -12
  42              		.cfi_offset 9, -8
  43              		.cfi_offset 14, -4
  44 0004 8BB0     		sub	sp, sp, #44
  45              	.LCFI1:
  46              		.cfi_def_cfa_offset 72
  43:Core/Src/gpio.c **** 
  44:Core/Src/gpio.c ****   GPIO_InitTypeDef GPIO_InitStruct = {0};
  47              		.loc 1 44 3 view .LVU1
  48              		.loc 1 44 20 is_stmt 0 view .LVU2
  49 0006 0024     		movs	r4, #0
  50 0008 0594     		str	r4, [sp, #20]
  51 000a 0694     		str	r4, [sp, #24]
  52 000c 0794     		str	r4, [sp, #28]
  53 000e 0894     		str	r4, [sp, #32]
  54 0010 0994     		str	r4, [sp, #36]
  45:Core/Src/gpio.c **** 
  46:Core/Src/gpio.c ****   /* GPIO Ports Clock Enable */
  47:Core/Src/gpio.c ****   __HAL_RCC_GPIOC_CLK_ENABLE();
  55              		.loc 1 47 3 is_stmt 1 view .LVU3
  56              	.LBB2:
  57              		.loc 1 47 3 view .LVU4
  58              		.loc 1 47 3 view .LVU5
  59 0012 4E4B     		ldr	r3, .L3
  60 0014 D3F88C20 		ldr	r2, [r3, #140]
  61 0018 42F00402 		orr	r2, r2, #4
  62 001c C3F88C20 		str	r2, [r3, #140]
  63              		.loc 1 47 3 view .LVU6
  64 0020 D3F88C20 		ldr	r2, [r3, #140]
  65 0024 02F00402 		and	r2, r2, #4
  66 0028 0092     		str	r2, [sp]
  67              		.loc 1 47 3 view .LVU7
  68 002a 009A     		ldr	r2, [sp]
ARM GAS  C:\Users\LENOVO\AppData\Local\Temp\ccJJ0tqb.s 			page 3


  69              	.LBE2:
  70              		.loc 1 47 3 view .LVU8
  48:Core/Src/gpio.c ****   __HAL_RCC_GPIOH_CLK_ENABLE();
  71              		.loc 1 48 3 view .LVU9
  72              	.LBB3:
  73              		.loc 1 48 3 view .LVU10
  74              		.loc 1 48 3 view .LVU11
  75 002c D3F88C20 		ldr	r2, [r3, #140]
  76 0030 42F08002 		orr	r2, r2, #128
  77 0034 C3F88C20 		str	r2, [r3, #140]
  78              		.loc 1 48 3 view .LVU12
  79 0038 D3F88C20 		ldr	r2, [r3, #140]
  80 003c 02F08002 		and	r2, r2, #128
  81 0040 0192     		str	r2, [sp, #4]
  82              		.loc 1 48 3 view .LVU13
  83 0042 019A     		ldr	r2, [sp, #4]
  84              	.LBE3:
  85              		.loc 1 48 3 view .LVU14
  49:Core/Src/gpio.c ****   __HAL_RCC_GPIOA_CLK_ENABLE();
  86              		.loc 1 49 3 view .LVU15
  87              	.LBB4:
  88              		.loc 1 49 3 view .LVU16
  89              		.loc 1 49 3 view .LVU17
  90 0044 D3F88C20 		ldr	r2, [r3, #140]
  91 0048 42F00102 		orr	r2, r2, #1
  92 004c C3F88C20 		str	r2, [r3, #140]
  93              		.loc 1 49 3 view .LVU18
  94 0050 D3F88C20 		ldr	r2, [r3, #140]
  95 0054 02F00102 		and	r2, r2, #1
  96 0058 0292     		str	r2, [sp, #8]
  97              		.loc 1 49 3 view .LVU19
  98 005a 029A     		ldr	r2, [sp, #8]
  99              	.LBE4:
 100              		.loc 1 49 3 view .LVU20
  50:Core/Src/gpio.c ****   __HAL_RCC_GPIOB_CLK_ENABLE();
 101              		.loc 1 50 3 view .LVU21
 102              	.LBB5:
 103              		.loc 1 50 3 view .LVU22
 104              		.loc 1 50 3 view .LVU23
 105 005c D3F88C20 		ldr	r2, [r3, #140]
 106 0060 42F00202 		orr	r2, r2, #2
 107 0064 C3F88C20 		str	r2, [r3, #140]
 108              		.loc 1 50 3 view .LVU24
 109 0068 D3F88C20 		ldr	r2, [r3, #140]
 110 006c 02F00202 		and	r2, r2, #2
 111 0070 0392     		str	r2, [sp, #12]
 112              		.loc 1 50 3 view .LVU25
 113 0072 039A     		ldr	r2, [sp, #12]
 114              	.LBE5:
 115              		.loc 1 50 3 view .LVU26
  51:Core/Src/gpio.c ****   __HAL_RCC_GPIOD_CLK_ENABLE();
 116              		.loc 1 51 3 view .LVU27
 117              	.LBB6:
 118              		.loc 1 51 3 view .LVU28
 119              		.loc 1 51 3 view .LVU29
 120 0074 D3F88C20 		ldr	r2, [r3, #140]
 121 0078 42F00802 		orr	r2, r2, #8
ARM GAS  C:\Users\LENOVO\AppData\Local\Temp\ccJJ0tqb.s 			page 4


 122 007c C3F88C20 		str	r2, [r3, #140]
 123              		.loc 1 51 3 view .LVU30
 124 0080 D3F88C30 		ldr	r3, [r3, #140]
 125 0084 03F00803 		and	r3, r3, #8
 126 0088 0493     		str	r3, [sp, #16]
 127              		.loc 1 51 3 view .LVU31
 128 008a 049B     		ldr	r3, [sp, #16]
 129              	.LBE6:
 130              		.loc 1 51 3 view .LVU32
  52:Core/Src/gpio.c **** 
  53:Core/Src/gpio.c ****   /*Configure GPIO pin Output Level */
  54:Core/Src/gpio.c ****   HAL_GPIO_WritePin(GPIOC, LTE_PWR_Pin|LTE_PWR_Key_Pin|GPS_PWR_Pin|Flash_PWR_Pin
 131              		.loc 1 54 3 view .LVU33
 132 008c 304F     		ldr	r7, .L3+4
 133 008e 2246     		mov	r2, r4
 134 0090 4EF25001 		movw	r1, #57424
 135 0094 3846     		mov	r0, r7
 136 0096 FFF7FEFF 		bl	HAL_GPIO_WritePin
 137              	.LVL0:
  55:Core/Src/gpio.c ****                           |EN_CHARGE_Pin, GPIO_PIN_RESET);
  56:Core/Src/gpio.c **** 
  57:Core/Src/gpio.c ****   /*Configure GPIO pin Output Level */
  58:Core/Src/gpio.c ****   HAL_GPIO_WritePin(GPIOA, GPIO_PIN_4, GPIO_PIN_RESET);
 138              		.loc 1 58 3 view .LVU34
 139 009a 2E4E     		ldr	r6, .L3+8
 140 009c 2246     		mov	r2, r4
 141 009e 1021     		movs	r1, #16
 142 00a0 3046     		mov	r0, r6
 143 00a2 FFF7FEFF 		bl	HAL_GPIO_WritePin
 144              	.LVL1:
  59:Core/Src/gpio.c **** 
  60:Core/Src/gpio.c ****   /*Configure GPIO pin Output Level */
  61:Core/Src/gpio.c ****   HAL_GPIO_WritePin(EN_DISCHARGE_GPIO_Port, EN_DISCHARGE_Pin, GPIO_PIN_RESET);
 145              		.loc 1 61 3 view .LVU35
 146 00a6 DFF8B490 		ldr	r9, .L3+16
 147 00aa 2246     		mov	r2, r4
 148 00ac 4FF48051 		mov	r1, #4096
 149 00b0 4846     		mov	r0, r9
 150 00b2 FFF7FEFF 		bl	HAL_GPIO_WritePin
 151              	.LVL2:
  62:Core/Src/gpio.c **** 
  63:Core/Src/gpio.c ****   /*Configure GPIO pin Output Level */
  64:Core/Src/gpio.c ****   HAL_GPIO_WritePin(GPIOB, RTC_EN_PW_Pin|IMU_EN_PW_Pin|I2C1_RESET_Pin, GPIO_PIN_RESET);
 152              		.loc 1 64 3 view .LVU36
 153 00b6 DFF8A880 		ldr	r8, .L3+20
 154 00ba 2246     		mov	r2, r4
 155 00bc 3821     		movs	r1, #56
 156 00be 4046     		mov	r0, r8
 157 00c0 FFF7FEFF 		bl	HAL_GPIO_WritePin
 158              	.LVL3:
  65:Core/Src/gpio.c **** 
  66:Core/Src/gpio.c ****   /*Configure GPIO pins : LTE_PWR_Pin LTE_PWR_Key_Pin GPS_PWR_Pin Flash_PWR_Pin
  67:Core/Src/gpio.c ****                            EN_CHARGE_Pin */
  68:Core/Src/gpio.c ****   GPIO_InitStruct.Pin = LTE_PWR_Pin|LTE_PWR_Key_Pin|GPS_PWR_Pin|Flash_PWR_Pin
 159              		.loc 1 68 3 view .LVU37
 160              		.loc 1 68 23 is_stmt 0 view .LVU38
 161 00c4 4EF25003 		movw	r3, #57424
ARM GAS  C:\Users\LENOVO\AppData\Local\Temp\ccJJ0tqb.s 			page 5


 162 00c8 0593     		str	r3, [sp, #20]
  69:Core/Src/gpio.c ****                           |EN_CHARGE_Pin;
  70:Core/Src/gpio.c ****   GPIO_InitStruct.Mode = GPIO_MODE_OUTPUT_PP;
 163              		.loc 1 70 3 is_stmt 1 view .LVU39
 164              		.loc 1 70 24 is_stmt 0 view .LVU40
 165 00ca 0125     		movs	r5, #1
 166 00cc 0695     		str	r5, [sp, #24]
  71:Core/Src/gpio.c ****   GPIO_InitStruct.Pull = GPIO_NOPULL;
 167              		.loc 1 71 3 is_stmt 1 view .LVU41
 168              		.loc 1 71 24 is_stmt 0 view .LVU42
 169 00ce 0794     		str	r4, [sp, #28]
  72:Core/Src/gpio.c ****   GPIO_InitStruct.Speed = GPIO_SPEED_FREQ_LOW;
 170              		.loc 1 72 3 is_stmt 1 view .LVU43
 171              		.loc 1 72 25 is_stmt 0 view .LVU44
 172 00d0 0894     		str	r4, [sp, #32]
  73:Core/Src/gpio.c ****   HAL_GPIO_Init(GPIOC, &GPIO_InitStruct);
 173              		.loc 1 73 3 is_stmt 1 view .LVU45
 174 00d2 05A9     		add	r1, sp, #20
 175 00d4 3846     		mov	r0, r7
 176 00d6 FFF7FEFF 		bl	HAL_GPIO_Init
 177              	.LVL4:
  74:Core/Src/gpio.c **** 
  75:Core/Src/gpio.c ****   /*Configure GPIO pin : PC1 */
  76:Core/Src/gpio.c ****   GPIO_InitStruct.Pin = GPIO_PIN_1;
 178              		.loc 1 76 3 view .LVU46
 179              		.loc 1 76 23 is_stmt 0 view .LVU47
 180 00da 0223     		movs	r3, #2
 181 00dc 0593     		str	r3, [sp, #20]
  77:Core/Src/gpio.c ****   GPIO_InitStruct.Mode = GPIO_MODE_IT_RISING_FALLING;
 182              		.loc 1 77 3 is_stmt 1 view .LVU48
 183              		.loc 1 77 24 is_stmt 0 view .LVU49
 184 00de 1E4B     		ldr	r3, .L3+12
 185 00e0 0693     		str	r3, [sp, #24]
  78:Core/Src/gpio.c ****   GPIO_InitStruct.Pull = GPIO_NOPULL;
 186              		.loc 1 78 3 is_stmt 1 view .LVU50
 187              		.loc 1 78 24 is_stmt 0 view .LVU51
 188 00e2 0794     		str	r4, [sp, #28]
  79:Core/Src/gpio.c ****   HAL_GPIO_Init(GPIOC, &GPIO_InitStruct);
 189              		.loc 1 79 3 is_stmt 1 view .LVU52
 190 00e4 05A9     		add	r1, sp, #20
 191 00e6 3846     		mov	r0, r7
 192 00e8 FFF7FEFF 		bl	HAL_GPIO_Init
 193              	.LVL5:
  80:Core/Src/gpio.c **** 
  81:Core/Src/gpio.c ****   /*Configure GPIO pin : PA4 */
  82:Core/Src/gpio.c ****   GPIO_InitStruct.Pin = GPIO_PIN_4;
 194              		.loc 1 82 3 view .LVU53
 195              		.loc 1 82 23 is_stmt 0 view .LVU54
 196 00ec 1023     		movs	r3, #16
 197 00ee 0593     		str	r3, [sp, #20]
  83:Core/Src/gpio.c ****   GPIO_InitStruct.Mode = GPIO_MODE_OUTPUT_PP;
 198              		.loc 1 83 3 is_stmt 1 view .LVU55
 199              		.loc 1 83 24 is_stmt 0 view .LVU56
 200 00f0 0695     		str	r5, [sp, #24]
  84:Core/Src/gpio.c ****   GPIO_InitStruct.Pull = GPIO_NOPULL;
 201              		.loc 1 84 3 is_stmt 1 view .LVU57
 202              		.loc 1 84 24 is_stmt 0 view .LVU58
ARM GAS  C:\Users\LENOVO\AppData\Local\Temp\ccJJ0tqb.s 			page 6


 203 00f2 0794     		str	r4, [sp, #28]
  85:Core/Src/gpio.c ****   GPIO_InitStruct.Speed = GPIO_SPEED_FREQ_LOW;
 204              		.loc 1 85 3 is_stmt 1 view .LVU59
 205              		.loc 1 85 25 is_stmt 0 view .LVU60
 206 00f4 0894     		str	r4, [sp, #32]
  86:Core/Src/gpio.c ****   HAL_GPIO_Init(GPIOA, &GPIO_InitStruct);
 207              		.loc 1 86 3 is_stmt 1 view .LVU61
 208 00f6 05A9     		add	r1, sp, #20
 209 00f8 3046     		mov	r0, r6
 210 00fa FFF7FEFF 		bl	HAL_GPIO_Init
 211              	.LVL6:
  87:Core/Src/gpio.c **** 
  88:Core/Src/gpio.c ****   /*Configure GPIO pin : EN_DISCHARGE_Pin */
  89:Core/Src/gpio.c ****   GPIO_InitStruct.Pin = EN_DISCHARGE_Pin;
 212              		.loc 1 89 3 view .LVU62
 213              		.loc 1 89 23 is_stmt 0 view .LVU63
 214 00fe 4FF48053 		mov	r3, #4096
 215 0102 0593     		str	r3, [sp, #20]
  90:Core/Src/gpio.c ****   GPIO_InitStruct.Mode = GPIO_MODE_OUTPUT_PP;
 216              		.loc 1 90 3 is_stmt 1 view .LVU64
 217              		.loc 1 90 24 is_stmt 0 view .LVU65
 218 0104 0695     		str	r5, [sp, #24]
  91:Core/Src/gpio.c ****   GPIO_InitStruct.Pull = GPIO_NOPULL;
 219              		.loc 1 91 3 is_stmt 1 view .LVU66
 220              		.loc 1 91 24 is_stmt 0 view .LVU67
 221 0106 0794     		str	r4, [sp, #28]
  92:Core/Src/gpio.c ****   GPIO_InitStruct.Speed = GPIO_SPEED_FREQ_LOW;
 222              		.loc 1 92 3 is_stmt 1 view .LVU68
 223              		.loc 1 92 25 is_stmt 0 view .LVU69
 224 0108 0894     		str	r4, [sp, #32]
  93:Core/Src/gpio.c ****   HAL_GPIO_Init(EN_DISCHARGE_GPIO_Port, &GPIO_InitStruct);
 225              		.loc 1 93 3 is_stmt 1 view .LVU70
 226 010a 05A9     		add	r1, sp, #20
 227 010c 4846     		mov	r0, r9
 228 010e FFF7FEFF 		bl	HAL_GPIO_Init
 229              	.LVL7:
  94:Core/Src/gpio.c **** 
  95:Core/Src/gpio.c ****   /*Configure GPIO pin : GPS_RST_Pin */
  96:Core/Src/gpio.c ****   GPIO_InitStruct.Pin = GPS_RST_Pin;
 230              		.loc 1 96 3 view .LVU71
 231              		.loc 1 96 23 is_stmt 0 view .LVU72
 232 0112 4FF48073 		mov	r3, #256
 233 0116 0593     		str	r3, [sp, #20]
  97:Core/Src/gpio.c ****   GPIO_InitStruct.Mode = GPIO_MODE_INPUT;
 234              		.loc 1 97 3 is_stmt 1 view .LVU73
 235              		.loc 1 97 24 is_stmt 0 view .LVU74
 236 0118 0694     		str	r4, [sp, #24]
  98:Core/Src/gpio.c ****   GPIO_InitStruct.Pull = GPIO_PULLUP;
 237              		.loc 1 98 3 is_stmt 1 view .LVU75
 238              		.loc 1 98 24 is_stmt 0 view .LVU76
 239 011a 0795     		str	r5, [sp, #28]
  99:Core/Src/gpio.c ****   HAL_GPIO_Init(GPS_RST_GPIO_Port, &GPIO_InitStruct);
 240              		.loc 1 99 3 is_stmt 1 view .LVU77
 241 011c 05A9     		add	r1, sp, #20
 242 011e 3046     		mov	r0, r6
 243 0120 FFF7FEFF 		bl	HAL_GPIO_Init
 244              	.LVL8:
ARM GAS  C:\Users\LENOVO\AppData\Local\Temp\ccJJ0tqb.s 			page 7


 100:Core/Src/gpio.c **** 
 101:Core/Src/gpio.c ****   /*Configure GPIO pins : RTC_EN_PW_Pin IMU_EN_PW_Pin I2C1_RESET_Pin */
 102:Core/Src/gpio.c ****   GPIO_InitStruct.Pin = RTC_EN_PW_Pin|IMU_EN_PW_Pin|I2C1_RESET_Pin;
 245              		.loc 1 102 3 view .LVU78
 246              		.loc 1 102 23 is_stmt 0 view .LVU79
 247 0124 3823     		movs	r3, #56
 248 0126 0593     		str	r3, [sp, #20]
 103:Core/Src/gpio.c ****   GPIO_InitStruct.Mode = GPIO_MODE_OUTPUT_PP;
 249              		.loc 1 103 3 is_stmt 1 view .LVU80
 250              		.loc 1 103 24 is_stmt 0 view .LVU81
 251 0128 0695     		str	r5, [sp, #24]
 104:Core/Src/gpio.c ****   GPIO_InitStruct.Pull = GPIO_NOPULL;
 252              		.loc 1 104 3 is_stmt 1 view .LVU82
 253              		.loc 1 104 24 is_stmt 0 view .LVU83
 254 012a 0794     		str	r4, [sp, #28]
 105:Core/Src/gpio.c ****   GPIO_InitStruct.Speed = GPIO_SPEED_FREQ_LOW;
 255              		.loc 1 105 3 is_stmt 1 view .LVU84
 256              		.loc 1 105 25 is_stmt 0 view .LVU85
 257 012c 0894     		str	r4, [sp, #32]
 106:Core/Src/gpio.c ****   HAL_GPIO_Init(GPIOB, &GPIO_InitStruct);
 258              		.loc 1 106 3 is_stmt 1 view .LVU86
 259 012e 05A9     		add	r1, sp, #20
 260 0130 4046     		mov	r0, r8
 261 0132 FFF7FEFF 		bl	HAL_GPIO_Init
 262              	.LVL9:
 107:Core/Src/gpio.c **** 
 108:Core/Src/gpio.c ****   /* EXTI interrupt init*/
 109:Core/Src/gpio.c ****   HAL_NVIC_SetPriority(EXTI1_IRQn, 0, 0);
 263              		.loc 1 109 3 view .LVU87
 264 0136 2246     		mov	r2, r4
 265 0138 2146     		mov	r1, r4
 266 013a 0C20     		movs	r0, #12
 267 013c FFF7FEFF 		bl	HAL_NVIC_SetPriority
 268              	.LVL10:
 110:Core/Src/gpio.c ****   HAL_NVIC_EnableIRQ(EXTI1_IRQn);
 269              		.loc 1 110 3 view .LVU88
 270 0140 0C20     		movs	r0, #12
 271 0142 FFF7FEFF 		bl	HAL_NVIC_EnableIRQ
 272              	.LVL11:
 111:Core/Src/gpio.c **** 
 112:Core/Src/gpio.c **** }
 273              		.loc 1 112 1 is_stmt 0 view .LVU89
 274 0146 0BB0     		add	sp, sp, #44
 275              	.LCFI2:
 276              		.cfi_def_cfa_offset 28
 277              		@ sp needed
 278 0148 BDE8F083 		pop	{r4, r5, r6, r7, r8, r9, pc}
 279              	.L4:
 280              		.align	2
 281              	.L3:
 282 014c 000C0244 		.word	1140984832
 283 0150 00080242 		.word	1107429376
 284 0154 00000242 		.word	1107427328
 285 0158 00003110 		.word	271646720
 286 015c 000C0242 		.word	1107430400
 287 0160 00040242 		.word	1107428352
 288              		.cfi_endproc
ARM GAS  C:\Users\LENOVO\AppData\Local\Temp\ccJJ0tqb.s 			page 8


 289              	.LFE496:
 291              		.text
 292              	.Letext0:
 293              		.file 2 "C:\\ST\\STM32CubeCLT_1.20.0\\GNU-tools-for-STM32\\bin/../lib/gcc/arm-none-eabi/13.3.1/../
 294              		.file 3 "Drivers/CMSIS/Device/ST/STM32H5xx/Include/stm32h563xx.h"
 295              		.file 4 "C:\\ST\\STM32CubeCLT_1.20.0\\GNU-tools-for-STM32\\bin/../lib/gcc/arm-none-eabi/13.3.1/../
 296              		.file 5 "Drivers/STM32H5xx_HAL_Driver/Inc/stm32h5xx_hal_gpio.h"
 297              		.file 6 "Drivers/STM32H5xx_HAL_Driver/Inc/stm32h5xx_ll_lptim.h"
 298              		.file 7 "Drivers/STM32H5xx_HAL_Driver/Inc/stm32h5xx_hal_cortex.h"
ARM GAS  C:\Users\LENOVO\AppData\Local\Temp\ccJJ0tqb.s 			page 9

