ARM GAS  C:\Users\LENOVO\AppData\Local\Temp\ccRCeXmz.s 			page 1


   1              		.cpu cortex-m33
   2              		.arch armv8-m.main
   3              		.fpu fpv5-sp-d16
   4              		.arch_extension dsp
   5              		.eabi_attribute 27, 1
   6              		.eabi_attribute 28, 1
   7              		.eabi_attribute 20, 1
   8              		.eabi_attribute 21, 1
   9              		.eabi_attribute 23, 3
  10              		.eabi_attribute 24, 1
  11              		.eabi_attribute 25, 1
  12              		.eabi_attribute 26, 1
  13              		.eabi_attribute 30, 1
  14              		.eabi_attribute 34, 1
  15              		.eabi_attribute 18, 4
  16              		.file	"gps.c"
  17              		.text
  18              	.Ltext0:
  19              		.cfi_sections	.debug_frame
  20              		.file 1 "SynaptiX_FDK/components/gps/gps.c"
  21              		.section	.text.sx_gpio_write,"ax",%progbits
  22              		.align	1
  23              		.syntax unified
  24              		.thumb
  25              		.thumb_func
  27              	sx_gpio_write:
  28              	.LVL0:
  29              	.LFB4:
  30              		.file 2 "SynaptiX_FDK/components/gpio/sx_gpio.h"
   1:SynaptiX_FDK/components/gpio/sx_gpio.h **** #ifndef SX_GPIO_H
   2:SynaptiX_FDK/components/gpio/sx_gpio.h **** #define SX_GPIO_H
   3:SynaptiX_FDK/components/gpio/sx_gpio.h **** #ifdef __cplusplus
   4:SynaptiX_FDK/components/gpio/sx_gpio.h **** extern "C" {
   5:SynaptiX_FDK/components/gpio/sx_gpio.h **** #endif
   6:SynaptiX_FDK/components/gpio/sx_gpio.h **** 
   7:SynaptiX_FDK/components/gpio/sx_gpio.h **** #include <stdint.h>
   8:SynaptiX_FDK/components/gpio/sx_gpio.h **** 
   9:SynaptiX_FDK/components/gpio/sx_gpio.h **** typedef enum SX_GPIO_VALUE{
  10:SynaptiX_FDK/components/gpio/sx_gpio.h ****     SX_GPIO_LOW = 0,
  11:SynaptiX_FDK/components/gpio/sx_gpio.h ****     SX_GPIO_HIGH = 1
  12:SynaptiX_FDK/components/gpio/sx_gpio.h **** } SX_GPIO_VALUE;
  13:SynaptiX_FDK/components/gpio/sx_gpio.h **** 
  14:SynaptiX_FDK/components/gpio/sx_gpio.h **** typedef struct sx_gpio sx_gpio_t;
  15:SynaptiX_FDK/components/gpio/sx_gpio.h **** 
  16:SynaptiX_FDK/components/gpio/sx_gpio.h **** typedef struct {
  17:SynaptiX_FDK/components/gpio/sx_gpio.h ****     void    *port;
  18:SynaptiX_FDK/components/gpio/sx_gpio.h ****     uint16_t pin;
  19:SynaptiX_FDK/components/gpio/sx_gpio.h **** } sx_gpio_pin_t;
  20:SynaptiX_FDK/components/gpio/sx_gpio.h **** 
  21:SynaptiX_FDK/components/gpio/sx_gpio.h **** typedef struct sx_gpio_ops{
  22:SynaptiX_FDK/components/gpio/sx_gpio.h ****     int (*write)(sx_gpio_t *gpio, SX_GPIO_VALUE value);
  23:SynaptiX_FDK/components/gpio/sx_gpio.h ****     int (*read)(sx_gpio_t *gpio, SX_GPIO_VALUE *value);
  24:SynaptiX_FDK/components/gpio/sx_gpio.h ****     int (*toggle)(sx_gpio_t *gpio);
  25:SynaptiX_FDK/components/gpio/sx_gpio.h **** } sx_gpio_ops_t;
  26:SynaptiX_FDK/components/gpio/sx_gpio.h **** 
  27:SynaptiX_FDK/components/gpio/sx_gpio.h **** typedef struct sx_gpio{
  28:SynaptiX_FDK/components/gpio/sx_gpio.h ****     sx_gpio_ops_t *ops;
ARM GAS  C:\Users\LENOVO\AppData\Local\Temp\ccRCeXmz.s 			page 2


  29:SynaptiX_FDK/components/gpio/sx_gpio.h ****     void *pDriver;
  30:SynaptiX_FDK/components/gpio/sx_gpio.h ****     SX_GPIO_VALUE value;
  31:SynaptiX_FDK/components/gpio/sx_gpio.h **** } sx_gpio_t;
  32:SynaptiX_FDK/components/gpio/sx_gpio.h **** 
  33:SynaptiX_FDK/components/gpio/sx_gpio.h **** static inline void sx_gpio_init(sx_gpio_t *gpio, sx_gpio_ops_t *ops, void *pDriver){
  34:SynaptiX_FDK/components/gpio/sx_gpio.h ****     gpio->ops = ops;
  35:SynaptiX_FDK/components/gpio/sx_gpio.h ****     gpio->pDriver = pDriver;
  36:SynaptiX_FDK/components/gpio/sx_gpio.h ****     gpio->value = SX_GPIO_LOW;
  37:SynaptiX_FDK/components/gpio/sx_gpio.h **** }
  38:SynaptiX_FDK/components/gpio/sx_gpio.h **** 
  39:SynaptiX_FDK/components/gpio/sx_gpio.h **** static inline int sx_gpio_write(sx_gpio_t *gpio, SX_GPIO_VALUE value){
  31              		.loc 2 39 70 view -0
  32              		.cfi_startproc
  33              		@ args = 0, pretend = 0, frame = 0
  34              		@ frame_needed = 0, uses_anonymous_args = 0
  35              		.loc 2 39 70 is_stmt 0 view .LVU1
  36 0000 38B5     		push	{r3, r4, r5, lr}
  37              	.LCFI0:
  38              		.cfi_def_cfa_offset 16
  39              		.cfi_offset 3, -16
  40              		.cfi_offset 4, -12
  41              		.cfi_offset 5, -8
  42              		.cfi_offset 14, -4
  40:SynaptiX_FDK/components/gpio/sx_gpio.h ****     if(gpio->ops && gpio->ops->write){
  43              		.loc 2 40 5 is_stmt 1 view .LVU2
  44              		.loc 2 40 12 is_stmt 0 view .LVU3
  45 0002 0368     		ldr	r3, [r0]
  46              		.loc 2 40 7 view .LVU4
  47 0004 3BB1     		cbz	r3, .L4
  48 0006 0446     		mov	r4, r0
  49 0008 0D46     		mov	r5, r1
  50              		.loc 2 40 30 discriminator 1 view .LVU5
  51 000a 1B68     		ldr	r3, [r3]
  52              		.loc 2 40 18 discriminator 1 view .LVU6
  53 000c 33B1     		cbz	r3, .L5
  54              	.LBB10:
  41:SynaptiX_FDK/components/gpio/sx_gpio.h ****         int ret = gpio->ops->write(gpio, value);
  55              		.loc 2 41 9 is_stmt 1 view .LVU7
  56              		.loc 2 41 19 is_stmt 0 view .LVU8
  57 000e 9847     		blx	r3
  58              	.LVL1:
  42:SynaptiX_FDK/components/gpio/sx_gpio.h ****         if(ret == 0){
  59              		.loc 2 42 9 is_stmt 1 view .LVU9
  60              		.loc 2 42 11 is_stmt 0 view .LVU10
  61 0010 00B9     		cbnz	r0, .L1
  43:SynaptiX_FDK/components/gpio/sx_gpio.h ****             gpio->value = value;
  62              		.loc 2 43 13 is_stmt 1 view .LVU11
  63              		.loc 2 43 25 is_stmt 0 view .LVU12
  64 0012 2572     		strb	r5, [r4, #8]
  44:SynaptiX_FDK/components/gpio/sx_gpio.h ****         }
  45:SynaptiX_FDK/components/gpio/sx_gpio.h ****         return ret;
  65              		.loc 2 45 9 is_stmt 1 view .LVU13
  66              	.LVL2:
  67              	.L1:
  68              		.loc 2 45 9 is_stmt 0 view .LVU14
  69              	.LBE10:
  46:SynaptiX_FDK/components/gpio/sx_gpio.h ****     }
ARM GAS  C:\Users\LENOVO\AppData\Local\Temp\ccRCeXmz.s 			page 3


  47:SynaptiX_FDK/components/gpio/sx_gpio.h ****     return -1;
  48:SynaptiX_FDK/components/gpio/sx_gpio.h **** }
  70              		.loc 2 48 1 view .LVU15
  71 0014 38BD     		pop	{r3, r4, r5, pc}
  72              	.LVL3:
  73              	.L4:
  47:SynaptiX_FDK/components/gpio/sx_gpio.h **** }
  74              		.loc 2 47 12 view .LVU16
  75 0016 4FF0FF30 		mov	r0, #-1
  76              	.LVL4:
  47:SynaptiX_FDK/components/gpio/sx_gpio.h **** }
  77              		.loc 2 47 12 view .LVU17
  78 001a FBE7     		b	.L1
  79              	.LVL5:
  80              	.L5:
  47:SynaptiX_FDK/components/gpio/sx_gpio.h **** }
  81              		.loc 2 47 12 view .LVU18
  82 001c 4FF0FF30 		mov	r0, #-1
  83              	.LVL6:
  47:SynaptiX_FDK/components/gpio/sx_gpio.h **** }
  84              		.loc 2 47 12 view .LVU19
  85 0020 F8E7     		b	.L1
  86              		.cfi_endproc
  87              	.LFE4:
  89              		.section	.text.minmea_tocoord,"ax",%progbits
  90              		.align	1
  91              		.syntax unified
  92              		.thumb
  93              		.thumb_func
  95              	minmea_tocoord:
  96              	.LVL7:
  97              	.LFB10:
  98              		.file 3 "SynaptiX_FDK/components/gps/minmea.h"
   1:SynaptiX_FDK/components/gps/minmea.h **** /*
   2:SynaptiX_FDK/components/gps/minmea.h ****  * Copyright © 2014 Kosma Moczek <kosma@cloudyourcar.com>
   3:SynaptiX_FDK/components/gps/minmea.h ****  * This program is free software. It comes without any warranty, to the extent
   4:SynaptiX_FDK/components/gps/minmea.h ****  * permitted by applicable law. You can redistribute it and/or modify it under
   5:SynaptiX_FDK/components/gps/minmea.h ****  * the terms of the Do What The Fuck You Want To Public License, Version 2, as
   6:SynaptiX_FDK/components/gps/minmea.h ****  * published by Sam Hocevar. See the COPYING file for more details.
   7:SynaptiX_FDK/components/gps/minmea.h ****  */
   8:SynaptiX_FDK/components/gps/minmea.h **** 
   9:SynaptiX_FDK/components/gps/minmea.h **** #ifndef MINMEA_H
  10:SynaptiX_FDK/components/gps/minmea.h **** #define MINMEA_H
  11:SynaptiX_FDK/components/gps/minmea.h **** 
  12:SynaptiX_FDK/components/gps/minmea.h **** #ifdef __cplusplus
  13:SynaptiX_FDK/components/gps/minmea.h **** extern "C" {
  14:SynaptiX_FDK/components/gps/minmea.h **** #endif
  15:SynaptiX_FDK/components/gps/minmea.h **** 
  16:SynaptiX_FDK/components/gps/minmea.h **** #include <ctype.h>
  17:SynaptiX_FDK/components/gps/minmea.h **** #include <stdint.h>
  18:SynaptiX_FDK/components/gps/minmea.h **** #include <stdbool.h>
  19:SynaptiX_FDK/components/gps/minmea.h **** #include <time.h>
  20:SynaptiX_FDK/components/gps/minmea.h **** #include <math.h>
  21:SynaptiX_FDK/components/gps/minmea.h **** #ifdef MINMEA_INCLUDE_COMPAT
  22:SynaptiX_FDK/components/gps/minmea.h **** #include <minmea_compat.h>
  23:SynaptiX_FDK/components/gps/minmea.h **** #endif
  24:SynaptiX_FDK/components/gps/minmea.h **** 
ARM GAS  C:\Users\LENOVO\AppData\Local\Temp\ccRCeXmz.s 			page 4


  25:SynaptiX_FDK/components/gps/minmea.h **** #ifndef MINMEA_MAX_SENTENCE_LENGTH
  26:SynaptiX_FDK/components/gps/minmea.h **** #define MINMEA_MAX_SENTENCE_LENGTH 80
  27:SynaptiX_FDK/components/gps/minmea.h **** #endif
  28:SynaptiX_FDK/components/gps/minmea.h **** 
  29:SynaptiX_FDK/components/gps/minmea.h **** enum minmea_sentence_id {
  30:SynaptiX_FDK/components/gps/minmea.h ****     MINMEA_INVALID = -1,
  31:SynaptiX_FDK/components/gps/minmea.h ****     MINMEA_UNKNOWN = 0,
  32:SynaptiX_FDK/components/gps/minmea.h ****     MINMEA_SENTENCE_GBS,
  33:SynaptiX_FDK/components/gps/minmea.h ****     MINMEA_SENTENCE_GGA,
  34:SynaptiX_FDK/components/gps/minmea.h ****     MINMEA_SENTENCE_GLL,
  35:SynaptiX_FDK/components/gps/minmea.h ****     MINMEA_SENTENCE_GSA,
  36:SynaptiX_FDK/components/gps/minmea.h ****     MINMEA_SENTENCE_GST,
  37:SynaptiX_FDK/components/gps/minmea.h ****     MINMEA_SENTENCE_GSV,
  38:SynaptiX_FDK/components/gps/minmea.h ****     MINMEA_SENTENCE_RMC,
  39:SynaptiX_FDK/components/gps/minmea.h ****     MINMEA_SENTENCE_VTG,
  40:SynaptiX_FDK/components/gps/minmea.h ****     MINMEA_SENTENCE_ZDA,
  41:SynaptiX_FDK/components/gps/minmea.h **** };
  42:SynaptiX_FDK/components/gps/minmea.h **** 
  43:SynaptiX_FDK/components/gps/minmea.h **** struct minmea_float {
  44:SynaptiX_FDK/components/gps/minmea.h ****     int_least32_t value;
  45:SynaptiX_FDK/components/gps/minmea.h ****     int_least32_t scale;
  46:SynaptiX_FDK/components/gps/minmea.h **** };
  47:SynaptiX_FDK/components/gps/minmea.h **** 
  48:SynaptiX_FDK/components/gps/minmea.h **** struct minmea_date {
  49:SynaptiX_FDK/components/gps/minmea.h ****     int day;
  50:SynaptiX_FDK/components/gps/minmea.h ****     int month;
  51:SynaptiX_FDK/components/gps/minmea.h ****     int year;
  52:SynaptiX_FDK/components/gps/minmea.h **** };
  53:SynaptiX_FDK/components/gps/minmea.h **** 
  54:SynaptiX_FDK/components/gps/minmea.h **** struct minmea_time {
  55:SynaptiX_FDK/components/gps/minmea.h ****     int hours;
  56:SynaptiX_FDK/components/gps/minmea.h ****     int minutes;
  57:SynaptiX_FDK/components/gps/minmea.h ****     int seconds;
  58:SynaptiX_FDK/components/gps/minmea.h ****     int microseconds;
  59:SynaptiX_FDK/components/gps/minmea.h **** };
  60:SynaptiX_FDK/components/gps/minmea.h **** 
  61:SynaptiX_FDK/components/gps/minmea.h **** // provide backwards compatibility to users expecting a null-terminated string
  62:SynaptiX_FDK/components/gps/minmea.h **** // instead of a struct
  63:SynaptiX_FDK/components/gps/minmea.h **** union minmea_type {
  64:SynaptiX_FDK/components/gps/minmea.h ****   char buf[6];
  65:SynaptiX_FDK/components/gps/minmea.h ****   struct {
  66:SynaptiX_FDK/components/gps/minmea.h ****     char talker_id[2];
  67:SynaptiX_FDK/components/gps/minmea.h ****     char sentence_id[3];
  68:SynaptiX_FDK/components/gps/minmea.h ****     char null_terminator;
  69:SynaptiX_FDK/components/gps/minmea.h ****   };
  70:SynaptiX_FDK/components/gps/minmea.h **** };
  71:SynaptiX_FDK/components/gps/minmea.h **** 
  72:SynaptiX_FDK/components/gps/minmea.h **** struct minmea_sentence_gbs {
  73:SynaptiX_FDK/components/gps/minmea.h ****     union minmea_type type;
  74:SynaptiX_FDK/components/gps/minmea.h ****     struct minmea_time time;
  75:SynaptiX_FDK/components/gps/minmea.h ****     struct minmea_float err_latitude;
  76:SynaptiX_FDK/components/gps/minmea.h ****     struct minmea_float err_longitude;
  77:SynaptiX_FDK/components/gps/minmea.h ****     struct minmea_float err_altitude;
  78:SynaptiX_FDK/components/gps/minmea.h ****     int svid;
  79:SynaptiX_FDK/components/gps/minmea.h ****     struct minmea_float prob;
  80:SynaptiX_FDK/components/gps/minmea.h ****     struct minmea_float bias;
  81:SynaptiX_FDK/components/gps/minmea.h ****     struct minmea_float stddev;
ARM GAS  C:\Users\LENOVO\AppData\Local\Temp\ccRCeXmz.s 			page 5


  82:SynaptiX_FDK/components/gps/minmea.h **** };
  83:SynaptiX_FDK/components/gps/minmea.h **** 
  84:SynaptiX_FDK/components/gps/minmea.h **** struct minmea_sentence_rmc {
  85:SynaptiX_FDK/components/gps/minmea.h ****     union minmea_type type;
  86:SynaptiX_FDK/components/gps/minmea.h ****     struct minmea_time time;
  87:SynaptiX_FDK/components/gps/minmea.h ****     bool valid;
  88:SynaptiX_FDK/components/gps/minmea.h ****     struct minmea_float latitude;
  89:SynaptiX_FDK/components/gps/minmea.h ****     struct minmea_float longitude;
  90:SynaptiX_FDK/components/gps/minmea.h ****     struct minmea_float speed;
  91:SynaptiX_FDK/components/gps/minmea.h ****     struct minmea_float course;
  92:SynaptiX_FDK/components/gps/minmea.h ****     struct minmea_date date;
  93:SynaptiX_FDK/components/gps/minmea.h ****     struct minmea_float variation;
  94:SynaptiX_FDK/components/gps/minmea.h **** };
  95:SynaptiX_FDK/components/gps/minmea.h **** 
  96:SynaptiX_FDK/components/gps/minmea.h **** struct minmea_sentence_gga {
  97:SynaptiX_FDK/components/gps/minmea.h ****     union minmea_type type;
  98:SynaptiX_FDK/components/gps/minmea.h ****     struct minmea_time time;
  99:SynaptiX_FDK/components/gps/minmea.h ****     struct minmea_float latitude;
 100:SynaptiX_FDK/components/gps/minmea.h ****     struct minmea_float longitude;
 101:SynaptiX_FDK/components/gps/minmea.h ****     int fix_quality;
 102:SynaptiX_FDK/components/gps/minmea.h ****     int satellites_tracked;
 103:SynaptiX_FDK/components/gps/minmea.h ****     struct minmea_float hdop;
 104:SynaptiX_FDK/components/gps/minmea.h ****     struct minmea_float altitude; char altitude_units;
 105:SynaptiX_FDK/components/gps/minmea.h ****     struct minmea_float height; char height_units;
 106:SynaptiX_FDK/components/gps/minmea.h ****     struct minmea_float dgps_age;
 107:SynaptiX_FDK/components/gps/minmea.h **** };
 108:SynaptiX_FDK/components/gps/minmea.h **** 
 109:SynaptiX_FDK/components/gps/minmea.h **** enum minmea_gll_status {
 110:SynaptiX_FDK/components/gps/minmea.h ****     MINMEA_GLL_STATUS_DATA_VALID = 'A',
 111:SynaptiX_FDK/components/gps/minmea.h ****     MINMEA_GLL_STATUS_DATA_NOT_VALID = 'V',
 112:SynaptiX_FDK/components/gps/minmea.h **** };
 113:SynaptiX_FDK/components/gps/minmea.h **** 
 114:SynaptiX_FDK/components/gps/minmea.h **** // FAA mode added to some fields in NMEA 2.3.
 115:SynaptiX_FDK/components/gps/minmea.h **** enum minmea_faa_mode {
 116:SynaptiX_FDK/components/gps/minmea.h ****     MINMEA_FAA_MODE_AUTONOMOUS = 'A',
 117:SynaptiX_FDK/components/gps/minmea.h ****     MINMEA_FAA_MODE_DIFFERENTIAL = 'D',
 118:SynaptiX_FDK/components/gps/minmea.h ****     MINMEA_FAA_MODE_ESTIMATED = 'E',
 119:SynaptiX_FDK/components/gps/minmea.h ****     MINMEA_FAA_MODE_MANUAL = 'M',
 120:SynaptiX_FDK/components/gps/minmea.h ****     MINMEA_FAA_MODE_SIMULATED = 'S',
 121:SynaptiX_FDK/components/gps/minmea.h ****     MINMEA_FAA_MODE_NOT_VALID = 'N',
 122:SynaptiX_FDK/components/gps/minmea.h ****     MINMEA_FAA_MODE_PRECISE = 'P',
 123:SynaptiX_FDK/components/gps/minmea.h **** };
 124:SynaptiX_FDK/components/gps/minmea.h **** 
 125:SynaptiX_FDK/components/gps/minmea.h **** struct minmea_sentence_gll {
 126:SynaptiX_FDK/components/gps/minmea.h ****     union minmea_type type;
 127:SynaptiX_FDK/components/gps/minmea.h ****     struct minmea_float latitude;
 128:SynaptiX_FDK/components/gps/minmea.h ****     struct minmea_float longitude;
 129:SynaptiX_FDK/components/gps/minmea.h ****     struct minmea_time time;
 130:SynaptiX_FDK/components/gps/minmea.h ****     char status;
 131:SynaptiX_FDK/components/gps/minmea.h ****     char mode;
 132:SynaptiX_FDK/components/gps/minmea.h **** };
 133:SynaptiX_FDK/components/gps/minmea.h **** 
 134:SynaptiX_FDK/components/gps/minmea.h **** struct minmea_sentence_gst {
 135:SynaptiX_FDK/components/gps/minmea.h ****     union minmea_type type;
 136:SynaptiX_FDK/components/gps/minmea.h ****     struct minmea_time time;
 137:SynaptiX_FDK/components/gps/minmea.h ****     struct minmea_float rms_deviation;
 138:SynaptiX_FDK/components/gps/minmea.h ****     struct minmea_float semi_major_deviation;
ARM GAS  C:\Users\LENOVO\AppData\Local\Temp\ccRCeXmz.s 			page 6


 139:SynaptiX_FDK/components/gps/minmea.h ****     struct minmea_float semi_minor_deviation;
 140:SynaptiX_FDK/components/gps/minmea.h ****     struct minmea_float semi_major_orientation;
 141:SynaptiX_FDK/components/gps/minmea.h ****     struct minmea_float latitude_error_deviation;
 142:SynaptiX_FDK/components/gps/minmea.h ****     struct minmea_float longitude_error_deviation;
 143:SynaptiX_FDK/components/gps/minmea.h ****     struct minmea_float altitude_error_deviation;
 144:SynaptiX_FDK/components/gps/minmea.h **** };
 145:SynaptiX_FDK/components/gps/minmea.h **** 
 146:SynaptiX_FDK/components/gps/minmea.h **** enum minmea_gsa_mode {
 147:SynaptiX_FDK/components/gps/minmea.h ****     MINMEA_GPGSA_MODE_AUTO = 'A',
 148:SynaptiX_FDK/components/gps/minmea.h ****     MINMEA_GPGSA_MODE_FORCED = 'M',
 149:SynaptiX_FDK/components/gps/minmea.h **** };
 150:SynaptiX_FDK/components/gps/minmea.h **** 
 151:SynaptiX_FDK/components/gps/minmea.h **** enum minmea_gsa_fix_type {
 152:SynaptiX_FDK/components/gps/minmea.h ****     MINMEA_GPGSA_FIX_NONE = 1,
 153:SynaptiX_FDK/components/gps/minmea.h ****     MINMEA_GPGSA_FIX_2D = 2,
 154:SynaptiX_FDK/components/gps/minmea.h ****     MINMEA_GPGSA_FIX_3D = 3,
 155:SynaptiX_FDK/components/gps/minmea.h **** };
 156:SynaptiX_FDK/components/gps/minmea.h **** 
 157:SynaptiX_FDK/components/gps/minmea.h **** struct minmea_sentence_gsa {
 158:SynaptiX_FDK/components/gps/minmea.h ****     union minmea_type type;
 159:SynaptiX_FDK/components/gps/minmea.h ****     char mode;
 160:SynaptiX_FDK/components/gps/minmea.h ****     int fix_type;
 161:SynaptiX_FDK/components/gps/minmea.h ****     int sats[12];
 162:SynaptiX_FDK/components/gps/minmea.h ****     struct minmea_float pdop;
 163:SynaptiX_FDK/components/gps/minmea.h ****     struct minmea_float hdop;
 164:SynaptiX_FDK/components/gps/minmea.h ****     struct minmea_float vdop;
 165:SynaptiX_FDK/components/gps/minmea.h **** };
 166:SynaptiX_FDK/components/gps/minmea.h **** 
 167:SynaptiX_FDK/components/gps/minmea.h **** struct minmea_sat_info {
 168:SynaptiX_FDK/components/gps/minmea.h ****     int nr;
 169:SynaptiX_FDK/components/gps/minmea.h ****     int elevation;
 170:SynaptiX_FDK/components/gps/minmea.h ****     int azimuth;
 171:SynaptiX_FDK/components/gps/minmea.h ****     int snr;
 172:SynaptiX_FDK/components/gps/minmea.h **** };
 173:SynaptiX_FDK/components/gps/minmea.h **** 
 174:SynaptiX_FDK/components/gps/minmea.h **** struct minmea_sentence_gsv {
 175:SynaptiX_FDK/components/gps/minmea.h ****     union minmea_type type;
 176:SynaptiX_FDK/components/gps/minmea.h ****     int total_msgs;
 177:SynaptiX_FDK/components/gps/minmea.h ****     int msg_nr;
 178:SynaptiX_FDK/components/gps/minmea.h ****     int total_sats;
 179:SynaptiX_FDK/components/gps/minmea.h ****     struct minmea_sat_info sats[4];
 180:SynaptiX_FDK/components/gps/minmea.h **** };
 181:SynaptiX_FDK/components/gps/minmea.h **** 
 182:SynaptiX_FDK/components/gps/minmea.h **** struct minmea_sentence_vtg {
 183:SynaptiX_FDK/components/gps/minmea.h ****     union minmea_type type;
 184:SynaptiX_FDK/components/gps/minmea.h ****     struct minmea_float true_track_degrees;
 185:SynaptiX_FDK/components/gps/minmea.h ****     struct minmea_float magnetic_track_degrees;
 186:SynaptiX_FDK/components/gps/minmea.h ****     struct minmea_float speed_knots;
 187:SynaptiX_FDK/components/gps/minmea.h ****     struct minmea_float speed_kph;
 188:SynaptiX_FDK/components/gps/minmea.h ****     enum minmea_faa_mode faa_mode;
 189:SynaptiX_FDK/components/gps/minmea.h **** };
 190:SynaptiX_FDK/components/gps/minmea.h **** 
 191:SynaptiX_FDK/components/gps/minmea.h **** struct minmea_sentence_zda {
 192:SynaptiX_FDK/components/gps/minmea.h ****     union minmea_type type;
 193:SynaptiX_FDK/components/gps/minmea.h ****     struct minmea_time time;
 194:SynaptiX_FDK/components/gps/minmea.h ****     struct minmea_date date;
 195:SynaptiX_FDK/components/gps/minmea.h ****     int hour_offset;
ARM GAS  C:\Users\LENOVO\AppData\Local\Temp\ccRCeXmz.s 			page 7


 196:SynaptiX_FDK/components/gps/minmea.h ****     int minute_offset;
 197:SynaptiX_FDK/components/gps/minmea.h **** };
 198:SynaptiX_FDK/components/gps/minmea.h **** 
 199:SynaptiX_FDK/components/gps/minmea.h **** /**
 200:SynaptiX_FDK/components/gps/minmea.h ****  * Calculate raw sentence checksum. Does not check sentence integrity.
 201:SynaptiX_FDK/components/gps/minmea.h ****  */
 202:SynaptiX_FDK/components/gps/minmea.h **** uint8_t minmea_checksum(const char *sentence);
 203:SynaptiX_FDK/components/gps/minmea.h **** 
 204:SynaptiX_FDK/components/gps/minmea.h **** /**
 205:SynaptiX_FDK/components/gps/minmea.h ****  * Check sentence validity and checksum. Returns true for valid sentences.
 206:SynaptiX_FDK/components/gps/minmea.h ****  */
 207:SynaptiX_FDK/components/gps/minmea.h **** bool minmea_check(const char *sentence, bool strict);
 208:SynaptiX_FDK/components/gps/minmea.h **** 
 209:SynaptiX_FDK/components/gps/minmea.h **** /**
 210:SynaptiX_FDK/components/gps/minmea.h ****  * Determine talker identifier.
 211:SynaptiX_FDK/components/gps/minmea.h ****  */
 212:SynaptiX_FDK/components/gps/minmea.h **** bool minmea_talker_id(char talker[3], const char *sentence);
 213:SynaptiX_FDK/components/gps/minmea.h **** 
 214:SynaptiX_FDK/components/gps/minmea.h **** /**
 215:SynaptiX_FDK/components/gps/minmea.h ****  * Get sentence id as string.
 216:SynaptiX_FDK/components/gps/minmea.h ****  */
 217:SynaptiX_FDK/components/gps/minmea.h **** const char* minmea_sentence(enum minmea_sentence_id id);
 218:SynaptiX_FDK/components/gps/minmea.h **** 
 219:SynaptiX_FDK/components/gps/minmea.h **** /**
 220:SynaptiX_FDK/components/gps/minmea.h ****  * Determine sentence identifier.
 221:SynaptiX_FDK/components/gps/minmea.h ****  */
 222:SynaptiX_FDK/components/gps/minmea.h **** enum minmea_sentence_id minmea_sentence_id(const char *sentence, bool strict);
 223:SynaptiX_FDK/components/gps/minmea.h **** 
 224:SynaptiX_FDK/components/gps/minmea.h **** /**
 225:SynaptiX_FDK/components/gps/minmea.h ****  * Scanf-like processor for NMEA sentences. Supports the following formats:
 226:SynaptiX_FDK/components/gps/minmea.h ****  * c - single character (char *)
 227:SynaptiX_FDK/components/gps/minmea.h ****  * d - direction, returned as 1/-1, default 0 (int *)
 228:SynaptiX_FDK/components/gps/minmea.h ****  * f - fractional, returned as value + scale (struct minmea_float *)
 229:SynaptiX_FDK/components/gps/minmea.h ****  * i - decimal, default zero (int *)
 230:SynaptiX_FDK/components/gps/minmea.h ****  * s - string (char *)
 231:SynaptiX_FDK/components/gps/minmea.h ****  * t - talker identifier and type (union minmea_type *)
 232:SynaptiX_FDK/components/gps/minmea.h ****  * D - date (struct minmea_date *)
 233:SynaptiX_FDK/components/gps/minmea.h ****  * T - time stamp (struct minmea_time *)
 234:SynaptiX_FDK/components/gps/minmea.h ****  * _ - ignore this field
 235:SynaptiX_FDK/components/gps/minmea.h ****  * ; - following fields are optional
 236:SynaptiX_FDK/components/gps/minmea.h ****  * Returns true on success. See library source code for details.
 237:SynaptiX_FDK/components/gps/minmea.h ****  */
 238:SynaptiX_FDK/components/gps/minmea.h **** bool minmea_scan(const char *sentence, const char *format, ...);
 239:SynaptiX_FDK/components/gps/minmea.h **** 
 240:SynaptiX_FDK/components/gps/minmea.h **** /*
 241:SynaptiX_FDK/components/gps/minmea.h ****  * Parse a specific type of sentence. Return true on success.
 242:SynaptiX_FDK/components/gps/minmea.h ****  */
 243:SynaptiX_FDK/components/gps/minmea.h **** bool minmea_parse_gbs(struct minmea_sentence_gbs *frame, const char *sentence);
 244:SynaptiX_FDK/components/gps/minmea.h **** bool minmea_parse_rmc(struct minmea_sentence_rmc *frame, const char *sentence);
 245:SynaptiX_FDK/components/gps/minmea.h **** bool minmea_parse_gga(struct minmea_sentence_gga *frame, const char *sentence);
 246:SynaptiX_FDK/components/gps/minmea.h **** bool minmea_parse_gsa(struct minmea_sentence_gsa *frame, const char *sentence);
 247:SynaptiX_FDK/components/gps/minmea.h **** bool minmea_parse_gll(struct minmea_sentence_gll *frame, const char *sentence);
 248:SynaptiX_FDK/components/gps/minmea.h **** bool minmea_parse_gst(struct minmea_sentence_gst *frame, const char *sentence);
 249:SynaptiX_FDK/components/gps/minmea.h **** bool minmea_parse_gsv(struct minmea_sentence_gsv *frame, const char *sentence);
 250:SynaptiX_FDK/components/gps/minmea.h **** bool minmea_parse_vtg(struct minmea_sentence_vtg *frame, const char *sentence);
 251:SynaptiX_FDK/components/gps/minmea.h **** bool minmea_parse_zda(struct minmea_sentence_zda *frame, const char *sentence);
 252:SynaptiX_FDK/components/gps/minmea.h **** 
ARM GAS  C:\Users\LENOVO\AppData\Local\Temp\ccRCeXmz.s 			page 8


 253:SynaptiX_FDK/components/gps/minmea.h **** /**
 254:SynaptiX_FDK/components/gps/minmea.h ****  * Convert GPS UTC date/time representation to a UNIX calendar time.
 255:SynaptiX_FDK/components/gps/minmea.h ****  */
 256:SynaptiX_FDK/components/gps/minmea.h **** int minmea_getdatetime(struct tm *tm, const struct minmea_date *date, const struct minmea_time *tim
 257:SynaptiX_FDK/components/gps/minmea.h **** 
 258:SynaptiX_FDK/components/gps/minmea.h **** /**
 259:SynaptiX_FDK/components/gps/minmea.h ****  * Convert GPS UTC date/time representation to a UNIX timestamp.
 260:SynaptiX_FDK/components/gps/minmea.h ****  */
 261:SynaptiX_FDK/components/gps/minmea.h **** int minmea_gettime(struct timespec *ts, const struct minmea_date *date, const struct minmea_time *t
 262:SynaptiX_FDK/components/gps/minmea.h **** 
 263:SynaptiX_FDK/components/gps/minmea.h **** /**
 264:SynaptiX_FDK/components/gps/minmea.h ****  * Rescale a fixed-point value to a different scale. Rounds towards zero.
 265:SynaptiX_FDK/components/gps/minmea.h ****  */
 266:SynaptiX_FDK/components/gps/minmea.h **** static inline int_least32_t minmea_rescale(const struct minmea_float *f, int_least32_t new_scale)
 267:SynaptiX_FDK/components/gps/minmea.h **** {
 268:SynaptiX_FDK/components/gps/minmea.h ****     if (f->scale == 0)
 269:SynaptiX_FDK/components/gps/minmea.h ****         return 0;
 270:SynaptiX_FDK/components/gps/minmea.h ****     if (f->scale == new_scale)
 271:SynaptiX_FDK/components/gps/minmea.h ****         return f->value;
 272:SynaptiX_FDK/components/gps/minmea.h ****     if (f->scale > new_scale)
 273:SynaptiX_FDK/components/gps/minmea.h ****         return (f->value + ((f->value > 0) - (f->value < 0)) * f->scale/new_scale/2) / (f->scale/ne
 274:SynaptiX_FDK/components/gps/minmea.h ****     else
 275:SynaptiX_FDK/components/gps/minmea.h ****         return f->value * (new_scale/f->scale);
 276:SynaptiX_FDK/components/gps/minmea.h **** }
 277:SynaptiX_FDK/components/gps/minmea.h **** 
 278:SynaptiX_FDK/components/gps/minmea.h **** /**
 279:SynaptiX_FDK/components/gps/minmea.h ****  * Convert a fixed-point value to a floating-point value.
 280:SynaptiX_FDK/components/gps/minmea.h ****  * Returns NaN for "unknown" values.
 281:SynaptiX_FDK/components/gps/minmea.h ****  */
 282:SynaptiX_FDK/components/gps/minmea.h **** static inline float minmea_tofloat(const struct minmea_float *f)
 283:SynaptiX_FDK/components/gps/minmea.h **** {
 284:SynaptiX_FDK/components/gps/minmea.h ****     if (f->scale == 0)
 285:SynaptiX_FDK/components/gps/minmea.h ****         return NAN;
 286:SynaptiX_FDK/components/gps/minmea.h ****     return (float) f->value / (float) f->scale;
 287:SynaptiX_FDK/components/gps/minmea.h **** }
 288:SynaptiX_FDK/components/gps/minmea.h **** 
 289:SynaptiX_FDK/components/gps/minmea.h **** /**
 290:SynaptiX_FDK/components/gps/minmea.h ****  * Convert a raw coordinate to a floating point DD.DDD... value.
 291:SynaptiX_FDK/components/gps/minmea.h ****  * Returns NaN for "unknown" values.
 292:SynaptiX_FDK/components/gps/minmea.h ****  */
 293:SynaptiX_FDK/components/gps/minmea.h **** static inline float minmea_tocoord(const struct minmea_float *f)
 294:SynaptiX_FDK/components/gps/minmea.h **** {
  99              		.loc 3 294 1 is_stmt 1 view -0
 100              		.cfi_startproc
 101              		@ args = 0, pretend = 0, frame = 0
 102              		@ frame_needed = 0, uses_anonymous_args = 0
 103              		@ link register save eliminated.
 295:SynaptiX_FDK/components/gps/minmea.h ****     if (f->scale == 0)
 104              		.loc 3 295 5 view .LVU21
 105              		.loc 3 295 10 is_stmt 0 view .LVU22
 106 0000 4368     		ldr	r3, [r0, #4]
 107              		.loc 3 295 8 view .LVU23
 108 0002 0BB3     		cbz	r3, .L9
 296:SynaptiX_FDK/components/gps/minmea.h ****         return NAN;
 297:SynaptiX_FDK/components/gps/minmea.h ****     if (f->scale  > (INT_LEAST32_MAX / 100))
 109              		.loc 3 297 5 is_stmt 1 view .LVU24
 110              		.loc 3 297 8 is_stmt 0 view .LVU25
ARM GAS  C:\Users\LENOVO\AppData\Local\Temp\ccRCeXmz.s 			page 9


 111 0004 154A     		ldr	r2, .L12
 112 0006 9342     		cmp	r3, r2
 113 0008 21DC     		bgt	.L10
 298:SynaptiX_FDK/components/gps/minmea.h ****         return NAN;
 299:SynaptiX_FDK/components/gps/minmea.h ****     if (f->scale < (INT_LEAST32_MIN / 100))
 114              		.loc 3 299 5 is_stmt 1 view .LVU26
 115              		.loc 3 299 8 is_stmt 0 view .LVU27
 116 000a 154A     		ldr	r2, .L12+4
 117 000c 9342     		cmp	r3, r2
 118 000e 21DB     		blt	.L11
 300:SynaptiX_FDK/components/gps/minmea.h ****         return NAN;
 301:SynaptiX_FDK/components/gps/minmea.h ****     int_least32_t degrees = f->value / (f->scale * 100);
 119              		.loc 3 301 5 is_stmt 1 view .LVU28
 120              		.loc 3 301 30 is_stmt 0 view .LVU29
 121 0010 0168     		ldr	r1, [r0]
 122              		.loc 3 301 50 view .LVU30
 123 0012 6420     		movs	r0, #100
 124              	.LVL8:
 125              		.loc 3 301 50 view .LVU31
 126 0014 03FB00F0 		mul	r0, r3, r0
 127              		.loc 3 301 19 view .LVU32
 128 0018 91FBF0F2 		sdiv	r2, r1, r0
 129              	.LVL9:
 302:SynaptiX_FDK/components/gps/minmea.h ****     int_least32_t minutes = f->value % (f->scale * 100);
 130              		.loc 3 302 5 is_stmt 1 view .LVU33
 131              		.loc 3 302 19 is_stmt 0 view .LVU34
 132 001c 00FB1211 		mls	r1, r0, r2, r1
 133              	.LVL10:
 303:SynaptiX_FDK/components/gps/minmea.h ****     return (float) degrees + (float) minutes / (60 * f->scale);
 134              		.loc 3 303 5 is_stmt 1 view .LVU35
 135              		.loc 3 303 12 is_stmt 0 view .LVU36
 136 0020 07EE902A 		vmov	s15, r2	@ int
 137 0024 B8EEE70A 		vcvt.f32.s32	s0, s15
 138              		.loc 3 303 30 view .LVU37
 139 0028 07EE901A 		vmov	s15, r1	@ int
 140 002c B8EEE77A 		vcvt.f32.s32	s14, s15
 141              		.loc 3 303 52 view .LVU38
 142 0030 C3EB0313 		rsb	r3, r3, r3, lsl #4
 143 0034 9B00     		lsls	r3, r3, #2
 144              		.loc 3 303 46 view .LVU39
 145 0036 07EE903A 		vmov	s15, r3	@ int
 146 003a F8EEE77A 		vcvt.f32.s32	s15, s15
 147 003e C7EE276A 		vdiv.f32	s13, s14, s15
 148              		.loc 3 303 28 view .LVU40
 149 0042 30EE260A 		vadd.f32	s0, s0, s13
 150 0046 7047     		bx	lr
 151              	.LVL11:
 152              	.L9:
 296:SynaptiX_FDK/components/gps/minmea.h ****     if (f->scale  > (INT_LEAST32_MAX / 100))
 153              		.loc 3 296 16 view .LVU41
 154 0048 9FED060A 		vldr.32	s0, .L12+8
 155 004c 7047     		bx	lr
 156              	.L10:
 298:SynaptiX_FDK/components/gps/minmea.h ****     if (f->scale < (INT_LEAST32_MIN / 100))
 157              		.loc 3 298 16 view .LVU42
 158 004e 9FED050A 		vldr.32	s0, .L12+8
 159 0052 7047     		bx	lr
ARM GAS  C:\Users\LENOVO\AppData\Local\Temp\ccRCeXmz.s 			page 10


 160              	.L11:
 300:SynaptiX_FDK/components/gps/minmea.h ****     int_least32_t degrees = f->value / (f->scale * 100);
 161              		.loc 3 300 16 view .LVU43
 162 0054 9FED030A 		vldr.32	s0, .L12+8
 304:SynaptiX_FDK/components/gps/minmea.h **** }
 163              		.loc 3 304 1 view .LVU44
 164 0058 7047     		bx	lr
 165              	.L13:
 166 005a 00BF     		.align	2
 167              	.L12:
 168 005c 14AE4701 		.word	21474836
 169 0060 EC51B8FE 		.word	-21474836
 170 0064 0000C07F 		.word	2143289344
 171              		.cfi_endproc
 172              	.LFE10:
 174              		.section	.rodata.gps_callback_task.str1.4,"aMS",%progbits,1
 175              		.align	2
 176              	.LC0:
 177 0000 524D4320 		.ascii	"RMC sentence is not valid\000"
 177      73656E74 
 177      656E6365 
 177      20697320 
 177      6E6F7420 
 178 001a 0000     		.align	2
 179              	.LC1:
 180 001c 47505300 		.ascii	"GPS\000"
 181              		.align	2
 182              	.LC2:
 183 0020 524D433A 		.ascii	"RMC: lat=%.6f lon=%.6f spd=%.2f time=%02d:%02d:%02d"
 183      206C6174 
 183      3D252E36 
 183      66206C6F 
 183      6E3D252E 
 184 0053 20646174 		.ascii	" date=%02d/%02d/%04d\000"
 184      653D2530 
 184      32642F25 
 184      3032642F 
 184      25303464 
 185              		.global	__aeabi_f2d
 186              		.align	2
 187              	.LC3:
 188 0068 524D4320 		.ascii	"RMC parse failed\000"
 188      70617273 
 188      65206661 
 188      696C6564 
 188      00
 189 0079 000000   		.align	2
 190              	.LC4:
 191 007c 4747413A 		.ascii	"GGA: alt=%.2f sat=%d\000"
 191      20616C74 
 191      3D252E32 
 191      66207361 
 191      743D2564 
 192 0091 000000   		.align	2
 193              	.LC5:
 194 0094 47474120 		.ascii	"GGA parse failed\000"
 194      70617273 
ARM GAS  C:\Users\LENOVO\AppData\Local\Temp\ccRCeXmz.s 			page 11


 194      65206661 
 194      696C6564 
 194      00
 195              		.section	.text.gps_callback_task,"ax",%progbits
 196              		.align	1
 197              		.syntax unified
 198              		.thumb
 199              		.thumb_func
 201              	gps_callback_task:
 202              	.LVL12:
 203              	.LFB18:
   1:SynaptiX_FDK/components/gps/gps.c **** #include "gps.h"
   2:SynaptiX_FDK/components/gps/gps.c **** #include <string.h>
   3:SynaptiX_FDK/components/gps/gps.c **** #include "logger.h"
   4:SynaptiX_FDK/components/gps/gps.c **** #include "sx_delay.h"
   5:SynaptiX_FDK/components/gps/gps.c **** 
   6:SynaptiX_FDK/components/gps/gps.c **** static const char *TAG = "GPS";
   7:SynaptiX_FDK/components/gps/gps.c **** 
   8:SynaptiX_FDK/components/gps/gps.c **** static void gps_callback_task(sx_gps_t *gps, char *message, void *arg);
   9:SynaptiX_FDK/components/gps/gps.c **** 
  10:SynaptiX_FDK/components/gps/gps.c **** void gps_init(sx_gps_t *_gps, sx_uart_config_t *_uart_cfg, sx_gpio_ops_t *_gpio_ops, void *_pwr_arg
  11:SynaptiX_FDK/components/gps/gps.c **** {
  12:SynaptiX_FDK/components/gps/gps.c ****     sx_uart_init(&_gps->comm, _uart_cfg, GPS_BUFF_MAX_SIZE, GPS_BUFF_MAX_SIZE);
  13:SynaptiX_FDK/components/gps/gps.c ****     sx_gpio_init(&_gps->pwr, _gpio_ops, _pwr_arg);
  14:SynaptiX_FDK/components/gps/gps.c ****     // sx_gpio_init(&_gps->rst, _gpio_ops, _rst_arg);
  15:SynaptiX_FDK/components/gps/gps.c ****     sx_gpio_write(&_gps->pwr, SX_GPIO_LOW);
  16:SynaptiX_FDK/components/gps/gps.c ****     // sx_gpio_write(&_gps->rst, SX_GPIO_HIGH);
  17:SynaptiX_FDK/components/gps/gps.c ****     memset(_gps->buff, 0, GPS_BUFF_MAX_SIZE);
  18:SynaptiX_FDK/components/gps/gps.c ****     _gps->state = GPS_IDLE;
  19:SynaptiX_FDK/components/gps/gps.c ****     _gps->buff_id = 0;
  20:SynaptiX_FDK/components/gps/gps.c ****     gps_set_callback_handle(_gps, gps_callback_task, _gps);
  21:SynaptiX_FDK/components/gps/gps.c ****     sx_delay_ms(1000);
  22:SynaptiX_FDK/components/gps/gps.c ****     log_debug(TAG, "Initializing");
  23:SynaptiX_FDK/components/gps/gps.c **** }
  24:SynaptiX_FDK/components/gps/gps.c **** 
  25:SynaptiX_FDK/components/gps/gps.c **** void gps_set_callback_handle(sx_gps_t *_gps, gps_callback _cb, void *_arg)
  26:SynaptiX_FDK/components/gps/gps.c **** {
  27:SynaptiX_FDK/components/gps/gps.c ****     _gps->callback = _cb;
  28:SynaptiX_FDK/components/gps/gps.c ****     _gps->arg = _arg;
  29:SynaptiX_FDK/components/gps/gps.c **** }
  30:SynaptiX_FDK/components/gps/gps.c **** 
  31:SynaptiX_FDK/components/gps/gps.c **** void gps_reset(sx_gps_t *_gps)
  32:SynaptiX_FDK/components/gps/gps.c **** {
  33:SynaptiX_FDK/components/gps/gps.c ****     // sx_gpio_write(&_gps->rst, SX_GPIO_LOW);
  34:SynaptiX_FDK/components/gps/gps.c ****     // sx_delay_ms(100);
  35:SynaptiX_FDK/components/gps/gps.c ****     // sx_gpio_write(&_gps->rst, SX_GPIO_HIGH);
  36:SynaptiX_FDK/components/gps/gps.c **** }
  37:SynaptiX_FDK/components/gps/gps.c **** void gps_power_on(sx_gps_t *_gps)
  38:SynaptiX_FDK/components/gps/gps.c **** {
  39:SynaptiX_FDK/components/gps/gps.c ****     //sx_gpio_write(&_gps->pwr, SX_GPIO_HIGH);
  40:SynaptiX_FDK/components/gps/gps.c ****     sx_gpio_write(&_gps->pwr, SX_GPIO_LOW);
  41:SynaptiX_FDK/components/gps/gps.c **** }
  42:SynaptiX_FDK/components/gps/gps.c **** void gps_power_off(sx_gps_t *_gps)
  43:SynaptiX_FDK/components/gps/gps.c **** {
  44:SynaptiX_FDK/components/gps/gps.c ****     //sx_gpio_write(&_gps->pwr, SX_GPIO_LOW);
  45:SynaptiX_FDK/components/gps/gps.c ****     sx_gpio_write(&_gps->pwr, SX_GPIO_HIGH);
  46:SynaptiX_FDK/components/gps/gps.c **** }
ARM GAS  C:\Users\LENOVO\AppData\Local\Temp\ccRCeXmz.s 			page 12


  47:SynaptiX_FDK/components/gps/gps.c **** 
  48:SynaptiX_FDK/components/gps/gps.c **** void gps_process(sx_gps_t *_gps, uint32_t _timestamp)
  49:SynaptiX_FDK/components/gps/gps.c **** {
  50:SynaptiX_FDK/components/gps/gps.c ****     _gps->time += _timestamp;
  51:SynaptiX_FDK/components/gps/gps.c ****     switch (_gps->state)
  52:SynaptiX_FDK/components/gps/gps.c ****     {
  53:SynaptiX_FDK/components/gps/gps.c ****     case GPS_IDLE:
  54:SynaptiX_FDK/components/gps/gps.c ****         /* code */
  55:SynaptiX_FDK/components/gps/gps.c ****         while(sx_uart_available(&_gps->comm) > 0){
  56:SynaptiX_FDK/components/gps/gps.c ****             if (1 == sx_uart_read(&_gps->comm, &_gps->buff[0], 1, 10))
  57:SynaptiX_FDK/components/gps/gps.c ****             {
  58:SynaptiX_FDK/components/gps/gps.c ****                 if (_gps->buff[0] == '$')
  59:SynaptiX_FDK/components/gps/gps.c ****                 {
  60:SynaptiX_FDK/components/gps/gps.c ****                     _gps->buff_id = 1;
  61:SynaptiX_FDK/components/gps/gps.c ****                     _gps->state = GPS_READ_MESSAGE;
  62:SynaptiX_FDK/components/gps/gps.c ****                     break;
  63:SynaptiX_FDK/components/gps/gps.c ****                 }
  64:SynaptiX_FDK/components/gps/gps.c ****             }
  65:SynaptiX_FDK/components/gps/gps.c ****         }
  66:SynaptiX_FDK/components/gps/gps.c ****         break;
  67:SynaptiX_FDK/components/gps/gps.c ****     case GPS_READ_MESSAGE:
  68:SynaptiX_FDK/components/gps/gps.c ****         /* code */
  69:SynaptiX_FDK/components/gps/gps.c ****         uint8_t byte;
  70:SynaptiX_FDK/components/gps/gps.c ****         while (sx_uart_available(&_gps->comm) > 0)
  71:SynaptiX_FDK/components/gps/gps.c ****         {
  72:SynaptiX_FDK/components/gps/gps.c ****             if (1 != sx_uart_read(&_gps->comm, &byte, 1, 1))
  73:SynaptiX_FDK/components/gps/gps.c ****                 break;
  74:SynaptiX_FDK/components/gps/gps.c **** 
  75:SynaptiX_FDK/components/gps/gps.c ****             _gps->buff[_gps->buff_id] = byte;
  76:SynaptiX_FDK/components/gps/gps.c **** 
  77:SynaptiX_FDK/components/gps/gps.c ****             // Detect \r\n
  78:SynaptiX_FDK/components/gps/gps.c ****             if (_gps->buff_id > 0 &&
  79:SynaptiX_FDK/components/gps/gps.c ****                 _gps->buff[_gps->buff_id - 1] == '\r' &&
  80:SynaptiX_FDK/components/gps/gps.c ****                 byte == '\n')
  81:SynaptiX_FDK/components/gps/gps.c ****             {
  82:SynaptiX_FDK/components/gps/gps.c ****                 _gps->buff[_gps->buff_id + 1] = '\0';
  83:SynaptiX_FDK/components/gps/gps.c ****                 _gps->state = GPS_NEW_MESSAGE;
  84:SynaptiX_FDK/components/gps/gps.c ****                 break;
  85:SynaptiX_FDK/components/gps/gps.c ****             }
  86:SynaptiX_FDK/components/gps/gps.c **** 
  87:SynaptiX_FDK/components/gps/gps.c ****             _gps->buff_id++;
  88:SynaptiX_FDK/components/gps/gps.c **** 
  89:SynaptiX_FDK/components/gps/gps.c ****             if (_gps->buff_id >= GPS_BUFF_MAX_SIZE - 2)
  90:SynaptiX_FDK/components/gps/gps.c ****             {
  91:SynaptiX_FDK/components/gps/gps.c ****                 _gps->buff_id = 0;
  92:SynaptiX_FDK/components/gps/gps.c ****                 _gps->state = GPS_IDLE;
  93:SynaptiX_FDK/components/gps/gps.c ****                 break;
  94:SynaptiX_FDK/components/gps/gps.c ****             }
  95:SynaptiX_FDK/components/gps/gps.c ****         }
  96:SynaptiX_FDK/components/gps/gps.c ****         break;
  97:SynaptiX_FDK/components/gps/gps.c ****     case GPS_NEW_MESSAGE:
  98:SynaptiX_FDK/components/gps/gps.c ****         /* code */
  99:SynaptiX_FDK/components/gps/gps.c ****         if (_gps->callback)
 100:SynaptiX_FDK/components/gps/gps.c ****         {
 101:SynaptiX_FDK/components/gps/gps.c ****             _gps->callback(_gps, _gps->buff, _gps->arg);
 102:SynaptiX_FDK/components/gps/gps.c ****         }
 103:SynaptiX_FDK/components/gps/gps.c ****         _gps->state = GPS_IDLE;
ARM GAS  C:\Users\LENOVO\AppData\Local\Temp\ccRCeXmz.s 			page 13


 104:SynaptiX_FDK/components/gps/gps.c ****         // log_info(TAG, "%s", _gps->buff);
 105:SynaptiX_FDK/components/gps/gps.c ****         memset(_gps->buff, 0, _gps->buff_id);
 106:SynaptiX_FDK/components/gps/gps.c ****         _gps->buff_id = 0;
 107:SynaptiX_FDK/components/gps/gps.c ****         break;
 108:SynaptiX_FDK/components/gps/gps.c ****     default:
 109:SynaptiX_FDK/components/gps/gps.c ****         break;
 110:SynaptiX_FDK/components/gps/gps.c ****     }
 111:SynaptiX_FDK/components/gps/gps.c **** }
 112:SynaptiX_FDK/components/gps/gps.c **** 
 113:SynaptiX_FDK/components/gps/gps.c **** // static void gps_callback_task(sx_gps_t *gps, char *message, void *arg)
 114:SynaptiX_FDK/components/gps/gps.c **** // {
 115:SynaptiX_FDK/components/gps/gps.c **** //     gps->_sentence_id = minmea_sentence_id((const char *)message, false);
 116:SynaptiX_FDK/components/gps/gps.c **** //     switch (gps->_sentence_id)
 117:SynaptiX_FDK/components/gps/gps.c **** //     {
 118:SynaptiX_FDK/components/gps/gps.c **** //     case MINMEA_SENTENCE_RMC:
 119:SynaptiX_FDK/components/gps/gps.c **** //     {
 120:SynaptiX_FDK/components/gps/gps.c **** //         struct minmea_sentence_rmc rmc;
 121:SynaptiX_FDK/components/gps/gps.c **** //         if (minmea_parse_rmc(&rmc, (char *)message))
 122:SynaptiX_FDK/components/gps/gps.c **** //         {
 123:SynaptiX_FDK/components/gps/gps.c **** //             if (!rmc.valid)
 124:SynaptiX_FDK/components/gps/gps.c **** //             {
 125:SynaptiX_FDK/components/gps/gps.c **** //                 log_warn(TAG, "RMC sentence is not valid");
 126:SynaptiX_FDK/components/gps/gps.c **** //                 break;
 127:SynaptiX_FDK/components/gps/gps.c **** //             }
 128:SynaptiX_FDK/components/gps/gps.c **** //             gps->latitude = minmea_tocoord(&rmc.latitude);
 129:SynaptiX_FDK/components/gps/gps.c **** //             gps->longtitude = minmea_tocoord(&rmc.longitude);
 130:SynaptiX_FDK/components/gps/gps.c **** //             log_info(TAG, "RMC: lat %f lon %f", gps->latitude, gps->longtitude);
 131:SynaptiX_FDK/components/gps/gps.c **** //             if (rmc.time.hours != -1 && rmc.date.year != -1)
 132:SynaptiX_FDK/components/gps/gps.c **** //             {
 133:SynaptiX_FDK/components/gps/gps.c **** //                 minmea_getdatetime(&gps->tim, &rmc.date, &rmc.time);
 134:SynaptiX_FDK/components/gps/gps.c **** //                 // UTC+7
 135:SynaptiX_FDK/components/gps/gps.c **** //                 gps->tim.tm_hour += 7;
 136:SynaptiX_FDK/components/gps/gps.c **** //                 if (gps->tim.tm_hour >= 24)
 137:SynaptiX_FDK/components/gps/gps.c **** //                 {
 138:SynaptiX_FDK/components/gps/gps.c **** //                     gps->tim.tm_hour -= 24;
 139:SynaptiX_FDK/components/gps/gps.c **** //                     gps->tim.tm_mday += 1;
 140:SynaptiX_FDK/components/gps/gps.c **** //                 }
 141:SynaptiX_FDK/components/gps/gps.c **** //                 log_info(TAG, "RMC: lat=%.6f lon=%.6f time=%02d:%02d:%02d date=%02d/%02d/%04d",
 142:SynaptiX_FDK/components/gps/gps.c **** //                          gps->latitude, gps->longtitude,
 143:SynaptiX_FDK/components/gps/gps.c **** //                          gps->tim.tm_hour, gps->tim.tm_min, gps->tim.tm_sec,
 144:SynaptiX_FDK/components/gps/gps.c **** //                          gps->tim.tm_mday, gps->tim.tm_mon + 1, gps->tim.tm_year + 1900);
 145:SynaptiX_FDK/components/gps/gps.c **** //             }
 146:SynaptiX_FDK/components/gps/gps.c **** //         }
 147:SynaptiX_FDK/components/gps/gps.c **** //         else
 148:SynaptiX_FDK/components/gps/gps.c **** //         {
 149:SynaptiX_FDK/components/gps/gps.c **** //             log_warn(TAG, "RMC sentence is not valid");
 150:SynaptiX_FDK/components/gps/gps.c **** //         }
 151:SynaptiX_FDK/components/gps/gps.c **** //     }
 152:SynaptiX_FDK/components/gps/gps.c **** //     break;
 153:SynaptiX_FDK/components/gps/gps.c **** //     default:
 154:SynaptiX_FDK/components/gps/gps.c **** //         break;
 155:SynaptiX_FDK/components/gps/gps.c **** //     }
 156:SynaptiX_FDK/components/gps/gps.c **** // }
 157:SynaptiX_FDK/components/gps/gps.c **** 
 158:SynaptiX_FDK/components/gps/gps.c **** 
 159:SynaptiX_FDK/components/gps/gps.c **** static void gps_callback_task(sx_gps_t *gps, char *message, void *arg)
 160:SynaptiX_FDK/components/gps/gps.c **** {
ARM GAS  C:\Users\LENOVO\AppData\Local\Temp\ccRCeXmz.s 			page 14


 204              		.loc 1 160 1 is_stmt 1 view -0
 205              		.cfi_startproc
 206              		@ args = 0, pretend = 0, frame = 88
 207              		@ frame_needed = 0, uses_anonymous_args = 0
 208              		.loc 1 160 1 is_stmt 0 view .LVU46
 209 0000 70B5     		push	{r4, r5, r6, lr}
 210              	.LCFI1:
 211              		.cfi_def_cfa_offset 16
 212              		.cfi_offset 4, -16
 213              		.cfi_offset 5, -12
 214              		.cfi_offset 6, -8
 215              		.cfi_offset 14, -4
 216 0002 A2B0     		sub	sp, sp, #136
 217              	.LCFI2:
 218              		.cfi_def_cfa_offset 152
 219 0004 0446     		mov	r4, r0
 220 0006 0D46     		mov	r5, r1
 161:SynaptiX_FDK/components/gps/gps.c ****     gps->_sentence_id = minmea_sentence_id((const char *)message, false);
 221              		.loc 1 161 5 is_stmt 1 view .LVU47
 222              		.loc 1 161 25 is_stmt 0 view .LVU48
 223 0008 0021     		movs	r1, #0
 224              	.LVL13:
 225              		.loc 1 161 25 view .LVU49
 226 000a 2846     		mov	r0, r5
 227              	.LVL14:
 228              		.loc 1 161 25 view .LVU50
 229 000c FFF7FEFF 		bl	minmea_sentence_id
 230              	.LVL15:
 231              		.loc 1 161 23 discriminator 1 view .LVU51
 232 0010 84F88C00 		strb	r0, [r4, #140]
 162:SynaptiX_FDK/components/gps/gps.c ****     switch (gps->_sentence_id)
 233              		.loc 1 162 5 is_stmt 1 view .LVU52
 234 0014 0228     		cmp	r0, #2
 235 0016 75D0     		beq	.L15
 236 0018 0728     		cmp	r0, #7
 237 001a 40F09380 		bne	.L14
 238              	.LBB11:
 163:SynaptiX_FDK/components/gps/gps.c ****     {
 164:SynaptiX_FDK/components/gps/gps.c ****     case MINMEA_SENTENCE_RMC:
 165:SynaptiX_FDK/components/gps/gps.c ****     {
 166:SynaptiX_FDK/components/gps/gps.c ****         struct minmea_sentence_rmc rmc;
 239              		.loc 1 166 9 view .LVU53
 167:SynaptiX_FDK/components/gps/gps.c ****         if (minmea_parse_rmc(&rmc, (char *)message))
 240              		.loc 1 167 9 view .LVU54
 241              		.loc 1 167 13 is_stmt 0 view .LVU55
 242 001e 2946     		mov	r1, r5
 243 0020 0CA8     		add	r0, sp, #48
 244 0022 FFF7FEFF 		bl	minmea_parse_rmc
 245              	.LVL16:
 246              		.loc 1 167 12 discriminator 1 view .LVU56
 247 0026 0028     		cmp	r0, #0
 248 0028 66D0     		beq	.L17
 168:SynaptiX_FDK/components/gps/gps.c ****         {
 169:SynaptiX_FDK/components/gps/gps.c ****             if (!rmc.valid)
 249              		.loc 1 169 13 is_stmt 1 view .LVU57
 250              		.loc 1 169 21 is_stmt 0 view .LVU58
 251 002a 9DF84830 		ldrb	r3, [sp, #72]	@ zero_extendqisi2
ARM GAS  C:\Users\LENOVO\AppData\Local\Temp\ccRCeXmz.s 			page 15


 252              		.loc 1 169 16 view .LVU59
 253 002e 002B     		cmp	r3, #0
 254 0030 56D0     		beq	.L28
 170:SynaptiX_FDK/components/gps/gps.c ****             {
 171:SynaptiX_FDK/components/gps/gps.c ****                 log_warn(TAG, "RMC sentence is not valid");
 172:SynaptiX_FDK/components/gps/gps.c ****                 gps->latitude = 0.0f;
 173:SynaptiX_FDK/components/gps/gps.c ****                 gps->longtitude = 0.0f;
 174:SynaptiX_FDK/components/gps/gps.c ****                 break;
 175:SynaptiX_FDK/components/gps/gps.c ****             }
 176:SynaptiX_FDK/components/gps/gps.c ****             gps->latitude  = minmea_tocoord(&rmc.latitude);
 255              		.loc 1 176 13 is_stmt 1 view .LVU60
 256              		.loc 1 176 30 is_stmt 0 view .LVU61
 257 0032 13A8     		add	r0, sp, #76
 258 0034 FFF7FEFF 		bl	minmea_tocoord
 259              	.LVL17:
 260              		.loc 1 176 28 discriminator 1 view .LVU62
 261 0038 84ED150A 		vstr.32	s0, [r4, #84]
 177:SynaptiX_FDK/components/gps/gps.c ****             gps->longtitude = minmea_tocoord(&rmc.longitude);
 262              		.loc 1 177 13 is_stmt 1 view .LVU63
 263              		.loc 1 177 31 is_stmt 0 view .LVU64
 264 003c 15A8     		add	r0, sp, #84
 265 003e FFF7FEFF 		bl	minmea_tocoord
 266              	.LVL18:
 267              		.loc 1 177 29 discriminator 1 view .LVU65
 268 0042 84ED160A 		vstr.32	s0, [r4, #88]
 178:SynaptiX_FDK/components/gps/gps.c ****             gps->speed     = minmea_tofloat(&rmc.speed);  // knots
 269              		.loc 1 178 13 is_stmt 1 view .LVU66
 270              	.LVL19:
 271              	.LBB12:
 272              	.LBI12:
 282:SynaptiX_FDK/components/gps/minmea.h **** {
 273              		.loc 3 282 21 view .LVU67
 274              	.LBB13:
 284:SynaptiX_FDK/components/gps/minmea.h ****         return NAN;
 275              		.loc 3 284 5 view .LVU68
 284:SynaptiX_FDK/components/gps/minmea.h ****         return NAN;
 276              		.loc 3 284 10 is_stmt 0 view .LVU69
 277 0046 189B     		ldr	r3, [sp, #96]
 284:SynaptiX_FDK/components/gps/minmea.h ****         return NAN;
 278              		.loc 3 284 8 view .LVU70
 279 0048 002B     		cmp	r3, #0
 280 004a 52D0     		beq	.L25
 286:SynaptiX_FDK/components/gps/minmea.h **** }
 281              		.loc 3 286 5 is_stmt 1 view .LVU71
 286:SynaptiX_FDK/components/gps/minmea.h **** }
 282              		.loc 3 286 12 is_stmt 0 view .LVU72
 283 004c DDED177A 		vldr.32	s15, [sp, #92]	@ int
 284 0050 B8EEE77A 		vcvt.f32.s32	s14, s15
 286:SynaptiX_FDK/components/gps/minmea.h **** }
 285              		.loc 3 286 31 view .LVU73
 286 0054 07EE903A 		vmov	s15, r3	@ int
 287 0058 F8EEE77A 		vcvt.f32.s32	s15, s15
 286:SynaptiX_FDK/components/gps/minmea.h **** }
 288              		.loc 3 286 29 view .LVU74
 289 005c C7EE276A 		vdiv.f32	s13, s14, s15
 290              	.L19:
 291              	.LVL20:
ARM GAS  C:\Users\LENOVO\AppData\Local\Temp\ccRCeXmz.s 			page 16


 286:SynaptiX_FDK/components/gps/minmea.h **** }
 292              		.loc 3 286 29 view .LVU75
 293              	.LBE13:
 294              	.LBE12:
 295              		.loc 1 178 28 discriminator 1 view .LVU76
 296 0060 C4ED186A 		vstr.32	s13, [r4, #96]
 179:SynaptiX_FDK/components/gps/gps.c ****             if (rmc.time.hours != -1 && rmc.date.year != -1)
 297              		.loc 1 179 13 is_stmt 1 view .LVU77
 298              		.loc 1 179 25 is_stmt 0 view .LVU78
 299 0064 0E9B     		ldr	r3, [sp, #56]
 300              		.loc 1 179 16 view .LVU79
 301 0066 B3F1FF3F 		cmp	r3, #-1
 302 006a 6BD0     		beq	.L14
 303              		.loc 1 179 49 discriminator 1 view .LVU80
 304 006c 1D9B     		ldr	r3, [sp, #116]
 305              		.loc 1 179 38 discriminator 1 view .LVU81
 306 006e B3F1FF3F 		cmp	r3, #-1
 307 0072 67D0     		beq	.L14
 180:SynaptiX_FDK/components/gps/gps.c ****             {
 181:SynaptiX_FDK/components/gps/gps.c ****                 minmea_getdatetime(&gps->tim, &rmc.date, &rmc.time);
 308              		.loc 1 181 17 is_stmt 1 view .LVU82
 309 0074 0EAA     		add	r2, sp, #56
 310 0076 1BA9     		add	r1, sp, #108
 311 0078 04F16800 		add	r0, r4, #104
 312 007c FFF7FEFF 		bl	minmea_getdatetime
 313              	.LVL21:
 182:SynaptiX_FDK/components/gps/gps.c ****                 // UTC+7
 183:SynaptiX_FDK/components/gps/gps.c ****                 gps->tim.tm_hour += 7;
 314              		.loc 1 183 17 view .LVU83
 315              		.loc 1 183 25 is_stmt 0 view .LVU84
 316 0080 236F     		ldr	r3, [r4, #112]
 317              		.loc 1 183 34 view .LVU85
 318 0082 DA1D     		adds	r2, r3, #7
 319 0084 2267     		str	r2, [r4, #112]
 184:SynaptiX_FDK/components/gps/gps.c ****                 if (gps->tim.tm_hour >= 24)
 320              		.loc 1 184 17 is_stmt 1 view .LVU86
 321              		.loc 1 184 20 is_stmt 0 view .LVU87
 322 0086 172A     		cmp	r2, #23
 323 0088 04DD     		ble	.L21
 185:SynaptiX_FDK/components/gps/gps.c ****                 {
 186:SynaptiX_FDK/components/gps/gps.c ****                     gps->tim.tm_hour -= 24;
 324              		.loc 1 186 21 is_stmt 1 view .LVU88
 325              		.loc 1 186 38 is_stmt 0 view .LVU89
 326 008a 113B     		subs	r3, r3, #17
 327 008c 2367     		str	r3, [r4, #112]
 187:SynaptiX_FDK/components/gps/gps.c ****                     gps->tim.tm_mday += 1;
 328              		.loc 1 187 21 is_stmt 1 view .LVU90
 329              		.loc 1 187 29 is_stmt 0 view .LVU91
 330 008e 636F     		ldr	r3, [r4, #116]
 331              		.loc 1 187 38 view .LVU92
 332 0090 0133     		adds	r3, r3, #1
 333 0092 6367     		str	r3, [r4, #116]
 334              	.L21:
 188:SynaptiX_FDK/components/gps/gps.c ****                 }
 189:SynaptiX_FDK/components/gps/gps.c ****                 log_info(TAG, "RMC: lat=%.6f lon=%.6f spd=%.2f time=%02d:%02d:%02d date=%02d/%02d/%
 335              		.loc 1 189 17 is_stmt 1 view .LVU93
 336 0094 656D     		ldr	r5, [r4, #84]	@ float
ARM GAS  C:\Users\LENOVO\AppData\Local\Temp\ccRCeXmz.s 			page 17


 337              	.LVL22:
 338              		.loc 1 189 17 is_stmt 0 view .LVU94
 339 0096 A66D     		ldr	r6, [r4, #88]	@ float
 340 0098 A36F     		ldr	r3, [r4, #120]
 341 009a E26F     		ldr	r2, [r4, #124]
 342 009c 02F26C72 		addw	r2, r2, #1900
 343 00a0 0B92     		str	r2, [sp, #44]
 344 00a2 0133     		adds	r3, r3, #1
 345 00a4 0A93     		str	r3, [sp, #40]
 346 00a6 636F     		ldr	r3, [r4, #116]
 347 00a8 0993     		str	r3, [sp, #36]
 348 00aa A36E     		ldr	r3, [r4, #104]
 349 00ac 0893     		str	r3, [sp, #32]
 350 00ae E36E     		ldr	r3, [r4, #108]
 351 00b0 0793     		str	r3, [sp, #28]
 352 00b2 236F     		ldr	r3, [r4, #112]
 353 00b4 0693     		str	r3, [sp, #24]
 354 00b6 206E     		ldr	r0, [r4, #96]	@ float
 355 00b8 FFF7FEFF 		bl	__aeabi_f2d
 356              	.LVL23:
 357 00bc CDE90401 		strd	r0, [sp, #16]
 358 00c0 3046     		mov	r0, r6	@ float
 359 00c2 FFF7FEFF 		bl	__aeabi_f2d
 360              	.LVL24:
 361 00c6 CDE90201 		strd	r0, [sp, #8]
 362 00ca 2846     		mov	r0, r5	@ float
 363 00cc FFF7FEFF 		bl	__aeabi_f2d
 364              	.LVL25:
 365 00d0 CDE90001 		strd	r0, [sp]
 366 00d4 204A     		ldr	r2, .L29
 367 00d6 2149     		ldr	r1, .L29+4
 368 00d8 0320     		movs	r0, #3
 369 00da FFF7FEFF 		bl	log_func
 370              	.LVL26:
 371 00de 31E0     		b	.L14
 372              	.LVL27:
 373              	.L28:
 171:SynaptiX_FDK/components/gps/gps.c ****                 gps->latitude = 0.0f;
 374              		.loc 1 171 17 is_stmt 1 view .LVU95
 375 00e0 1F4A     		ldr	r2, .L29+8
 376 00e2 1E49     		ldr	r1, .L29+4
 377 00e4 0220     		movs	r0, #2
 378 00e6 FFF7FEFF 		bl	log_func
 379              	.LVL28:
 172:SynaptiX_FDK/components/gps/gps.c ****                 gps->longtitude = 0.0f;
 380              		.loc 1 172 17 view .LVU96
 172:SynaptiX_FDK/components/gps/gps.c ****                 gps->longtitude = 0.0f;
 381              		.loc 1 172 31 is_stmt 0 view .LVU97
 382 00ea 0023     		movs	r3, #0
 383 00ec 6365     		str	r3, [r4, #84]	@ float
 173:SynaptiX_FDK/components/gps/gps.c ****                 break;
 384              		.loc 1 173 17 is_stmt 1 view .LVU98
 173:SynaptiX_FDK/components/gps/gps.c ****                 break;
 385              		.loc 1 173 33 is_stmt 0 view .LVU99
 386 00ee A365     		str	r3, [r4, #88]	@ float
 174:SynaptiX_FDK/components/gps/gps.c ****             }
 387              		.loc 1 174 17 is_stmt 1 view .LVU100
ARM GAS  C:\Users\LENOVO\AppData\Local\Temp\ccRCeXmz.s 			page 18


 388 00f0 28E0     		b	.L14
 389              	.LVL29:
 390              	.L25:
 391              	.LBB15:
 392              	.LBB14:
 285:SynaptiX_FDK/components/gps/minmea.h ****     return (float) f->value / (float) f->scale;
 393              		.loc 3 285 16 is_stmt 0 view .LVU101
 394 00f2 DFED1C6A 		vldr.32	s13, .L29+12
 395 00f6 B3E7     		b	.L19
 396              	.LVL30:
 397              	.L17:
 285:SynaptiX_FDK/components/gps/minmea.h ****     return (float) f->value / (float) f->scale;
 398              		.loc 3 285 16 view .LVU102
 399              	.LBE14:
 400              	.LBE15:
 190:SynaptiX_FDK/components/gps/gps.c ****                          gps->latitude, gps->longtitude, gps->speed,
 191:SynaptiX_FDK/components/gps/gps.c ****                          gps->tim.tm_hour, gps->tim.tm_min, gps->tim.tm_sec,
 192:SynaptiX_FDK/components/gps/gps.c ****                          gps->tim.tm_mday, gps->tim.tm_mon + 1, gps->tim.tm_year + 1900);
 193:SynaptiX_FDK/components/gps/gps.c ****             }
 194:SynaptiX_FDK/components/gps/gps.c ****         }
 195:SynaptiX_FDK/components/gps/gps.c ****         else
 196:SynaptiX_FDK/components/gps/gps.c ****         {
 197:SynaptiX_FDK/components/gps/gps.c ****             log_warn(TAG, "RMC parse failed");
 401              		.loc 1 197 13 is_stmt 1 view .LVU103
 402 00f8 1B4A     		ldr	r2, .L29+16
 403 00fa 1849     		ldr	r1, .L29+4
 404 00fc 0220     		movs	r0, #2
 405 00fe FFF7FEFF 		bl	log_func
 406              	.LVL31:
 407              	.LBE11:
 198:SynaptiX_FDK/components/gps/gps.c ****         }
 199:SynaptiX_FDK/components/gps/gps.c ****     }
 200:SynaptiX_FDK/components/gps/gps.c ****     break;
 408              		.loc 1 200 5 view .LVU104
 409 0102 1FE0     		b	.L14
 410              	.L15:
 411              	.LBB16:
 201:SynaptiX_FDK/components/gps/gps.c ****     case MINMEA_SENTENCE_GGA:
 202:SynaptiX_FDK/components/gps/gps.c ****     {
 203:SynaptiX_FDK/components/gps/gps.c ****         struct minmea_sentence_gga gga;
 412              		.loc 1 203 9 view .LVU105
 204:SynaptiX_FDK/components/gps/gps.c ****         if (minmea_parse_gga(&gga, (char *)message))
 413              		.loc 1 204 9 view .LVU106
 414              		.loc 1 204 13 is_stmt 0 view .LVU107
 415 0104 2946     		mov	r1, r5
 416 0106 0CA8     		add	r0, sp, #48
 417 0108 FFF7FEFF 		bl	minmea_parse_gga
 418              	.LVL32:
 419              		.loc 1 204 12 discriminator 1 view .LVU108
 420 010c F0B1     		cbz	r0, .L22
 205:SynaptiX_FDK/components/gps/gps.c ****         {
 206:SynaptiX_FDK/components/gps/gps.c ****             gps->altitude   = minmea_tofloat(&gga.altitude);
 421              		.loc 1 206 13 is_stmt 1 view .LVU109
 422              	.LVL33:
 423              	.LBB17:
 424              	.LBI17:
 282:SynaptiX_FDK/components/gps/minmea.h **** {
ARM GAS  C:\Users\LENOVO\AppData\Local\Temp\ccRCeXmz.s 			page 19


 425              		.loc 3 282 21 view .LVU110
 426              	.LBB18:
 284:SynaptiX_FDK/components/gps/minmea.h ****         return NAN;
 427              		.loc 3 284 5 view .LVU111
 284:SynaptiX_FDK/components/gps/minmea.h ****         return NAN;
 428              		.loc 3 284 10 is_stmt 0 view .LVU112
 429 010e 1B9B     		ldr	r3, [sp, #108]
 284:SynaptiX_FDK/components/gps/minmea.h ****         return NAN;
 430              		.loc 3 284 8 view .LVU113
 431 0110 D3B1     		cbz	r3, .L26
 286:SynaptiX_FDK/components/gps/minmea.h **** }
 432              		.loc 3 286 5 is_stmt 1 view .LVU114
 286:SynaptiX_FDK/components/gps/minmea.h **** }
 433              		.loc 3 286 12 is_stmt 0 view .LVU115
 434 0112 DDED1A7A 		vldr.32	s15, [sp, #104]	@ int
 435 0116 B8EEE77A 		vcvt.f32.s32	s14, s15
 286:SynaptiX_FDK/components/gps/minmea.h **** }
 436              		.loc 3 286 31 view .LVU116
 437 011a 07EE903A 		vmov	s15, r3	@ int
 438 011e F8EEE77A 		vcvt.f32.s32	s15, s15
 286:SynaptiX_FDK/components/gps/minmea.h **** }
 439              		.loc 3 286 29 view .LVU117
 440 0122 C7EE277A 		vdiv.f32	s15, s14, s15
 441 0126 17EE900A 		vmov	r0, s15
 442              	.L23:
 443              	.LVL34:
 286:SynaptiX_FDK/components/gps/minmea.h **** }
 444              		.loc 3 286 29 view .LVU118
 445              	.LBE18:
 446              	.LBE17:
 447              		.loc 1 206 29 discriminator 1 view .LVU119
 448 012a E065     		str	r0, [r4, #92]	@ float
 207:SynaptiX_FDK/components/gps/gps.c ****             gps->satellites = gga.satellites_tracked;
 449              		.loc 1 207 13 is_stmt 1 view .LVU120
 450              		.loc 1 207 34 is_stmt 0 view .LVU121
 451 012c 179B     		ldr	r3, [sp, #92]
 452              		.loc 1 207 29 view .LVU122
 453 012e 6366     		str	r3, [r4, #100]
 208:SynaptiX_FDK/components/gps/gps.c ****             log_info(TAG, "GGA: alt=%.2f sat=%d", gps->altitude, gps->satellites);
 454              		.loc 1 208 13 is_stmt 1 view .LVU123
 455 0130 0293     		str	r3, [sp, #8]
 456 0132 FFF7FEFF 		bl	__aeabi_f2d
 457              	.LVL35:
 458 0136 CDE90001 		strd	r0, [sp]
 459 013a 0C4A     		ldr	r2, .L29+20
 460 013c 0749     		ldr	r1, .L29+4
 461 013e 0320     		movs	r0, #3
 462 0140 FFF7FEFF 		bl	log_func
 463              	.LVL36:
 464              	.L14:
 465              		.loc 1 208 13 is_stmt 0 view .LVU124
 466              	.LBE16:
 209:SynaptiX_FDK/components/gps/gps.c ****         }
 210:SynaptiX_FDK/components/gps/gps.c ****         else
 211:SynaptiX_FDK/components/gps/gps.c ****         {
 212:SynaptiX_FDK/components/gps/gps.c ****             log_warn(TAG, "GGA parse failed");
 213:SynaptiX_FDK/components/gps/gps.c ****         }
ARM GAS  C:\Users\LENOVO\AppData\Local\Temp\ccRCeXmz.s 			page 20


 214:SynaptiX_FDK/components/gps/gps.c ****     }
 215:SynaptiX_FDK/components/gps/gps.c ****     break;
 216:SynaptiX_FDK/components/gps/gps.c ****     default:
 217:SynaptiX_FDK/components/gps/gps.c ****         break;
 218:SynaptiX_FDK/components/gps/gps.c ****     }
 219:SynaptiX_FDK/components/gps/gps.c **** }
 467              		.loc 1 219 1 view .LVU125
 468 0144 22B0     		add	sp, sp, #136
 469              	.LCFI3:
 470              		.cfi_remember_state
 471              		.cfi_def_cfa_offset 16
 472              		@ sp needed
 473 0146 70BD     		pop	{r4, r5, r6, pc}
 474              	.LVL37:
 475              	.L26:
 476              	.LCFI4:
 477              		.cfi_restore_state
 478              	.LBB21:
 479              	.LBB20:
 480              	.LBB19:
 285:SynaptiX_FDK/components/gps/minmea.h ****     return (float) f->value / (float) f->scale;
 481              		.loc 3 285 16 view .LVU126
 482 0148 0948     		ldr	r0, .L29+24
 483 014a EEE7     		b	.L23
 484              	.LVL38:
 485              	.L22:
 285:SynaptiX_FDK/components/gps/minmea.h ****     return (float) f->value / (float) f->scale;
 486              		.loc 3 285 16 view .LVU127
 487              	.LBE19:
 488              	.LBE20:
 212:SynaptiX_FDK/components/gps/gps.c ****         }
 489              		.loc 1 212 13 is_stmt 1 view .LVU128
 490 014c 094A     		ldr	r2, .L29+28
 491 014e 0349     		ldr	r1, .L29+4
 492 0150 0220     		movs	r0, #2
 493 0152 FFF7FEFF 		bl	log_func
 494              	.LVL39:
 495              	.LBE21:
 215:SynaptiX_FDK/components/gps/gps.c ****     default:
 496              		.loc 1 215 5 view .LVU129
 497              		.loc 1 219 1 is_stmt 0 view .LVU130
 498 0156 F5E7     		b	.L14
 499              	.L30:
 500              		.align	2
 501              	.L29:
 502 0158 20000000 		.word	.LC2
 503 015c 1C000000 		.word	.LC1
 504 0160 00000000 		.word	.LC0
 505 0164 0000C07F 		.word	2143289344
 506 0168 68000000 		.word	.LC3
 507 016c 7C000000 		.word	.LC4
 508 0170 0000C07F 		.word	2143289344
 509 0174 94000000 		.word	.LC5
 510              		.cfi_endproc
 511              	.LFE18:
 513              		.section	.text.gps_set_callback_handle,"ax",%progbits
 514              		.align	1
ARM GAS  C:\Users\LENOVO\AppData\Local\Temp\ccRCeXmz.s 			page 21


 515              		.global	gps_set_callback_handle
 516              		.syntax unified
 517              		.thumb
 518              		.thumb_func
 520              	gps_set_callback_handle:
 521              	.LVL40:
 522              	.LFB13:
  26:SynaptiX_FDK/components/gps/gps.c ****     _gps->callback = _cb;
 523              		.loc 1 26 1 is_stmt 1 view -0
 524              		.cfi_startproc
 525              		@ args = 0, pretend = 0, frame = 0
 526              		@ frame_needed = 0, uses_anonymous_args = 0
 527              		@ link register save eliminated.
  27:SynaptiX_FDK/components/gps/gps.c ****     _gps->arg = _arg;
 528              		.loc 1 27 5 view .LVU132
  27:SynaptiX_FDK/components/gps/gps.c ****     _gps->arg = _arg;
 529              		.loc 1 27 20 is_stmt 0 view .LVU133
 530 0000 C0F89011 		str	r1, [r0, #400]
  28:SynaptiX_FDK/components/gps/gps.c **** }
 531              		.loc 1 28 5 is_stmt 1 view .LVU134
  28:SynaptiX_FDK/components/gps/gps.c **** }
 532              		.loc 1 28 15 is_stmt 0 view .LVU135
 533 0004 C0F89821 		str	r2, [r0, #408]
  29:SynaptiX_FDK/components/gps/gps.c **** 
 534              		.loc 1 29 1 view .LVU136
 535 0008 7047     		bx	lr
 536              		.cfi_endproc
 537              	.LFE13:
 539              		.section	.rodata.gps_init.str1.4,"aMS",%progbits,1
 540              		.align	2
 541              	.LC6:
 542 0000 496E6974 		.ascii	"Initializing\000"
 542      69616C69 
 542      7A696E67 
 542      00
 543              		.section	.text.gps_init,"ax",%progbits
 544              		.align	1
 545              		.global	gps_init
 546              		.syntax unified
 547              		.thumb
 548              		.thumb_func
 550              	gps_init:
 551              	.LVL41:
 552              	.LFB12:
  11:SynaptiX_FDK/components/gps/gps.c ****     sx_uart_init(&_gps->comm, _uart_cfg, GPS_BUFF_MAX_SIZE, GPS_BUFF_MAX_SIZE);
 553              		.loc 1 11 1 is_stmt 1 view -0
 554              		.cfi_startproc
 555              		@ args = 4, pretend = 0, frame = 0
 556              		@ frame_needed = 0, uses_anonymous_args = 0
  11:SynaptiX_FDK/components/gps/gps.c ****     sx_uart_init(&_gps->comm, _uart_cfg, GPS_BUFF_MAX_SIZE, GPS_BUFF_MAX_SIZE);
 557              		.loc 1 11 1 is_stmt 0 view .LVU138
 558 0000 70B5     		push	{r4, r5, r6, lr}
 559              	.LCFI5:
 560              		.cfi_def_cfa_offset 16
 561              		.cfi_offset 4, -16
 562              		.cfi_offset 5, -12
 563              		.cfi_offset 6, -8
ARM GAS  C:\Users\LENOVO\AppData\Local\Temp\ccRCeXmz.s 			page 22


 564              		.cfi_offset 14, -4
 565 0002 0446     		mov	r4, r0
 566 0004 1646     		mov	r6, r2
 567 0006 1D46     		mov	r5, r3
  12:SynaptiX_FDK/components/gps/gps.c ****     sx_gpio_init(&_gps->pwr, _gpio_ops, _pwr_arg);
 568              		.loc 1 12 5 is_stmt 1 view .LVU139
 569 0008 4FF48073 		mov	r3, #256
 570              	.LVL42:
  12:SynaptiX_FDK/components/gps/gps.c ****     sx_gpio_init(&_gps->pwr, _gpio_ops, _pwr_arg);
 571              		.loc 1 12 5 is_stmt 0 view .LVU140
 572 000c 1A46     		mov	r2, r3
 573              	.LVL43:
  12:SynaptiX_FDK/components/gps/gps.c ****     sx_gpio_init(&_gps->pwr, _gpio_ops, _pwr_arg);
 574              		.loc 1 12 5 view .LVU141
 575 000e FFF7FEFF 		bl	sx_uart_init
 576              	.LVL44:
  13:SynaptiX_FDK/components/gps/gps.c ****     // sx_gpio_init(&_gps->rst, _gpio_ops, _rst_arg);
 577              		.loc 1 13 5 is_stmt 1 view .LVU142
 578              	.LBB22:
 579              	.LBI22:
  33:SynaptiX_FDK/components/gpio/sx_gpio.h ****     gpio->ops = ops;
 580              		.loc 2 33 20 view .LVU143
 581              	.LBB23:
  34:SynaptiX_FDK/components/gpio/sx_gpio.h ****     gpio->pDriver = pDriver;
 582              		.loc 2 34 5 view .LVU144
  34:SynaptiX_FDK/components/gpio/sx_gpio.h ****     gpio->pDriver = pDriver;
 583              		.loc 2 34 15 is_stmt 0 view .LVU145
 584 0012 6664     		str	r6, [r4, #68]
  35:SynaptiX_FDK/components/gpio/sx_gpio.h ****     gpio->value = SX_GPIO_LOW;
 585              		.loc 2 35 5 is_stmt 1 view .LVU146
  35:SynaptiX_FDK/components/gpio/sx_gpio.h ****     gpio->value = SX_GPIO_LOW;
 586              		.loc 2 35 19 is_stmt 0 view .LVU147
 587 0014 A564     		str	r5, [r4, #72]
  36:SynaptiX_FDK/components/gpio/sx_gpio.h **** }
 588              		.loc 2 36 5 is_stmt 1 view .LVU148
  36:SynaptiX_FDK/components/gpio/sx_gpio.h **** }
 589              		.loc 2 36 17 is_stmt 0 view .LVU149
 590 0016 0025     		movs	r5, #0
 591              	.LVL45:
  36:SynaptiX_FDK/components/gpio/sx_gpio.h **** }
 592              		.loc 2 36 17 view .LVU150
 593 0018 84F84C50 		strb	r5, [r4, #76]
 594              	.LVL46:
  36:SynaptiX_FDK/components/gpio/sx_gpio.h **** }
 595              		.loc 2 36 17 view .LVU151
 596              	.LBE23:
 597              	.LBE22:
  15:SynaptiX_FDK/components/gps/gps.c ****     // sx_gpio_write(&_gps->rst, SX_GPIO_HIGH);
 598              		.loc 1 15 5 is_stmt 1 view .LVU152
 599 001c 2946     		mov	r1, r5
 600 001e 04F14400 		add	r0, r4, #68
 601 0022 FFF7FEFF 		bl	sx_gpio_write
 602              	.LVL47:
  17:SynaptiX_FDK/components/gps/gps.c ****     _gps->state = GPS_IDLE;
 603              		.loc 1 17 5 view .LVU153
 604 0026 4FF48072 		mov	r2, #256
 605 002a 2946     		mov	r1, r5
ARM GAS  C:\Users\LENOVO\AppData\Local\Temp\ccRCeXmz.s 			page 23


 606 002c 04F18D00 		add	r0, r4, #141
 607 0030 FFF7FEFF 		bl	memset
 608              	.LVL48:
  18:SynaptiX_FDK/components/gps/gps.c ****     _gps->buff_id = 0;
 609              		.loc 1 18 5 view .LVU154
  18:SynaptiX_FDK/components/gps/gps.c ****     _gps->buff_id = 0;
 610              		.loc 1 18 17 is_stmt 0 view .LVU155
 611 0034 84F88D51 		strb	r5, [r4, #397]
  19:SynaptiX_FDK/components/gps/gps.c ****     gps_set_callback_handle(_gps, gps_callback_task, _gps);
 612              		.loc 1 19 5 is_stmt 1 view .LVU156
  19:SynaptiX_FDK/components/gps/gps.c ****     gps_set_callback_handle(_gps, gps_callback_task, _gps);
 613              		.loc 1 19 19 is_stmt 0 view .LVU157
 614 0038 2565     		str	r5, [r4, #80]
  20:SynaptiX_FDK/components/gps/gps.c ****     sx_delay_ms(1000);
 615              		.loc 1 20 5 is_stmt 1 view .LVU158
 616 003a 2246     		mov	r2, r4
 617 003c 0649     		ldr	r1, .L34
 618 003e 2046     		mov	r0, r4
 619 0040 FFF7FEFF 		bl	gps_set_callback_handle
 620              	.LVL49:
  21:SynaptiX_FDK/components/gps/gps.c ****     log_debug(TAG, "Initializing");
 621              		.loc 1 21 5 view .LVU159
 622 0044 4FF47A70 		mov	r0, #1000
 623 0048 FFF7FEFF 		bl	sx_delay_ms
 624              	.LVL50:
  22:SynaptiX_FDK/components/gps/gps.c **** }
 625              		.loc 1 22 5 view .LVU160
 626 004c 034A     		ldr	r2, .L34+4
 627 004e 0449     		ldr	r1, .L34+8
 628 0050 0420     		movs	r0, #4
 629 0052 FFF7FEFF 		bl	log_func
 630              	.LVL51:
  23:SynaptiX_FDK/components/gps/gps.c **** 
 631              		.loc 1 23 1 is_stmt 0 view .LVU161
 632 0056 70BD     		pop	{r4, r5, r6, pc}
 633              	.LVL52:
 634              	.L35:
  23:SynaptiX_FDK/components/gps/gps.c **** 
 635              		.loc 1 23 1 view .LVU162
 636              		.align	2
 637              	.L34:
 638 0058 00000000 		.word	gps_callback_task
 639 005c 00000000 		.word	.LC6
 640 0060 1C000000 		.word	.LC1
 641              		.cfi_endproc
 642              	.LFE12:
 644              		.section	.text.gps_reset,"ax",%progbits
 645              		.align	1
 646              		.global	gps_reset
 647              		.syntax unified
 648              		.thumb
 649              		.thumb_func
 651              	gps_reset:
 652              	.LVL53:
 653              	.LFB14:
  32:SynaptiX_FDK/components/gps/gps.c ****     // sx_gpio_write(&_gps->rst, SX_GPIO_LOW);
 654              		.loc 1 32 1 is_stmt 1 view -0
ARM GAS  C:\Users\LENOVO\AppData\Local\Temp\ccRCeXmz.s 			page 24


 655              		.cfi_startproc
 656              		@ args = 0, pretend = 0, frame = 0
 657              		@ frame_needed = 0, uses_anonymous_args = 0
 658              		@ link register save eliminated.
  36:SynaptiX_FDK/components/gps/gps.c **** void gps_power_on(sx_gps_t *_gps)
 659              		.loc 1 36 1 view .LVU164
 660 0000 7047     		bx	lr
 661              		.cfi_endproc
 662              	.LFE14:
 664              		.section	.text.gps_power_on,"ax",%progbits
 665              		.align	1
 666              		.global	gps_power_on
 667              		.syntax unified
 668              		.thumb
 669              		.thumb_func
 671              	gps_power_on:
 672              	.LVL54:
 673              	.LFB15:
  38:SynaptiX_FDK/components/gps/gps.c ****     //sx_gpio_write(&_gps->pwr, SX_GPIO_HIGH);
 674              		.loc 1 38 1 view -0
 675              		.cfi_startproc
 676              		@ args = 0, pretend = 0, frame = 0
 677              		@ frame_needed = 0, uses_anonymous_args = 0
  38:SynaptiX_FDK/components/gps/gps.c ****     //sx_gpio_write(&_gps->pwr, SX_GPIO_HIGH);
 678              		.loc 1 38 1 is_stmt 0 view .LVU166
 679 0000 08B5     		push	{r3, lr}
 680              	.LCFI6:
 681              		.cfi_def_cfa_offset 8
 682              		.cfi_offset 3, -8
 683              		.cfi_offset 14, -4
  40:SynaptiX_FDK/components/gps/gps.c **** }
 684              		.loc 1 40 5 is_stmt 1 view .LVU167
 685 0002 0021     		movs	r1, #0
 686 0004 4430     		adds	r0, r0, #68
 687              	.LVL55:
  40:SynaptiX_FDK/components/gps/gps.c **** }
 688              		.loc 1 40 5 is_stmt 0 view .LVU168
 689 0006 FFF7FEFF 		bl	sx_gpio_write
 690              	.LVL56:
  41:SynaptiX_FDK/components/gps/gps.c **** void gps_power_off(sx_gps_t *_gps)
 691              		.loc 1 41 1 view .LVU169
 692 000a 08BD     		pop	{r3, pc}
 693              		.cfi_endproc
 694              	.LFE15:
 696              		.section	.text.gps_power_off,"ax",%progbits
 697              		.align	1
 698              		.global	gps_power_off
 699              		.syntax unified
 700              		.thumb
 701              		.thumb_func
 703              	gps_power_off:
 704              	.LVL57:
 705              	.LFB16:
  43:SynaptiX_FDK/components/gps/gps.c ****     //sx_gpio_write(&_gps->pwr, SX_GPIO_LOW);
 706              		.loc 1 43 1 is_stmt 1 view -0
 707              		.cfi_startproc
 708              		@ args = 0, pretend = 0, frame = 0
ARM GAS  C:\Users\LENOVO\AppData\Local\Temp\ccRCeXmz.s 			page 25


 709              		@ frame_needed = 0, uses_anonymous_args = 0
  43:SynaptiX_FDK/components/gps/gps.c ****     //sx_gpio_write(&_gps->pwr, SX_GPIO_LOW);
 710              		.loc 1 43 1 is_stmt 0 view .LVU171
 711 0000 08B5     		push	{r3, lr}
 712              	.LCFI7:
 713              		.cfi_def_cfa_offset 8
 714              		.cfi_offset 3, -8
 715              		.cfi_offset 14, -4
  45:SynaptiX_FDK/components/gps/gps.c **** }
 716              		.loc 1 45 5 is_stmt 1 view .LVU172
 717 0002 0121     		movs	r1, #1
 718 0004 4430     		adds	r0, r0, #68
 719              	.LVL58:
  45:SynaptiX_FDK/components/gps/gps.c **** }
 720              		.loc 1 45 5 is_stmt 0 view .LVU173
 721 0006 FFF7FEFF 		bl	sx_gpio_write
 722              	.LVL59:
  46:SynaptiX_FDK/components/gps/gps.c **** 
 723              		.loc 1 46 1 view .LVU174
 724 000a 08BD     		pop	{r3, pc}
 725              		.cfi_endproc
 726              	.LFE16:
 728              		.section	.text.gps_process,"ax",%progbits
 729              		.align	1
 730              		.global	gps_process
 731              		.syntax unified
 732              		.thumb
 733              		.thumb_func
 735              	gps_process:
 736              	.LVL60:
 737              	.LFB17:
  49:SynaptiX_FDK/components/gps/gps.c ****     _gps->time += _timestamp;
 738              		.loc 1 49 1 is_stmt 1 view -0
 739              		.cfi_startproc
 740              		@ args = 0, pretend = 0, frame = 8
 741              		@ frame_needed = 0, uses_anonymous_args = 0
  49:SynaptiX_FDK/components/gps/gps.c ****     _gps->time += _timestamp;
 742              		.loc 1 49 1 is_stmt 0 view .LVU176
 743 0000 30B5     		push	{r4, r5, lr}
 744              	.LCFI8:
 745              		.cfi_def_cfa_offset 12
 746              		.cfi_offset 4, -12
 747              		.cfi_offset 5, -8
 748              		.cfi_offset 14, -4
 749 0002 83B0     		sub	sp, sp, #12
 750              	.LCFI9:
 751              		.cfi_def_cfa_offset 24
 752 0004 0446     		mov	r4, r0
  50:SynaptiX_FDK/components/gps/gps.c ****     switch (_gps->state)
 753              		.loc 1 50 5 is_stmt 1 view .LVU177
  50:SynaptiX_FDK/components/gps/gps.c ****     switch (_gps->state)
 754              		.loc 1 50 9 is_stmt 0 view .LVU178
 755 0006 D0F89431 		ldr	r3, [r0, #404]
  50:SynaptiX_FDK/components/gps/gps.c ****     switch (_gps->state)
 756              		.loc 1 50 16 view .LVU179
 757 000a 0B44     		add	r3, r3, r1
 758 000c C0F89431 		str	r3, [r0, #404]
ARM GAS  C:\Users\LENOVO\AppData\Local\Temp\ccRCeXmz.s 			page 26


  51:SynaptiX_FDK/components/gps/gps.c ****     {
 759              		.loc 1 51 5 is_stmt 1 view .LVU180
  51:SynaptiX_FDK/components/gps/gps.c ****     {
 760              		.loc 1 51 17 is_stmt 0 view .LVU181
 761 0010 90F88D31 		ldrb	r3, [r0, #397]	@ zero_extendqisi2
  51:SynaptiX_FDK/components/gps/gps.c ****     {
 762              		.loc 1 51 5 view .LVU182
 763 0014 012B     		cmp	r3, #1
 764 0016 1FD0     		beq	.L42
 765 0018 022B     		cmp	r3, #2
 766 001a 49D0     		beq	.L43
 767 001c 0BB1     		cbz	r3, .L44
 768              	.LVL61:
 769              	.L41:
 111:SynaptiX_FDK/components/gps/gps.c **** 
 770              		.loc 1 111 1 view .LVU183
 771 001e 03B0     		add	sp, sp, #12
 772              	.LCFI10:
 773              		.cfi_remember_state
 774              		.cfi_def_cfa_offset 12
 775              		@ sp needed
 776 0020 30BD     		pop	{r4, r5, pc}
 777              	.LVL62:
 778              	.L44:
 779              	.LCFI11:
 780              		.cfi_restore_state
 781              	.LBB24:
  55:SynaptiX_FDK/components/gps/gps.c ****             if (1 == sx_uart_read(&_gps->comm, &_gps->buff[0], 1, 10))
 782              		.loc 1 55 46 is_stmt 1 view .LVU184
  55:SynaptiX_FDK/components/gps/gps.c ****             if (1 == sx_uart_read(&_gps->comm, &_gps->buff[0], 1, 10))
 783              		.loc 1 55 15 is_stmt 0 view .LVU185
 784 0022 2046     		mov	r0, r4
 785 0024 FFF7FEFF 		bl	sx_uart_available
 786              	.LVL63:
  55:SynaptiX_FDK/components/gps/gps.c ****             if (1 == sx_uart_read(&_gps->comm, &_gps->buff[0], 1, 10))
 787              		.loc 1 55 46 discriminator 1 view .LVU186
 788 0028 0028     		cmp	r0, #0
 789 002a F8DD     		ble	.L41
  56:SynaptiX_FDK/components/gps/gps.c ****             {
 790              		.loc 1 56 13 is_stmt 1 view .LVU187
  56:SynaptiX_FDK/components/gps/gps.c ****             {
 791              		.loc 1 56 22 is_stmt 0 view .LVU188
 792 002c 0A23     		movs	r3, #10
 793 002e 0122     		movs	r2, #1
 794 0030 04F18D01 		add	r1, r4, #141
 795 0034 2046     		mov	r0, r4
 796 0036 FFF7FEFF 		bl	sx_uart_read
 797              	.LVL64:
  56:SynaptiX_FDK/components/gps/gps.c ****             {
 798              		.loc 1 56 16 discriminator 1 view .LVU189
 799 003a 0128     		cmp	r0, #1
 800 003c F1D1     		bne	.L44
  58:SynaptiX_FDK/components/gps/gps.c ****                 {
 801              		.loc 1 58 17 is_stmt 1 view .LVU190
  58:SynaptiX_FDK/components/gps/gps.c ****                 {
 802              		.loc 1 58 31 is_stmt 0 view .LVU191
 803 003e 94F88D30 		ldrb	r3, [r4, #141]	@ zero_extendqisi2
ARM GAS  C:\Users\LENOVO\AppData\Local\Temp\ccRCeXmz.s 			page 27


  58:SynaptiX_FDK/components/gps/gps.c ****                 {
 804              		.loc 1 58 20 view .LVU192
 805 0042 242B     		cmp	r3, #36
 806 0044 EDD1     		bne	.L44
  60:SynaptiX_FDK/components/gps/gps.c ****                     _gps->state = GPS_READ_MESSAGE;
 807              		.loc 1 60 21 is_stmt 1 view .LVU193
  60:SynaptiX_FDK/components/gps/gps.c ****                     _gps->state = GPS_READ_MESSAGE;
 808              		.loc 1 60 35 is_stmt 0 view .LVU194
 809 0046 0123     		movs	r3, #1
 810 0048 2365     		str	r3, [r4, #80]
  61:SynaptiX_FDK/components/gps/gps.c ****                     break;
 811              		.loc 1 61 21 is_stmt 1 view .LVU195
  61:SynaptiX_FDK/components/gps/gps.c ****                     break;
 812              		.loc 1 61 33 is_stmt 0 view .LVU196
 813 004a 84F88D31 		strb	r3, [r4, #397]
  62:SynaptiX_FDK/components/gps/gps.c ****                 }
 814              		.loc 1 62 21 is_stmt 1 view .LVU197
 815 004e E6E7     		b	.L41
 816              	.L47:
  87:SynaptiX_FDK/components/gps/gps.c **** 
 817              		.loc 1 87 13 view .LVU198
  87:SynaptiX_FDK/components/gps/gps.c **** 
 818              		.loc 1 87 26 is_stmt 0 view .LVU199
 819 0050 0133     		adds	r3, r3, #1
 820 0052 2365     		str	r3, [r4, #80]
  89:SynaptiX_FDK/components/gps/gps.c ****             {
 821              		.loc 1 89 13 is_stmt 1 view .LVU200
  89:SynaptiX_FDK/components/gps/gps.c ****             {
 822              		.loc 1 89 16 is_stmt 0 view .LVU201
 823 0054 FD2B     		cmp	r3, #253
 824 0056 26D8     		bhi	.L51
 825              	.L42:
  70:SynaptiX_FDK/components/gps/gps.c ****         {
 826              		.loc 1 70 47 is_stmt 1 view .LVU202
  70:SynaptiX_FDK/components/gps/gps.c ****         {
 827              		.loc 1 70 16 is_stmt 0 view .LVU203
 828 0058 2046     		mov	r0, r4
 829 005a FFF7FEFF 		bl	sx_uart_available
 830              	.LVL65:
  70:SynaptiX_FDK/components/gps/gps.c ****         {
 831              		.loc 1 70 47 discriminator 1 view .LVU204
 832 005e 0028     		cmp	r0, #0
 833 0060 DDDD     		ble	.L41
  72:SynaptiX_FDK/components/gps/gps.c ****                 break;
 834              		.loc 1 72 13 is_stmt 1 view .LVU205
  72:SynaptiX_FDK/components/gps/gps.c ****                 break;
 835              		.loc 1 72 22 is_stmt 0 view .LVU206
 836 0062 0123     		movs	r3, #1
 837 0064 1A46     		mov	r2, r3
 838 0066 0DF10701 		add	r1, sp, #7
 839 006a 2046     		mov	r0, r4
 840 006c FFF7FEFF 		bl	sx_uart_read
 841              	.LVL66:
  72:SynaptiX_FDK/components/gps/gps.c ****                 break;
 842              		.loc 1 72 16 discriminator 1 view .LVU207
 843 0070 0128     		cmp	r0, #1
 844 0072 D4D1     		bne	.L41
ARM GAS  C:\Users\LENOVO\AppData\Local\Temp\ccRCeXmz.s 			page 28


  75:SynaptiX_FDK/components/gps/gps.c **** 
 845              		.loc 1 75 13 is_stmt 1 view .LVU208
  75:SynaptiX_FDK/components/gps/gps.c **** 
 846              		.loc 1 75 28 is_stmt 0 view .LVU209
 847 0074 236D     		ldr	r3, [r4, #80]
  75:SynaptiX_FDK/components/gps/gps.c **** 
 848              		.loc 1 75 39 view .LVU210
 849 0076 9DF80720 		ldrb	r2, [sp, #7]	@ zero_extendqisi2
 850 007a E118     		adds	r1, r4, r3
 851 007c 81F88D20 		strb	r2, [r1, #141]
  78:SynaptiX_FDK/components/gps/gps.c ****                 _gps->buff[_gps->buff_id - 1] == '\r' &&
 852              		.loc 1 78 13 is_stmt 1 view .LVU211
  78:SynaptiX_FDK/components/gps/gps.c ****                 _gps->buff[_gps->buff_id - 1] == '\r' &&
 853              		.loc 1 78 16 is_stmt 0 view .LVU212
 854 0080 002B     		cmp	r3, #0
 855 0082 E5D0     		beq	.L47
  79:SynaptiX_FDK/components/gps/gps.c ****                 byte == '\n')
 856              		.loc 1 79 42 view .LVU213
 857 0084 591E     		subs	r1, r3, #1
  79:SynaptiX_FDK/components/gps/gps.c ****                 byte == '\n')
 858              		.loc 1 79 27 view .LVU214
 859 0086 2144     		add	r1, r1, r4
 860 0088 91F88D10 		ldrb	r1, [r1, #141]	@ zero_extendqisi2
  78:SynaptiX_FDK/components/gps/gps.c ****                 _gps->buff[_gps->buff_id - 1] == '\r' &&
 861              		.loc 1 78 35 discriminator 1 view .LVU215
 862 008c 0D29     		cmp	r1, #13
 863 008e DFD1     		bne	.L47
  79:SynaptiX_FDK/components/gps/gps.c ****                 byte == '\n')
 864              		.loc 1 79 55 view .LVU216
 865 0090 0A2A     		cmp	r2, #10
 866 0092 DDD1     		bne	.L47
  82:SynaptiX_FDK/components/gps/gps.c ****                 _gps->state = GPS_NEW_MESSAGE;
 867              		.loc 1 82 17 is_stmt 1 view .LVU217
  82:SynaptiX_FDK/components/gps/gps.c ****                 _gps->state = GPS_NEW_MESSAGE;
 868              		.loc 1 82 42 is_stmt 0 view .LVU218
 869 0094 0133     		adds	r3, r3, #1
  82:SynaptiX_FDK/components/gps/gps.c ****                 _gps->state = GPS_NEW_MESSAGE;
 870              		.loc 1 82 47 view .LVU219
 871 0096 2344     		add	r3, r3, r4
 872 0098 0022     		movs	r2, #0
 873 009a 83F88D20 		strb	r2, [r3, #141]
  83:SynaptiX_FDK/components/gps/gps.c ****                 break;
 874              		.loc 1 83 17 is_stmt 1 view .LVU220
  83:SynaptiX_FDK/components/gps/gps.c ****                 break;
 875              		.loc 1 83 29 is_stmt 0 view .LVU221
 876 009e 0223     		movs	r3, #2
 877 00a0 84F88D31 		strb	r3, [r4, #397]
  84:SynaptiX_FDK/components/gps/gps.c ****             }
 878              		.loc 1 84 17 is_stmt 1 view .LVU222
 879 00a4 BBE7     		b	.L41
 880              	.L51:
  91:SynaptiX_FDK/components/gps/gps.c ****                 _gps->state = GPS_IDLE;
 881              		.loc 1 91 17 view .LVU223
  91:SynaptiX_FDK/components/gps/gps.c ****                 _gps->state = GPS_IDLE;
 882              		.loc 1 91 31 is_stmt 0 view .LVU224
 883 00a6 0023     		movs	r3, #0
 884 00a8 2365     		str	r3, [r4, #80]
ARM GAS  C:\Users\LENOVO\AppData\Local\Temp\ccRCeXmz.s 			page 29


  92:SynaptiX_FDK/components/gps/gps.c ****                 break;
 885              		.loc 1 92 17 is_stmt 1 view .LVU225
  92:SynaptiX_FDK/components/gps/gps.c ****                 break;
 886              		.loc 1 92 29 is_stmt 0 view .LVU226
 887 00aa 84F88D31 		strb	r3, [r4, #397]
  93:SynaptiX_FDK/components/gps/gps.c ****             }
 888              		.loc 1 93 17 is_stmt 1 view .LVU227
 889 00ae B6E7     		b	.L41
 890              	.LVL67:
 891              	.L43:
  99:SynaptiX_FDK/components/gps/gps.c ****         {
 892              		.loc 1 99 9 view .LVU228
  99:SynaptiX_FDK/components/gps/gps.c ****         {
 893              		.loc 1 99 17 is_stmt 0 view .LVU229
 894 00b0 D0F89031 		ldr	r3, [r0, #400]
  99:SynaptiX_FDK/components/gps/gps.c ****         {
 895              		.loc 1 99 12 view .LVU230
 896 00b4 23B1     		cbz	r3, .L49
 101:SynaptiX_FDK/components/gps/gps.c ****         }
 897              		.loc 1 101 13 is_stmt 1 view .LVU231
 898 00b6 D0F89821 		ldr	r2, [r0, #408]
 899 00ba 00F18D01 		add	r1, r0, #141
 900              	.LVL68:
 101:SynaptiX_FDK/components/gps/gps.c ****         }
 901              		.loc 1 101 13 is_stmt 0 view .LVU232
 902 00be 9847     		blx	r3
 903              	.LVL69:
 904              	.L49:
 103:SynaptiX_FDK/components/gps/gps.c ****         // log_info(TAG, "%s", _gps->buff);
 905              		.loc 1 103 9 is_stmt 1 view .LVU233
 103:SynaptiX_FDK/components/gps/gps.c ****         // log_info(TAG, "%s", _gps->buff);
 906              		.loc 1 103 21 is_stmt 0 view .LVU234
 907 00c0 0025     		movs	r5, #0
 908 00c2 84F88D51 		strb	r5, [r4, #397]
 105:SynaptiX_FDK/components/gps/gps.c ****         _gps->buff_id = 0;
 909              		.loc 1 105 9 is_stmt 1 view .LVU235
 910 00c6 226D     		ldr	r2, [r4, #80]
 911 00c8 2946     		mov	r1, r5
 912 00ca 04F18D00 		add	r0, r4, #141
 913 00ce FFF7FEFF 		bl	memset
 914              	.LVL70:
 106:SynaptiX_FDK/components/gps/gps.c ****         break;
 915              		.loc 1 106 9 view .LVU236
 106:SynaptiX_FDK/components/gps/gps.c ****         break;
 916              		.loc 1 106 23 is_stmt 0 view .LVU237
 917 00d2 2565     		str	r5, [r4, #80]
 107:SynaptiX_FDK/components/gps/gps.c ****     default:
 918              		.loc 1 107 9 is_stmt 1 view .LVU238
 919              	.LBE24:
 111:SynaptiX_FDK/components/gps/gps.c **** 
 920              		.loc 1 111 1 is_stmt 0 view .LVU239
 921 00d4 A3E7     		b	.L41
 922              		.cfi_endproc
 923              	.LFE17:
 925              		.text
 926              	.Letext0:
 927              		.file 4 "C:\\ST\\STM32CubeCLT_1.20.0\\GNU-tools-for-STM32\\bin/../lib/gcc/arm-none-eabi/13.3.1/../
ARM GAS  C:\Users\LENOVO\AppData\Local\Temp\ccRCeXmz.s 			page 30


 928              		.file 5 "C:\\ST\\STM32CubeCLT_1.20.0\\GNU-tools-for-STM32\\bin/../lib/gcc/arm-none-eabi/13.3.1/../
 929              		.file 6 "C:\\ST\\STM32CubeCLT_1.20.0\\GNU-tools-for-STM32\\bin/../lib/gcc/arm-none-eabi/13.3.1/../
 930              		.file 7 "C:\\ST\\STM32CubeCLT_1.20.0\\GNU-tools-for-STM32\\bin/../lib/gcc/arm-none-eabi/13.3.1/inc
 931              		.file 8 "SynaptiX_FDK/utils/cqueue/cqueue.h"
 932              		.file 9 "SynaptiX_FDK/components/uart/sx_uart.h"
 933              		.file 10 "C:\\ST\\STM32CubeCLT_1.20.0\\GNU-tools-for-STM32\\bin/../lib/gcc/arm-none-eabi/13.3.1/..
 934              		.file 11 "SynaptiX_FDK/components/gps/gps.h"
 935              		.file 12 "SynaptiX_FDK/services/logger/logger.h"
 936              		.file 13 "SynaptiX_FDK/utils/delay/sx_delay.h"
 937              		.file 14 "C:\\ST\\STM32CubeCLT_1.20.0\\GNU-tools-for-STM32\\bin/../lib/gcc/arm-none-eabi/13.3.1/..
 938              		.file 15 "<built-in>"
ARM GAS  C:\Users\LENOVO\AppData\Local\Temp\ccRCeXmz.s 			page 31

