ARM GAS  C:\Users\LENOVO\AppData\Local\Temp\ccPMz3A0.s 			page 1


   1              		.cpu cortex-m33
   2              		.arch armv8-m.main
   3              		.fpu fpv5-sp-d16
   4              		.arch_extension dsp
   5              		.eabi_attribute 27, 1
   6              		.eabi_attribute 28, 1
   7              		.eabi_attribute 20, 1
   8              		.eabi_attribute 21, 1
   9              		.eabi_attribute 23, 3
  10              		.eabi_attribute 24, 1
  11              		.eabi_attribute 25, 1
  12              		.eabi_attribute 26, 1
  13              		.eabi_attribute 30, 1
  14              		.eabi_attribute 34, 1
  15              		.eabi_attribute 18, 4
  16              		.file	"lfs.c"
  17              		.text
  18              	.Ltext0:
  19              		.cfi_sections	.debug_frame
  20              		.file 1 "SynaptiX_FDK/services/littlefs/lfs.c"
  21              		.section	.text.lfs_pair_issync,"ax",%progbits
  22              		.align	1
  23              		.syntax unified
  24              		.thumb
  25              		.thumb_func
  27              	lfs_pair_issync:
  28              	.LVL0:
  29              	.LFB32:
   1:SynaptiX_FDK/services/littlefs/lfs.c **** /*
   2:SynaptiX_FDK/services/littlefs/lfs.c ****  * The little filesystem
   3:SynaptiX_FDK/services/littlefs/lfs.c ****  *
   4:SynaptiX_FDK/services/littlefs/lfs.c ****  * Copyright (c) 2022, The littlefs authors.
   5:SynaptiX_FDK/services/littlefs/lfs.c ****  * Copyright (c) 2017, Arm Limited. All rights reserved.
   6:SynaptiX_FDK/services/littlefs/lfs.c ****  * SPDX-License-Identifier: BSD-3-Clause
   7:SynaptiX_FDK/services/littlefs/lfs.c ****  */
   8:SynaptiX_FDK/services/littlefs/lfs.c **** #include "lfs.h"
   9:SynaptiX_FDK/services/littlefs/lfs.c **** #include "lfs_util.h"
  10:SynaptiX_FDK/services/littlefs/lfs.c **** 
  11:SynaptiX_FDK/services/littlefs/lfs.c **** 
  12:SynaptiX_FDK/services/littlefs/lfs.c **** // some constants used throughout the code
  13:SynaptiX_FDK/services/littlefs/lfs.c **** #define LFS_BLOCK_NULL ((lfs_block_t)-1)
  14:SynaptiX_FDK/services/littlefs/lfs.c **** #define LFS_BLOCK_INLINE ((lfs_block_t)-2)
  15:SynaptiX_FDK/services/littlefs/lfs.c **** 
  16:SynaptiX_FDK/services/littlefs/lfs.c **** enum {
  17:SynaptiX_FDK/services/littlefs/lfs.c ****     LFS_OK_RELOCATED = 1,
  18:SynaptiX_FDK/services/littlefs/lfs.c ****     LFS_OK_DROPPED   = 2,
  19:SynaptiX_FDK/services/littlefs/lfs.c ****     LFS_OK_ORPHANED  = 3,
  20:SynaptiX_FDK/services/littlefs/lfs.c **** };
  21:SynaptiX_FDK/services/littlefs/lfs.c **** 
  22:SynaptiX_FDK/services/littlefs/lfs.c **** enum {
  23:SynaptiX_FDK/services/littlefs/lfs.c ****     LFS_CMP_EQ = 0,
  24:SynaptiX_FDK/services/littlefs/lfs.c ****     LFS_CMP_LT = 1,
  25:SynaptiX_FDK/services/littlefs/lfs.c ****     LFS_CMP_GT = 2,
  26:SynaptiX_FDK/services/littlefs/lfs.c **** };
  27:SynaptiX_FDK/services/littlefs/lfs.c **** 
  28:SynaptiX_FDK/services/littlefs/lfs.c **** 
  29:SynaptiX_FDK/services/littlefs/lfs.c **** /// Caching block device operations ///
ARM GAS  C:\Users\LENOVO\AppData\Local\Temp\ccPMz3A0.s 			page 2


  30:SynaptiX_FDK/services/littlefs/lfs.c **** 
  31:SynaptiX_FDK/services/littlefs/lfs.c **** static inline void lfs_cache_drop(lfs_t *lfs, lfs_cache_t *rcache) {
  32:SynaptiX_FDK/services/littlefs/lfs.c ****     // do not zero, cheaper if cache is readonly or only going to be
  33:SynaptiX_FDK/services/littlefs/lfs.c ****     // written with identical data (during relocates)
  34:SynaptiX_FDK/services/littlefs/lfs.c ****     (void)lfs;
  35:SynaptiX_FDK/services/littlefs/lfs.c ****     rcache->block = LFS_BLOCK_NULL;
  36:SynaptiX_FDK/services/littlefs/lfs.c **** }
  37:SynaptiX_FDK/services/littlefs/lfs.c **** 
  38:SynaptiX_FDK/services/littlefs/lfs.c **** static inline void lfs_cache_zero(lfs_t *lfs, lfs_cache_t *pcache) {
  39:SynaptiX_FDK/services/littlefs/lfs.c ****     // zero to avoid information leak
  40:SynaptiX_FDK/services/littlefs/lfs.c ****     memset(pcache->buffer, 0xff, lfs->cfg->cache_size);
  41:SynaptiX_FDK/services/littlefs/lfs.c ****     pcache->block = LFS_BLOCK_NULL;
  42:SynaptiX_FDK/services/littlefs/lfs.c **** }
  43:SynaptiX_FDK/services/littlefs/lfs.c **** 
  44:SynaptiX_FDK/services/littlefs/lfs.c **** static int lfs_bd_read(lfs_t *lfs,
  45:SynaptiX_FDK/services/littlefs/lfs.c ****         const lfs_cache_t *pcache, lfs_cache_t *rcache, lfs_size_t hint,
  46:SynaptiX_FDK/services/littlefs/lfs.c ****         lfs_block_t block, lfs_off_t off,
  47:SynaptiX_FDK/services/littlefs/lfs.c ****         void *buffer, lfs_size_t size) {
  48:SynaptiX_FDK/services/littlefs/lfs.c ****     uint8_t *data = buffer;
  49:SynaptiX_FDK/services/littlefs/lfs.c ****     if (off+size > lfs->cfg->block_size
  50:SynaptiX_FDK/services/littlefs/lfs.c ****             || (lfs->block_count && block >= lfs->block_count)) {
  51:SynaptiX_FDK/services/littlefs/lfs.c ****         return LFS_ERR_CORRUPT;
  52:SynaptiX_FDK/services/littlefs/lfs.c ****     }
  53:SynaptiX_FDK/services/littlefs/lfs.c **** 
  54:SynaptiX_FDK/services/littlefs/lfs.c ****     while (size > 0) {
  55:SynaptiX_FDK/services/littlefs/lfs.c ****         lfs_size_t diff = size;
  56:SynaptiX_FDK/services/littlefs/lfs.c **** 
  57:SynaptiX_FDK/services/littlefs/lfs.c ****         if (pcache && block == pcache->block &&
  58:SynaptiX_FDK/services/littlefs/lfs.c ****                 off < pcache->off + pcache->size) {
  59:SynaptiX_FDK/services/littlefs/lfs.c ****             if (off >= pcache->off) {
  60:SynaptiX_FDK/services/littlefs/lfs.c ****                 // is already in pcache?
  61:SynaptiX_FDK/services/littlefs/lfs.c ****                 diff = lfs_min(diff, pcache->size - (off-pcache->off));
  62:SynaptiX_FDK/services/littlefs/lfs.c ****                 memcpy(data, &pcache->buffer[off-pcache->off], diff);
  63:SynaptiX_FDK/services/littlefs/lfs.c **** 
  64:SynaptiX_FDK/services/littlefs/lfs.c ****                 data += diff;
  65:SynaptiX_FDK/services/littlefs/lfs.c ****                 off += diff;
  66:SynaptiX_FDK/services/littlefs/lfs.c ****                 size -= diff;
  67:SynaptiX_FDK/services/littlefs/lfs.c ****                 continue;
  68:SynaptiX_FDK/services/littlefs/lfs.c ****             }
  69:SynaptiX_FDK/services/littlefs/lfs.c **** 
  70:SynaptiX_FDK/services/littlefs/lfs.c ****             // pcache takes priority
  71:SynaptiX_FDK/services/littlefs/lfs.c ****             diff = lfs_min(diff, pcache->off-off);
  72:SynaptiX_FDK/services/littlefs/lfs.c ****         }
  73:SynaptiX_FDK/services/littlefs/lfs.c **** 
  74:SynaptiX_FDK/services/littlefs/lfs.c ****         if (block == rcache->block &&
  75:SynaptiX_FDK/services/littlefs/lfs.c ****                 off < rcache->off + rcache->size) {
  76:SynaptiX_FDK/services/littlefs/lfs.c ****             if (off >= rcache->off) {
  77:SynaptiX_FDK/services/littlefs/lfs.c ****                 // is already in rcache?
  78:SynaptiX_FDK/services/littlefs/lfs.c ****                 diff = lfs_min(diff, rcache->size - (off-rcache->off));
  79:SynaptiX_FDK/services/littlefs/lfs.c ****                 memcpy(data, &rcache->buffer[off-rcache->off], diff);
  80:SynaptiX_FDK/services/littlefs/lfs.c **** 
  81:SynaptiX_FDK/services/littlefs/lfs.c ****                 data += diff;
  82:SynaptiX_FDK/services/littlefs/lfs.c ****                 off += diff;
  83:SynaptiX_FDK/services/littlefs/lfs.c ****                 size -= diff;
  84:SynaptiX_FDK/services/littlefs/lfs.c ****                 continue;
  85:SynaptiX_FDK/services/littlefs/lfs.c ****             }
  86:SynaptiX_FDK/services/littlefs/lfs.c **** 
ARM GAS  C:\Users\LENOVO\AppData\Local\Temp\ccPMz3A0.s 			page 3


  87:SynaptiX_FDK/services/littlefs/lfs.c ****             // rcache takes priority
  88:SynaptiX_FDK/services/littlefs/lfs.c ****             diff = lfs_min(diff, rcache->off-off);
  89:SynaptiX_FDK/services/littlefs/lfs.c ****         }
  90:SynaptiX_FDK/services/littlefs/lfs.c **** 
  91:SynaptiX_FDK/services/littlefs/lfs.c ****         if (size >= hint && off % lfs->cfg->read_size == 0 &&
  92:SynaptiX_FDK/services/littlefs/lfs.c ****                 size >= lfs->cfg->read_size) {
  93:SynaptiX_FDK/services/littlefs/lfs.c ****             // bypass cache?
  94:SynaptiX_FDK/services/littlefs/lfs.c ****             diff = lfs_aligndown(diff, lfs->cfg->read_size);
  95:SynaptiX_FDK/services/littlefs/lfs.c ****             int err = lfs->cfg->read(lfs->cfg, block, off, data, diff);
  96:SynaptiX_FDK/services/littlefs/lfs.c ****             LFS_ASSERT(err <= 0);
  97:SynaptiX_FDK/services/littlefs/lfs.c ****             if (err) {
  98:SynaptiX_FDK/services/littlefs/lfs.c ****                 return err;
  99:SynaptiX_FDK/services/littlefs/lfs.c ****             }
 100:SynaptiX_FDK/services/littlefs/lfs.c **** 
 101:SynaptiX_FDK/services/littlefs/lfs.c ****             data += diff;
 102:SynaptiX_FDK/services/littlefs/lfs.c ****             off += diff;
 103:SynaptiX_FDK/services/littlefs/lfs.c ****             size -= diff;
 104:SynaptiX_FDK/services/littlefs/lfs.c ****             continue;
 105:SynaptiX_FDK/services/littlefs/lfs.c ****         }
 106:SynaptiX_FDK/services/littlefs/lfs.c **** 
 107:SynaptiX_FDK/services/littlefs/lfs.c ****         // load to cache, first condition can no longer fail
 108:SynaptiX_FDK/services/littlefs/lfs.c ****         LFS_ASSERT(!lfs->block_count || block < lfs->block_count);
 109:SynaptiX_FDK/services/littlefs/lfs.c ****         rcache->block = block;
 110:SynaptiX_FDK/services/littlefs/lfs.c ****         rcache->off = lfs_aligndown(off, lfs->cfg->read_size);
 111:SynaptiX_FDK/services/littlefs/lfs.c ****         rcache->size = lfs_min(
 112:SynaptiX_FDK/services/littlefs/lfs.c ****                 lfs_min(
 113:SynaptiX_FDK/services/littlefs/lfs.c ****                     lfs_alignup(off+hint, lfs->cfg->read_size),
 114:SynaptiX_FDK/services/littlefs/lfs.c ****                     lfs->cfg->block_size)
 115:SynaptiX_FDK/services/littlefs/lfs.c ****                 - rcache->off,
 116:SynaptiX_FDK/services/littlefs/lfs.c ****                 lfs->cfg->cache_size);
 117:SynaptiX_FDK/services/littlefs/lfs.c ****         int err = lfs->cfg->read(lfs->cfg, rcache->block,
 118:SynaptiX_FDK/services/littlefs/lfs.c ****                 rcache->off, rcache->buffer, rcache->size);
 119:SynaptiX_FDK/services/littlefs/lfs.c ****         LFS_ASSERT(err <= 0);
 120:SynaptiX_FDK/services/littlefs/lfs.c ****         if (err) {
 121:SynaptiX_FDK/services/littlefs/lfs.c ****             return err;
 122:SynaptiX_FDK/services/littlefs/lfs.c ****         }
 123:SynaptiX_FDK/services/littlefs/lfs.c ****     }
 124:SynaptiX_FDK/services/littlefs/lfs.c **** 
 125:SynaptiX_FDK/services/littlefs/lfs.c ****     return 0;
 126:SynaptiX_FDK/services/littlefs/lfs.c **** }
 127:SynaptiX_FDK/services/littlefs/lfs.c **** 
 128:SynaptiX_FDK/services/littlefs/lfs.c **** static int lfs_bd_cmp(lfs_t *lfs,
 129:SynaptiX_FDK/services/littlefs/lfs.c ****         const lfs_cache_t *pcache, lfs_cache_t *rcache, lfs_size_t hint,
 130:SynaptiX_FDK/services/littlefs/lfs.c ****         lfs_block_t block, lfs_off_t off,
 131:SynaptiX_FDK/services/littlefs/lfs.c ****         const void *buffer, lfs_size_t size) {
 132:SynaptiX_FDK/services/littlefs/lfs.c ****     const uint8_t *data = buffer;
 133:SynaptiX_FDK/services/littlefs/lfs.c ****     lfs_size_t diff = 0;
 134:SynaptiX_FDK/services/littlefs/lfs.c **** 
 135:SynaptiX_FDK/services/littlefs/lfs.c ****     for (lfs_off_t i = 0; i < size; i += diff) {
 136:SynaptiX_FDK/services/littlefs/lfs.c ****         uint8_t dat[8];
 137:SynaptiX_FDK/services/littlefs/lfs.c **** 
 138:SynaptiX_FDK/services/littlefs/lfs.c ****         diff = lfs_min(size-i, sizeof(dat));
 139:SynaptiX_FDK/services/littlefs/lfs.c ****         int err = lfs_bd_read(lfs,
 140:SynaptiX_FDK/services/littlefs/lfs.c ****                 pcache, rcache, hint-i,
 141:SynaptiX_FDK/services/littlefs/lfs.c ****                 block, off+i, &dat, diff);
 142:SynaptiX_FDK/services/littlefs/lfs.c ****         if (err) {
 143:SynaptiX_FDK/services/littlefs/lfs.c ****             return err;
ARM GAS  C:\Users\LENOVO\AppData\Local\Temp\ccPMz3A0.s 			page 4


 144:SynaptiX_FDK/services/littlefs/lfs.c ****         }
 145:SynaptiX_FDK/services/littlefs/lfs.c **** 
 146:SynaptiX_FDK/services/littlefs/lfs.c ****         int res = memcmp(dat, data + i, diff);
 147:SynaptiX_FDK/services/littlefs/lfs.c ****         if (res) {
 148:SynaptiX_FDK/services/littlefs/lfs.c ****             return res < 0 ? LFS_CMP_LT : LFS_CMP_GT;
 149:SynaptiX_FDK/services/littlefs/lfs.c ****         }
 150:SynaptiX_FDK/services/littlefs/lfs.c ****     }
 151:SynaptiX_FDK/services/littlefs/lfs.c **** 
 152:SynaptiX_FDK/services/littlefs/lfs.c ****     return LFS_CMP_EQ;
 153:SynaptiX_FDK/services/littlefs/lfs.c **** }
 154:SynaptiX_FDK/services/littlefs/lfs.c **** 
 155:SynaptiX_FDK/services/littlefs/lfs.c **** static int lfs_bd_crc(lfs_t *lfs,
 156:SynaptiX_FDK/services/littlefs/lfs.c ****         const lfs_cache_t *pcache, lfs_cache_t *rcache, lfs_size_t hint,
 157:SynaptiX_FDK/services/littlefs/lfs.c ****         lfs_block_t block, lfs_off_t off, lfs_size_t size, uint32_t *crc) {
 158:SynaptiX_FDK/services/littlefs/lfs.c ****     lfs_size_t diff = 0;
 159:SynaptiX_FDK/services/littlefs/lfs.c **** 
 160:SynaptiX_FDK/services/littlefs/lfs.c ****     for (lfs_off_t i = 0; i < size; i += diff) {
 161:SynaptiX_FDK/services/littlefs/lfs.c ****         uint8_t dat[8];
 162:SynaptiX_FDK/services/littlefs/lfs.c ****         diff = lfs_min(size-i, sizeof(dat));
 163:SynaptiX_FDK/services/littlefs/lfs.c ****         int err = lfs_bd_read(lfs,
 164:SynaptiX_FDK/services/littlefs/lfs.c ****                 pcache, rcache, hint-i,
 165:SynaptiX_FDK/services/littlefs/lfs.c ****                 block, off+i, &dat, diff);
 166:SynaptiX_FDK/services/littlefs/lfs.c ****         if (err) {
 167:SynaptiX_FDK/services/littlefs/lfs.c ****             return err;
 168:SynaptiX_FDK/services/littlefs/lfs.c ****         }
 169:SynaptiX_FDK/services/littlefs/lfs.c **** 
 170:SynaptiX_FDK/services/littlefs/lfs.c ****         *crc = lfs_crc(*crc, &dat, diff);
 171:SynaptiX_FDK/services/littlefs/lfs.c ****     }
 172:SynaptiX_FDK/services/littlefs/lfs.c **** 
 173:SynaptiX_FDK/services/littlefs/lfs.c ****     return 0;
 174:SynaptiX_FDK/services/littlefs/lfs.c **** }
 175:SynaptiX_FDK/services/littlefs/lfs.c **** 
 176:SynaptiX_FDK/services/littlefs/lfs.c **** #ifndef LFS_READONLY
 177:SynaptiX_FDK/services/littlefs/lfs.c **** static int lfs_bd_flush(lfs_t *lfs,
 178:SynaptiX_FDK/services/littlefs/lfs.c ****         lfs_cache_t *pcache, lfs_cache_t *rcache, bool validate) {
 179:SynaptiX_FDK/services/littlefs/lfs.c ****     if (pcache->block != LFS_BLOCK_NULL && pcache->block != LFS_BLOCK_INLINE) {
 180:SynaptiX_FDK/services/littlefs/lfs.c ****         LFS_ASSERT(pcache->block < lfs->block_count);
 181:SynaptiX_FDK/services/littlefs/lfs.c ****         lfs_size_t diff = lfs_alignup(pcache->size, lfs->cfg->prog_size);
 182:SynaptiX_FDK/services/littlefs/lfs.c ****         int err = lfs->cfg->prog(lfs->cfg, pcache->block,
 183:SynaptiX_FDK/services/littlefs/lfs.c ****                 pcache->off, pcache->buffer, diff);
 184:SynaptiX_FDK/services/littlefs/lfs.c ****         LFS_ASSERT(err <= 0);
 185:SynaptiX_FDK/services/littlefs/lfs.c ****         if (err) {
 186:SynaptiX_FDK/services/littlefs/lfs.c ****             return err;
 187:SynaptiX_FDK/services/littlefs/lfs.c ****         }
 188:SynaptiX_FDK/services/littlefs/lfs.c **** 
 189:SynaptiX_FDK/services/littlefs/lfs.c ****         if (validate) {
 190:SynaptiX_FDK/services/littlefs/lfs.c ****             // check data on disk
 191:SynaptiX_FDK/services/littlefs/lfs.c ****             lfs_cache_drop(lfs, rcache);
 192:SynaptiX_FDK/services/littlefs/lfs.c ****             int res = lfs_bd_cmp(lfs,
 193:SynaptiX_FDK/services/littlefs/lfs.c ****                     NULL, rcache, diff,
 194:SynaptiX_FDK/services/littlefs/lfs.c ****                     pcache->block, pcache->off, pcache->buffer, diff);
 195:SynaptiX_FDK/services/littlefs/lfs.c ****             if (res < 0) {
 196:SynaptiX_FDK/services/littlefs/lfs.c ****                 return res;
 197:SynaptiX_FDK/services/littlefs/lfs.c ****             }
 198:SynaptiX_FDK/services/littlefs/lfs.c **** 
 199:SynaptiX_FDK/services/littlefs/lfs.c ****             if (res != LFS_CMP_EQ) {
 200:SynaptiX_FDK/services/littlefs/lfs.c ****                 return LFS_ERR_CORRUPT;
ARM GAS  C:\Users\LENOVO\AppData\Local\Temp\ccPMz3A0.s 			page 5


 201:SynaptiX_FDK/services/littlefs/lfs.c ****             }
 202:SynaptiX_FDK/services/littlefs/lfs.c ****         }
 203:SynaptiX_FDK/services/littlefs/lfs.c **** 
 204:SynaptiX_FDK/services/littlefs/lfs.c ****         lfs_cache_zero(lfs, pcache);
 205:SynaptiX_FDK/services/littlefs/lfs.c ****     }
 206:SynaptiX_FDK/services/littlefs/lfs.c **** 
 207:SynaptiX_FDK/services/littlefs/lfs.c ****     return 0;
 208:SynaptiX_FDK/services/littlefs/lfs.c **** }
 209:SynaptiX_FDK/services/littlefs/lfs.c **** #endif
 210:SynaptiX_FDK/services/littlefs/lfs.c **** 
 211:SynaptiX_FDK/services/littlefs/lfs.c **** #ifndef LFS_READONLY
 212:SynaptiX_FDK/services/littlefs/lfs.c **** static int lfs_bd_sync(lfs_t *lfs,
 213:SynaptiX_FDK/services/littlefs/lfs.c ****         lfs_cache_t *pcache, lfs_cache_t *rcache, bool validate) {
 214:SynaptiX_FDK/services/littlefs/lfs.c ****     lfs_cache_drop(lfs, rcache);
 215:SynaptiX_FDK/services/littlefs/lfs.c **** 
 216:SynaptiX_FDK/services/littlefs/lfs.c ****     int err = lfs_bd_flush(lfs, pcache, rcache, validate);
 217:SynaptiX_FDK/services/littlefs/lfs.c ****     if (err) {
 218:SynaptiX_FDK/services/littlefs/lfs.c ****         return err;
 219:SynaptiX_FDK/services/littlefs/lfs.c ****     }
 220:SynaptiX_FDK/services/littlefs/lfs.c **** 
 221:SynaptiX_FDK/services/littlefs/lfs.c ****     err = lfs->cfg->sync(lfs->cfg);
 222:SynaptiX_FDK/services/littlefs/lfs.c ****     LFS_ASSERT(err <= 0);
 223:SynaptiX_FDK/services/littlefs/lfs.c ****     return err;
 224:SynaptiX_FDK/services/littlefs/lfs.c **** }
 225:SynaptiX_FDK/services/littlefs/lfs.c **** #endif
 226:SynaptiX_FDK/services/littlefs/lfs.c **** 
 227:SynaptiX_FDK/services/littlefs/lfs.c **** #ifndef LFS_READONLY
 228:SynaptiX_FDK/services/littlefs/lfs.c **** static int lfs_bd_prog(lfs_t *lfs,
 229:SynaptiX_FDK/services/littlefs/lfs.c ****         lfs_cache_t *pcache, lfs_cache_t *rcache, bool validate,
 230:SynaptiX_FDK/services/littlefs/lfs.c ****         lfs_block_t block, lfs_off_t off,
 231:SynaptiX_FDK/services/littlefs/lfs.c ****         const void *buffer, lfs_size_t size) {
 232:SynaptiX_FDK/services/littlefs/lfs.c ****     const uint8_t *data = buffer;
 233:SynaptiX_FDK/services/littlefs/lfs.c ****     LFS_ASSERT(block == LFS_BLOCK_INLINE || block < lfs->block_count);
 234:SynaptiX_FDK/services/littlefs/lfs.c ****     LFS_ASSERT(off + size <= lfs->cfg->block_size);
 235:SynaptiX_FDK/services/littlefs/lfs.c **** 
 236:SynaptiX_FDK/services/littlefs/lfs.c ****     while (size > 0) {
 237:SynaptiX_FDK/services/littlefs/lfs.c ****         if (block == pcache->block &&
 238:SynaptiX_FDK/services/littlefs/lfs.c ****                 off >= pcache->off &&
 239:SynaptiX_FDK/services/littlefs/lfs.c ****                 off < pcache->off + lfs->cfg->cache_size) {
 240:SynaptiX_FDK/services/littlefs/lfs.c ****             // already fits in pcache?
 241:SynaptiX_FDK/services/littlefs/lfs.c ****             lfs_size_t diff = lfs_min(size,
 242:SynaptiX_FDK/services/littlefs/lfs.c ****                     lfs->cfg->cache_size - (off-pcache->off));
 243:SynaptiX_FDK/services/littlefs/lfs.c ****             memcpy(&pcache->buffer[off-pcache->off], data, diff);
 244:SynaptiX_FDK/services/littlefs/lfs.c **** 
 245:SynaptiX_FDK/services/littlefs/lfs.c ****             data += diff;
 246:SynaptiX_FDK/services/littlefs/lfs.c ****             off += diff;
 247:SynaptiX_FDK/services/littlefs/lfs.c ****             size -= diff;
 248:SynaptiX_FDK/services/littlefs/lfs.c **** 
 249:SynaptiX_FDK/services/littlefs/lfs.c ****             pcache->size = lfs_max(pcache->size, off - pcache->off);
 250:SynaptiX_FDK/services/littlefs/lfs.c ****             if (pcache->size == lfs->cfg->cache_size) {
 251:SynaptiX_FDK/services/littlefs/lfs.c ****                 // eagerly flush out pcache if we fill up
 252:SynaptiX_FDK/services/littlefs/lfs.c ****                 int err = lfs_bd_flush(lfs, pcache, rcache, validate);
 253:SynaptiX_FDK/services/littlefs/lfs.c ****                 if (err) {
 254:SynaptiX_FDK/services/littlefs/lfs.c ****                     return err;
 255:SynaptiX_FDK/services/littlefs/lfs.c ****                 }
 256:SynaptiX_FDK/services/littlefs/lfs.c ****             }
 257:SynaptiX_FDK/services/littlefs/lfs.c **** 
ARM GAS  C:\Users\LENOVO\AppData\Local\Temp\ccPMz3A0.s 			page 6


 258:SynaptiX_FDK/services/littlefs/lfs.c ****             continue;
 259:SynaptiX_FDK/services/littlefs/lfs.c ****         }
 260:SynaptiX_FDK/services/littlefs/lfs.c **** 
 261:SynaptiX_FDK/services/littlefs/lfs.c ****         // pcache must have been flushed, either by programming and
 262:SynaptiX_FDK/services/littlefs/lfs.c ****         // entire block or manually flushing the pcache
 263:SynaptiX_FDK/services/littlefs/lfs.c ****         LFS_ASSERT(pcache->block == LFS_BLOCK_NULL);
 264:SynaptiX_FDK/services/littlefs/lfs.c **** 
 265:SynaptiX_FDK/services/littlefs/lfs.c ****         // prepare pcache, first condition can no longer fail
 266:SynaptiX_FDK/services/littlefs/lfs.c ****         pcache->block = block;
 267:SynaptiX_FDK/services/littlefs/lfs.c ****         pcache->off = lfs_aligndown(off, lfs->cfg->prog_size);
 268:SynaptiX_FDK/services/littlefs/lfs.c ****         pcache->size = 0;
 269:SynaptiX_FDK/services/littlefs/lfs.c ****     }
 270:SynaptiX_FDK/services/littlefs/lfs.c **** 
 271:SynaptiX_FDK/services/littlefs/lfs.c ****     return 0;
 272:SynaptiX_FDK/services/littlefs/lfs.c **** }
 273:SynaptiX_FDK/services/littlefs/lfs.c **** #endif
 274:SynaptiX_FDK/services/littlefs/lfs.c **** 
 275:SynaptiX_FDK/services/littlefs/lfs.c **** #ifndef LFS_READONLY
 276:SynaptiX_FDK/services/littlefs/lfs.c **** static int lfs_bd_erase(lfs_t *lfs, lfs_block_t block) {
 277:SynaptiX_FDK/services/littlefs/lfs.c ****     LFS_ASSERT(block < lfs->block_count);
 278:SynaptiX_FDK/services/littlefs/lfs.c ****     int err = lfs->cfg->erase(lfs->cfg, block);
 279:SynaptiX_FDK/services/littlefs/lfs.c ****     LFS_ASSERT(err <= 0);
 280:SynaptiX_FDK/services/littlefs/lfs.c ****     return err;
 281:SynaptiX_FDK/services/littlefs/lfs.c **** }
 282:SynaptiX_FDK/services/littlefs/lfs.c **** #endif
 283:SynaptiX_FDK/services/littlefs/lfs.c **** 
 284:SynaptiX_FDK/services/littlefs/lfs.c **** 
 285:SynaptiX_FDK/services/littlefs/lfs.c **** /// Small type-level utilities ///
 286:SynaptiX_FDK/services/littlefs/lfs.c **** 
 287:SynaptiX_FDK/services/littlefs/lfs.c **** // some operations on paths
 288:SynaptiX_FDK/services/littlefs/lfs.c **** static inline lfs_size_t lfs_path_namelen(const char *path) {
 289:SynaptiX_FDK/services/littlefs/lfs.c ****     return strcspn(path, "/");
 290:SynaptiX_FDK/services/littlefs/lfs.c **** }
 291:SynaptiX_FDK/services/littlefs/lfs.c **** 
 292:SynaptiX_FDK/services/littlefs/lfs.c **** static inline bool lfs_path_islast(const char *path) {
 293:SynaptiX_FDK/services/littlefs/lfs.c ****     lfs_size_t namelen = lfs_path_namelen(path);
 294:SynaptiX_FDK/services/littlefs/lfs.c ****     return path[namelen + strspn(path + namelen, "/")] == '\0';
 295:SynaptiX_FDK/services/littlefs/lfs.c **** }
 296:SynaptiX_FDK/services/littlefs/lfs.c **** 
 297:SynaptiX_FDK/services/littlefs/lfs.c **** static inline bool lfs_path_isdir(const char *path) {
 298:SynaptiX_FDK/services/littlefs/lfs.c ****     return path[lfs_path_namelen(path)] != '\0';
 299:SynaptiX_FDK/services/littlefs/lfs.c **** }
 300:SynaptiX_FDK/services/littlefs/lfs.c **** 
 301:SynaptiX_FDK/services/littlefs/lfs.c **** // operations on block pairs
 302:SynaptiX_FDK/services/littlefs/lfs.c **** static inline void lfs_pair_swap(lfs_block_t pair[2]) {
 303:SynaptiX_FDK/services/littlefs/lfs.c ****     lfs_block_t t = pair[0];
 304:SynaptiX_FDK/services/littlefs/lfs.c ****     pair[0] = pair[1];
 305:SynaptiX_FDK/services/littlefs/lfs.c ****     pair[1] = t;
 306:SynaptiX_FDK/services/littlefs/lfs.c **** }
 307:SynaptiX_FDK/services/littlefs/lfs.c **** 
 308:SynaptiX_FDK/services/littlefs/lfs.c **** static inline bool lfs_pair_isnull(const lfs_block_t pair[2]) {
 309:SynaptiX_FDK/services/littlefs/lfs.c ****     return pair[0] == LFS_BLOCK_NULL || pair[1] == LFS_BLOCK_NULL;
 310:SynaptiX_FDK/services/littlefs/lfs.c **** }
 311:SynaptiX_FDK/services/littlefs/lfs.c **** 
 312:SynaptiX_FDK/services/littlefs/lfs.c **** static inline int lfs_pair_cmp(
 313:SynaptiX_FDK/services/littlefs/lfs.c ****         const lfs_block_t paira[2],
 314:SynaptiX_FDK/services/littlefs/lfs.c ****         const lfs_block_t pairb[2]) {
ARM GAS  C:\Users\LENOVO\AppData\Local\Temp\ccPMz3A0.s 			page 7


 315:SynaptiX_FDK/services/littlefs/lfs.c ****     return !(paira[0] == pairb[0] || paira[1] == pairb[1] ||
 316:SynaptiX_FDK/services/littlefs/lfs.c ****              paira[0] == pairb[1] || paira[1] == pairb[0]);
 317:SynaptiX_FDK/services/littlefs/lfs.c **** }
 318:SynaptiX_FDK/services/littlefs/lfs.c **** 
 319:SynaptiX_FDK/services/littlefs/lfs.c **** static inline bool lfs_pair_issync(
 320:SynaptiX_FDK/services/littlefs/lfs.c ****         const lfs_block_t paira[2],
 321:SynaptiX_FDK/services/littlefs/lfs.c ****         const lfs_block_t pairb[2]) {
  30              		.loc 1 321 37 view -0
  31              		.cfi_startproc
  32              		@ args = 0, pretend = 0, frame = 0
  33              		@ frame_needed = 0, uses_anonymous_args = 0
  34              		@ link register save eliminated.
 322:SynaptiX_FDK/services/littlefs/lfs.c ****     return (paira[0] == pairb[0] && paira[1] == pairb[1]) ||
  35              		.loc 1 322 5 view .LVU1
  36              		.loc 1 322 18 is_stmt 0 view .LVU2
  37 0000 0368     		ldr	r3, [r0]
  38              		.loc 1 322 30 view .LVU3
  39 0002 0A68     		ldr	r2, [r1]
  40              		.loc 1 322 59 view .LVU4
  41 0004 9342     		cmp	r3, r2
  42 0006 04D0     		beq	.L16
 323:SynaptiX_FDK/services/littlefs/lfs.c ****            (paira[0] == pairb[1] && paira[1] == pairb[0]);
  43              		.loc 1 323 30 view .LVU5
  44 0008 4968     		ldr	r1, [r1, #4]
  45              	.LVL1:
 322:SynaptiX_FDK/services/littlefs/lfs.c ****     return (paira[0] == pairb[0] && paira[1] == pairb[1]) ||
  46              		.loc 1 322 59 discriminator 4 view .LVU6
  47 000a 8B42     		cmp	r3, r1
  48 000c 15D0     		beq	.L17
 322:SynaptiX_FDK/services/littlefs/lfs.c ****     return (paira[0] == pairb[0] && paira[1] == pairb[1]) ||
  49              		.loc 1 322 59 discriminator 5 view .LVU7
  50 000e 0020     		movs	r0, #0
  51              	.LVL2:
 322:SynaptiX_FDK/services/littlefs/lfs.c ****     return (paira[0] == pairb[0] && paira[1] == pairb[1]) ||
  52              		.loc 1 322 59 discriminator 5 view .LVU8
  53 0010 7047     		bx	lr
  54              	.LVL3:
  55              	.L16:
 321:SynaptiX_FDK/services/littlefs/lfs.c ****     return (paira[0] == pairb[0] && paira[1] == pairb[1]) ||
  56              		.loc 1 321 37 view .LVU9
  57 0012 30B4     		push	{r4, r5}
  58              	.LCFI0:
  59              		.cfi_def_cfa_offset 8
  60              		.cfi_offset 4, -8
  61              		.cfi_offset 5, -4
 322:SynaptiX_FDK/services/littlefs/lfs.c ****     return (paira[0] == pairb[0] && paira[1] == pairb[1]) ||
  62              		.loc 1 322 34 discriminator 1 view .LVU10
  63 0014 4468     		ldr	r4, [r0, #4]
  64 0016 4D68     		ldr	r5, [r1, #4]
  65 0018 AC42     		cmp	r4, r5
  66 001a 0AD0     		beq	.L4
  67              		.loc 1 323 30 view .LVU11
  68 001c 4968     		ldr	r1, [r1, #4]
  69              	.LVL4:
 322:SynaptiX_FDK/services/littlefs/lfs.c ****     return (paira[0] == pairb[0] && paira[1] == pairb[1]) ||
  70              		.loc 1 322 59 discriminator 4 view .LVU12
  71 001e 8B42     		cmp	r3, r1
ARM GAS  C:\Users\LENOVO\AppData\Local\Temp\ccPMz3A0.s 			page 8


  72 0020 02D0     		beq	.L18
 322:SynaptiX_FDK/services/littlefs/lfs.c ****     return (paira[0] == pairb[0] && paira[1] == pairb[1]) ||
  73              		.loc 1 322 59 discriminator 5 view .LVU13
  74 0022 0020     		movs	r0, #0
  75              	.LVL5:
  76              	.L3:
 324:SynaptiX_FDK/services/littlefs/lfs.c **** }
  77              		.loc 1 324 1 view .LVU14
  78 0024 30BC     		pop	{r4, r5}
  79              	.LCFI1:
  80              		.cfi_remember_state
  81              		.cfi_restore 5
  82              		.cfi_restore 4
  83              		.cfi_def_cfa_offset 0
  84 0026 7047     		bx	lr
  85              	.LVL6:
  86              	.L18:
  87              	.LCFI2:
  88              		.cfi_restore_state
 323:SynaptiX_FDK/services/littlefs/lfs.c ****            (paira[0] == pairb[1] && paira[1] == pairb[0]);
  89              		.loc 1 323 42 view .LVU15
  90 0028 4368     		ldr	r3, [r0, #4]
 323:SynaptiX_FDK/services/littlefs/lfs.c ****            (paira[0] == pairb[1] && paira[1] == pairb[0]);
  91              		.loc 1 323 34 view .LVU16
  92 002a 9A42     		cmp	r2, r3
  93 002c 03D0     		beq	.L6
 322:SynaptiX_FDK/services/littlefs/lfs.c ****            (paira[0] == pairb[1] && paira[1] == pairb[0]);
  94              		.loc 1 322 59 discriminator 5 view .LVU17
  95 002e 0020     		movs	r0, #0
  96              	.LVL7:
 322:SynaptiX_FDK/services/littlefs/lfs.c ****            (paira[0] == pairb[1] && paira[1] == pairb[0]);
  97              		.loc 1 322 59 discriminator 5 view .LVU18
  98 0030 F8E7     		b	.L3
  99              	.LVL8:
 100              	.L4:
 322:SynaptiX_FDK/services/littlefs/lfs.c ****            (paira[0] == pairb[1] && paira[1] == pairb[0]);
 101              		.loc 1 322 59 discriminator 3 view .LVU19
 102 0032 0120     		movs	r0, #1
 103              	.LVL9:
 322:SynaptiX_FDK/services/littlefs/lfs.c ****            (paira[0] == pairb[1] && paira[1] == pairb[0]);
 104              		.loc 1 322 59 discriminator 3 view .LVU20
 105 0034 F6E7     		b	.L3
 106              	.LVL10:
 107              	.L6:
 322:SynaptiX_FDK/services/littlefs/lfs.c ****            (paira[0] == pairb[1] && paira[1] == pairb[0]);
 108              		.loc 1 322 59 discriminator 3 view .LVU21
 109 0036 0120     		movs	r0, #1
 110              	.LVL11:
 322:SynaptiX_FDK/services/littlefs/lfs.c ****            (paira[0] == pairb[1] && paira[1] == pairb[0]);
 111              		.loc 1 322 59 discriminator 3 view .LVU22
 112 0038 F4E7     		b	.L3
 113              	.LVL12:
 114              	.L17:
 115              	.LCFI3:
 116              		.cfi_def_cfa_offset 0
 117              		.cfi_restore 4
 118              		.cfi_restore 5
ARM GAS  C:\Users\LENOVO\AppData\Local\Temp\ccPMz3A0.s 			page 9


 323:SynaptiX_FDK/services/littlefs/lfs.c **** }
 119              		.loc 1 323 42 view .LVU23
 120 003a 4368     		ldr	r3, [r0, #4]
 323:SynaptiX_FDK/services/littlefs/lfs.c **** }
 121              		.loc 1 323 34 view .LVU24
 122 003c 9A42     		cmp	r2, r3
 123 003e 01D0     		beq	.L11
 322:SynaptiX_FDK/services/littlefs/lfs.c ****            (paira[0] == pairb[1] && paira[1] == pairb[0]);
 124              		.loc 1 322 59 discriminator 5 view .LVU25
 125 0040 0020     		movs	r0, #0
 126              	.LVL13:
 322:SynaptiX_FDK/services/littlefs/lfs.c ****            (paira[0] == pairb[1] && paira[1] == pairb[0]);
 127              		.loc 1 322 59 discriminator 5 view .LVU26
 128 0042 7047     		bx	lr
 129              	.LVL14:
 130              	.L11:
 322:SynaptiX_FDK/services/littlefs/lfs.c ****            (paira[0] == pairb[1] && paira[1] == pairb[0]);
 131              		.loc 1 322 59 discriminator 3 view .LVU27
 132 0044 0120     		movs	r0, #1
 133              	.LVL15:
 134              		.loc 1 324 1 view .LVU28
 135 0046 7047     		bx	lr
 136              		.cfi_endproc
 137              	.LFE32:
 139              		.section	.text.lfs_gstate_hasmovehere,"ax",%progbits
 140              		.align	1
 141              		.syntax unified
 142              		.thumb
 143              		.thumb_func
 145              	lfs_gstate_hasmovehere:
 146              	.LVL16:
 147              	.LFB51:
 325:SynaptiX_FDK/services/littlefs/lfs.c **** 
 326:SynaptiX_FDK/services/littlefs/lfs.c **** static inline void lfs_pair_fromle32(lfs_block_t pair[2]) {
 327:SynaptiX_FDK/services/littlefs/lfs.c ****     pair[0] = lfs_fromle32(pair[0]);
 328:SynaptiX_FDK/services/littlefs/lfs.c ****     pair[1] = lfs_fromle32(pair[1]);
 329:SynaptiX_FDK/services/littlefs/lfs.c **** }
 330:SynaptiX_FDK/services/littlefs/lfs.c **** 
 331:SynaptiX_FDK/services/littlefs/lfs.c **** #ifndef LFS_READONLY
 332:SynaptiX_FDK/services/littlefs/lfs.c **** static inline void lfs_pair_tole32(lfs_block_t pair[2]) {
 333:SynaptiX_FDK/services/littlefs/lfs.c ****     pair[0] = lfs_tole32(pair[0]);
 334:SynaptiX_FDK/services/littlefs/lfs.c ****     pair[1] = lfs_tole32(pair[1]);
 335:SynaptiX_FDK/services/littlefs/lfs.c **** }
 336:SynaptiX_FDK/services/littlefs/lfs.c **** #endif
 337:SynaptiX_FDK/services/littlefs/lfs.c **** 
 338:SynaptiX_FDK/services/littlefs/lfs.c **** // operations on 32-bit entry tags
 339:SynaptiX_FDK/services/littlefs/lfs.c **** typedef uint32_t lfs_tag_t;
 340:SynaptiX_FDK/services/littlefs/lfs.c **** typedef int32_t lfs_stag_t;
 341:SynaptiX_FDK/services/littlefs/lfs.c **** 
 342:SynaptiX_FDK/services/littlefs/lfs.c **** #define LFS_MKTAG(type, id, size) \
 343:SynaptiX_FDK/services/littlefs/lfs.c ****     (((lfs_tag_t)(type) << 20) | ((lfs_tag_t)(id) << 10) | (lfs_tag_t)(size))
 344:SynaptiX_FDK/services/littlefs/lfs.c **** 
 345:SynaptiX_FDK/services/littlefs/lfs.c **** #define LFS_MKTAG_IF(cond, type, id, size) \
 346:SynaptiX_FDK/services/littlefs/lfs.c ****     ((cond) ? LFS_MKTAG(type, id, size) : LFS_MKTAG(LFS_FROM_NOOP, 0, 0))
 347:SynaptiX_FDK/services/littlefs/lfs.c **** 
 348:SynaptiX_FDK/services/littlefs/lfs.c **** #define LFS_MKTAG_IF_ELSE(cond, type1, id1, size1, type2, id2, size2) \
 349:SynaptiX_FDK/services/littlefs/lfs.c ****     ((cond) ? LFS_MKTAG(type1, id1, size1) : LFS_MKTAG(type2, id2, size2))
ARM GAS  C:\Users\LENOVO\AppData\Local\Temp\ccPMz3A0.s 			page 10


 350:SynaptiX_FDK/services/littlefs/lfs.c **** 
 351:SynaptiX_FDK/services/littlefs/lfs.c **** static inline bool lfs_tag_isvalid(lfs_tag_t tag) {
 352:SynaptiX_FDK/services/littlefs/lfs.c ****     return !(tag & 0x80000000);
 353:SynaptiX_FDK/services/littlefs/lfs.c **** }
 354:SynaptiX_FDK/services/littlefs/lfs.c **** 
 355:SynaptiX_FDK/services/littlefs/lfs.c **** static inline bool lfs_tag_isdelete(lfs_tag_t tag) {
 356:SynaptiX_FDK/services/littlefs/lfs.c ****     return ((int32_t)(tag << 22) >> 22) == -1;
 357:SynaptiX_FDK/services/littlefs/lfs.c **** }
 358:SynaptiX_FDK/services/littlefs/lfs.c **** 
 359:SynaptiX_FDK/services/littlefs/lfs.c **** static inline uint16_t lfs_tag_type1(lfs_tag_t tag) {
 360:SynaptiX_FDK/services/littlefs/lfs.c ****     return (tag & 0x70000000) >> 20;
 361:SynaptiX_FDK/services/littlefs/lfs.c **** }
 362:SynaptiX_FDK/services/littlefs/lfs.c **** 
 363:SynaptiX_FDK/services/littlefs/lfs.c **** static inline uint16_t lfs_tag_type2(lfs_tag_t tag) {
 364:SynaptiX_FDK/services/littlefs/lfs.c ****     return (tag & 0x78000000) >> 20;
 365:SynaptiX_FDK/services/littlefs/lfs.c **** }
 366:SynaptiX_FDK/services/littlefs/lfs.c **** 
 367:SynaptiX_FDK/services/littlefs/lfs.c **** static inline uint16_t lfs_tag_type3(lfs_tag_t tag) {
 368:SynaptiX_FDK/services/littlefs/lfs.c ****     return (tag & 0x7ff00000) >> 20;
 369:SynaptiX_FDK/services/littlefs/lfs.c **** }
 370:SynaptiX_FDK/services/littlefs/lfs.c **** 
 371:SynaptiX_FDK/services/littlefs/lfs.c **** static inline uint8_t lfs_tag_chunk(lfs_tag_t tag) {
 372:SynaptiX_FDK/services/littlefs/lfs.c ****     return (tag & 0x0ff00000) >> 20;
 373:SynaptiX_FDK/services/littlefs/lfs.c **** }
 374:SynaptiX_FDK/services/littlefs/lfs.c **** 
 375:SynaptiX_FDK/services/littlefs/lfs.c **** static inline int8_t lfs_tag_splice(lfs_tag_t tag) {
 376:SynaptiX_FDK/services/littlefs/lfs.c ****     return (int8_t)lfs_tag_chunk(tag);
 377:SynaptiX_FDK/services/littlefs/lfs.c **** }
 378:SynaptiX_FDK/services/littlefs/lfs.c **** 
 379:SynaptiX_FDK/services/littlefs/lfs.c **** static inline uint16_t lfs_tag_id(lfs_tag_t tag) {
 380:SynaptiX_FDK/services/littlefs/lfs.c ****     return (tag & 0x000ffc00) >> 10;
 381:SynaptiX_FDK/services/littlefs/lfs.c **** }
 382:SynaptiX_FDK/services/littlefs/lfs.c **** 
 383:SynaptiX_FDK/services/littlefs/lfs.c **** static inline lfs_size_t lfs_tag_size(lfs_tag_t tag) {
 384:SynaptiX_FDK/services/littlefs/lfs.c ****     return tag & 0x000003ff;
 385:SynaptiX_FDK/services/littlefs/lfs.c **** }
 386:SynaptiX_FDK/services/littlefs/lfs.c **** 
 387:SynaptiX_FDK/services/littlefs/lfs.c **** static inline lfs_size_t lfs_tag_dsize(lfs_tag_t tag) {
 388:SynaptiX_FDK/services/littlefs/lfs.c ****     return sizeof(tag) + lfs_tag_size(tag + lfs_tag_isdelete(tag));
 389:SynaptiX_FDK/services/littlefs/lfs.c **** }
 390:SynaptiX_FDK/services/littlefs/lfs.c **** 
 391:SynaptiX_FDK/services/littlefs/lfs.c **** // operations on attributes in attribute lists
 392:SynaptiX_FDK/services/littlefs/lfs.c **** struct lfs_mattr {
 393:SynaptiX_FDK/services/littlefs/lfs.c ****     lfs_tag_t tag;
 394:SynaptiX_FDK/services/littlefs/lfs.c ****     const void *buffer;
 395:SynaptiX_FDK/services/littlefs/lfs.c **** };
 396:SynaptiX_FDK/services/littlefs/lfs.c **** 
 397:SynaptiX_FDK/services/littlefs/lfs.c **** struct lfs_diskoff {
 398:SynaptiX_FDK/services/littlefs/lfs.c ****     lfs_block_t block;
 399:SynaptiX_FDK/services/littlefs/lfs.c ****     lfs_off_t off;
 400:SynaptiX_FDK/services/littlefs/lfs.c **** };
 401:SynaptiX_FDK/services/littlefs/lfs.c **** 
 402:SynaptiX_FDK/services/littlefs/lfs.c **** #define LFS_MKATTRS(...) \
 403:SynaptiX_FDK/services/littlefs/lfs.c ****     (struct lfs_mattr[]){__VA_ARGS__}, \
 404:SynaptiX_FDK/services/littlefs/lfs.c ****     sizeof((struct lfs_mattr[]){__VA_ARGS__}) / sizeof(struct lfs_mattr)
 405:SynaptiX_FDK/services/littlefs/lfs.c **** 
 406:SynaptiX_FDK/services/littlefs/lfs.c **** // operations on global state
ARM GAS  C:\Users\LENOVO\AppData\Local\Temp\ccPMz3A0.s 			page 11


 407:SynaptiX_FDK/services/littlefs/lfs.c **** static inline void lfs_gstate_xor(lfs_gstate_t *a, const lfs_gstate_t *b) {
 408:SynaptiX_FDK/services/littlefs/lfs.c ****     a->tag ^= b->tag;
 409:SynaptiX_FDK/services/littlefs/lfs.c ****     a->pair[0] ^= b->pair[0];
 410:SynaptiX_FDK/services/littlefs/lfs.c ****     a->pair[1] ^= b->pair[1];
 411:SynaptiX_FDK/services/littlefs/lfs.c **** }
 412:SynaptiX_FDK/services/littlefs/lfs.c **** 
 413:SynaptiX_FDK/services/littlefs/lfs.c **** static inline bool lfs_gstate_iszero(const lfs_gstate_t *a) {
 414:SynaptiX_FDK/services/littlefs/lfs.c ****     return a->tag == 0
 415:SynaptiX_FDK/services/littlefs/lfs.c ****             && a->pair[0] == 0
 416:SynaptiX_FDK/services/littlefs/lfs.c ****             && a->pair[1] == 0;
 417:SynaptiX_FDK/services/littlefs/lfs.c **** }
 418:SynaptiX_FDK/services/littlefs/lfs.c **** 
 419:SynaptiX_FDK/services/littlefs/lfs.c **** #ifndef LFS_READONLY
 420:SynaptiX_FDK/services/littlefs/lfs.c **** static inline bool lfs_gstate_hasorphans(const lfs_gstate_t *a) {
 421:SynaptiX_FDK/services/littlefs/lfs.c ****     return lfs_tag_size(a->tag);
 422:SynaptiX_FDK/services/littlefs/lfs.c **** }
 423:SynaptiX_FDK/services/littlefs/lfs.c **** 
 424:SynaptiX_FDK/services/littlefs/lfs.c **** static inline uint8_t lfs_gstate_getorphans(const lfs_gstate_t *a) {
 425:SynaptiX_FDK/services/littlefs/lfs.c ****     return lfs_tag_size(a->tag) & 0x1ff;
 426:SynaptiX_FDK/services/littlefs/lfs.c **** }
 427:SynaptiX_FDK/services/littlefs/lfs.c **** 
 428:SynaptiX_FDK/services/littlefs/lfs.c **** static inline bool lfs_gstate_hasmove(const lfs_gstate_t *a) {
 429:SynaptiX_FDK/services/littlefs/lfs.c ****     return lfs_tag_type1(a->tag);
 430:SynaptiX_FDK/services/littlefs/lfs.c **** }
 431:SynaptiX_FDK/services/littlefs/lfs.c **** #endif
 432:SynaptiX_FDK/services/littlefs/lfs.c **** 
 433:SynaptiX_FDK/services/littlefs/lfs.c **** static inline bool lfs_gstate_needssuperblock(const lfs_gstate_t *a) {
 434:SynaptiX_FDK/services/littlefs/lfs.c ****     return lfs_tag_size(a->tag) >> 9;
 435:SynaptiX_FDK/services/littlefs/lfs.c **** }
 436:SynaptiX_FDK/services/littlefs/lfs.c **** 
 437:SynaptiX_FDK/services/littlefs/lfs.c **** static inline bool lfs_gstate_hasmovehere(const lfs_gstate_t *a,
 438:SynaptiX_FDK/services/littlefs/lfs.c ****         const lfs_block_t *pair) {
 148              		.loc 1 438 34 is_stmt 1 view -0
 149              		.cfi_startproc
 150              		@ args = 0, pretend = 0, frame = 0
 151              		@ frame_needed = 0, uses_anonymous_args = 0
 152              		@ link register save eliminated.
 439:SynaptiX_FDK/services/littlefs/lfs.c ****     return lfs_tag_type1(a->tag) && lfs_pair_cmp(a->pair, pair) == 0;
 153              		.loc 1 439 5 view .LVU30
 154              		.loc 1 439 27 is_stmt 0 view .LVU31
 155 0000 0368     		ldr	r3, [r0]
 156              	.LVL17:
 157              	.LBB915:
 158              	.LBI915:
 359:SynaptiX_FDK/services/littlefs/lfs.c ****     return (tag & 0x70000000) >> 20;
 159              		.loc 1 359 24 is_stmt 1 view .LVU32
 160              	.LBB916:
 360:SynaptiX_FDK/services/littlefs/lfs.c **** }
 161              		.loc 1 360 5 view .LVU33
 360:SynaptiX_FDK/services/littlefs/lfs.c **** }
 162              		.loc 1 360 31 is_stmt 0 view .LVU34
 163 0002 1B0D     		lsrs	r3, r3, #20
 164              	.LVL18:
 360:SynaptiX_FDK/services/littlefs/lfs.c **** }
 165              		.loc 1 360 31 view .LVU35
 166              	.LBE916:
 167              	.LBE915:
ARM GAS  C:\Users\LENOVO\AppData\Local\Temp\ccPMz3A0.s 			page 12


 168              		.loc 1 439 34 discriminator 1 view .LVU36
 169 0004 13F4E06F 		tst	r3, #1792
 170 0008 0FD0     		beq	.L21
 171              	.LVL19:
 172              	.LBB917:
 173              	.LBI917:
 312:SynaptiX_FDK/services/littlefs/lfs.c ****         const lfs_block_t paira[2],
 174              		.loc 1 312 19 is_stmt 1 view .LVU37
 175              	.LBB918:
 315:SynaptiX_FDK/services/littlefs/lfs.c ****              paira[0] == pairb[1] || paira[1] == pairb[0]);
 176              		.loc 1 315 5 view .LVU38
 315:SynaptiX_FDK/services/littlefs/lfs.c ****              paira[0] == pairb[1] || paira[1] == pairb[0]);
 177              		.loc 1 315 19 is_stmt 0 view .LVU39
 178 000a 4368     		ldr	r3, [r0, #4]
 315:SynaptiX_FDK/services/littlefs/lfs.c ****              paira[0] == pairb[1] || paira[1] == pairb[0]);
 179              		.loc 1 315 31 view .LVU40
 180 000c 0A68     		ldr	r2, [r1]
 315:SynaptiX_FDK/services/littlefs/lfs.c ****              paira[0] == pairb[1] || paira[1] == pairb[0]);
 181              		.loc 1 315 12 view .LVU41
 182 000e 9342     		cmp	r3, r2
 183 0010 0DD0     		beq	.L22
 315:SynaptiX_FDK/services/littlefs/lfs.c ****              paira[0] == pairb[1] || paira[1] == pairb[0]);
 184              		.loc 1 315 43 discriminator 1 view .LVU42
 185 0012 8068     		ldr	r0, [r0, #8]
 186              	.LVL20:
 315:SynaptiX_FDK/services/littlefs/lfs.c ****              paira[0] == pairb[1] || paira[1] == pairb[0]);
 187              		.loc 1 315 55 discriminator 1 view .LVU43
 188 0014 4968     		ldr	r1, [r1, #4]
 189              	.LVL21:
 315:SynaptiX_FDK/services/littlefs/lfs.c ****              paira[0] == pairb[1] || paira[1] == pairb[0]);
 190              		.loc 1 315 35 discriminator 1 view .LVU44
 191 0016 8842     		cmp	r0, r1
 192 0018 0BD0     		beq	.L23
 315:SynaptiX_FDK/services/littlefs/lfs.c ****              paira[0] == pairb[1] || paira[1] == pairb[0]);
 193              		.loc 1 315 59 discriminator 3 view .LVU45
 194 001a 8B42     		cmp	r3, r1
 195 001c 0BD0     		beq	.L24
 315:SynaptiX_FDK/services/littlefs/lfs.c ****              paira[0] == pairb[1] || paira[1] == pairb[0]);
 196              		.loc 1 315 12 discriminator 5 view .LVU46
 197 001e 8242     		cmp	r2, r0
 198 0020 01D0     		beq	.L26
 199              	.LBE918:
 200              	.LBE917:
 201              		.loc 1 439 34 discriminator 4 view .LVU47
 202 0022 0020     		movs	r0, #0
 203              	.LVL22:
 440:SynaptiX_FDK/services/littlefs/lfs.c **** }
 204              		.loc 1 440 1 view .LVU48
 205 0024 7047     		bx	lr
 206              	.LVL23:
 207              	.L26:
 439:SynaptiX_FDK/services/littlefs/lfs.c **** }
 208              		.loc 1 439 34 discriminator 3 view .LVU49
 209 0026 0120     		movs	r0, #1
 210 0028 7047     		bx	lr
 211              	.LVL24:
 212              	.L21:
ARM GAS  C:\Users\LENOVO\AppData\Local\Temp\ccPMz3A0.s 			page 13


 439:SynaptiX_FDK/services/littlefs/lfs.c **** }
 213              		.loc 1 439 34 discriminator 4 view .LVU50
 214 002a 0020     		movs	r0, #0
 215              	.LVL25:
 439:SynaptiX_FDK/services/littlefs/lfs.c **** }
 216              		.loc 1 439 34 discriminator 4 view .LVU51
 217 002c 7047     		bx	lr
 218              	.LVL26:
 219              	.L22:
 439:SynaptiX_FDK/services/littlefs/lfs.c **** }
 220              		.loc 1 439 34 discriminator 3 view .LVU52
 221 002e 0120     		movs	r0, #1
 222              	.LVL27:
 439:SynaptiX_FDK/services/littlefs/lfs.c **** }
 223              		.loc 1 439 34 discriminator 3 view .LVU53
 224 0030 7047     		bx	lr
 225              	.LVL28:
 226              	.L23:
 439:SynaptiX_FDK/services/littlefs/lfs.c **** }
 227              		.loc 1 439 34 discriminator 3 view .LVU54
 228 0032 0120     		movs	r0, #1
 229 0034 7047     		bx	lr
 230              	.L24:
 231 0036 0120     		movs	r0, #1
 232 0038 7047     		bx	lr
 233              		.cfi_endproc
 234              	.LFE51:
 236              		.section	.text.lfs_mlist_isopen,"ax",%progbits
 237              		.align	1
 238              		.syntax unified
 239              		.thumb
 240              		.thumb_func
 242              	lfs_mlist_isopen:
 243              	.LVL29:
 244              	.LFB60:
 441:SynaptiX_FDK/services/littlefs/lfs.c **** 
 442:SynaptiX_FDK/services/littlefs/lfs.c **** static inline void lfs_gstate_fromle32(lfs_gstate_t *a) {
 443:SynaptiX_FDK/services/littlefs/lfs.c ****     a->tag     = lfs_fromle32(a->tag);
 444:SynaptiX_FDK/services/littlefs/lfs.c ****     a->pair[0] = lfs_fromle32(a->pair[0]);
 445:SynaptiX_FDK/services/littlefs/lfs.c ****     a->pair[1] = lfs_fromle32(a->pair[1]);
 446:SynaptiX_FDK/services/littlefs/lfs.c **** }
 447:SynaptiX_FDK/services/littlefs/lfs.c **** 
 448:SynaptiX_FDK/services/littlefs/lfs.c **** #ifndef LFS_READONLY
 449:SynaptiX_FDK/services/littlefs/lfs.c **** static inline void lfs_gstate_tole32(lfs_gstate_t *a) {
 450:SynaptiX_FDK/services/littlefs/lfs.c ****     a->tag     = lfs_tole32(a->tag);
 451:SynaptiX_FDK/services/littlefs/lfs.c ****     a->pair[0] = lfs_tole32(a->pair[0]);
 452:SynaptiX_FDK/services/littlefs/lfs.c ****     a->pair[1] = lfs_tole32(a->pair[1]);
 453:SynaptiX_FDK/services/littlefs/lfs.c **** }
 454:SynaptiX_FDK/services/littlefs/lfs.c **** #endif
 455:SynaptiX_FDK/services/littlefs/lfs.c **** 
 456:SynaptiX_FDK/services/littlefs/lfs.c **** // operations on forward-CRCs used to track erased state
 457:SynaptiX_FDK/services/littlefs/lfs.c **** struct lfs_fcrc {
 458:SynaptiX_FDK/services/littlefs/lfs.c ****     lfs_size_t size;
 459:SynaptiX_FDK/services/littlefs/lfs.c ****     uint32_t crc;
 460:SynaptiX_FDK/services/littlefs/lfs.c **** };
 461:SynaptiX_FDK/services/littlefs/lfs.c **** 
 462:SynaptiX_FDK/services/littlefs/lfs.c **** static void lfs_fcrc_fromle32(struct lfs_fcrc *fcrc) {
ARM GAS  C:\Users\LENOVO\AppData\Local\Temp\ccPMz3A0.s 			page 14


 463:SynaptiX_FDK/services/littlefs/lfs.c ****     fcrc->size = lfs_fromle32(fcrc->size);
 464:SynaptiX_FDK/services/littlefs/lfs.c ****     fcrc->crc = lfs_fromle32(fcrc->crc);
 465:SynaptiX_FDK/services/littlefs/lfs.c **** }
 466:SynaptiX_FDK/services/littlefs/lfs.c **** 
 467:SynaptiX_FDK/services/littlefs/lfs.c **** #ifndef LFS_READONLY
 468:SynaptiX_FDK/services/littlefs/lfs.c **** static void lfs_fcrc_tole32(struct lfs_fcrc *fcrc) {
 469:SynaptiX_FDK/services/littlefs/lfs.c ****     fcrc->size = lfs_tole32(fcrc->size);
 470:SynaptiX_FDK/services/littlefs/lfs.c ****     fcrc->crc = lfs_tole32(fcrc->crc);
 471:SynaptiX_FDK/services/littlefs/lfs.c **** }
 472:SynaptiX_FDK/services/littlefs/lfs.c **** #endif
 473:SynaptiX_FDK/services/littlefs/lfs.c **** 
 474:SynaptiX_FDK/services/littlefs/lfs.c **** // other endianness operations
 475:SynaptiX_FDK/services/littlefs/lfs.c **** static void lfs_ctz_fromle32(struct lfs_ctz *ctz) {
 476:SynaptiX_FDK/services/littlefs/lfs.c ****     ctz->head = lfs_fromle32(ctz->head);
 477:SynaptiX_FDK/services/littlefs/lfs.c ****     ctz->size = lfs_fromle32(ctz->size);
 478:SynaptiX_FDK/services/littlefs/lfs.c **** }
 479:SynaptiX_FDK/services/littlefs/lfs.c **** 
 480:SynaptiX_FDK/services/littlefs/lfs.c **** #ifndef LFS_READONLY
 481:SynaptiX_FDK/services/littlefs/lfs.c **** static void lfs_ctz_tole32(struct lfs_ctz *ctz) {
 482:SynaptiX_FDK/services/littlefs/lfs.c ****     ctz->head = lfs_tole32(ctz->head);
 483:SynaptiX_FDK/services/littlefs/lfs.c ****     ctz->size = lfs_tole32(ctz->size);
 484:SynaptiX_FDK/services/littlefs/lfs.c **** }
 485:SynaptiX_FDK/services/littlefs/lfs.c **** #endif
 486:SynaptiX_FDK/services/littlefs/lfs.c **** 
 487:SynaptiX_FDK/services/littlefs/lfs.c **** static inline void lfs_superblock_fromle32(lfs_superblock_t *superblock) {
 488:SynaptiX_FDK/services/littlefs/lfs.c ****     superblock->version     = lfs_fromle32(superblock->version);
 489:SynaptiX_FDK/services/littlefs/lfs.c ****     superblock->block_size  = lfs_fromle32(superblock->block_size);
 490:SynaptiX_FDK/services/littlefs/lfs.c ****     superblock->block_count = lfs_fromle32(superblock->block_count);
 491:SynaptiX_FDK/services/littlefs/lfs.c ****     superblock->name_max    = lfs_fromle32(superblock->name_max);
 492:SynaptiX_FDK/services/littlefs/lfs.c ****     superblock->file_max    = lfs_fromle32(superblock->file_max);
 493:SynaptiX_FDK/services/littlefs/lfs.c ****     superblock->attr_max    = lfs_fromle32(superblock->attr_max);
 494:SynaptiX_FDK/services/littlefs/lfs.c **** }
 495:SynaptiX_FDK/services/littlefs/lfs.c **** 
 496:SynaptiX_FDK/services/littlefs/lfs.c **** #ifndef LFS_READONLY
 497:SynaptiX_FDK/services/littlefs/lfs.c **** static inline void lfs_superblock_tole32(lfs_superblock_t *superblock) {
 498:SynaptiX_FDK/services/littlefs/lfs.c ****     superblock->version     = lfs_tole32(superblock->version);
 499:SynaptiX_FDK/services/littlefs/lfs.c ****     superblock->block_size  = lfs_tole32(superblock->block_size);
 500:SynaptiX_FDK/services/littlefs/lfs.c ****     superblock->block_count = lfs_tole32(superblock->block_count);
 501:SynaptiX_FDK/services/littlefs/lfs.c ****     superblock->name_max    = lfs_tole32(superblock->name_max);
 502:SynaptiX_FDK/services/littlefs/lfs.c ****     superblock->file_max    = lfs_tole32(superblock->file_max);
 503:SynaptiX_FDK/services/littlefs/lfs.c ****     superblock->attr_max    = lfs_tole32(superblock->attr_max);
 504:SynaptiX_FDK/services/littlefs/lfs.c **** }
 505:SynaptiX_FDK/services/littlefs/lfs.c **** #endif
 506:SynaptiX_FDK/services/littlefs/lfs.c **** 
 507:SynaptiX_FDK/services/littlefs/lfs.c **** #ifndef LFS_NO_ASSERT
 508:SynaptiX_FDK/services/littlefs/lfs.c **** static bool lfs_mlist_isopen(struct lfs_mlist *head,
 509:SynaptiX_FDK/services/littlefs/lfs.c ****         struct lfs_mlist *node) {
 245              		.loc 1 509 33 is_stmt 1 view -0
 246              		.cfi_startproc
 247              		@ args = 0, pretend = 0, frame = 8
 248              		@ frame_needed = 0, uses_anonymous_args = 0
 249              		@ link register save eliminated.
 250              		.loc 1 509 33 is_stmt 0 view .LVU56
 251 0000 82B0     		sub	sp, sp, #8
 252              	.LCFI4:
 253              		.cfi_def_cfa_offset 8
 254 0002 0190     		str	r0, [sp, #4]
ARM GAS  C:\Users\LENOVO\AppData\Local\Temp\ccPMz3A0.s 			page 15


 510:SynaptiX_FDK/services/littlefs/lfs.c ****     for (struct lfs_mlist **p = &head; *p; p = &(*p)->next) {
 255              		.loc 1 510 5 is_stmt 1 view .LVU57
 256              	.LBB919:
 257              		.loc 1 510 10 view .LVU58
 258              	.LVL30:
 259              		.loc 1 510 29 is_stmt 0 view .LVU59
 260 0004 01AB     		add	r3, sp, #4
 261              	.LVL31:
 262              	.L28:
 263              		.loc 1 510 40 is_stmt 1 discriminator 1 view .LVU60
 264 0006 1B68     		ldr	r3, [r3]
 265              	.LVL32:
 266              		.loc 1 510 40 is_stmt 0 discriminator 1 view .LVU61
 267 0008 1BB1     		cbz	r3, .L33
 511:SynaptiX_FDK/services/littlefs/lfs.c ****         if (*p == (struct lfs_mlist*)node) {
 268              		.loc 1 511 9 is_stmt 1 view .LVU62
 269              		.loc 1 511 12 is_stmt 0 view .LVU63
 270 000a 8B42     		cmp	r3, r1
 271 000c FBD1     		bne	.L28
 512:SynaptiX_FDK/services/littlefs/lfs.c ****             return true;
 272              		.loc 1 512 20 view .LVU64
 273 000e 0120     		movs	r0, #1
 274              	.LVL33:
 275              		.loc 1 512 20 view .LVU65
 276 0010 00E0     		b	.L29
 277              	.LVL34:
 278              	.L33:
 279              		.loc 1 512 20 view .LVU66
 280              	.LBE919:
 513:SynaptiX_FDK/services/littlefs/lfs.c ****         }
 514:SynaptiX_FDK/services/littlefs/lfs.c ****     }
 515:SynaptiX_FDK/services/littlefs/lfs.c **** 
 516:SynaptiX_FDK/services/littlefs/lfs.c ****     return false;
 281              		.loc 1 516 12 view .LVU67
 282 0012 0020     		movs	r0, #0
 283              	.LVL35:
 284              	.L29:
 517:SynaptiX_FDK/services/littlefs/lfs.c **** }
 285              		.loc 1 517 1 view .LVU68
 286 0014 02B0     		add	sp, sp, #8
 287              	.LCFI5:
 288              		.cfi_def_cfa_offset 0
 289              	.LVL36:
 290              		.loc 1 517 1 view .LVU69
 291              		@ sp needed
 292 0016 7047     		bx	lr
 293              		.cfi_endproc
 294              	.LFE60:
 296              		.section	.text.lfs_mlist_remove,"ax",%progbits
 297              		.align	1
 298              		.syntax unified
 299              		.thumb
 300              		.thumb_func
 302              	lfs_mlist_remove:
 303              	.LVL37:
 304              	.LFB61:
 518:SynaptiX_FDK/services/littlefs/lfs.c **** #endif
ARM GAS  C:\Users\LENOVO\AppData\Local\Temp\ccPMz3A0.s 			page 16


 519:SynaptiX_FDK/services/littlefs/lfs.c **** 
 520:SynaptiX_FDK/services/littlefs/lfs.c **** static void lfs_mlist_remove(lfs_t *lfs, struct lfs_mlist *mlist) {
 305              		.loc 1 520 67 is_stmt 1 view -0
 306              		.cfi_startproc
 307              		@ args = 0, pretend = 0, frame = 0
 308              		@ frame_needed = 0, uses_anonymous_args = 0
 309              		@ link register save eliminated.
 521:SynaptiX_FDK/services/littlefs/lfs.c ****     for (struct lfs_mlist **p = &lfs->mlist; *p; p = &(*p)->next) {
 310              		.loc 1 521 5 view .LVU71
 311              	.LBB920:
 312              		.loc 1 521 10 view .LVU72
 313              		.loc 1 521 29 is_stmt 0 view .LVU73
 314 0000 2830     		adds	r0, r0, #40
 315              	.LVL38:
 316              		.loc 1 521 5 view .LVU74
 317 0002 00E0     		b	.L35
 318              	.LVL39:
 319              	.L36:
 320              		.loc 1 521 52 is_stmt 1 discriminator 2 view .LVU75
 321 0004 1846     		mov	r0, r3
 322              	.LVL40:
 323              	.L35:
 324              		.loc 1 521 46 discriminator 1 view .LVU76
 325 0006 0368     		ldr	r3, [r0]
 326 0008 23B1     		cbz	r3, .L39
 522:SynaptiX_FDK/services/littlefs/lfs.c ****         if (*p == mlist) {
 327              		.loc 1 522 9 view .LVU77
 328              		.loc 1 522 12 is_stmt 0 view .LVU78
 329 000a 8B42     		cmp	r3, r1
 330 000c FAD1     		bne	.L36
 523:SynaptiX_FDK/services/littlefs/lfs.c ****             *p = (*p)->next;
 331              		.loc 1 523 13 is_stmt 1 view .LVU79
 332              		.loc 1 523 22 is_stmt 0 view .LVU80
 333 000e 1B68     		ldr	r3, [r3]
 334              		.loc 1 523 16 view .LVU81
 335 0010 0360     		str	r3, [r0]
 524:SynaptiX_FDK/services/littlefs/lfs.c ****             break;
 336              		.loc 1 524 13 is_stmt 1 view .LVU82
 337 0012 7047     		bx	lr
 338              	.L39:
 339              		.loc 1 524 13 is_stmt 0 view .LVU83
 340              	.LBE920:
 525:SynaptiX_FDK/services/littlefs/lfs.c ****         }
 526:SynaptiX_FDK/services/littlefs/lfs.c ****     }
 527:SynaptiX_FDK/services/littlefs/lfs.c **** }
 341              		.loc 1 527 1 view .LVU84
 342 0014 7047     		bx	lr
 343              		.cfi_endproc
 344              	.LFE61:
 346              		.section	.text.lfs_mlist_append,"ax",%progbits
 347              		.align	1
 348              		.syntax unified
 349              		.thumb
 350              		.thumb_func
 352              	lfs_mlist_append:
 353              	.LVL41:
 354              	.LFB62:
ARM GAS  C:\Users\LENOVO\AppData\Local\Temp\ccPMz3A0.s 			page 17


 528:SynaptiX_FDK/services/littlefs/lfs.c **** 
 529:SynaptiX_FDK/services/littlefs/lfs.c **** static void lfs_mlist_append(lfs_t *lfs, struct lfs_mlist *mlist) {
 355              		.loc 1 529 67 is_stmt 1 view -0
 356              		.cfi_startproc
 357              		@ args = 0, pretend = 0, frame = 0
 358              		@ frame_needed = 0, uses_anonymous_args = 0
 359              		@ link register save eliminated.
 530:SynaptiX_FDK/services/littlefs/lfs.c ****     mlist->next = lfs->mlist;
 360              		.loc 1 530 5 view .LVU86
 361              		.loc 1 530 22 is_stmt 0 view .LVU87
 362 0000 836A     		ldr	r3, [r0, #40]
 363              		.loc 1 530 17 view .LVU88
 364 0002 0B60     		str	r3, [r1]
 531:SynaptiX_FDK/services/littlefs/lfs.c ****     lfs->mlist = mlist;
 365              		.loc 1 531 5 is_stmt 1 view .LVU89
 366              		.loc 1 531 16 is_stmt 0 view .LVU90
 367 0004 8162     		str	r1, [r0, #40]
 532:SynaptiX_FDK/services/littlefs/lfs.c **** }
 368              		.loc 1 532 1 view .LVU91
 369 0006 7047     		bx	lr
 370              		.cfi_endproc
 371              	.LFE62:
 373              		.section	.text.lfs_fs_disk_version,"ax",%progbits
 374              		.align	1
 375              		.syntax unified
 376              		.thumb
 377              		.thumb_func
 379              	lfs_fs_disk_version:
 380              	.LVL42:
 381              	.LFB63:
 533:SynaptiX_FDK/services/littlefs/lfs.c **** 
 534:SynaptiX_FDK/services/littlefs/lfs.c **** // some other filesystem operations
 535:SynaptiX_FDK/services/littlefs/lfs.c **** static uint32_t lfs_fs_disk_version(lfs_t *lfs) {
 382              		.loc 1 535 49 is_stmt 1 view -0
 383              		.cfi_startproc
 384              		@ args = 0, pretend = 0, frame = 0
 385              		@ frame_needed = 0, uses_anonymous_args = 0
 386              		@ link register save eliminated.
 536:SynaptiX_FDK/services/littlefs/lfs.c ****     (void)lfs;
 387              		.loc 1 536 5 view .LVU93
 537:SynaptiX_FDK/services/littlefs/lfs.c **** #ifdef LFS_MULTIVERSION
 538:SynaptiX_FDK/services/littlefs/lfs.c ****     if (lfs->cfg->disk_version) {
 539:SynaptiX_FDK/services/littlefs/lfs.c ****         return lfs->cfg->disk_version;
 540:SynaptiX_FDK/services/littlefs/lfs.c ****     } else
 541:SynaptiX_FDK/services/littlefs/lfs.c **** #endif
 542:SynaptiX_FDK/services/littlefs/lfs.c ****     {
 543:SynaptiX_FDK/services/littlefs/lfs.c ****         return LFS_DISK_VERSION;
 388              		.loc 1 543 9 view .LVU94
 544:SynaptiX_FDK/services/littlefs/lfs.c ****     }
 545:SynaptiX_FDK/services/littlefs/lfs.c **** }
 389              		.loc 1 545 1 is_stmt 0 view .LVU95
 390 0000 0048     		ldr	r0, .L42
 391              	.LVL43:
 392              		.loc 1 545 1 view .LVU96
 393 0002 7047     		bx	lr
 394              	.L43:
 395              		.align	2
ARM GAS  C:\Users\LENOVO\AppData\Local\Temp\ccPMz3A0.s 			page 18


 396              	.L42:
 397 0004 01000200 		.word	131073
 398              		.cfi_endproc
 399              	.LFE63:
 401              		.section	.text.lfs_fs_disk_version_major,"ax",%progbits
 402              		.align	1
 403              		.syntax unified
 404              		.thumb
 405              		.thumb_func
 407              	lfs_fs_disk_version_major:
 408              	.LVL44:
 409              	.LFB64:
 546:SynaptiX_FDK/services/littlefs/lfs.c **** 
 547:SynaptiX_FDK/services/littlefs/lfs.c **** static uint16_t lfs_fs_disk_version_major(lfs_t *lfs) {
 410              		.loc 1 547 55 is_stmt 1 view -0
 411              		.cfi_startproc
 412              		@ args = 0, pretend = 0, frame = 0
 413              		@ frame_needed = 0, uses_anonymous_args = 0
 414              		.loc 1 547 55 is_stmt 0 view .LVU98
 415 0000 08B5     		push	{r3, lr}
 416              	.LCFI6:
 417              		.cfi_def_cfa_offset 8
 418              		.cfi_offset 3, -8
 419              		.cfi_offset 14, -4
 548:SynaptiX_FDK/services/littlefs/lfs.c ****     return 0xffff & (lfs_fs_disk_version(lfs) >> 16);
 420              		.loc 1 548 5 is_stmt 1 view .LVU99
 421              		.loc 1 548 22 is_stmt 0 view .LVU100
 422 0002 FFF7FEFF 		bl	lfs_fs_disk_version
 423              	.LVL45:
 549:SynaptiX_FDK/services/littlefs/lfs.c **** 
 550:SynaptiX_FDK/services/littlefs/lfs.c **** }
 424              		.loc 1 550 1 view .LVU101
 425 0006 000C     		lsrs	r0, r0, #16
 426 0008 08BD     		pop	{r3, pc}
 427              		.cfi_endproc
 428              	.LFE64:
 430              		.section	.text.lfs_fs_disk_version_minor,"ax",%progbits
 431              		.align	1
 432              		.syntax unified
 433              		.thumb
 434              		.thumb_func
 436              	lfs_fs_disk_version_minor:
 437              	.LVL46:
 438              	.LFB65:
 551:SynaptiX_FDK/services/littlefs/lfs.c **** 
 552:SynaptiX_FDK/services/littlefs/lfs.c **** static uint16_t lfs_fs_disk_version_minor(lfs_t *lfs) {
 439              		.loc 1 552 55 is_stmt 1 view -0
 440              		.cfi_startproc
 441              		@ args = 0, pretend = 0, frame = 0
 442              		@ frame_needed = 0, uses_anonymous_args = 0
 443              		.loc 1 552 55 is_stmt 0 view .LVU103
 444 0000 08B5     		push	{r3, lr}
 445              	.LCFI7:
 446              		.cfi_def_cfa_offset 8
 447              		.cfi_offset 3, -8
 448              		.cfi_offset 14, -4
 553:SynaptiX_FDK/services/littlefs/lfs.c ****     return 0xffff & (lfs_fs_disk_version(lfs) >> 0);
ARM GAS  C:\Users\LENOVO\AppData\Local\Temp\ccPMz3A0.s 			page 19


 449              		.loc 1 553 5 is_stmt 1 view .LVU104
 450              		.loc 1 553 47 is_stmt 0 view .LVU105
 451 0002 FFF7FEFF 		bl	lfs_fs_disk_version
 452              	.LVL47:
 554:SynaptiX_FDK/services/littlefs/lfs.c **** }
 453              		.loc 1 554 1 view .LVU106
 454 0006 80B2     		uxth	r0, r0
 455 0008 08BD     		pop	{r3, pc}
 456              		.cfi_endproc
 457              	.LFE65:
 459              		.section	.text.lfs_alloc_ckpoint,"ax",%progbits
 460              		.align	1
 461              		.syntax unified
 462              		.thumb
 463              		.thumb_func
 465              	lfs_alloc_ckpoint:
 466              	.LVL48:
 467              	.LFB66:
 555:SynaptiX_FDK/services/littlefs/lfs.c **** 
 556:SynaptiX_FDK/services/littlefs/lfs.c **** 
 557:SynaptiX_FDK/services/littlefs/lfs.c **** /// Internal operations predeclared here ///
 558:SynaptiX_FDK/services/littlefs/lfs.c **** #ifndef LFS_READONLY
 559:SynaptiX_FDK/services/littlefs/lfs.c **** static int lfs_dir_commit(lfs_t *lfs, lfs_mdir_t *dir,
 560:SynaptiX_FDK/services/littlefs/lfs.c ****         const struct lfs_mattr *attrs, int attrcount);
 561:SynaptiX_FDK/services/littlefs/lfs.c **** static int lfs_dir_compact(lfs_t *lfs,
 562:SynaptiX_FDK/services/littlefs/lfs.c ****         lfs_mdir_t *dir, const struct lfs_mattr *attrs, int attrcount,
 563:SynaptiX_FDK/services/littlefs/lfs.c ****         lfs_mdir_t *source, uint16_t begin, uint16_t end);
 564:SynaptiX_FDK/services/littlefs/lfs.c **** static lfs_ssize_t lfs_file_flushedwrite(lfs_t *lfs, lfs_file_t *file,
 565:SynaptiX_FDK/services/littlefs/lfs.c ****         const void *buffer, lfs_size_t size);
 566:SynaptiX_FDK/services/littlefs/lfs.c **** static lfs_ssize_t lfs_file_write_(lfs_t *lfs, lfs_file_t *file,
 567:SynaptiX_FDK/services/littlefs/lfs.c ****         const void *buffer, lfs_size_t size);
 568:SynaptiX_FDK/services/littlefs/lfs.c **** static int lfs_file_sync_(lfs_t *lfs, lfs_file_t *file);
 569:SynaptiX_FDK/services/littlefs/lfs.c **** static int lfs_file_outline(lfs_t *lfs, lfs_file_t *file);
 570:SynaptiX_FDK/services/littlefs/lfs.c **** static int lfs_file_flush(lfs_t *lfs, lfs_file_t *file);
 571:SynaptiX_FDK/services/littlefs/lfs.c **** 
 572:SynaptiX_FDK/services/littlefs/lfs.c **** static int lfs_fs_deorphan(lfs_t *lfs, bool powerloss);
 573:SynaptiX_FDK/services/littlefs/lfs.c **** static int lfs_fs_preporphans(lfs_t *lfs, int8_t orphans);
 574:SynaptiX_FDK/services/littlefs/lfs.c **** static void lfs_fs_prepmove(lfs_t *lfs,
 575:SynaptiX_FDK/services/littlefs/lfs.c ****         uint16_t id, const lfs_block_t pair[2]);
 576:SynaptiX_FDK/services/littlefs/lfs.c **** static int lfs_fs_pred(lfs_t *lfs, const lfs_block_t dir[2],
 577:SynaptiX_FDK/services/littlefs/lfs.c ****         lfs_mdir_t *pdir);
 578:SynaptiX_FDK/services/littlefs/lfs.c **** static lfs_stag_t lfs_fs_parent(lfs_t *lfs, const lfs_block_t dir[2],
 579:SynaptiX_FDK/services/littlefs/lfs.c ****         lfs_mdir_t *parent);
 580:SynaptiX_FDK/services/littlefs/lfs.c **** static int lfs_fs_forceconsistency(lfs_t *lfs);
 581:SynaptiX_FDK/services/littlefs/lfs.c **** #endif
 582:SynaptiX_FDK/services/littlefs/lfs.c **** 
 583:SynaptiX_FDK/services/littlefs/lfs.c **** static void lfs_fs_prepsuperblock(lfs_t *lfs, bool needssuperblock);
 584:SynaptiX_FDK/services/littlefs/lfs.c **** 
 585:SynaptiX_FDK/services/littlefs/lfs.c **** #ifdef LFS_MIGRATE
 586:SynaptiX_FDK/services/littlefs/lfs.c **** static int lfs1_traverse(lfs_t *lfs,
 587:SynaptiX_FDK/services/littlefs/lfs.c ****         int (*cb)(void*, lfs_block_t), void *data);
 588:SynaptiX_FDK/services/littlefs/lfs.c **** #endif
 589:SynaptiX_FDK/services/littlefs/lfs.c **** 
 590:SynaptiX_FDK/services/littlefs/lfs.c **** static int lfs_dir_rewind_(lfs_t *lfs, lfs_dir_t *dir);
 591:SynaptiX_FDK/services/littlefs/lfs.c **** 
 592:SynaptiX_FDK/services/littlefs/lfs.c **** static lfs_ssize_t lfs_file_flushedread(lfs_t *lfs, lfs_file_t *file,
 593:SynaptiX_FDK/services/littlefs/lfs.c ****         void *buffer, lfs_size_t size);
ARM GAS  C:\Users\LENOVO\AppData\Local\Temp\ccPMz3A0.s 			page 20


 594:SynaptiX_FDK/services/littlefs/lfs.c **** static lfs_ssize_t lfs_file_read_(lfs_t *lfs, lfs_file_t *file,
 595:SynaptiX_FDK/services/littlefs/lfs.c ****         void *buffer, lfs_size_t size);
 596:SynaptiX_FDK/services/littlefs/lfs.c **** static int lfs_file_close_(lfs_t *lfs, lfs_file_t *file);
 597:SynaptiX_FDK/services/littlefs/lfs.c **** static lfs_soff_t lfs_file_size_(lfs_t *lfs, lfs_file_t *file);
 598:SynaptiX_FDK/services/littlefs/lfs.c **** 
 599:SynaptiX_FDK/services/littlefs/lfs.c **** static lfs_ssize_t lfs_fs_size_(lfs_t *lfs);
 600:SynaptiX_FDK/services/littlefs/lfs.c **** static int lfs_fs_traverse_(lfs_t *lfs,
 601:SynaptiX_FDK/services/littlefs/lfs.c ****         int (*cb)(void *data, lfs_block_t block), void *data,
 602:SynaptiX_FDK/services/littlefs/lfs.c ****         bool includeorphans);
 603:SynaptiX_FDK/services/littlefs/lfs.c **** 
 604:SynaptiX_FDK/services/littlefs/lfs.c **** static int lfs_deinit(lfs_t *lfs);
 605:SynaptiX_FDK/services/littlefs/lfs.c **** static int lfs_unmount_(lfs_t *lfs);
 606:SynaptiX_FDK/services/littlefs/lfs.c **** 
 607:SynaptiX_FDK/services/littlefs/lfs.c **** 
 608:SynaptiX_FDK/services/littlefs/lfs.c **** /// Block allocator ///
 609:SynaptiX_FDK/services/littlefs/lfs.c **** 
 610:SynaptiX_FDK/services/littlefs/lfs.c **** // allocations should call this when all allocated blocks are committed to
 611:SynaptiX_FDK/services/littlefs/lfs.c **** // the filesystem
 612:SynaptiX_FDK/services/littlefs/lfs.c **** //
 613:SynaptiX_FDK/services/littlefs/lfs.c **** // after a checkpoint, the block allocator may realloc any untracked blocks
 614:SynaptiX_FDK/services/littlefs/lfs.c **** static void lfs_alloc_ckpoint(lfs_t *lfs) {
 468              		.loc 1 614 43 is_stmt 1 view -0
 469              		.cfi_startproc
 470              		@ args = 0, pretend = 0, frame = 0
 471              		@ frame_needed = 0, uses_anonymous_args = 0
 472              		@ link register save eliminated.
 615:SynaptiX_FDK/services/littlefs/lfs.c ****     lfs->lookahead.ckpoint = lfs->block_count;
 473              		.loc 1 615 5 view .LVU108
 474              		.loc 1 615 33 is_stmt 0 view .LVU109
 475 0000 C36E     		ldr	r3, [r0, #108]
 476              		.loc 1 615 28 view .LVU110
 477 0002 0366     		str	r3, [r0, #96]
 616:SynaptiX_FDK/services/littlefs/lfs.c **** }
 478              		.loc 1 616 1 view .LVU111
 479 0004 7047     		bx	lr
 480              		.cfi_endproc
 481              	.LFE66:
 483              		.section	.text.lfs_alloc_drop,"ax",%progbits
 484              		.align	1
 485              		.syntax unified
 486              		.thumb
 487              		.thumb_func
 489              	lfs_alloc_drop:
 490              	.LVL49:
 491              	.LFB67:
 617:SynaptiX_FDK/services/littlefs/lfs.c **** 
 618:SynaptiX_FDK/services/littlefs/lfs.c **** // drop the lookahead buffer, this is done during mounting and failed
 619:SynaptiX_FDK/services/littlefs/lfs.c **** // traversals in order to avoid invalid lookahead state
 620:SynaptiX_FDK/services/littlefs/lfs.c **** static void lfs_alloc_drop(lfs_t *lfs) {
 492              		.loc 1 620 40 is_stmt 1 view -0
 493              		.cfi_startproc
 494              		@ args = 0, pretend = 0, frame = 0
 495              		@ frame_needed = 0, uses_anonymous_args = 0
 496              		.loc 1 620 40 is_stmt 0 view .LVU113
 497 0000 08B5     		push	{r3, lr}
 498              	.LCFI8:
 499              		.cfi_def_cfa_offset 8
ARM GAS  C:\Users\LENOVO\AppData\Local\Temp\ccPMz3A0.s 			page 21


 500              		.cfi_offset 3, -8
 501              		.cfi_offset 14, -4
 621:SynaptiX_FDK/services/littlefs/lfs.c ****     lfs->lookahead.size = 0;
 502              		.loc 1 621 5 is_stmt 1 view .LVU114
 503              		.loc 1 621 25 is_stmt 0 view .LVU115
 504 0002 0022     		movs	r2, #0
 505 0004 8265     		str	r2, [r0, #88]
 622:SynaptiX_FDK/services/littlefs/lfs.c ****     lfs->lookahead.next = 0;
 506              		.loc 1 622 5 is_stmt 1 view .LVU116
 507              		.loc 1 622 25 is_stmt 0 view .LVU117
 508 0006 C265     		str	r2, [r0, #92]
 623:SynaptiX_FDK/services/littlefs/lfs.c ****     lfs_alloc_ckpoint(lfs);
 509              		.loc 1 623 5 is_stmt 1 view .LVU118
 510 0008 FFF7FEFF 		bl	lfs_alloc_ckpoint
 511              	.LVL50:
 624:SynaptiX_FDK/services/littlefs/lfs.c **** }
 512              		.loc 1 624 1 is_stmt 0 view .LVU119
 513 000c 08BD     		pop	{r3, pc}
 514              		.cfi_endproc
 515              	.LFE67:
 517              		.section	.text.lfs_alloc_lookahead,"ax",%progbits
 518              		.align	1
 519              		.syntax unified
 520              		.thumb
 521              		.thumb_func
 523              	lfs_alloc_lookahead:
 524              	.LVL51:
 525              	.LFB68:
 625:SynaptiX_FDK/services/littlefs/lfs.c **** 
 626:SynaptiX_FDK/services/littlefs/lfs.c **** #ifndef LFS_READONLY
 627:SynaptiX_FDK/services/littlefs/lfs.c **** static int lfs_alloc_lookahead(void *p, lfs_block_t block) {
 526              		.loc 1 627 60 is_stmt 1 view -0
 527              		.cfi_startproc
 528              		@ args = 0, pretend = 0, frame = 0
 529              		@ frame_needed = 0, uses_anonymous_args = 0
 530              		@ link register save eliminated.
 628:SynaptiX_FDK/services/littlefs/lfs.c ****     lfs_t *lfs = (lfs_t*)p;
 531              		.loc 1 628 5 view .LVU121
 629:SynaptiX_FDK/services/littlefs/lfs.c ****     lfs_block_t off = ((block - lfs->lookahead.start)
 532              		.loc 1 629 5 view .LVU122
 533              		.loc 1 629 47 is_stmt 0 view .LVU123
 534 0000 436D     		ldr	r3, [r0, #84]
 535              		.loc 1 629 31 view .LVU124
 536 0002 C91A     		subs	r1, r1, r3
 537              	.LVL52:
 630:SynaptiX_FDK/services/littlefs/lfs.c ****             + lfs->block_count) % lfs->block_count;
 538              		.loc 1 630 18 view .LVU125
 539 0004 C36E     		ldr	r3, [r0, #108]
 540              		.loc 1 630 13 view .LVU126
 541 0006 1944     		add	r1, r1, r3
 629:SynaptiX_FDK/services/littlefs/lfs.c ****     lfs_block_t off = ((block - lfs->lookahead.start)
 542              		.loc 1 629 17 view .LVU127
 543 0008 B1FBF3F2 		udiv	r2, r1, r3
 544 000c 03FB1211 		mls	r1, r3, r2, r1
 545              	.LVL53:
 631:SynaptiX_FDK/services/littlefs/lfs.c **** 
 632:SynaptiX_FDK/services/littlefs/lfs.c ****     if (off < lfs->lookahead.size) {
ARM GAS  C:\Users\LENOVO\AppData\Local\Temp\ccPMz3A0.s 			page 22


 546              		.loc 1 632 5 is_stmt 1 view .LVU128
 547              		.loc 1 632 29 is_stmt 0 view .LVU129
 548 0010 836D     		ldr	r3, [r0, #88]
 549              		.loc 1 632 8 view .LVU130
 550 0012 8B42     		cmp	r3, r1
 551 0014 0DD9     		bls	.L54
 627:SynaptiX_FDK/services/littlefs/lfs.c ****     lfs_t *lfs = (lfs_t*)p;
 552              		.loc 1 627 60 view .LVU131
 553 0016 10B4     		push	{r4}
 554              	.LCFI9:
 555              		.cfi_def_cfa_offset 4
 556              		.cfi_offset 4, -4
 633:SynaptiX_FDK/services/littlefs/lfs.c ****         lfs->lookahead.buffer[off / 8] |= 1U << (off % 8);
 557              		.loc 1 633 9 is_stmt 1 view .LVU132
 558              		.loc 1 633 23 is_stmt 0 view .LVU133
 559 0018 446E     		ldr	r4, [r0, #100]
 560              		.loc 1 633 35 view .LVU134
 561 001a C808     		lsrs	r0, r1, #3
 562              	.LVL54:
 563              		.loc 1 633 30 view .LVU135
 564 001c 235C     		ldrb	r3, [r4, r0]	@ zero_extendqisi2
 565              		.loc 1 633 54 view .LVU136
 566 001e 01F00701 		and	r1, r1, #7
 567              	.LVL55:
 568              		.loc 1 633 46 view .LVU137
 569 0022 0122     		movs	r2, #1
 570              	.LVL56:
 571              		.loc 1 633 46 view .LVU138
 572 0024 8A40     		lsls	r2, r2, r1
 573              		.loc 1 633 40 view .LVU139
 574 0026 1343     		orrs	r3, r3, r2
 575 0028 2354     		strb	r3, [r4, r0]
 576              	.LVL57:
 634:SynaptiX_FDK/services/littlefs/lfs.c ****     }
 635:SynaptiX_FDK/services/littlefs/lfs.c **** 
 636:SynaptiX_FDK/services/littlefs/lfs.c ****     return 0;
 577              		.loc 1 636 5 is_stmt 1 view .LVU140
 637:SynaptiX_FDK/services/littlefs/lfs.c **** }
 578              		.loc 1 637 1 is_stmt 0 view .LVU141
 579 002a 0020     		movs	r0, #0
 580 002c 5DF8044B 		ldr	r4, [sp], #4
 581              	.LCFI10:
 582              		.cfi_restore 4
 583              		.cfi_def_cfa_offset 0
 584 0030 7047     		bx	lr
 585              	.LVL58:
 586              	.L54:
 636:SynaptiX_FDK/services/littlefs/lfs.c **** }
 587              		.loc 1 636 5 is_stmt 1 view .LVU142
 588              		.loc 1 637 1 is_stmt 0 view .LVU143
 589 0032 0020     		movs	r0, #0
 590              	.LVL59:
 591              		.loc 1 637 1 view .LVU144
 592 0034 7047     		bx	lr
 593              		.cfi_endproc
 594              	.LFE68:
 596              		.section	.text.lfs_dir_traverse_filter,"ax",%progbits
ARM GAS  C:\Users\LENOVO\AppData\Local\Temp\ccPMz3A0.s 			page 23


 597              		.align	1
 598              		.syntax unified
 599              		.thumb
 600              		.thumb_func
 602              	lfs_dir_traverse_filter:
 603              	.LVL60:
 604              	.LFB74:
 638:SynaptiX_FDK/services/littlefs/lfs.c **** #endif
 639:SynaptiX_FDK/services/littlefs/lfs.c **** 
 640:SynaptiX_FDK/services/littlefs/lfs.c **** #ifndef LFS_READONLY
 641:SynaptiX_FDK/services/littlefs/lfs.c **** static int lfs_alloc_scan(lfs_t *lfs) {
 642:SynaptiX_FDK/services/littlefs/lfs.c ****     // move lookahead buffer to the first unused block
 643:SynaptiX_FDK/services/littlefs/lfs.c ****     //
 644:SynaptiX_FDK/services/littlefs/lfs.c ****     // note we limit the lookahead buffer to at most the amount of blocks
 645:SynaptiX_FDK/services/littlefs/lfs.c ****     // checkpointed, this prevents the math in lfs_alloc from underflowing
 646:SynaptiX_FDK/services/littlefs/lfs.c ****     lfs->lookahead.start = (lfs->lookahead.start + lfs->lookahead.next) 
 647:SynaptiX_FDK/services/littlefs/lfs.c ****             % lfs->block_count;
 648:SynaptiX_FDK/services/littlefs/lfs.c ****     lfs->lookahead.next = 0;
 649:SynaptiX_FDK/services/littlefs/lfs.c ****     lfs->lookahead.size = lfs_min(
 650:SynaptiX_FDK/services/littlefs/lfs.c ****             8*lfs->cfg->lookahead_size,
 651:SynaptiX_FDK/services/littlefs/lfs.c ****             lfs->lookahead.ckpoint);
 652:SynaptiX_FDK/services/littlefs/lfs.c **** 
 653:SynaptiX_FDK/services/littlefs/lfs.c ****     // find mask of free blocks from tree
 654:SynaptiX_FDK/services/littlefs/lfs.c ****     memset(lfs->lookahead.buffer, 0, lfs->cfg->lookahead_size);
 655:SynaptiX_FDK/services/littlefs/lfs.c ****     int err = lfs_fs_traverse_(lfs, lfs_alloc_lookahead, lfs, true);
 656:SynaptiX_FDK/services/littlefs/lfs.c ****     if (err) {
 657:SynaptiX_FDK/services/littlefs/lfs.c ****         lfs_alloc_drop(lfs);
 658:SynaptiX_FDK/services/littlefs/lfs.c ****         return err;
 659:SynaptiX_FDK/services/littlefs/lfs.c ****     }
 660:SynaptiX_FDK/services/littlefs/lfs.c **** 
 661:SynaptiX_FDK/services/littlefs/lfs.c ****     return 0;
 662:SynaptiX_FDK/services/littlefs/lfs.c **** }
 663:SynaptiX_FDK/services/littlefs/lfs.c **** #endif
 664:SynaptiX_FDK/services/littlefs/lfs.c **** 
 665:SynaptiX_FDK/services/littlefs/lfs.c **** #ifndef LFS_READONLY
 666:SynaptiX_FDK/services/littlefs/lfs.c **** static int lfs_alloc(lfs_t *lfs, lfs_block_t *block) {
 667:SynaptiX_FDK/services/littlefs/lfs.c ****     while (true) {
 668:SynaptiX_FDK/services/littlefs/lfs.c ****         // scan our lookahead buffer for free blocks
 669:SynaptiX_FDK/services/littlefs/lfs.c ****         while (lfs->lookahead.next < lfs->lookahead.size) {
 670:SynaptiX_FDK/services/littlefs/lfs.c ****             if (!(lfs->lookahead.buffer[lfs->lookahead.next / 8]
 671:SynaptiX_FDK/services/littlefs/lfs.c ****                     & (1U << (lfs->lookahead.next % 8)))) {
 672:SynaptiX_FDK/services/littlefs/lfs.c ****                 // found a free block
 673:SynaptiX_FDK/services/littlefs/lfs.c ****                 *block = (lfs->lookahead.start + lfs->lookahead.next)
 674:SynaptiX_FDK/services/littlefs/lfs.c ****                         % lfs->block_count;
 675:SynaptiX_FDK/services/littlefs/lfs.c **** 
 676:SynaptiX_FDK/services/littlefs/lfs.c ****                 // eagerly find next free block to maximize how many blocks
 677:SynaptiX_FDK/services/littlefs/lfs.c ****                 // lfs_alloc_ckpoint makes available for scanning
 678:SynaptiX_FDK/services/littlefs/lfs.c ****                 while (true) {
 679:SynaptiX_FDK/services/littlefs/lfs.c ****                     lfs->lookahead.next += 1;
 680:SynaptiX_FDK/services/littlefs/lfs.c ****                     lfs->lookahead.ckpoint -= 1;
 681:SynaptiX_FDK/services/littlefs/lfs.c **** 
 682:SynaptiX_FDK/services/littlefs/lfs.c ****                     if (lfs->lookahead.next >= lfs->lookahead.size
 683:SynaptiX_FDK/services/littlefs/lfs.c ****                             || !(lfs->lookahead.buffer[lfs->lookahead.next / 8]
 684:SynaptiX_FDK/services/littlefs/lfs.c ****                                 & (1U << (lfs->lookahead.next % 8)))) {
 685:SynaptiX_FDK/services/littlefs/lfs.c ****                         return 0;
 686:SynaptiX_FDK/services/littlefs/lfs.c ****                     }
 687:SynaptiX_FDK/services/littlefs/lfs.c ****                 }
ARM GAS  C:\Users\LENOVO\AppData\Local\Temp\ccPMz3A0.s 			page 24


 688:SynaptiX_FDK/services/littlefs/lfs.c ****             }
 689:SynaptiX_FDK/services/littlefs/lfs.c **** 
 690:SynaptiX_FDK/services/littlefs/lfs.c ****             lfs->lookahead.next += 1;
 691:SynaptiX_FDK/services/littlefs/lfs.c ****             lfs->lookahead.ckpoint -= 1;
 692:SynaptiX_FDK/services/littlefs/lfs.c ****         }
 693:SynaptiX_FDK/services/littlefs/lfs.c **** 
 694:SynaptiX_FDK/services/littlefs/lfs.c ****         // In order to keep our block allocator from spinning forever when our
 695:SynaptiX_FDK/services/littlefs/lfs.c ****         // filesystem is full, we mark points where there are no in-flight
 696:SynaptiX_FDK/services/littlefs/lfs.c ****         // allocations with a checkpoint before starting a set of allocations.
 697:SynaptiX_FDK/services/littlefs/lfs.c ****         //
 698:SynaptiX_FDK/services/littlefs/lfs.c ****         // If we've looked at all blocks since the last checkpoint, we report
 699:SynaptiX_FDK/services/littlefs/lfs.c ****         // the filesystem as out of storage.
 700:SynaptiX_FDK/services/littlefs/lfs.c ****         //
 701:SynaptiX_FDK/services/littlefs/lfs.c ****         if (lfs->lookahead.ckpoint <= 0) {
 702:SynaptiX_FDK/services/littlefs/lfs.c ****             LFS_ERROR("No more free space 0x%"PRIx32,
 703:SynaptiX_FDK/services/littlefs/lfs.c ****                     (lfs->lookahead.start + lfs->lookahead.next)
 704:SynaptiX_FDK/services/littlefs/lfs.c ****                         % lfs->block_count);
 705:SynaptiX_FDK/services/littlefs/lfs.c ****             return LFS_ERR_NOSPC;
 706:SynaptiX_FDK/services/littlefs/lfs.c ****         }
 707:SynaptiX_FDK/services/littlefs/lfs.c **** 
 708:SynaptiX_FDK/services/littlefs/lfs.c ****         // No blocks in our lookahead buffer, we need to scan the filesystem for
 709:SynaptiX_FDK/services/littlefs/lfs.c ****         // unused blocks in the next lookahead window.
 710:SynaptiX_FDK/services/littlefs/lfs.c ****         int err = lfs_alloc_scan(lfs);
 711:SynaptiX_FDK/services/littlefs/lfs.c ****         if(err) {
 712:SynaptiX_FDK/services/littlefs/lfs.c ****             return err;
 713:SynaptiX_FDK/services/littlefs/lfs.c ****         }
 714:SynaptiX_FDK/services/littlefs/lfs.c ****     }
 715:SynaptiX_FDK/services/littlefs/lfs.c **** }
 716:SynaptiX_FDK/services/littlefs/lfs.c **** #endif
 717:SynaptiX_FDK/services/littlefs/lfs.c **** 
 718:SynaptiX_FDK/services/littlefs/lfs.c **** /// Metadata pair and directory operations ///
 719:SynaptiX_FDK/services/littlefs/lfs.c **** static lfs_stag_t lfs_dir_getslice(lfs_t *lfs, const lfs_mdir_t *dir,
 720:SynaptiX_FDK/services/littlefs/lfs.c ****         lfs_tag_t gmask, lfs_tag_t gtag,
 721:SynaptiX_FDK/services/littlefs/lfs.c ****         lfs_off_t goff, void *gbuffer, lfs_size_t gsize) {
 722:SynaptiX_FDK/services/littlefs/lfs.c ****     lfs_off_t off = dir->off;
 723:SynaptiX_FDK/services/littlefs/lfs.c ****     lfs_tag_t ntag = dir->etag;
 724:SynaptiX_FDK/services/littlefs/lfs.c ****     lfs_stag_t gdiff = 0;
 725:SynaptiX_FDK/services/littlefs/lfs.c **** 
 726:SynaptiX_FDK/services/littlefs/lfs.c ****     // synthetic moves
 727:SynaptiX_FDK/services/littlefs/lfs.c ****     if (lfs_gstate_hasmovehere(&lfs->gdisk, dir->pair) &&
 728:SynaptiX_FDK/services/littlefs/lfs.c ****             lfs_tag_id(gmask) != 0) {
 729:SynaptiX_FDK/services/littlefs/lfs.c ****         if (lfs_tag_id(lfs->gdisk.tag) == lfs_tag_id(gtag)) {
 730:SynaptiX_FDK/services/littlefs/lfs.c ****             return LFS_ERR_NOENT;
 731:SynaptiX_FDK/services/littlefs/lfs.c ****         } else if (lfs_tag_id(lfs->gdisk.tag) < lfs_tag_id(gtag)) {
 732:SynaptiX_FDK/services/littlefs/lfs.c ****             gdiff -= LFS_MKTAG(0, 1, 0);
 733:SynaptiX_FDK/services/littlefs/lfs.c ****         }
 734:SynaptiX_FDK/services/littlefs/lfs.c ****     }
 735:SynaptiX_FDK/services/littlefs/lfs.c **** 
 736:SynaptiX_FDK/services/littlefs/lfs.c ****     // iterate over dir block backwards (for faster lookups)
 737:SynaptiX_FDK/services/littlefs/lfs.c ****     while (off >= sizeof(lfs_tag_t) + lfs_tag_dsize(ntag)) {
 738:SynaptiX_FDK/services/littlefs/lfs.c ****         off -= lfs_tag_dsize(ntag);
 739:SynaptiX_FDK/services/littlefs/lfs.c ****         lfs_tag_t tag = ntag;
 740:SynaptiX_FDK/services/littlefs/lfs.c ****         int err = lfs_bd_read(lfs,
 741:SynaptiX_FDK/services/littlefs/lfs.c ****                 NULL, &lfs->rcache, sizeof(ntag),
 742:SynaptiX_FDK/services/littlefs/lfs.c ****                 dir->pair[0], off, &ntag, sizeof(ntag));
 743:SynaptiX_FDK/services/littlefs/lfs.c ****         LFS_ASSERT(err <= 0);
 744:SynaptiX_FDK/services/littlefs/lfs.c ****         if (err) {
ARM GAS  C:\Users\LENOVO\AppData\Local\Temp\ccPMz3A0.s 			page 25


 745:SynaptiX_FDK/services/littlefs/lfs.c ****             return err;
 746:SynaptiX_FDK/services/littlefs/lfs.c ****         }
 747:SynaptiX_FDK/services/littlefs/lfs.c **** 
 748:SynaptiX_FDK/services/littlefs/lfs.c ****         ntag = (lfs_frombe32(ntag) ^ tag) & 0x7fffffff;
 749:SynaptiX_FDK/services/littlefs/lfs.c **** 
 750:SynaptiX_FDK/services/littlefs/lfs.c ****         if (lfs_tag_id(gmask) != 0 &&
 751:SynaptiX_FDK/services/littlefs/lfs.c ****                 lfs_tag_type1(tag) == LFS_TYPE_SPLICE &&
 752:SynaptiX_FDK/services/littlefs/lfs.c ****                 lfs_tag_id(tag) <= lfs_tag_id(gtag - gdiff)) {
 753:SynaptiX_FDK/services/littlefs/lfs.c ****             if (tag == (LFS_MKTAG(LFS_TYPE_CREATE, 0, 0) |
 754:SynaptiX_FDK/services/littlefs/lfs.c ****                     (LFS_MKTAG(0, 0x3ff, 0) & (gtag - gdiff)))) {
 755:SynaptiX_FDK/services/littlefs/lfs.c ****                 // found where we were created
 756:SynaptiX_FDK/services/littlefs/lfs.c ****                 return LFS_ERR_NOENT;
 757:SynaptiX_FDK/services/littlefs/lfs.c ****             }
 758:SynaptiX_FDK/services/littlefs/lfs.c **** 
 759:SynaptiX_FDK/services/littlefs/lfs.c ****             // move around splices
 760:SynaptiX_FDK/services/littlefs/lfs.c ****             gdiff += LFS_MKTAG(0, lfs_tag_splice(tag), 0);
 761:SynaptiX_FDK/services/littlefs/lfs.c ****         }
 762:SynaptiX_FDK/services/littlefs/lfs.c **** 
 763:SynaptiX_FDK/services/littlefs/lfs.c ****         if ((gmask & tag) == (gmask & (gtag - gdiff))) {
 764:SynaptiX_FDK/services/littlefs/lfs.c ****             if (lfs_tag_isdelete(tag)) {
 765:SynaptiX_FDK/services/littlefs/lfs.c ****                 return LFS_ERR_NOENT;
 766:SynaptiX_FDK/services/littlefs/lfs.c ****             }
 767:SynaptiX_FDK/services/littlefs/lfs.c **** 
 768:SynaptiX_FDK/services/littlefs/lfs.c ****             lfs_size_t diff = lfs_min(lfs_tag_size(tag), gsize);
 769:SynaptiX_FDK/services/littlefs/lfs.c ****             err = lfs_bd_read(lfs,
 770:SynaptiX_FDK/services/littlefs/lfs.c ****                     NULL, &lfs->rcache, diff,
 771:SynaptiX_FDK/services/littlefs/lfs.c ****                     dir->pair[0], off+sizeof(tag)+goff, gbuffer, diff);
 772:SynaptiX_FDK/services/littlefs/lfs.c ****             LFS_ASSERT(err <= 0);
 773:SynaptiX_FDK/services/littlefs/lfs.c ****             if (err) {
 774:SynaptiX_FDK/services/littlefs/lfs.c ****                 return err;
 775:SynaptiX_FDK/services/littlefs/lfs.c ****             }
 776:SynaptiX_FDK/services/littlefs/lfs.c **** 
 777:SynaptiX_FDK/services/littlefs/lfs.c ****             memset((uint8_t*)gbuffer + diff, 0, gsize - diff);
 778:SynaptiX_FDK/services/littlefs/lfs.c **** 
 779:SynaptiX_FDK/services/littlefs/lfs.c ****             return tag + gdiff;
 780:SynaptiX_FDK/services/littlefs/lfs.c ****         }
 781:SynaptiX_FDK/services/littlefs/lfs.c ****     }
 782:SynaptiX_FDK/services/littlefs/lfs.c **** 
 783:SynaptiX_FDK/services/littlefs/lfs.c ****     return LFS_ERR_NOENT;
 784:SynaptiX_FDK/services/littlefs/lfs.c **** }
 785:SynaptiX_FDK/services/littlefs/lfs.c **** 
 786:SynaptiX_FDK/services/littlefs/lfs.c **** static lfs_stag_t lfs_dir_get(lfs_t *lfs, const lfs_mdir_t *dir,
 787:SynaptiX_FDK/services/littlefs/lfs.c ****         lfs_tag_t gmask, lfs_tag_t gtag, void *buffer) {
 788:SynaptiX_FDK/services/littlefs/lfs.c ****     return lfs_dir_getslice(lfs, dir,
 789:SynaptiX_FDK/services/littlefs/lfs.c ****             gmask, gtag,
 790:SynaptiX_FDK/services/littlefs/lfs.c ****             0, buffer, lfs_tag_size(gtag));
 791:SynaptiX_FDK/services/littlefs/lfs.c **** }
 792:SynaptiX_FDK/services/littlefs/lfs.c **** 
 793:SynaptiX_FDK/services/littlefs/lfs.c **** static int lfs_dir_getread(lfs_t *lfs, const lfs_mdir_t *dir,
 794:SynaptiX_FDK/services/littlefs/lfs.c ****         const lfs_cache_t *pcache, lfs_cache_t *rcache, lfs_size_t hint,
 795:SynaptiX_FDK/services/littlefs/lfs.c ****         lfs_tag_t gmask, lfs_tag_t gtag,
 796:SynaptiX_FDK/services/littlefs/lfs.c ****         lfs_off_t off, void *buffer, lfs_size_t size) {
 797:SynaptiX_FDK/services/littlefs/lfs.c ****     uint8_t *data = buffer;
 798:SynaptiX_FDK/services/littlefs/lfs.c ****     if (off+size > lfs->cfg->block_size) {
 799:SynaptiX_FDK/services/littlefs/lfs.c ****         return LFS_ERR_CORRUPT;
 800:SynaptiX_FDK/services/littlefs/lfs.c ****     }
 801:SynaptiX_FDK/services/littlefs/lfs.c **** 
ARM GAS  C:\Users\LENOVO\AppData\Local\Temp\ccPMz3A0.s 			page 26


 802:SynaptiX_FDK/services/littlefs/lfs.c ****     while (size > 0) {
 803:SynaptiX_FDK/services/littlefs/lfs.c ****         lfs_size_t diff = size;
 804:SynaptiX_FDK/services/littlefs/lfs.c **** 
 805:SynaptiX_FDK/services/littlefs/lfs.c ****         if (pcache && pcache->block == LFS_BLOCK_INLINE &&
 806:SynaptiX_FDK/services/littlefs/lfs.c ****                 off < pcache->off + pcache->size) {
 807:SynaptiX_FDK/services/littlefs/lfs.c ****             if (off >= pcache->off) {
 808:SynaptiX_FDK/services/littlefs/lfs.c ****                 // is already in pcache?
 809:SynaptiX_FDK/services/littlefs/lfs.c ****                 diff = lfs_min(diff, pcache->size - (off-pcache->off));
 810:SynaptiX_FDK/services/littlefs/lfs.c ****                 memcpy(data, &pcache->buffer[off-pcache->off], diff);
 811:SynaptiX_FDK/services/littlefs/lfs.c **** 
 812:SynaptiX_FDK/services/littlefs/lfs.c ****                 data += diff;
 813:SynaptiX_FDK/services/littlefs/lfs.c ****                 off += diff;
 814:SynaptiX_FDK/services/littlefs/lfs.c ****                 size -= diff;
 815:SynaptiX_FDK/services/littlefs/lfs.c ****                 continue;
 816:SynaptiX_FDK/services/littlefs/lfs.c ****             }
 817:SynaptiX_FDK/services/littlefs/lfs.c **** 
 818:SynaptiX_FDK/services/littlefs/lfs.c ****             // pcache takes priority
 819:SynaptiX_FDK/services/littlefs/lfs.c ****             diff = lfs_min(diff, pcache->off-off);
 820:SynaptiX_FDK/services/littlefs/lfs.c ****         }
 821:SynaptiX_FDK/services/littlefs/lfs.c **** 
 822:SynaptiX_FDK/services/littlefs/lfs.c ****         if (rcache->block == LFS_BLOCK_INLINE &&
 823:SynaptiX_FDK/services/littlefs/lfs.c ****                 off < rcache->off + rcache->size) {
 824:SynaptiX_FDK/services/littlefs/lfs.c ****             if (off >= rcache->off) {
 825:SynaptiX_FDK/services/littlefs/lfs.c ****                 // is already in rcache?
 826:SynaptiX_FDK/services/littlefs/lfs.c ****                 diff = lfs_min(diff, rcache->size - (off-rcache->off));
 827:SynaptiX_FDK/services/littlefs/lfs.c ****                 memcpy(data, &rcache->buffer[off-rcache->off], diff);
 828:SynaptiX_FDK/services/littlefs/lfs.c **** 
 829:SynaptiX_FDK/services/littlefs/lfs.c ****                 data += diff;
 830:SynaptiX_FDK/services/littlefs/lfs.c ****                 off += diff;
 831:SynaptiX_FDK/services/littlefs/lfs.c ****                 size -= diff;
 832:SynaptiX_FDK/services/littlefs/lfs.c ****                 continue;
 833:SynaptiX_FDK/services/littlefs/lfs.c ****             }
 834:SynaptiX_FDK/services/littlefs/lfs.c ****         }
 835:SynaptiX_FDK/services/littlefs/lfs.c **** 
 836:SynaptiX_FDK/services/littlefs/lfs.c ****         // load to cache, first condition can no longer fail
 837:SynaptiX_FDK/services/littlefs/lfs.c ****         rcache->block = LFS_BLOCK_INLINE;
 838:SynaptiX_FDK/services/littlefs/lfs.c ****         rcache->off = lfs_aligndown(off, lfs->cfg->read_size);
 839:SynaptiX_FDK/services/littlefs/lfs.c ****         rcache->size = lfs_min(lfs_alignup(off+hint, lfs->cfg->read_size),
 840:SynaptiX_FDK/services/littlefs/lfs.c ****                 lfs->cfg->cache_size);
 841:SynaptiX_FDK/services/littlefs/lfs.c ****         int err = lfs_dir_getslice(lfs, dir, gmask, gtag,
 842:SynaptiX_FDK/services/littlefs/lfs.c ****                 rcache->off, rcache->buffer, rcache->size);
 843:SynaptiX_FDK/services/littlefs/lfs.c ****         if (err < 0) {
 844:SynaptiX_FDK/services/littlefs/lfs.c ****             return err;
 845:SynaptiX_FDK/services/littlefs/lfs.c ****         }
 846:SynaptiX_FDK/services/littlefs/lfs.c ****     }
 847:SynaptiX_FDK/services/littlefs/lfs.c **** 
 848:SynaptiX_FDK/services/littlefs/lfs.c ****     return 0;
 849:SynaptiX_FDK/services/littlefs/lfs.c **** }
 850:SynaptiX_FDK/services/littlefs/lfs.c **** 
 851:SynaptiX_FDK/services/littlefs/lfs.c **** #ifndef LFS_READONLY
 852:SynaptiX_FDK/services/littlefs/lfs.c **** static int lfs_dir_traverse_filter(void *p,
 853:SynaptiX_FDK/services/littlefs/lfs.c ****         lfs_tag_t tag, const void *buffer) {
 605              		.loc 1 853 44 is_stmt 1 view -0
 606              		.cfi_startproc
 607              		@ args = 0, pretend = 0, frame = 0
 608              		@ frame_needed = 0, uses_anonymous_args = 0
 609              		@ link register save eliminated.
ARM GAS  C:\Users\LENOVO\AppData\Local\Temp\ccPMz3A0.s 			page 27


 610              		.loc 1 853 44 is_stmt 0 view .LVU146
 611 0000 10B4     		push	{r4}
 612              	.LCFI11:
 613              		.cfi_def_cfa_offset 4
 614              		.cfi_offset 4, -4
 854:SynaptiX_FDK/services/littlefs/lfs.c ****     lfs_tag_t *filtertag = p;
 615              		.loc 1 854 5 is_stmt 1 view .LVU147
 616              	.LVL61:
 855:SynaptiX_FDK/services/littlefs/lfs.c ****     (void)buffer;
 617              		.loc 1 855 5 view .LVU148
 856:SynaptiX_FDK/services/littlefs/lfs.c **** 
 857:SynaptiX_FDK/services/littlefs/lfs.c ****     // which mask depends on unique bit in tag structure
 858:SynaptiX_FDK/services/littlefs/lfs.c ****     uint32_t mask = (tag & LFS_MKTAG(0x100, 0, 0))
 618              		.loc 1 858 5 view .LVU149
 859:SynaptiX_FDK/services/littlefs/lfs.c ****             ? LFS_MKTAG(0x7ff, 0x3ff, 0)
 860:SynaptiX_FDK/services/littlefs/lfs.c ****             : LFS_MKTAG(0x700, 0x3ff, 0);
 619              		.loc 1 860 13 is_stmt 0 view .LVU150
 620 0002 11F0805F 		tst	r1, #268435456
 621 0006 1CD0     		beq	.L62
 622              		.loc 1 860 13 discriminator 1 view .LVU151
 623 0008 194A     		ldr	r2, .L67
 624              	.LVL62:
 625              	.L58:
 861:SynaptiX_FDK/services/littlefs/lfs.c **** 
 862:SynaptiX_FDK/services/littlefs/lfs.c ****     // check for redundancy
 863:SynaptiX_FDK/services/littlefs/lfs.c ****     if ((mask & tag) == (mask & *filtertag) ||
 626              		.loc 1 863 5 is_stmt 1 view .LVU152
 627              		.loc 1 863 33 is_stmt 0 view .LVU153
 628 000a 0368     		ldr	r3, [r0]
 629              		.loc 1 863 22 view .LVU154
 630 000c 83EA0104 		eor	r4, r3, r1
 631              		.loc 1 863 8 view .LVU155
 632 0010 1442     		tst	r4, r2
 633 0012 18D0     		beq	.L59
 634              	.LVL63:
 635              	.LBB921:
 636              	.LBI921:
 355:SynaptiX_FDK/services/littlefs/lfs.c ****     return ((int32_t)(tag << 22) >> 22) == -1;
 637              		.loc 1 355 20 is_stmt 1 view .LVU156
 638              	.LBB922:
 356:SynaptiX_FDK/services/littlefs/lfs.c **** }
 639              		.loc 1 356 5 view .LVU157
 356:SynaptiX_FDK/services/littlefs/lfs.c **** }
 640              		.loc 1 356 34 is_stmt 0 view .LVU158
 641 0014 43F30902 		sbfx	r2, r3, #0, #10
 642              	.LVL64:
 356:SynaptiX_FDK/services/littlefs/lfs.c **** }
 643              		.loc 1 356 34 view .LVU159
 644              	.LBE922:
 645              	.LBE921:
 646              		.loc 1 863 45 discriminator 1 view .LVU160
 647 0018 B2F1FF3F 		cmp	r2, #-1
 648 001c 13D0     		beq	.L59
 864:SynaptiX_FDK/services/littlefs/lfs.c ****             lfs_tag_isdelete(*filtertag) ||
 865:SynaptiX_FDK/services/littlefs/lfs.c ****             (LFS_MKTAG(0x7ff, 0x3ff, 0) & tag) == (
 649              		.loc 1 865 41 view .LVU161
 650 001e 144C     		ldr	r4, .L67
ARM GAS  C:\Users\LENOVO\AppData\Local\Temp\ccPMz3A0.s 			page 28


 651 0020 0C40     		ands	r4, r4, r1
 866:SynaptiX_FDK/services/littlefs/lfs.c ****                 LFS_MKTAG(LFS_TYPE_DELETE, 0, 0) |
 867:SynaptiX_FDK/services/littlefs/lfs.c ****                     (LFS_MKTAG(0, 0x3ff, 0) & *filtertag))) {
 652              		.loc 1 867 45 view .LVU162
 653 0022 144A     		ldr	r2, .L67+4
 654 0024 1A40     		ands	r2, r2, r3
 866:SynaptiX_FDK/services/littlefs/lfs.c ****                 LFS_MKTAG(LFS_TYPE_DELETE, 0, 0) |
 655              		.loc 1 866 50 view .LVU163
 656 0026 42F09F42 		orr	r2, r2, #1333788672
 657 002a 42F4E002 		orr	r2, r2, #7340032
 864:SynaptiX_FDK/services/littlefs/lfs.c ****             lfs_tag_isdelete(*filtertag) ||
 658              		.loc 1 864 42 view .LVU164
 659 002e 9442     		cmp	r4, r2
 660 0030 09D0     		beq	.L59
 868:SynaptiX_FDK/services/littlefs/lfs.c ****         *filtertag = LFS_MKTAG(LFS_FROM_NOOP, 0, 0);
 869:SynaptiX_FDK/services/littlefs/lfs.c ****         return true;
 870:SynaptiX_FDK/services/littlefs/lfs.c ****     }
 871:SynaptiX_FDK/services/littlefs/lfs.c **** 
 872:SynaptiX_FDK/services/littlefs/lfs.c ****     // check if we need to adjust for created/deleted tags
 873:SynaptiX_FDK/services/littlefs/lfs.c ****     if (lfs_tag_type1(tag) == LFS_TYPE_SPLICE &&
 661              		.loc 1 873 5 is_stmt 1 view .LVU165
 662              	.LVL65:
 663              	.LBB923:
 664              	.LBI923:
 359:SynaptiX_FDK/services/littlefs/lfs.c ****     return (tag & 0x70000000) >> 20;
 665              		.loc 1 359 24 view .LVU166
 666              	.LBB924:
 360:SynaptiX_FDK/services/littlefs/lfs.c **** }
 667              		.loc 1 360 5 view .LVU167
 360:SynaptiX_FDK/services/littlefs/lfs.c **** }
 668              		.loc 1 360 31 is_stmt 0 view .LVU168
 669 0032 0A0D     		lsrs	r2, r1, #20
 670 0034 02F4E064 		and	r4, r2, #1792
 671              	.LVL66:
 360:SynaptiX_FDK/services/littlefs/lfs.c **** }
 672              		.loc 1 360 31 view .LVU169
 673              	.LBE924:
 674              	.LBE923:
 675              		.loc 1 873 8 discriminator 1 view .LVU170
 676 0038 B4F5806F 		cmp	r4, #1024
 677 003c 09D0     		beq	.L66
 874:SynaptiX_FDK/services/littlefs/lfs.c ****             lfs_tag_id(tag) <= lfs_tag_id(*filtertag)) {
 875:SynaptiX_FDK/services/littlefs/lfs.c ****         *filtertag += LFS_MKTAG(0, lfs_tag_splice(tag), 0);
 876:SynaptiX_FDK/services/littlefs/lfs.c ****     }
 877:SynaptiX_FDK/services/littlefs/lfs.c **** 
 878:SynaptiX_FDK/services/littlefs/lfs.c ****     return false;
 678              		.loc 1 878 12 view .LVU171
 679 003e 0020     		movs	r0, #0
 680              	.LVL67:
 681              		.loc 1 878 12 view .LVU172
 682 0040 04E0     		b	.L57
 683              	.LVL68:
 684              	.L62:
 860:SynaptiX_FDK/services/littlefs/lfs.c **** 
 685              		.loc 1 860 13 discriminator 2 view .LVU173
 686 0042 0D4A     		ldr	r2, .L67+8
 687              	.LVL69:
ARM GAS  C:\Users\LENOVO\AppData\Local\Temp\ccPMz3A0.s 			page 29


 860:SynaptiX_FDK/services/littlefs/lfs.c **** 
 688              		.loc 1 860 13 discriminator 2 view .LVU174
 689 0044 E1E7     		b	.L58
 690              	.LVL70:
 691              	.L59:
 868:SynaptiX_FDK/services/littlefs/lfs.c ****         return true;
 692              		.loc 1 868 9 is_stmt 1 view .LVU175
 868:SynaptiX_FDK/services/littlefs/lfs.c ****         return true;
 693              		.loc 1 868 20 is_stmt 0 view .LVU176
 694 0046 0023     		movs	r3, #0
 695 0048 0360     		str	r3, [r0]
 869:SynaptiX_FDK/services/littlefs/lfs.c ****     }
 696              		.loc 1 869 9 is_stmt 1 view .LVU177
 869:SynaptiX_FDK/services/littlefs/lfs.c ****     }
 697              		.loc 1 869 16 is_stmt 0 view .LVU178
 698 004a 0120     		movs	r0, #1
 699              	.LVL71:
 700              	.L57:
 879:SynaptiX_FDK/services/littlefs/lfs.c **** }
 701              		.loc 1 879 1 view .LVU179
 702 004c 5DF8044B 		ldr	r4, [sp], #4
 703              	.LCFI12:
 704              		.cfi_remember_state
 705              		.cfi_restore 4
 706              		.cfi_def_cfa_offset 0
 707 0050 7047     		bx	lr
 708              	.LVL72:
 709              	.L66:
 710              	.LCFI13:
 711              		.cfi_restore_state
 712              	.LBB925:
 713              	.LBI925:
 379:SynaptiX_FDK/services/littlefs/lfs.c ****     return (tag & 0x000ffc00) >> 10;
 714              		.loc 1 379 24 is_stmt 1 view .LVU180
 715              	.LBB926:
 380:SynaptiX_FDK/services/littlefs/lfs.c **** }
 716              		.loc 1 380 5 view .LVU181
 380:SynaptiX_FDK/services/littlefs/lfs.c **** }
 717              		.loc 1 380 31 is_stmt 0 view .LVU182
 718 0052 C1F38921 		ubfx	r1, r1, #10, #10
 719              	.LVL73:
 380:SynaptiX_FDK/services/littlefs/lfs.c **** }
 720              		.loc 1 380 31 view .LVU183
 721              	.LBE926:
 722              	.LBE925:
 723              	.LBB927:
 724              	.LBI927:
 379:SynaptiX_FDK/services/littlefs/lfs.c ****     return (tag & 0x000ffc00) >> 10;
 725              		.loc 1 379 24 is_stmt 1 view .LVU184
 726              	.LBB928:
 380:SynaptiX_FDK/services/littlefs/lfs.c **** }
 727              		.loc 1 380 5 view .LVU185
 380:SynaptiX_FDK/services/littlefs/lfs.c **** }
 728              		.loc 1 380 31 is_stmt 0 view .LVU186
 729 0056 C3F38924 		ubfx	r4, r3, #10, #10
 730              	.LVL74:
 380:SynaptiX_FDK/services/littlefs/lfs.c **** }
ARM GAS  C:\Users\LENOVO\AppData\Local\Temp\ccPMz3A0.s 			page 30


 731              		.loc 1 380 31 view .LVU187
 732              	.LBE928:
 733              	.LBE927:
 873:SynaptiX_FDK/services/littlefs/lfs.c ****             lfs_tag_id(tag) <= lfs_tag_id(*filtertag)) {
 734              		.loc 1 873 47 discriminator 1 view .LVU188
 735 005a 8C42     		cmp	r4, r1
 736 005c 05D3     		bcc	.L64
 875:SynaptiX_FDK/services/littlefs/lfs.c ****     }
 737              		.loc 1 875 9 is_stmt 1 view .LVU189
 738              	.LVL75:
 739              	.LBB929:
 740              	.LBI929:
 375:SynaptiX_FDK/services/littlefs/lfs.c ****     return (int8_t)lfs_tag_chunk(tag);
 741              		.loc 1 375 22 view .LVU190
 742              	.LBB930:
 376:SynaptiX_FDK/services/littlefs/lfs.c **** }
 743              		.loc 1 376 5 view .LVU191
 376:SynaptiX_FDK/services/littlefs/lfs.c **** }
 744              		.loc 1 376 12 is_stmt 0 discriminator 1 view .LVU192
 745 005e 52B2     		sxtb	r2, r2
 746              	.LVL76:
 376:SynaptiX_FDK/services/littlefs/lfs.c **** }
 747              		.loc 1 376 12 discriminator 1 view .LVU193
 748              	.LBE930:
 749              	.LBE929:
 875:SynaptiX_FDK/services/littlefs/lfs.c ****     }
 750              		.loc 1 875 20 discriminator 1 view .LVU194
 751 0060 03EB8223 		add	r3, r3, r2, lsl #10
 752 0064 0360     		str	r3, [r0]
 878:SynaptiX_FDK/services/littlefs/lfs.c **** }
 753              		.loc 1 878 12 view .LVU195
 754 0066 0020     		movs	r0, #0
 755              	.LVL77:
 878:SynaptiX_FDK/services/littlefs/lfs.c **** }
 756              		.loc 1 878 12 view .LVU196
 757 0068 F0E7     		b	.L57
 758              	.LVL78:
 759              	.L64:
 878:SynaptiX_FDK/services/littlefs/lfs.c **** }
 760              		.loc 1 878 12 view .LVU197
 761 006a 0020     		movs	r0, #0
 762              	.LVL79:
 878:SynaptiX_FDK/services/littlefs/lfs.c **** }
 763              		.loc 1 878 12 view .LVU198
 764 006c EEE7     		b	.L57
 765              	.L68:
 766 006e 00BF     		.align	2
 767              	.L67:
 768 0070 00FCFF7F 		.word	2147482624
 769 0074 00FC0F00 		.word	1047552
 770 0078 00FC0F70 		.word	1880095744
 771              		.cfi_endproc
 772              	.LFE74:
 774              		.section	.text.lfs_dir_commit_size,"ax",%progbits
 775              		.align	1
 776              		.syntax unified
 777              		.thumb
ARM GAS  C:\Users\LENOVO\AppData\Local\Temp\ccPMz3A0.s 			page 31


 778              		.thumb_func
 780              	lfs_dir_commit_size:
 781              	.LVL80:
 782              	.LFB88:
 880:SynaptiX_FDK/services/littlefs/lfs.c **** #endif
 881:SynaptiX_FDK/services/littlefs/lfs.c **** 
 882:SynaptiX_FDK/services/littlefs/lfs.c **** #ifndef LFS_READONLY
 883:SynaptiX_FDK/services/littlefs/lfs.c **** // maximum recursive depth of lfs_dir_traverse, the deepest call:
 884:SynaptiX_FDK/services/littlefs/lfs.c **** //
 885:SynaptiX_FDK/services/littlefs/lfs.c **** // traverse with commit
 886:SynaptiX_FDK/services/littlefs/lfs.c **** // '-> traverse with move
 887:SynaptiX_FDK/services/littlefs/lfs.c **** //     '-> traverse with filter
 888:SynaptiX_FDK/services/littlefs/lfs.c **** //
 889:SynaptiX_FDK/services/littlefs/lfs.c **** #define LFS_DIR_TRAVERSE_DEPTH 3
 890:SynaptiX_FDK/services/littlefs/lfs.c **** 
 891:SynaptiX_FDK/services/littlefs/lfs.c **** struct lfs_dir_traverse {
 892:SynaptiX_FDK/services/littlefs/lfs.c ****     const lfs_mdir_t *dir;
 893:SynaptiX_FDK/services/littlefs/lfs.c ****     lfs_off_t off;
 894:SynaptiX_FDK/services/littlefs/lfs.c ****     lfs_tag_t ptag;
 895:SynaptiX_FDK/services/littlefs/lfs.c ****     const struct lfs_mattr *attrs;
 896:SynaptiX_FDK/services/littlefs/lfs.c ****     int attrcount;
 897:SynaptiX_FDK/services/littlefs/lfs.c **** 
 898:SynaptiX_FDK/services/littlefs/lfs.c ****     lfs_tag_t tmask;
 899:SynaptiX_FDK/services/littlefs/lfs.c ****     lfs_tag_t ttag;
 900:SynaptiX_FDK/services/littlefs/lfs.c ****     uint16_t begin;
 901:SynaptiX_FDK/services/littlefs/lfs.c ****     uint16_t end;
 902:SynaptiX_FDK/services/littlefs/lfs.c ****     int16_t diff;
 903:SynaptiX_FDK/services/littlefs/lfs.c **** 
 904:SynaptiX_FDK/services/littlefs/lfs.c ****     int (*cb)(void *data, lfs_tag_t tag, const void *buffer);
 905:SynaptiX_FDK/services/littlefs/lfs.c ****     void *data;
 906:SynaptiX_FDK/services/littlefs/lfs.c **** 
 907:SynaptiX_FDK/services/littlefs/lfs.c ****     lfs_tag_t tag;
 908:SynaptiX_FDK/services/littlefs/lfs.c ****     const void *buffer;
 909:SynaptiX_FDK/services/littlefs/lfs.c ****     struct lfs_diskoff disk;
 910:SynaptiX_FDK/services/littlefs/lfs.c **** };
 911:SynaptiX_FDK/services/littlefs/lfs.c **** 
 912:SynaptiX_FDK/services/littlefs/lfs.c **** static int lfs_dir_traverse(lfs_t *lfs,
 913:SynaptiX_FDK/services/littlefs/lfs.c ****         const lfs_mdir_t *dir, lfs_off_t off, lfs_tag_t ptag,
 914:SynaptiX_FDK/services/littlefs/lfs.c ****         const struct lfs_mattr *attrs, int attrcount,
 915:SynaptiX_FDK/services/littlefs/lfs.c ****         lfs_tag_t tmask, lfs_tag_t ttag,
 916:SynaptiX_FDK/services/littlefs/lfs.c ****         uint16_t begin, uint16_t end, int16_t diff,
 917:SynaptiX_FDK/services/littlefs/lfs.c ****         int (*cb)(void *data, lfs_tag_t tag, const void *buffer), void *data) {
 918:SynaptiX_FDK/services/littlefs/lfs.c ****     // This function in inherently recursive, but bounded. To allow tool-based
 919:SynaptiX_FDK/services/littlefs/lfs.c ****     // analysis without unnecessary code-cost we use an explicit stack
 920:SynaptiX_FDK/services/littlefs/lfs.c ****     struct lfs_dir_traverse stack[LFS_DIR_TRAVERSE_DEPTH-1];
 921:SynaptiX_FDK/services/littlefs/lfs.c ****     unsigned sp = 0;
 922:SynaptiX_FDK/services/littlefs/lfs.c ****     int res;
 923:SynaptiX_FDK/services/littlefs/lfs.c **** 
 924:SynaptiX_FDK/services/littlefs/lfs.c ****     // iterate over directory and attrs
 925:SynaptiX_FDK/services/littlefs/lfs.c ****     lfs_tag_t tag;
 926:SynaptiX_FDK/services/littlefs/lfs.c ****     const void *buffer;
 927:SynaptiX_FDK/services/littlefs/lfs.c ****     struct lfs_diskoff disk = {0};
 928:SynaptiX_FDK/services/littlefs/lfs.c ****     while (true) {
 929:SynaptiX_FDK/services/littlefs/lfs.c ****         {
 930:SynaptiX_FDK/services/littlefs/lfs.c ****             if (off+lfs_tag_dsize(ptag) < dir->off) {
 931:SynaptiX_FDK/services/littlefs/lfs.c ****                 off += lfs_tag_dsize(ptag);
 932:SynaptiX_FDK/services/littlefs/lfs.c ****                 int err = lfs_bd_read(lfs,
ARM GAS  C:\Users\LENOVO\AppData\Local\Temp\ccPMz3A0.s 			page 32


 933:SynaptiX_FDK/services/littlefs/lfs.c ****                         NULL, &lfs->rcache, sizeof(tag),
 934:SynaptiX_FDK/services/littlefs/lfs.c ****                         dir->pair[0], off, &tag, sizeof(tag));
 935:SynaptiX_FDK/services/littlefs/lfs.c ****                 if (err) {
 936:SynaptiX_FDK/services/littlefs/lfs.c ****                     return err;
 937:SynaptiX_FDK/services/littlefs/lfs.c ****                 }
 938:SynaptiX_FDK/services/littlefs/lfs.c **** 
 939:SynaptiX_FDK/services/littlefs/lfs.c ****                 tag = (lfs_frombe32(tag) ^ ptag) | 0x80000000;
 940:SynaptiX_FDK/services/littlefs/lfs.c ****                 disk.block = dir->pair[0];
 941:SynaptiX_FDK/services/littlefs/lfs.c ****                 disk.off = off+sizeof(lfs_tag_t);
 942:SynaptiX_FDK/services/littlefs/lfs.c ****                 buffer = &disk;
 943:SynaptiX_FDK/services/littlefs/lfs.c ****                 ptag = tag;
 944:SynaptiX_FDK/services/littlefs/lfs.c ****             } else if (attrcount > 0) {
 945:SynaptiX_FDK/services/littlefs/lfs.c ****                 tag = attrs[0].tag;
 946:SynaptiX_FDK/services/littlefs/lfs.c ****                 buffer = attrs[0].buffer;
 947:SynaptiX_FDK/services/littlefs/lfs.c ****                 attrs += 1;
 948:SynaptiX_FDK/services/littlefs/lfs.c ****                 attrcount -= 1;
 949:SynaptiX_FDK/services/littlefs/lfs.c ****             } else {
 950:SynaptiX_FDK/services/littlefs/lfs.c ****                 // finished traversal, pop from stack?
 951:SynaptiX_FDK/services/littlefs/lfs.c ****                 res = 0;
 952:SynaptiX_FDK/services/littlefs/lfs.c ****                 break;
 953:SynaptiX_FDK/services/littlefs/lfs.c ****             }
 954:SynaptiX_FDK/services/littlefs/lfs.c **** 
 955:SynaptiX_FDK/services/littlefs/lfs.c ****             // do we need to filter?
 956:SynaptiX_FDK/services/littlefs/lfs.c ****             lfs_tag_t mask = LFS_MKTAG(0x7ff, 0, 0);
 957:SynaptiX_FDK/services/littlefs/lfs.c ****             if ((mask & tmask & tag) != (mask & tmask & ttag)) {
 958:SynaptiX_FDK/services/littlefs/lfs.c ****                 continue;
 959:SynaptiX_FDK/services/littlefs/lfs.c ****             }
 960:SynaptiX_FDK/services/littlefs/lfs.c **** 
 961:SynaptiX_FDK/services/littlefs/lfs.c ****             if (lfs_tag_id(tmask) != 0) {
 962:SynaptiX_FDK/services/littlefs/lfs.c ****                 LFS_ASSERT(sp < LFS_DIR_TRAVERSE_DEPTH);
 963:SynaptiX_FDK/services/littlefs/lfs.c ****                 // recurse, scan for duplicates, and update tag based on
 964:SynaptiX_FDK/services/littlefs/lfs.c ****                 // creates/deletes
 965:SynaptiX_FDK/services/littlefs/lfs.c ****                 stack[sp] = (struct lfs_dir_traverse){
 966:SynaptiX_FDK/services/littlefs/lfs.c ****                     .dir        = dir,
 967:SynaptiX_FDK/services/littlefs/lfs.c ****                     .off        = off,
 968:SynaptiX_FDK/services/littlefs/lfs.c ****                     .ptag       = ptag,
 969:SynaptiX_FDK/services/littlefs/lfs.c ****                     .attrs      = attrs,
 970:SynaptiX_FDK/services/littlefs/lfs.c ****                     .attrcount  = attrcount,
 971:SynaptiX_FDK/services/littlefs/lfs.c ****                     .tmask      = tmask,
 972:SynaptiX_FDK/services/littlefs/lfs.c ****                     .ttag       = ttag,
 973:SynaptiX_FDK/services/littlefs/lfs.c ****                     .begin      = begin,
 974:SynaptiX_FDK/services/littlefs/lfs.c ****                     .end        = end,
 975:SynaptiX_FDK/services/littlefs/lfs.c ****                     .diff       = diff,
 976:SynaptiX_FDK/services/littlefs/lfs.c ****                     .cb         = cb,
 977:SynaptiX_FDK/services/littlefs/lfs.c ****                     .data       = data,
 978:SynaptiX_FDK/services/littlefs/lfs.c ****                     .tag        = tag,
 979:SynaptiX_FDK/services/littlefs/lfs.c ****                     .buffer     = buffer,
 980:SynaptiX_FDK/services/littlefs/lfs.c ****                     .disk       = disk,
 981:SynaptiX_FDK/services/littlefs/lfs.c ****                 };
 982:SynaptiX_FDK/services/littlefs/lfs.c ****                 sp += 1;
 983:SynaptiX_FDK/services/littlefs/lfs.c **** 
 984:SynaptiX_FDK/services/littlefs/lfs.c ****                 tmask = 0;
 985:SynaptiX_FDK/services/littlefs/lfs.c ****                 ttag = 0;
 986:SynaptiX_FDK/services/littlefs/lfs.c ****                 begin = 0;
 987:SynaptiX_FDK/services/littlefs/lfs.c ****                 end = 0;
 988:SynaptiX_FDK/services/littlefs/lfs.c ****                 diff = 0;
 989:SynaptiX_FDK/services/littlefs/lfs.c ****                 cb = lfs_dir_traverse_filter;
ARM GAS  C:\Users\LENOVO\AppData\Local\Temp\ccPMz3A0.s 			page 33


 990:SynaptiX_FDK/services/littlefs/lfs.c ****                 data = &stack[sp-1].tag;
 991:SynaptiX_FDK/services/littlefs/lfs.c ****                 continue;
 992:SynaptiX_FDK/services/littlefs/lfs.c ****             }
 993:SynaptiX_FDK/services/littlefs/lfs.c ****         }
 994:SynaptiX_FDK/services/littlefs/lfs.c **** 
 995:SynaptiX_FDK/services/littlefs/lfs.c **** popped:
 996:SynaptiX_FDK/services/littlefs/lfs.c ****         // in filter range?
 997:SynaptiX_FDK/services/littlefs/lfs.c ****         if (lfs_tag_id(tmask) != 0 &&
 998:SynaptiX_FDK/services/littlefs/lfs.c ****                 !(lfs_tag_id(tag) >= begin && lfs_tag_id(tag) < end)) {
 999:SynaptiX_FDK/services/littlefs/lfs.c ****             continue;
1000:SynaptiX_FDK/services/littlefs/lfs.c ****         }
1001:SynaptiX_FDK/services/littlefs/lfs.c **** 
1002:SynaptiX_FDK/services/littlefs/lfs.c ****         // handle special cases for mcu-side operations
1003:SynaptiX_FDK/services/littlefs/lfs.c ****         if (lfs_tag_type3(tag) == LFS_FROM_NOOP) {
1004:SynaptiX_FDK/services/littlefs/lfs.c ****             // do nothing
1005:SynaptiX_FDK/services/littlefs/lfs.c ****         } else if (lfs_tag_type3(tag) == LFS_FROM_MOVE) {
1006:SynaptiX_FDK/services/littlefs/lfs.c ****             // Without this condition, lfs_dir_traverse can exhibit an
1007:SynaptiX_FDK/services/littlefs/lfs.c ****             // extremely expensive O(n^3) of nested loops when renaming.
1008:SynaptiX_FDK/services/littlefs/lfs.c ****             // This happens because lfs_dir_traverse tries to filter tags by
1009:SynaptiX_FDK/services/littlefs/lfs.c ****             // the tags in the source directory, triggering a second
1010:SynaptiX_FDK/services/littlefs/lfs.c ****             // lfs_dir_traverse with its own filter operation.
1011:SynaptiX_FDK/services/littlefs/lfs.c ****             //
1012:SynaptiX_FDK/services/littlefs/lfs.c ****             // traverse with commit
1013:SynaptiX_FDK/services/littlefs/lfs.c ****             // '-> traverse with filter
1014:SynaptiX_FDK/services/littlefs/lfs.c ****             //     '-> traverse with move
1015:SynaptiX_FDK/services/littlefs/lfs.c ****             //         '-> traverse with filter
1016:SynaptiX_FDK/services/littlefs/lfs.c ****             //
1017:SynaptiX_FDK/services/littlefs/lfs.c ****             // However we don't actually care about filtering the second set of
1018:SynaptiX_FDK/services/littlefs/lfs.c ****             // tags, since duplicate tags have no effect when filtering.
1019:SynaptiX_FDK/services/littlefs/lfs.c ****             //
1020:SynaptiX_FDK/services/littlefs/lfs.c ****             // This check skips this unnecessary recursive filtering explicitly,
1021:SynaptiX_FDK/services/littlefs/lfs.c ****             // reducing this runtime from O(n^3) to O(n^2).
1022:SynaptiX_FDK/services/littlefs/lfs.c ****             if (cb == lfs_dir_traverse_filter) {
1023:SynaptiX_FDK/services/littlefs/lfs.c ****                 continue;
1024:SynaptiX_FDK/services/littlefs/lfs.c ****             }
1025:SynaptiX_FDK/services/littlefs/lfs.c **** 
1026:SynaptiX_FDK/services/littlefs/lfs.c ****             // recurse into move
1027:SynaptiX_FDK/services/littlefs/lfs.c ****             stack[sp] = (struct lfs_dir_traverse){
1028:SynaptiX_FDK/services/littlefs/lfs.c ****                 .dir        = dir,
1029:SynaptiX_FDK/services/littlefs/lfs.c ****                 .off        = off,
1030:SynaptiX_FDK/services/littlefs/lfs.c ****                 .ptag       = ptag,
1031:SynaptiX_FDK/services/littlefs/lfs.c ****                 .attrs      = attrs,
1032:SynaptiX_FDK/services/littlefs/lfs.c ****                 .attrcount  = attrcount,
1033:SynaptiX_FDK/services/littlefs/lfs.c ****                 .tmask      = tmask,
1034:SynaptiX_FDK/services/littlefs/lfs.c ****                 .ttag       = ttag,
1035:SynaptiX_FDK/services/littlefs/lfs.c ****                 .begin      = begin,
1036:SynaptiX_FDK/services/littlefs/lfs.c ****                 .end        = end,
1037:SynaptiX_FDK/services/littlefs/lfs.c ****                 .diff       = diff,
1038:SynaptiX_FDK/services/littlefs/lfs.c ****                 .cb         = cb,
1039:SynaptiX_FDK/services/littlefs/lfs.c ****                 .data       = data,
1040:SynaptiX_FDK/services/littlefs/lfs.c ****                 .tag        = LFS_MKTAG(LFS_FROM_NOOP, 0, 0),
1041:SynaptiX_FDK/services/littlefs/lfs.c ****             };
1042:SynaptiX_FDK/services/littlefs/lfs.c ****             sp += 1;
1043:SynaptiX_FDK/services/littlefs/lfs.c **** 
1044:SynaptiX_FDK/services/littlefs/lfs.c ****             uint16_t fromid = lfs_tag_size(tag);
1045:SynaptiX_FDK/services/littlefs/lfs.c ****             uint16_t toid = lfs_tag_id(tag);
1046:SynaptiX_FDK/services/littlefs/lfs.c ****             dir = buffer;
ARM GAS  C:\Users\LENOVO\AppData\Local\Temp\ccPMz3A0.s 			page 34


1047:SynaptiX_FDK/services/littlefs/lfs.c ****             off = 0;
1048:SynaptiX_FDK/services/littlefs/lfs.c ****             ptag = 0xffffffff;
1049:SynaptiX_FDK/services/littlefs/lfs.c ****             attrs = NULL;
1050:SynaptiX_FDK/services/littlefs/lfs.c ****             attrcount = 0;
1051:SynaptiX_FDK/services/littlefs/lfs.c ****             tmask = LFS_MKTAG(0x600, 0x3ff, 0);
1052:SynaptiX_FDK/services/littlefs/lfs.c ****             ttag = LFS_MKTAG(LFS_TYPE_STRUCT, 0, 0);
1053:SynaptiX_FDK/services/littlefs/lfs.c ****             begin = fromid;
1054:SynaptiX_FDK/services/littlefs/lfs.c ****             end = fromid+1;
1055:SynaptiX_FDK/services/littlefs/lfs.c ****             diff = toid-fromid+diff;
1056:SynaptiX_FDK/services/littlefs/lfs.c ****         } else if (lfs_tag_type3(tag) == LFS_FROM_USERATTRS) {
1057:SynaptiX_FDK/services/littlefs/lfs.c ****             for (unsigned i = 0; i < lfs_tag_size(tag); i++) {
1058:SynaptiX_FDK/services/littlefs/lfs.c ****                 const struct lfs_attr *a = buffer;
1059:SynaptiX_FDK/services/littlefs/lfs.c ****                 res = cb(data, LFS_MKTAG(LFS_TYPE_USERATTR + a[i].type,
1060:SynaptiX_FDK/services/littlefs/lfs.c ****                         lfs_tag_id(tag) + diff, a[i].size), a[i].buffer);
1061:SynaptiX_FDK/services/littlefs/lfs.c ****                 if (res < 0) {
1062:SynaptiX_FDK/services/littlefs/lfs.c ****                     return res;
1063:SynaptiX_FDK/services/littlefs/lfs.c ****                 }
1064:SynaptiX_FDK/services/littlefs/lfs.c **** 
1065:SynaptiX_FDK/services/littlefs/lfs.c ****                 if (res) {
1066:SynaptiX_FDK/services/littlefs/lfs.c ****                     break;
1067:SynaptiX_FDK/services/littlefs/lfs.c ****                 }
1068:SynaptiX_FDK/services/littlefs/lfs.c ****             }
1069:SynaptiX_FDK/services/littlefs/lfs.c ****         } else {
1070:SynaptiX_FDK/services/littlefs/lfs.c ****             res = cb(data, tag + LFS_MKTAG(0, diff, 0), buffer);
1071:SynaptiX_FDK/services/littlefs/lfs.c ****             if (res < 0) {
1072:SynaptiX_FDK/services/littlefs/lfs.c ****                 return res;
1073:SynaptiX_FDK/services/littlefs/lfs.c ****             }
1074:SynaptiX_FDK/services/littlefs/lfs.c **** 
1075:SynaptiX_FDK/services/littlefs/lfs.c ****             if (res) {
1076:SynaptiX_FDK/services/littlefs/lfs.c ****                 break;
1077:SynaptiX_FDK/services/littlefs/lfs.c ****             }
1078:SynaptiX_FDK/services/littlefs/lfs.c ****         }
1079:SynaptiX_FDK/services/littlefs/lfs.c ****     }
1080:SynaptiX_FDK/services/littlefs/lfs.c **** 
1081:SynaptiX_FDK/services/littlefs/lfs.c ****     if (sp > 0) {
1082:SynaptiX_FDK/services/littlefs/lfs.c ****         // pop from the stack and return, fortunately all pops share
1083:SynaptiX_FDK/services/littlefs/lfs.c ****         // a destination
1084:SynaptiX_FDK/services/littlefs/lfs.c ****         dir         = stack[sp-1].dir;
1085:SynaptiX_FDK/services/littlefs/lfs.c ****         off         = stack[sp-1].off;
1086:SynaptiX_FDK/services/littlefs/lfs.c ****         ptag        = stack[sp-1].ptag;
1087:SynaptiX_FDK/services/littlefs/lfs.c ****         attrs       = stack[sp-1].attrs;
1088:SynaptiX_FDK/services/littlefs/lfs.c ****         attrcount   = stack[sp-1].attrcount;
1089:SynaptiX_FDK/services/littlefs/lfs.c ****         tmask       = stack[sp-1].tmask;
1090:SynaptiX_FDK/services/littlefs/lfs.c ****         ttag        = stack[sp-1].ttag;
1091:SynaptiX_FDK/services/littlefs/lfs.c ****         begin       = stack[sp-1].begin;
1092:SynaptiX_FDK/services/littlefs/lfs.c ****         end         = stack[sp-1].end;
1093:SynaptiX_FDK/services/littlefs/lfs.c ****         diff        = stack[sp-1].diff;
1094:SynaptiX_FDK/services/littlefs/lfs.c ****         cb          = stack[sp-1].cb;
1095:SynaptiX_FDK/services/littlefs/lfs.c ****         data        = stack[sp-1].data;
1096:SynaptiX_FDK/services/littlefs/lfs.c ****         tag         = stack[sp-1].tag;
1097:SynaptiX_FDK/services/littlefs/lfs.c ****         buffer      = stack[sp-1].buffer;
1098:SynaptiX_FDK/services/littlefs/lfs.c ****         disk        = stack[sp-1].disk;
1099:SynaptiX_FDK/services/littlefs/lfs.c ****         sp -= 1;
1100:SynaptiX_FDK/services/littlefs/lfs.c ****         goto popped;
1101:SynaptiX_FDK/services/littlefs/lfs.c ****     } else {
1102:SynaptiX_FDK/services/littlefs/lfs.c ****         return res;
1103:SynaptiX_FDK/services/littlefs/lfs.c ****     }
ARM GAS  C:\Users\LENOVO\AppData\Local\Temp\ccPMz3A0.s 			page 35


1104:SynaptiX_FDK/services/littlefs/lfs.c **** }
1105:SynaptiX_FDK/services/littlefs/lfs.c **** #endif
1106:SynaptiX_FDK/services/littlefs/lfs.c **** 
1107:SynaptiX_FDK/services/littlefs/lfs.c **** static lfs_stag_t lfs_dir_fetchmatch(lfs_t *lfs,
1108:SynaptiX_FDK/services/littlefs/lfs.c ****         lfs_mdir_t *dir, const lfs_block_t pair[2],
1109:SynaptiX_FDK/services/littlefs/lfs.c ****         lfs_tag_t fmask, lfs_tag_t ftag, uint16_t *id,
1110:SynaptiX_FDK/services/littlefs/lfs.c ****         int (*cb)(void *data, lfs_tag_t tag, const void *buffer), void *data) {
1111:SynaptiX_FDK/services/littlefs/lfs.c ****     // we can find tag very efficiently during a fetch, since we're already
1112:SynaptiX_FDK/services/littlefs/lfs.c ****     // scanning the entire directory
1113:SynaptiX_FDK/services/littlefs/lfs.c ****     lfs_stag_t besttag = -1;
1114:SynaptiX_FDK/services/littlefs/lfs.c **** 
1115:SynaptiX_FDK/services/littlefs/lfs.c ****     // if either block address is invalid we return LFS_ERR_CORRUPT here,
1116:SynaptiX_FDK/services/littlefs/lfs.c ****     // otherwise later writes to the pair could fail
1117:SynaptiX_FDK/services/littlefs/lfs.c ****     if (lfs->block_count 
1118:SynaptiX_FDK/services/littlefs/lfs.c ****             && (pair[0] >= lfs->block_count || pair[1] >= lfs->block_count)) {
1119:SynaptiX_FDK/services/littlefs/lfs.c ****         return LFS_ERR_CORRUPT;
1120:SynaptiX_FDK/services/littlefs/lfs.c ****     }
1121:SynaptiX_FDK/services/littlefs/lfs.c **** 
1122:SynaptiX_FDK/services/littlefs/lfs.c ****     // find the block with the most recent revision
1123:SynaptiX_FDK/services/littlefs/lfs.c ****     uint32_t revs[2] = {0, 0};
1124:SynaptiX_FDK/services/littlefs/lfs.c ****     int r = 0;
1125:SynaptiX_FDK/services/littlefs/lfs.c ****     for (int i = 0; i < 2; i++) {
1126:SynaptiX_FDK/services/littlefs/lfs.c ****         int err = lfs_bd_read(lfs,
1127:SynaptiX_FDK/services/littlefs/lfs.c ****                 NULL, &lfs->rcache, sizeof(revs[i]),
1128:SynaptiX_FDK/services/littlefs/lfs.c ****                 pair[i], 0, &revs[i], sizeof(revs[i]));
1129:SynaptiX_FDK/services/littlefs/lfs.c ****         revs[i] = lfs_fromle32(revs[i]);
1130:SynaptiX_FDK/services/littlefs/lfs.c ****         if (err && err != LFS_ERR_CORRUPT) {
1131:SynaptiX_FDK/services/littlefs/lfs.c ****             return err;
1132:SynaptiX_FDK/services/littlefs/lfs.c ****         }
1133:SynaptiX_FDK/services/littlefs/lfs.c **** 
1134:SynaptiX_FDK/services/littlefs/lfs.c ****         if (err != LFS_ERR_CORRUPT &&
1135:SynaptiX_FDK/services/littlefs/lfs.c ****                 lfs_scmp(revs[i], revs[(i+1)%2]) > 0) {
1136:SynaptiX_FDK/services/littlefs/lfs.c ****             r = i;
1137:SynaptiX_FDK/services/littlefs/lfs.c ****         }
1138:SynaptiX_FDK/services/littlefs/lfs.c ****     }
1139:SynaptiX_FDK/services/littlefs/lfs.c **** 
1140:SynaptiX_FDK/services/littlefs/lfs.c ****     dir->pair[0] = pair[(r+0)%2];
1141:SynaptiX_FDK/services/littlefs/lfs.c ****     dir->pair[1] = pair[(r+1)%2];
1142:SynaptiX_FDK/services/littlefs/lfs.c ****     dir->rev = revs[(r+0)%2];
1143:SynaptiX_FDK/services/littlefs/lfs.c ****     dir->off = 0; // nonzero = found some commits
1144:SynaptiX_FDK/services/littlefs/lfs.c **** 
1145:SynaptiX_FDK/services/littlefs/lfs.c ****     // now scan tags to fetch the actual dir and find possible match
1146:SynaptiX_FDK/services/littlefs/lfs.c ****     for (int i = 0; i < 2; i++) {
1147:SynaptiX_FDK/services/littlefs/lfs.c ****         lfs_off_t off = 0;
1148:SynaptiX_FDK/services/littlefs/lfs.c ****         lfs_tag_t ptag = 0xffffffff;
1149:SynaptiX_FDK/services/littlefs/lfs.c **** 
1150:SynaptiX_FDK/services/littlefs/lfs.c ****         uint16_t tempcount = 0;
1151:SynaptiX_FDK/services/littlefs/lfs.c ****         lfs_block_t temptail[2] = {LFS_BLOCK_NULL, LFS_BLOCK_NULL};
1152:SynaptiX_FDK/services/littlefs/lfs.c ****         bool tempsplit = false;
1153:SynaptiX_FDK/services/littlefs/lfs.c ****         lfs_stag_t tempbesttag = besttag;
1154:SynaptiX_FDK/services/littlefs/lfs.c **** 
1155:SynaptiX_FDK/services/littlefs/lfs.c ****         // assume not erased until proven otherwise
1156:SynaptiX_FDK/services/littlefs/lfs.c ****         bool maybeerased = false;
1157:SynaptiX_FDK/services/littlefs/lfs.c ****         bool hasfcrc = false;
1158:SynaptiX_FDK/services/littlefs/lfs.c ****         struct lfs_fcrc fcrc;
1159:SynaptiX_FDK/services/littlefs/lfs.c **** 
1160:SynaptiX_FDK/services/littlefs/lfs.c ****         dir->rev = lfs_tole32(dir->rev);
ARM GAS  C:\Users\LENOVO\AppData\Local\Temp\ccPMz3A0.s 			page 36


1161:SynaptiX_FDK/services/littlefs/lfs.c ****         uint32_t crc = lfs_crc(0xffffffff, &dir->rev, sizeof(dir->rev));
1162:SynaptiX_FDK/services/littlefs/lfs.c ****         dir->rev = lfs_fromle32(dir->rev);
1163:SynaptiX_FDK/services/littlefs/lfs.c **** 
1164:SynaptiX_FDK/services/littlefs/lfs.c ****         while (true) {
1165:SynaptiX_FDK/services/littlefs/lfs.c ****             // extract next tag
1166:SynaptiX_FDK/services/littlefs/lfs.c ****             lfs_tag_t tag;
1167:SynaptiX_FDK/services/littlefs/lfs.c ****             off += lfs_tag_dsize(ptag);
1168:SynaptiX_FDK/services/littlefs/lfs.c ****             int err = lfs_bd_read(lfs,
1169:SynaptiX_FDK/services/littlefs/lfs.c ****                     NULL, &lfs->rcache, lfs->cfg->block_size,
1170:SynaptiX_FDK/services/littlefs/lfs.c ****                     dir->pair[0], off, &tag, sizeof(tag));
1171:SynaptiX_FDK/services/littlefs/lfs.c ****             if (err) {
1172:SynaptiX_FDK/services/littlefs/lfs.c ****                 if (err == LFS_ERR_CORRUPT) {
1173:SynaptiX_FDK/services/littlefs/lfs.c ****                     // can't continue?
1174:SynaptiX_FDK/services/littlefs/lfs.c ****                     break;
1175:SynaptiX_FDK/services/littlefs/lfs.c ****                 }
1176:SynaptiX_FDK/services/littlefs/lfs.c ****                 return err;
1177:SynaptiX_FDK/services/littlefs/lfs.c ****             }
1178:SynaptiX_FDK/services/littlefs/lfs.c **** 
1179:SynaptiX_FDK/services/littlefs/lfs.c ****             crc = lfs_crc(crc, &tag, sizeof(tag));
1180:SynaptiX_FDK/services/littlefs/lfs.c ****             tag = lfs_frombe32(tag) ^ ptag;
1181:SynaptiX_FDK/services/littlefs/lfs.c **** 
1182:SynaptiX_FDK/services/littlefs/lfs.c ****             // next commit not yet programmed?
1183:SynaptiX_FDK/services/littlefs/lfs.c ****             if (!lfs_tag_isvalid(tag)) {
1184:SynaptiX_FDK/services/littlefs/lfs.c ****                 // we only might be erased if the last tag was a crc
1185:SynaptiX_FDK/services/littlefs/lfs.c ****                 maybeerased = (lfs_tag_type2(ptag) == LFS_TYPE_CCRC);
1186:SynaptiX_FDK/services/littlefs/lfs.c ****                 break;
1187:SynaptiX_FDK/services/littlefs/lfs.c ****             // out of range?
1188:SynaptiX_FDK/services/littlefs/lfs.c ****             } else if (off + lfs_tag_dsize(tag) > lfs->cfg->block_size) {
1189:SynaptiX_FDK/services/littlefs/lfs.c ****                 break;
1190:SynaptiX_FDK/services/littlefs/lfs.c ****             }
1191:SynaptiX_FDK/services/littlefs/lfs.c **** 
1192:SynaptiX_FDK/services/littlefs/lfs.c ****             ptag = tag;
1193:SynaptiX_FDK/services/littlefs/lfs.c **** 
1194:SynaptiX_FDK/services/littlefs/lfs.c ****             if (lfs_tag_type2(tag) == LFS_TYPE_CCRC) {
1195:SynaptiX_FDK/services/littlefs/lfs.c ****                 // check the crc attr
1196:SynaptiX_FDK/services/littlefs/lfs.c ****                 uint32_t dcrc;
1197:SynaptiX_FDK/services/littlefs/lfs.c ****                 err = lfs_bd_read(lfs,
1198:SynaptiX_FDK/services/littlefs/lfs.c ****                         NULL, &lfs->rcache, lfs->cfg->block_size,
1199:SynaptiX_FDK/services/littlefs/lfs.c ****                         dir->pair[0], off+sizeof(tag), &dcrc, sizeof(dcrc));
1200:SynaptiX_FDK/services/littlefs/lfs.c ****                 if (err) {
1201:SynaptiX_FDK/services/littlefs/lfs.c ****                     if (err == LFS_ERR_CORRUPT) {
1202:SynaptiX_FDK/services/littlefs/lfs.c ****                         break;
1203:SynaptiX_FDK/services/littlefs/lfs.c ****                     }
1204:SynaptiX_FDK/services/littlefs/lfs.c ****                     return err;
1205:SynaptiX_FDK/services/littlefs/lfs.c ****                 }
1206:SynaptiX_FDK/services/littlefs/lfs.c ****                 dcrc = lfs_fromle32(dcrc);
1207:SynaptiX_FDK/services/littlefs/lfs.c **** 
1208:SynaptiX_FDK/services/littlefs/lfs.c ****                 if (crc != dcrc) {
1209:SynaptiX_FDK/services/littlefs/lfs.c ****                     break;
1210:SynaptiX_FDK/services/littlefs/lfs.c ****                 }
1211:SynaptiX_FDK/services/littlefs/lfs.c **** 
1212:SynaptiX_FDK/services/littlefs/lfs.c ****                 // reset the next bit if we need to
1213:SynaptiX_FDK/services/littlefs/lfs.c ****                 ptag ^= (lfs_tag_t)(lfs_tag_chunk(tag) & 1U) << 31;
1214:SynaptiX_FDK/services/littlefs/lfs.c **** 
1215:SynaptiX_FDK/services/littlefs/lfs.c ****                 // toss our crc into the filesystem seed for
1216:SynaptiX_FDK/services/littlefs/lfs.c ****                 // pseudorandom numbers, note we use another crc here
1217:SynaptiX_FDK/services/littlefs/lfs.c ****                 // as a collection function because it is sufficiently
ARM GAS  C:\Users\LENOVO\AppData\Local\Temp\ccPMz3A0.s 			page 37


1218:SynaptiX_FDK/services/littlefs/lfs.c ****                 // random and convenient
1219:SynaptiX_FDK/services/littlefs/lfs.c ****                 lfs->seed = lfs_crc(lfs->seed, &crc, sizeof(crc));
1220:SynaptiX_FDK/services/littlefs/lfs.c **** 
1221:SynaptiX_FDK/services/littlefs/lfs.c ****                 // update with what's found so far
1222:SynaptiX_FDK/services/littlefs/lfs.c ****                 besttag = tempbesttag;
1223:SynaptiX_FDK/services/littlefs/lfs.c ****                 dir->off = off + lfs_tag_dsize(tag);
1224:SynaptiX_FDK/services/littlefs/lfs.c ****                 dir->etag = ptag;
1225:SynaptiX_FDK/services/littlefs/lfs.c ****                 dir->count = tempcount;
1226:SynaptiX_FDK/services/littlefs/lfs.c ****                 dir->tail[0] = temptail[0];
1227:SynaptiX_FDK/services/littlefs/lfs.c ****                 dir->tail[1] = temptail[1];
1228:SynaptiX_FDK/services/littlefs/lfs.c ****                 dir->split = tempsplit;
1229:SynaptiX_FDK/services/littlefs/lfs.c **** 
1230:SynaptiX_FDK/services/littlefs/lfs.c ****                 // reset crc, hasfcrc
1231:SynaptiX_FDK/services/littlefs/lfs.c ****                 crc = 0xffffffff;
1232:SynaptiX_FDK/services/littlefs/lfs.c ****                 continue;
1233:SynaptiX_FDK/services/littlefs/lfs.c ****             }
1234:SynaptiX_FDK/services/littlefs/lfs.c **** 
1235:SynaptiX_FDK/services/littlefs/lfs.c ****             // crc the entry first, hopefully leaving it in the cache
1236:SynaptiX_FDK/services/littlefs/lfs.c ****             err = lfs_bd_crc(lfs,
1237:SynaptiX_FDK/services/littlefs/lfs.c ****                     NULL, &lfs->rcache, lfs->cfg->block_size,
1238:SynaptiX_FDK/services/littlefs/lfs.c ****                     dir->pair[0], off+sizeof(tag),
1239:SynaptiX_FDK/services/littlefs/lfs.c ****                     lfs_tag_dsize(tag)-sizeof(tag), &crc);
1240:SynaptiX_FDK/services/littlefs/lfs.c ****             if (err) {
1241:SynaptiX_FDK/services/littlefs/lfs.c ****                 if (err == LFS_ERR_CORRUPT) {
1242:SynaptiX_FDK/services/littlefs/lfs.c ****                     break;
1243:SynaptiX_FDK/services/littlefs/lfs.c ****                 }
1244:SynaptiX_FDK/services/littlefs/lfs.c ****                 return err;
1245:SynaptiX_FDK/services/littlefs/lfs.c ****             }
1246:SynaptiX_FDK/services/littlefs/lfs.c **** 
1247:SynaptiX_FDK/services/littlefs/lfs.c ****             // directory modification tags?
1248:SynaptiX_FDK/services/littlefs/lfs.c ****             if (lfs_tag_type1(tag) == LFS_TYPE_NAME) {
1249:SynaptiX_FDK/services/littlefs/lfs.c ****                 // increase count of files if necessary
1250:SynaptiX_FDK/services/littlefs/lfs.c ****                 if (lfs_tag_id(tag) >= tempcount) {
1251:SynaptiX_FDK/services/littlefs/lfs.c ****                     tempcount = lfs_tag_id(tag) + 1;
1252:SynaptiX_FDK/services/littlefs/lfs.c ****                 }
1253:SynaptiX_FDK/services/littlefs/lfs.c ****             } else if (lfs_tag_type1(tag) == LFS_TYPE_SPLICE) {
1254:SynaptiX_FDK/services/littlefs/lfs.c ****                 tempcount += lfs_tag_splice(tag);
1255:SynaptiX_FDK/services/littlefs/lfs.c **** 
1256:SynaptiX_FDK/services/littlefs/lfs.c ****                 if (tag == (LFS_MKTAG(LFS_TYPE_DELETE, 0, 0) |
1257:SynaptiX_FDK/services/littlefs/lfs.c ****                         (LFS_MKTAG(0, 0x3ff, 0) & tempbesttag))) {
1258:SynaptiX_FDK/services/littlefs/lfs.c ****                     tempbesttag |= 0x80000000;
1259:SynaptiX_FDK/services/littlefs/lfs.c ****                 } else if (tempbesttag != -1 &&
1260:SynaptiX_FDK/services/littlefs/lfs.c ****                         lfs_tag_id(tag) <= lfs_tag_id(tempbesttag)) {
1261:SynaptiX_FDK/services/littlefs/lfs.c ****                     tempbesttag += LFS_MKTAG(0, lfs_tag_splice(tag), 0);
1262:SynaptiX_FDK/services/littlefs/lfs.c ****                 }
1263:SynaptiX_FDK/services/littlefs/lfs.c ****             } else if (lfs_tag_type1(tag) == LFS_TYPE_TAIL) {
1264:SynaptiX_FDK/services/littlefs/lfs.c ****                 tempsplit = (lfs_tag_chunk(tag) & 1);
1265:SynaptiX_FDK/services/littlefs/lfs.c **** 
1266:SynaptiX_FDK/services/littlefs/lfs.c ****                 err = lfs_bd_read(lfs,
1267:SynaptiX_FDK/services/littlefs/lfs.c ****                         NULL, &lfs->rcache, lfs->cfg->block_size,
1268:SynaptiX_FDK/services/littlefs/lfs.c ****                         dir->pair[0], off+sizeof(tag), &temptail, 8);
1269:SynaptiX_FDK/services/littlefs/lfs.c ****                 if (err) {
1270:SynaptiX_FDK/services/littlefs/lfs.c ****                     if (err == LFS_ERR_CORRUPT) {
1271:SynaptiX_FDK/services/littlefs/lfs.c ****                         break;
1272:SynaptiX_FDK/services/littlefs/lfs.c ****                     }
1273:SynaptiX_FDK/services/littlefs/lfs.c ****                     return err;
1274:SynaptiX_FDK/services/littlefs/lfs.c ****                 }
ARM GAS  C:\Users\LENOVO\AppData\Local\Temp\ccPMz3A0.s 			page 38


1275:SynaptiX_FDK/services/littlefs/lfs.c ****                 lfs_pair_fromle32(temptail);
1276:SynaptiX_FDK/services/littlefs/lfs.c ****             } else if (lfs_tag_type3(tag) == LFS_TYPE_FCRC) {
1277:SynaptiX_FDK/services/littlefs/lfs.c ****                 err = lfs_bd_read(lfs,
1278:SynaptiX_FDK/services/littlefs/lfs.c ****                         NULL, &lfs->rcache, lfs->cfg->block_size,
1279:SynaptiX_FDK/services/littlefs/lfs.c ****                         dir->pair[0], off+sizeof(tag),
1280:SynaptiX_FDK/services/littlefs/lfs.c ****                         &fcrc, sizeof(fcrc));
1281:SynaptiX_FDK/services/littlefs/lfs.c ****                 if (err) {
1282:SynaptiX_FDK/services/littlefs/lfs.c ****                     if (err == LFS_ERR_CORRUPT) {
1283:SynaptiX_FDK/services/littlefs/lfs.c ****                         break;
1284:SynaptiX_FDK/services/littlefs/lfs.c ****                     }
1285:SynaptiX_FDK/services/littlefs/lfs.c ****                     return err;
1286:SynaptiX_FDK/services/littlefs/lfs.c ****                 }
1287:SynaptiX_FDK/services/littlefs/lfs.c **** 
1288:SynaptiX_FDK/services/littlefs/lfs.c ****                 lfs_fcrc_fromle32(&fcrc);
1289:SynaptiX_FDK/services/littlefs/lfs.c ****                 hasfcrc = true;
1290:SynaptiX_FDK/services/littlefs/lfs.c ****             }
1291:SynaptiX_FDK/services/littlefs/lfs.c **** 
1292:SynaptiX_FDK/services/littlefs/lfs.c ****             // found a match for our fetcher?
1293:SynaptiX_FDK/services/littlefs/lfs.c ****             if ((fmask & tag) == (fmask & ftag)) {
1294:SynaptiX_FDK/services/littlefs/lfs.c ****                 int res = cb(data, tag, &(struct lfs_diskoff){
1295:SynaptiX_FDK/services/littlefs/lfs.c ****                         dir->pair[0], off+sizeof(tag)});
1296:SynaptiX_FDK/services/littlefs/lfs.c ****                 if (res < 0) {
1297:SynaptiX_FDK/services/littlefs/lfs.c ****                     if (res == LFS_ERR_CORRUPT) {
1298:SynaptiX_FDK/services/littlefs/lfs.c ****                         break;
1299:SynaptiX_FDK/services/littlefs/lfs.c ****                     }
1300:SynaptiX_FDK/services/littlefs/lfs.c ****                     return res;
1301:SynaptiX_FDK/services/littlefs/lfs.c ****                 }
1302:SynaptiX_FDK/services/littlefs/lfs.c **** 
1303:SynaptiX_FDK/services/littlefs/lfs.c ****                 if (res == LFS_CMP_EQ) {
1304:SynaptiX_FDK/services/littlefs/lfs.c ****                     // found a match
1305:SynaptiX_FDK/services/littlefs/lfs.c ****                     tempbesttag = tag;
1306:SynaptiX_FDK/services/littlefs/lfs.c ****                 } else if ((LFS_MKTAG(0x7ff, 0x3ff, 0) & tag) ==
1307:SynaptiX_FDK/services/littlefs/lfs.c ****                         (LFS_MKTAG(0x7ff, 0x3ff, 0) & tempbesttag)) {
1308:SynaptiX_FDK/services/littlefs/lfs.c ****                     // found an identical tag, but contents didn't match
1309:SynaptiX_FDK/services/littlefs/lfs.c ****                     // this must mean that our besttag has been overwritten
1310:SynaptiX_FDK/services/littlefs/lfs.c ****                     tempbesttag = -1;
1311:SynaptiX_FDK/services/littlefs/lfs.c ****                 } else if (res == LFS_CMP_GT &&
1312:SynaptiX_FDK/services/littlefs/lfs.c ****                         lfs_tag_id(tag) <= lfs_tag_id(tempbesttag)) {
1313:SynaptiX_FDK/services/littlefs/lfs.c ****                     // found a greater match, keep track to keep things sorted
1314:SynaptiX_FDK/services/littlefs/lfs.c ****                     tempbesttag = tag | 0x80000000;
1315:SynaptiX_FDK/services/littlefs/lfs.c ****                 }
1316:SynaptiX_FDK/services/littlefs/lfs.c ****             }
1317:SynaptiX_FDK/services/littlefs/lfs.c ****         }
1318:SynaptiX_FDK/services/littlefs/lfs.c **** 
1319:SynaptiX_FDK/services/littlefs/lfs.c ****         // found no valid commits?
1320:SynaptiX_FDK/services/littlefs/lfs.c ****         if (dir->off == 0) {
1321:SynaptiX_FDK/services/littlefs/lfs.c ****             // try the other block?
1322:SynaptiX_FDK/services/littlefs/lfs.c ****             lfs_pair_swap(dir->pair);
1323:SynaptiX_FDK/services/littlefs/lfs.c ****             dir->rev = revs[(r+1)%2];
1324:SynaptiX_FDK/services/littlefs/lfs.c ****             continue;
1325:SynaptiX_FDK/services/littlefs/lfs.c ****         }
1326:SynaptiX_FDK/services/littlefs/lfs.c **** 
1327:SynaptiX_FDK/services/littlefs/lfs.c ****         // did we end on a valid commit? we may have an erased block
1328:SynaptiX_FDK/services/littlefs/lfs.c ****         dir->erased = false;
1329:SynaptiX_FDK/services/littlefs/lfs.c ****         if (maybeerased && dir->off % lfs->cfg->prog_size == 0) {
1330:SynaptiX_FDK/services/littlefs/lfs.c ****         #ifdef LFS_MULTIVERSION
1331:SynaptiX_FDK/services/littlefs/lfs.c ****             // note versions < lfs2.1 did not have fcrc tags, if
ARM GAS  C:\Users\LENOVO\AppData\Local\Temp\ccPMz3A0.s 			page 39


1332:SynaptiX_FDK/services/littlefs/lfs.c ****             // we're < lfs2.1 treat missing fcrc as erased data
1333:SynaptiX_FDK/services/littlefs/lfs.c ****             //
1334:SynaptiX_FDK/services/littlefs/lfs.c ****             // we don't strictly need to do this, but otherwise writing
1335:SynaptiX_FDK/services/littlefs/lfs.c ****             // to lfs2.0 disks becomes very inefficient
1336:SynaptiX_FDK/services/littlefs/lfs.c ****             if (lfs_fs_disk_version(lfs) < 0x00020001) {
1337:SynaptiX_FDK/services/littlefs/lfs.c ****                 dir->erased = true;
1338:SynaptiX_FDK/services/littlefs/lfs.c **** 
1339:SynaptiX_FDK/services/littlefs/lfs.c ****             } else
1340:SynaptiX_FDK/services/littlefs/lfs.c ****         #endif
1341:SynaptiX_FDK/services/littlefs/lfs.c ****             if (hasfcrc) {
1342:SynaptiX_FDK/services/littlefs/lfs.c ****                 // check for an fcrc matching the next prog's erased state, if
1343:SynaptiX_FDK/services/littlefs/lfs.c ****                 // this failed most likely a previous prog was interrupted, we
1344:SynaptiX_FDK/services/littlefs/lfs.c ****                 // need a new erase
1345:SynaptiX_FDK/services/littlefs/lfs.c ****                 uint32_t fcrc_ = 0xffffffff;
1346:SynaptiX_FDK/services/littlefs/lfs.c ****                 int err = lfs_bd_crc(lfs,
1347:SynaptiX_FDK/services/littlefs/lfs.c ****                         NULL, &lfs->rcache, lfs->cfg->block_size,
1348:SynaptiX_FDK/services/littlefs/lfs.c ****                         dir->pair[0], dir->off, fcrc.size, &fcrc_);
1349:SynaptiX_FDK/services/littlefs/lfs.c ****                 if (err && err != LFS_ERR_CORRUPT) {
1350:SynaptiX_FDK/services/littlefs/lfs.c ****                     return err;
1351:SynaptiX_FDK/services/littlefs/lfs.c ****                 }
1352:SynaptiX_FDK/services/littlefs/lfs.c **** 
1353:SynaptiX_FDK/services/littlefs/lfs.c ****                 // found beginning of erased part?
1354:SynaptiX_FDK/services/littlefs/lfs.c ****                 dir->erased = (fcrc_ == fcrc.crc);
1355:SynaptiX_FDK/services/littlefs/lfs.c ****             }
1356:SynaptiX_FDK/services/littlefs/lfs.c ****         }
1357:SynaptiX_FDK/services/littlefs/lfs.c **** 
1358:SynaptiX_FDK/services/littlefs/lfs.c ****         // synthetic move
1359:SynaptiX_FDK/services/littlefs/lfs.c ****         if (lfs_gstate_hasmovehere(&lfs->gdisk, dir->pair)) {
1360:SynaptiX_FDK/services/littlefs/lfs.c ****             if (lfs_tag_id(lfs->gdisk.tag) == lfs_tag_id(besttag)) {
1361:SynaptiX_FDK/services/littlefs/lfs.c ****                 besttag |= 0x80000000;
1362:SynaptiX_FDK/services/littlefs/lfs.c ****             } else if (besttag != -1 &&
1363:SynaptiX_FDK/services/littlefs/lfs.c ****                     lfs_tag_id(lfs->gdisk.tag) < lfs_tag_id(besttag)) {
1364:SynaptiX_FDK/services/littlefs/lfs.c ****                 besttag -= LFS_MKTAG(0, 1, 0);
1365:SynaptiX_FDK/services/littlefs/lfs.c ****             }
1366:SynaptiX_FDK/services/littlefs/lfs.c ****         }
1367:SynaptiX_FDK/services/littlefs/lfs.c **** 
1368:SynaptiX_FDK/services/littlefs/lfs.c ****         // found tag? or found best id?
1369:SynaptiX_FDK/services/littlefs/lfs.c ****         if (id) {
1370:SynaptiX_FDK/services/littlefs/lfs.c ****             *id = lfs_min(lfs_tag_id(besttag), dir->count);
1371:SynaptiX_FDK/services/littlefs/lfs.c ****         }
1372:SynaptiX_FDK/services/littlefs/lfs.c **** 
1373:SynaptiX_FDK/services/littlefs/lfs.c ****         if (lfs_tag_isvalid(besttag)) {
1374:SynaptiX_FDK/services/littlefs/lfs.c ****             return besttag;
1375:SynaptiX_FDK/services/littlefs/lfs.c ****         } else if (lfs_tag_id(besttag) < dir->count) {
1376:SynaptiX_FDK/services/littlefs/lfs.c ****             return LFS_ERR_NOENT;
1377:SynaptiX_FDK/services/littlefs/lfs.c ****         } else {
1378:SynaptiX_FDK/services/littlefs/lfs.c ****             return 0;
1379:SynaptiX_FDK/services/littlefs/lfs.c ****         }
1380:SynaptiX_FDK/services/littlefs/lfs.c ****     }
1381:SynaptiX_FDK/services/littlefs/lfs.c **** 
1382:SynaptiX_FDK/services/littlefs/lfs.c ****     LFS_ERROR("Corrupted dir pair at {0x%"PRIx32", 0x%"PRIx32"}",
1383:SynaptiX_FDK/services/littlefs/lfs.c ****             dir->pair[0], dir->pair[1]);
1384:SynaptiX_FDK/services/littlefs/lfs.c ****     return LFS_ERR_CORRUPT;
1385:SynaptiX_FDK/services/littlefs/lfs.c **** }
1386:SynaptiX_FDK/services/littlefs/lfs.c **** 
1387:SynaptiX_FDK/services/littlefs/lfs.c **** static int lfs_dir_fetch(lfs_t *lfs,
1388:SynaptiX_FDK/services/littlefs/lfs.c ****         lfs_mdir_t *dir, const lfs_block_t pair[2]) {
ARM GAS  C:\Users\LENOVO\AppData\Local\Temp\ccPMz3A0.s 			page 40


1389:SynaptiX_FDK/services/littlefs/lfs.c ****     // note, mask=-1, tag=-1 can never match a tag since this
1390:SynaptiX_FDK/services/littlefs/lfs.c ****     // pattern has the invalid bit set
1391:SynaptiX_FDK/services/littlefs/lfs.c ****     return (int)lfs_dir_fetchmatch(lfs, dir, pair,
1392:SynaptiX_FDK/services/littlefs/lfs.c ****             (lfs_tag_t)-1, (lfs_tag_t)-1, NULL, NULL, NULL);
1393:SynaptiX_FDK/services/littlefs/lfs.c **** }
1394:SynaptiX_FDK/services/littlefs/lfs.c **** 
1395:SynaptiX_FDK/services/littlefs/lfs.c **** static int lfs_dir_getgstate(lfs_t *lfs, const lfs_mdir_t *dir,
1396:SynaptiX_FDK/services/littlefs/lfs.c ****         lfs_gstate_t *gstate) {
1397:SynaptiX_FDK/services/littlefs/lfs.c ****     lfs_gstate_t temp;
1398:SynaptiX_FDK/services/littlefs/lfs.c ****     lfs_stag_t res = lfs_dir_get(lfs, dir, LFS_MKTAG(0x7ff, 0, 0),
1399:SynaptiX_FDK/services/littlefs/lfs.c ****             LFS_MKTAG(LFS_TYPE_MOVESTATE, 0, sizeof(temp)), &temp);
1400:SynaptiX_FDK/services/littlefs/lfs.c ****     if (res < 0 && res != LFS_ERR_NOENT) {
1401:SynaptiX_FDK/services/littlefs/lfs.c ****         return res;
1402:SynaptiX_FDK/services/littlefs/lfs.c ****     }
1403:SynaptiX_FDK/services/littlefs/lfs.c **** 
1404:SynaptiX_FDK/services/littlefs/lfs.c ****     if (res != LFS_ERR_NOENT) {
1405:SynaptiX_FDK/services/littlefs/lfs.c ****         // xor together to find resulting gstate
1406:SynaptiX_FDK/services/littlefs/lfs.c ****         lfs_gstate_fromle32(&temp);
1407:SynaptiX_FDK/services/littlefs/lfs.c ****         lfs_gstate_xor(gstate, &temp);
1408:SynaptiX_FDK/services/littlefs/lfs.c ****     }
1409:SynaptiX_FDK/services/littlefs/lfs.c **** 
1410:SynaptiX_FDK/services/littlefs/lfs.c ****     return 0;
1411:SynaptiX_FDK/services/littlefs/lfs.c **** }
1412:SynaptiX_FDK/services/littlefs/lfs.c **** 
1413:SynaptiX_FDK/services/littlefs/lfs.c **** static int lfs_dir_getinfo(lfs_t *lfs, lfs_mdir_t *dir,
1414:SynaptiX_FDK/services/littlefs/lfs.c ****         uint16_t id, struct lfs_info *info) {
1415:SynaptiX_FDK/services/littlefs/lfs.c ****     if (id == 0x3ff) {
1416:SynaptiX_FDK/services/littlefs/lfs.c ****         // special case for root
1417:SynaptiX_FDK/services/littlefs/lfs.c ****         strcpy(info->name, "/");
1418:SynaptiX_FDK/services/littlefs/lfs.c ****         info->type = LFS_TYPE_DIR;
1419:SynaptiX_FDK/services/littlefs/lfs.c ****         return 0;
1420:SynaptiX_FDK/services/littlefs/lfs.c ****     }
1421:SynaptiX_FDK/services/littlefs/lfs.c **** 
1422:SynaptiX_FDK/services/littlefs/lfs.c ****     lfs_stag_t tag = lfs_dir_get(lfs, dir, LFS_MKTAG(0x780, 0x3ff, 0),
1423:SynaptiX_FDK/services/littlefs/lfs.c ****             LFS_MKTAG(LFS_TYPE_NAME, id, lfs->name_max+1), info->name);
1424:SynaptiX_FDK/services/littlefs/lfs.c ****     if (tag < 0) {
1425:SynaptiX_FDK/services/littlefs/lfs.c ****         return (int)tag;
1426:SynaptiX_FDK/services/littlefs/lfs.c ****     }
1427:SynaptiX_FDK/services/littlefs/lfs.c **** 
1428:SynaptiX_FDK/services/littlefs/lfs.c ****     info->type = lfs_tag_type3(tag);
1429:SynaptiX_FDK/services/littlefs/lfs.c **** 
1430:SynaptiX_FDK/services/littlefs/lfs.c ****     struct lfs_ctz ctz;
1431:SynaptiX_FDK/services/littlefs/lfs.c ****     tag = lfs_dir_get(lfs, dir, LFS_MKTAG(0x700, 0x3ff, 0),
1432:SynaptiX_FDK/services/littlefs/lfs.c ****             LFS_MKTAG(LFS_TYPE_STRUCT, id, sizeof(ctz)), &ctz);
1433:SynaptiX_FDK/services/littlefs/lfs.c ****     if (tag < 0) {
1434:SynaptiX_FDK/services/littlefs/lfs.c ****         return (int)tag;
1435:SynaptiX_FDK/services/littlefs/lfs.c ****     }
1436:SynaptiX_FDK/services/littlefs/lfs.c ****     lfs_ctz_fromle32(&ctz);
1437:SynaptiX_FDK/services/littlefs/lfs.c **** 
1438:SynaptiX_FDK/services/littlefs/lfs.c ****     if (lfs_tag_type3(tag) == LFS_TYPE_CTZSTRUCT) {
1439:SynaptiX_FDK/services/littlefs/lfs.c ****         info->size = ctz.size;
1440:SynaptiX_FDK/services/littlefs/lfs.c ****     } else if (lfs_tag_type3(tag) == LFS_TYPE_INLINESTRUCT) {
1441:SynaptiX_FDK/services/littlefs/lfs.c ****         info->size = lfs_tag_size(tag);
1442:SynaptiX_FDK/services/littlefs/lfs.c ****     }
1443:SynaptiX_FDK/services/littlefs/lfs.c **** 
1444:SynaptiX_FDK/services/littlefs/lfs.c ****     return 0;
1445:SynaptiX_FDK/services/littlefs/lfs.c **** }
ARM GAS  C:\Users\LENOVO\AppData\Local\Temp\ccPMz3A0.s 			page 41


1446:SynaptiX_FDK/services/littlefs/lfs.c **** 
1447:SynaptiX_FDK/services/littlefs/lfs.c **** struct lfs_dir_find_match {
1448:SynaptiX_FDK/services/littlefs/lfs.c ****     lfs_t *lfs;
1449:SynaptiX_FDK/services/littlefs/lfs.c ****     const void *name;
1450:SynaptiX_FDK/services/littlefs/lfs.c ****     lfs_size_t size;
1451:SynaptiX_FDK/services/littlefs/lfs.c **** };
1452:SynaptiX_FDK/services/littlefs/lfs.c **** 
1453:SynaptiX_FDK/services/littlefs/lfs.c **** static int lfs_dir_find_match(void *data,
1454:SynaptiX_FDK/services/littlefs/lfs.c ****         lfs_tag_t tag, const void *buffer) {
1455:SynaptiX_FDK/services/littlefs/lfs.c ****     struct lfs_dir_find_match *name = data;
1456:SynaptiX_FDK/services/littlefs/lfs.c ****     lfs_t *lfs = name->lfs;
1457:SynaptiX_FDK/services/littlefs/lfs.c ****     const struct lfs_diskoff *disk = buffer;
1458:SynaptiX_FDK/services/littlefs/lfs.c **** 
1459:SynaptiX_FDK/services/littlefs/lfs.c ****     // compare with disk
1460:SynaptiX_FDK/services/littlefs/lfs.c ****     lfs_size_t diff = lfs_min(name->size, lfs_tag_size(tag));
1461:SynaptiX_FDK/services/littlefs/lfs.c ****     int res = lfs_bd_cmp(lfs,
1462:SynaptiX_FDK/services/littlefs/lfs.c ****             NULL, &lfs->rcache, diff,
1463:SynaptiX_FDK/services/littlefs/lfs.c ****             disk->block, disk->off, name->name, diff);
1464:SynaptiX_FDK/services/littlefs/lfs.c ****     if (res != LFS_CMP_EQ) {
1465:SynaptiX_FDK/services/littlefs/lfs.c ****         return res;
1466:SynaptiX_FDK/services/littlefs/lfs.c ****     }
1467:SynaptiX_FDK/services/littlefs/lfs.c **** 
1468:SynaptiX_FDK/services/littlefs/lfs.c ****     // only equal if our size is still the same
1469:SynaptiX_FDK/services/littlefs/lfs.c ****     if (name->size != lfs_tag_size(tag)) {
1470:SynaptiX_FDK/services/littlefs/lfs.c ****         return (name->size < lfs_tag_size(tag)) ? LFS_CMP_LT : LFS_CMP_GT;
1471:SynaptiX_FDK/services/littlefs/lfs.c ****     }
1472:SynaptiX_FDK/services/littlefs/lfs.c **** 
1473:SynaptiX_FDK/services/littlefs/lfs.c ****     // found a match!
1474:SynaptiX_FDK/services/littlefs/lfs.c ****     return LFS_CMP_EQ;
1475:SynaptiX_FDK/services/littlefs/lfs.c **** }
1476:SynaptiX_FDK/services/littlefs/lfs.c **** 
1477:SynaptiX_FDK/services/littlefs/lfs.c **** // lfs_dir_find tries to set path and id even if file is not found
1478:SynaptiX_FDK/services/littlefs/lfs.c **** //
1479:SynaptiX_FDK/services/littlefs/lfs.c **** // returns:
1480:SynaptiX_FDK/services/littlefs/lfs.c **** // - 0                  if file is found
1481:SynaptiX_FDK/services/littlefs/lfs.c **** // - LFS_ERR_NOENT      if file or parent is not found
1482:SynaptiX_FDK/services/littlefs/lfs.c **** // - LFS_ERR_NOTDIR     if parent is not a dir
1483:SynaptiX_FDK/services/littlefs/lfs.c **** static lfs_stag_t lfs_dir_find(lfs_t *lfs, lfs_mdir_t *dir,
1484:SynaptiX_FDK/services/littlefs/lfs.c ****         const char **path, uint16_t *id) {
1485:SynaptiX_FDK/services/littlefs/lfs.c ****     // we reduce path to a single name if we can find it
1486:SynaptiX_FDK/services/littlefs/lfs.c ****     const char *name = *path;
1487:SynaptiX_FDK/services/littlefs/lfs.c **** 
1488:SynaptiX_FDK/services/littlefs/lfs.c ****     // default to root dir
1489:SynaptiX_FDK/services/littlefs/lfs.c ****     lfs_stag_t tag = LFS_MKTAG(LFS_TYPE_DIR, 0x3ff, 0);
1490:SynaptiX_FDK/services/littlefs/lfs.c ****     dir->tail[0] = lfs->root[0];
1491:SynaptiX_FDK/services/littlefs/lfs.c ****     dir->tail[1] = lfs->root[1];
1492:SynaptiX_FDK/services/littlefs/lfs.c **** 
1493:SynaptiX_FDK/services/littlefs/lfs.c ****     // empty paths are not allowed
1494:SynaptiX_FDK/services/littlefs/lfs.c ****     if (*name == '\0') {
1495:SynaptiX_FDK/services/littlefs/lfs.c ****         return LFS_ERR_INVAL;
1496:SynaptiX_FDK/services/littlefs/lfs.c ****     }
1497:SynaptiX_FDK/services/littlefs/lfs.c **** 
1498:SynaptiX_FDK/services/littlefs/lfs.c ****     while (true) {
1499:SynaptiX_FDK/services/littlefs/lfs.c **** nextname:
1500:SynaptiX_FDK/services/littlefs/lfs.c ****         // skip slashes if we're a directory
1501:SynaptiX_FDK/services/littlefs/lfs.c ****         if (lfs_tag_type3(tag) == LFS_TYPE_DIR) {
1502:SynaptiX_FDK/services/littlefs/lfs.c ****             name += strspn(name, "/");
ARM GAS  C:\Users\LENOVO\AppData\Local\Temp\ccPMz3A0.s 			page 42


1503:SynaptiX_FDK/services/littlefs/lfs.c ****         }
1504:SynaptiX_FDK/services/littlefs/lfs.c ****         lfs_size_t namelen = strcspn(name, "/");
1505:SynaptiX_FDK/services/littlefs/lfs.c **** 
1506:SynaptiX_FDK/services/littlefs/lfs.c ****         // skip '.'
1507:SynaptiX_FDK/services/littlefs/lfs.c ****         if (namelen == 1 && memcmp(name, ".", 1) == 0) {
1508:SynaptiX_FDK/services/littlefs/lfs.c ****             name += namelen;
1509:SynaptiX_FDK/services/littlefs/lfs.c ****             goto nextname;
1510:SynaptiX_FDK/services/littlefs/lfs.c ****         }
1511:SynaptiX_FDK/services/littlefs/lfs.c **** 
1512:SynaptiX_FDK/services/littlefs/lfs.c ****         // error on unmatched '..', trying to go above root?
1513:SynaptiX_FDK/services/littlefs/lfs.c ****         if (namelen == 2 && memcmp(name, "..", 2) == 0) {
1514:SynaptiX_FDK/services/littlefs/lfs.c ****             return LFS_ERR_INVAL;
1515:SynaptiX_FDK/services/littlefs/lfs.c ****         }
1516:SynaptiX_FDK/services/littlefs/lfs.c **** 
1517:SynaptiX_FDK/services/littlefs/lfs.c ****         // skip if matched by '..' in name
1518:SynaptiX_FDK/services/littlefs/lfs.c ****         const char *suffix = name + namelen;
1519:SynaptiX_FDK/services/littlefs/lfs.c ****         lfs_size_t sufflen;
1520:SynaptiX_FDK/services/littlefs/lfs.c ****         int depth = 1;
1521:SynaptiX_FDK/services/littlefs/lfs.c ****         while (true) {
1522:SynaptiX_FDK/services/littlefs/lfs.c ****             suffix += strspn(suffix, "/");
1523:SynaptiX_FDK/services/littlefs/lfs.c ****             sufflen = strcspn(suffix, "/");
1524:SynaptiX_FDK/services/littlefs/lfs.c ****             if (sufflen == 0) {
1525:SynaptiX_FDK/services/littlefs/lfs.c ****                 break;
1526:SynaptiX_FDK/services/littlefs/lfs.c ****             }
1527:SynaptiX_FDK/services/littlefs/lfs.c **** 
1528:SynaptiX_FDK/services/littlefs/lfs.c ****             if (sufflen == 1 && memcmp(suffix, ".", 1) == 0) {
1529:SynaptiX_FDK/services/littlefs/lfs.c ****                 // noop
1530:SynaptiX_FDK/services/littlefs/lfs.c ****             } else if (sufflen == 2 && memcmp(suffix, "..", 2) == 0) {
1531:SynaptiX_FDK/services/littlefs/lfs.c ****                 depth -= 1;
1532:SynaptiX_FDK/services/littlefs/lfs.c ****                 if (depth == 0) {
1533:SynaptiX_FDK/services/littlefs/lfs.c ****                     name = suffix + sufflen;
1534:SynaptiX_FDK/services/littlefs/lfs.c ****                     goto nextname;
1535:SynaptiX_FDK/services/littlefs/lfs.c ****                 }
1536:SynaptiX_FDK/services/littlefs/lfs.c ****             } else {
1537:SynaptiX_FDK/services/littlefs/lfs.c ****                 depth += 1;
1538:SynaptiX_FDK/services/littlefs/lfs.c ****             }
1539:SynaptiX_FDK/services/littlefs/lfs.c **** 
1540:SynaptiX_FDK/services/littlefs/lfs.c ****             suffix += sufflen;
1541:SynaptiX_FDK/services/littlefs/lfs.c ****         }
1542:SynaptiX_FDK/services/littlefs/lfs.c **** 
1543:SynaptiX_FDK/services/littlefs/lfs.c ****         // found path
1544:SynaptiX_FDK/services/littlefs/lfs.c ****         if (*name == '\0') {
1545:SynaptiX_FDK/services/littlefs/lfs.c ****             return tag;
1546:SynaptiX_FDK/services/littlefs/lfs.c ****         }
1547:SynaptiX_FDK/services/littlefs/lfs.c **** 
1548:SynaptiX_FDK/services/littlefs/lfs.c ****         // update what we've found so far
1549:SynaptiX_FDK/services/littlefs/lfs.c ****         *path = name;
1550:SynaptiX_FDK/services/littlefs/lfs.c **** 
1551:SynaptiX_FDK/services/littlefs/lfs.c ****         // only continue if we're a directory
1552:SynaptiX_FDK/services/littlefs/lfs.c ****         if (lfs_tag_type3(tag) != LFS_TYPE_DIR) {
1553:SynaptiX_FDK/services/littlefs/lfs.c ****             return LFS_ERR_NOTDIR;
1554:SynaptiX_FDK/services/littlefs/lfs.c ****         }
1555:SynaptiX_FDK/services/littlefs/lfs.c **** 
1556:SynaptiX_FDK/services/littlefs/lfs.c ****         // grab the entry data
1557:SynaptiX_FDK/services/littlefs/lfs.c ****         if (lfs_tag_id(tag) != 0x3ff) {
1558:SynaptiX_FDK/services/littlefs/lfs.c ****             lfs_stag_t res = lfs_dir_get(lfs, dir, LFS_MKTAG(0x700, 0x3ff, 0),
1559:SynaptiX_FDK/services/littlefs/lfs.c ****                     LFS_MKTAG(LFS_TYPE_STRUCT, lfs_tag_id(tag), 8), dir->tail);
ARM GAS  C:\Users\LENOVO\AppData\Local\Temp\ccPMz3A0.s 			page 43


1560:SynaptiX_FDK/services/littlefs/lfs.c ****             if (res < 0) {
1561:SynaptiX_FDK/services/littlefs/lfs.c ****                 return res;
1562:SynaptiX_FDK/services/littlefs/lfs.c ****             }
1563:SynaptiX_FDK/services/littlefs/lfs.c ****             lfs_pair_fromle32(dir->tail);
1564:SynaptiX_FDK/services/littlefs/lfs.c ****         }
1565:SynaptiX_FDK/services/littlefs/lfs.c **** 
1566:SynaptiX_FDK/services/littlefs/lfs.c ****         // find entry matching name
1567:SynaptiX_FDK/services/littlefs/lfs.c ****         while (true) {
1568:SynaptiX_FDK/services/littlefs/lfs.c ****             tag = lfs_dir_fetchmatch(lfs, dir, dir->tail,
1569:SynaptiX_FDK/services/littlefs/lfs.c ****                     LFS_MKTAG(0x780, 0, 0),
1570:SynaptiX_FDK/services/littlefs/lfs.c ****                     LFS_MKTAG(LFS_TYPE_NAME, 0, namelen),
1571:SynaptiX_FDK/services/littlefs/lfs.c ****                     id,
1572:SynaptiX_FDK/services/littlefs/lfs.c ****                     lfs_dir_find_match, &(struct lfs_dir_find_match){
1573:SynaptiX_FDK/services/littlefs/lfs.c ****                         lfs, name, namelen});
1574:SynaptiX_FDK/services/littlefs/lfs.c ****             if (tag < 0) {
1575:SynaptiX_FDK/services/littlefs/lfs.c ****                 return tag;
1576:SynaptiX_FDK/services/littlefs/lfs.c ****             }
1577:SynaptiX_FDK/services/littlefs/lfs.c **** 
1578:SynaptiX_FDK/services/littlefs/lfs.c ****             if (tag) {
1579:SynaptiX_FDK/services/littlefs/lfs.c ****                 break;
1580:SynaptiX_FDK/services/littlefs/lfs.c ****             }
1581:SynaptiX_FDK/services/littlefs/lfs.c **** 
1582:SynaptiX_FDK/services/littlefs/lfs.c ****             if (!dir->split) {
1583:SynaptiX_FDK/services/littlefs/lfs.c ****                 return LFS_ERR_NOENT;
1584:SynaptiX_FDK/services/littlefs/lfs.c ****             }
1585:SynaptiX_FDK/services/littlefs/lfs.c ****         }
1586:SynaptiX_FDK/services/littlefs/lfs.c **** 
1587:SynaptiX_FDK/services/littlefs/lfs.c ****         // to next name
1588:SynaptiX_FDK/services/littlefs/lfs.c ****         name += namelen;
1589:SynaptiX_FDK/services/littlefs/lfs.c ****     }
1590:SynaptiX_FDK/services/littlefs/lfs.c **** }
1591:SynaptiX_FDK/services/littlefs/lfs.c **** 
1592:SynaptiX_FDK/services/littlefs/lfs.c **** // commit logic
1593:SynaptiX_FDK/services/littlefs/lfs.c **** struct lfs_commit {
1594:SynaptiX_FDK/services/littlefs/lfs.c ****     lfs_block_t block;
1595:SynaptiX_FDK/services/littlefs/lfs.c ****     lfs_off_t off;
1596:SynaptiX_FDK/services/littlefs/lfs.c ****     lfs_tag_t ptag;
1597:SynaptiX_FDK/services/littlefs/lfs.c ****     uint32_t crc;
1598:SynaptiX_FDK/services/littlefs/lfs.c **** 
1599:SynaptiX_FDK/services/littlefs/lfs.c ****     lfs_off_t begin;
1600:SynaptiX_FDK/services/littlefs/lfs.c ****     lfs_off_t end;
1601:SynaptiX_FDK/services/littlefs/lfs.c **** };
1602:SynaptiX_FDK/services/littlefs/lfs.c **** 
1603:SynaptiX_FDK/services/littlefs/lfs.c **** #ifndef LFS_READONLY
1604:SynaptiX_FDK/services/littlefs/lfs.c **** static int lfs_dir_commitprog(lfs_t *lfs, struct lfs_commit *commit,
1605:SynaptiX_FDK/services/littlefs/lfs.c ****         const void *buffer, lfs_size_t size) {
1606:SynaptiX_FDK/services/littlefs/lfs.c ****     int err = lfs_bd_prog(lfs,
1607:SynaptiX_FDK/services/littlefs/lfs.c ****             &lfs->pcache, &lfs->rcache, false,
1608:SynaptiX_FDK/services/littlefs/lfs.c ****             commit->block, commit->off ,
1609:SynaptiX_FDK/services/littlefs/lfs.c ****             (const uint8_t*)buffer, size);
1610:SynaptiX_FDK/services/littlefs/lfs.c ****     if (err) {
1611:SynaptiX_FDK/services/littlefs/lfs.c ****         return err;
1612:SynaptiX_FDK/services/littlefs/lfs.c ****     }
1613:SynaptiX_FDK/services/littlefs/lfs.c **** 
1614:SynaptiX_FDK/services/littlefs/lfs.c ****     commit->crc = lfs_crc(commit->crc, buffer, size);
1615:SynaptiX_FDK/services/littlefs/lfs.c ****     commit->off += size;
1616:SynaptiX_FDK/services/littlefs/lfs.c ****     return 0;
ARM GAS  C:\Users\LENOVO\AppData\Local\Temp\ccPMz3A0.s 			page 44


1617:SynaptiX_FDK/services/littlefs/lfs.c **** }
1618:SynaptiX_FDK/services/littlefs/lfs.c **** #endif
1619:SynaptiX_FDK/services/littlefs/lfs.c **** 
1620:SynaptiX_FDK/services/littlefs/lfs.c **** #ifndef LFS_READONLY
1621:SynaptiX_FDK/services/littlefs/lfs.c **** static int lfs_dir_commitattr(lfs_t *lfs, struct lfs_commit *commit,
1622:SynaptiX_FDK/services/littlefs/lfs.c ****         lfs_tag_t tag, const void *buffer) {
1623:SynaptiX_FDK/services/littlefs/lfs.c ****     // check if we fit
1624:SynaptiX_FDK/services/littlefs/lfs.c ****     lfs_size_t dsize = lfs_tag_dsize(tag);
1625:SynaptiX_FDK/services/littlefs/lfs.c ****     if (commit->off + dsize > commit->end) {
1626:SynaptiX_FDK/services/littlefs/lfs.c ****         return LFS_ERR_NOSPC;
1627:SynaptiX_FDK/services/littlefs/lfs.c ****     }
1628:SynaptiX_FDK/services/littlefs/lfs.c **** 
1629:SynaptiX_FDK/services/littlefs/lfs.c ****     // write out tag
1630:SynaptiX_FDK/services/littlefs/lfs.c ****     lfs_tag_t ntag = lfs_tobe32((tag & 0x7fffffff) ^ commit->ptag);
1631:SynaptiX_FDK/services/littlefs/lfs.c ****     int err = lfs_dir_commitprog(lfs, commit, &ntag, sizeof(ntag));
1632:SynaptiX_FDK/services/littlefs/lfs.c ****     if (err) {
1633:SynaptiX_FDK/services/littlefs/lfs.c ****         return err;
1634:SynaptiX_FDK/services/littlefs/lfs.c ****     }
1635:SynaptiX_FDK/services/littlefs/lfs.c **** 
1636:SynaptiX_FDK/services/littlefs/lfs.c ****     if (!(tag & 0x80000000)) {
1637:SynaptiX_FDK/services/littlefs/lfs.c ****         // from memory
1638:SynaptiX_FDK/services/littlefs/lfs.c ****         err = lfs_dir_commitprog(lfs, commit, buffer, dsize-sizeof(tag));
1639:SynaptiX_FDK/services/littlefs/lfs.c ****         if (err) {
1640:SynaptiX_FDK/services/littlefs/lfs.c ****             return err;
1641:SynaptiX_FDK/services/littlefs/lfs.c ****         }
1642:SynaptiX_FDK/services/littlefs/lfs.c ****     } else {
1643:SynaptiX_FDK/services/littlefs/lfs.c ****         // from disk
1644:SynaptiX_FDK/services/littlefs/lfs.c ****         const struct lfs_diskoff *disk = buffer;
1645:SynaptiX_FDK/services/littlefs/lfs.c ****         for (lfs_off_t i = 0; i < dsize-sizeof(tag); i++) {
1646:SynaptiX_FDK/services/littlefs/lfs.c ****             // rely on caching to make this efficient
1647:SynaptiX_FDK/services/littlefs/lfs.c ****             uint8_t dat;
1648:SynaptiX_FDK/services/littlefs/lfs.c ****             err = lfs_bd_read(lfs,
1649:SynaptiX_FDK/services/littlefs/lfs.c ****                     NULL, &lfs->rcache, dsize-sizeof(tag)-i,
1650:SynaptiX_FDK/services/littlefs/lfs.c ****                     disk->block, disk->off+i, &dat, 1);
1651:SynaptiX_FDK/services/littlefs/lfs.c ****             if (err) {
1652:SynaptiX_FDK/services/littlefs/lfs.c ****                 return err;
1653:SynaptiX_FDK/services/littlefs/lfs.c ****             }
1654:SynaptiX_FDK/services/littlefs/lfs.c **** 
1655:SynaptiX_FDK/services/littlefs/lfs.c ****             err = lfs_dir_commitprog(lfs, commit, &dat, 1);
1656:SynaptiX_FDK/services/littlefs/lfs.c ****             if (err) {
1657:SynaptiX_FDK/services/littlefs/lfs.c ****                 return err;
1658:SynaptiX_FDK/services/littlefs/lfs.c ****             }
1659:SynaptiX_FDK/services/littlefs/lfs.c ****         }
1660:SynaptiX_FDK/services/littlefs/lfs.c ****     }
1661:SynaptiX_FDK/services/littlefs/lfs.c **** 
1662:SynaptiX_FDK/services/littlefs/lfs.c ****     commit->ptag = tag & 0x7fffffff;
1663:SynaptiX_FDK/services/littlefs/lfs.c ****     return 0;
1664:SynaptiX_FDK/services/littlefs/lfs.c **** }
1665:SynaptiX_FDK/services/littlefs/lfs.c **** #endif
1666:SynaptiX_FDK/services/littlefs/lfs.c **** 
1667:SynaptiX_FDK/services/littlefs/lfs.c **** #ifndef LFS_READONLY
1668:SynaptiX_FDK/services/littlefs/lfs.c **** 
1669:SynaptiX_FDK/services/littlefs/lfs.c **** static int lfs_dir_commitcrc(lfs_t *lfs, struct lfs_commit *commit) {
1670:SynaptiX_FDK/services/littlefs/lfs.c ****     // align to program units
1671:SynaptiX_FDK/services/littlefs/lfs.c ****     //
1672:SynaptiX_FDK/services/littlefs/lfs.c ****     // this gets a bit complex as we have two types of crcs:
1673:SynaptiX_FDK/services/littlefs/lfs.c ****     // - 5-word crc with fcrc to check following prog (middle of block)
ARM GAS  C:\Users\LENOVO\AppData\Local\Temp\ccPMz3A0.s 			page 45


1674:SynaptiX_FDK/services/littlefs/lfs.c ****     // - 2-word crc with no following prog (end of block)
1675:SynaptiX_FDK/services/littlefs/lfs.c ****     const lfs_off_t end = lfs_alignup(
1676:SynaptiX_FDK/services/littlefs/lfs.c ****             lfs_min(commit->off + 5*sizeof(uint32_t), lfs->cfg->block_size),
1677:SynaptiX_FDK/services/littlefs/lfs.c ****             lfs->cfg->prog_size);
1678:SynaptiX_FDK/services/littlefs/lfs.c **** 
1679:SynaptiX_FDK/services/littlefs/lfs.c ****     lfs_off_t off1 = 0;
1680:SynaptiX_FDK/services/littlefs/lfs.c ****     uint32_t crc1 = 0;
1681:SynaptiX_FDK/services/littlefs/lfs.c **** 
1682:SynaptiX_FDK/services/littlefs/lfs.c ****     // create crc tags to fill up remainder of commit, note that
1683:SynaptiX_FDK/services/littlefs/lfs.c ****     // padding is not crced, which lets fetches skip padding but
1684:SynaptiX_FDK/services/littlefs/lfs.c ****     // makes committing a bit more complicated
1685:SynaptiX_FDK/services/littlefs/lfs.c ****     while (commit->off < end) {
1686:SynaptiX_FDK/services/littlefs/lfs.c ****         lfs_off_t noff = (
1687:SynaptiX_FDK/services/littlefs/lfs.c ****                 lfs_min(end - (commit->off+sizeof(lfs_tag_t)), 0x3fe)
1688:SynaptiX_FDK/services/littlefs/lfs.c ****                 + (commit->off+sizeof(lfs_tag_t)));
1689:SynaptiX_FDK/services/littlefs/lfs.c ****         // too large for crc tag? need padding commits
1690:SynaptiX_FDK/services/littlefs/lfs.c ****         if (noff < end) {
1691:SynaptiX_FDK/services/littlefs/lfs.c ****             noff = lfs_min(noff, end - 5*sizeof(uint32_t));
1692:SynaptiX_FDK/services/littlefs/lfs.c ****         }
1693:SynaptiX_FDK/services/littlefs/lfs.c **** 
1694:SynaptiX_FDK/services/littlefs/lfs.c ****         // space for fcrc?
1695:SynaptiX_FDK/services/littlefs/lfs.c ****         uint8_t eperturb = (uint8_t)-1;
1696:SynaptiX_FDK/services/littlefs/lfs.c ****         if (noff >= end && noff <= lfs->cfg->block_size - lfs->cfg->prog_size) {
1697:SynaptiX_FDK/services/littlefs/lfs.c ****             // first read the leading byte, this always contains a bit
1698:SynaptiX_FDK/services/littlefs/lfs.c ****             // we can perturb to avoid writes that don't change the fcrc
1699:SynaptiX_FDK/services/littlefs/lfs.c ****             int err = lfs_bd_read(lfs,
1700:SynaptiX_FDK/services/littlefs/lfs.c ****                     NULL, &lfs->rcache, lfs->cfg->prog_size,
1701:SynaptiX_FDK/services/littlefs/lfs.c ****                     commit->block, noff, &eperturb, 1);
1702:SynaptiX_FDK/services/littlefs/lfs.c ****             if (err && err != LFS_ERR_CORRUPT) {
1703:SynaptiX_FDK/services/littlefs/lfs.c ****                 return err;
1704:SynaptiX_FDK/services/littlefs/lfs.c ****             }
1705:SynaptiX_FDK/services/littlefs/lfs.c **** 
1706:SynaptiX_FDK/services/littlefs/lfs.c ****         #ifdef LFS_MULTIVERSION
1707:SynaptiX_FDK/services/littlefs/lfs.c ****             // unfortunately fcrcs break mdir fetching < lfs2.1, so only write
1708:SynaptiX_FDK/services/littlefs/lfs.c ****             // these if we're a >= lfs2.1 filesystem
1709:SynaptiX_FDK/services/littlefs/lfs.c ****             if (lfs_fs_disk_version(lfs) <= 0x00020000) {
1710:SynaptiX_FDK/services/littlefs/lfs.c ****                 // don't write fcrc
1711:SynaptiX_FDK/services/littlefs/lfs.c ****             } else
1712:SynaptiX_FDK/services/littlefs/lfs.c ****         #endif
1713:SynaptiX_FDK/services/littlefs/lfs.c ****             {
1714:SynaptiX_FDK/services/littlefs/lfs.c ****                 // find the expected fcrc, don't bother avoiding a reread
1715:SynaptiX_FDK/services/littlefs/lfs.c ****                 // of the eperturb, it should still be in our cache
1716:SynaptiX_FDK/services/littlefs/lfs.c ****                 struct lfs_fcrc fcrc = {
1717:SynaptiX_FDK/services/littlefs/lfs.c ****                     .size = lfs->cfg->prog_size,
1718:SynaptiX_FDK/services/littlefs/lfs.c ****                     .crc = 0xffffffff
1719:SynaptiX_FDK/services/littlefs/lfs.c ****                 };
1720:SynaptiX_FDK/services/littlefs/lfs.c ****                 err = lfs_bd_crc(lfs,
1721:SynaptiX_FDK/services/littlefs/lfs.c ****                         NULL, &lfs->rcache, lfs->cfg->prog_size,
1722:SynaptiX_FDK/services/littlefs/lfs.c ****                         commit->block, noff, fcrc.size, &fcrc.crc);
1723:SynaptiX_FDK/services/littlefs/lfs.c ****                 if (err && err != LFS_ERR_CORRUPT) {
1724:SynaptiX_FDK/services/littlefs/lfs.c ****                     return err;
1725:SynaptiX_FDK/services/littlefs/lfs.c ****                 }
1726:SynaptiX_FDK/services/littlefs/lfs.c **** 
1727:SynaptiX_FDK/services/littlefs/lfs.c ****                 lfs_fcrc_tole32(&fcrc);
1728:SynaptiX_FDK/services/littlefs/lfs.c ****                 err = lfs_dir_commitattr(lfs, commit,
1729:SynaptiX_FDK/services/littlefs/lfs.c ****                         LFS_MKTAG(LFS_TYPE_FCRC, 0x3ff, sizeof(struct lfs_fcrc)),
1730:SynaptiX_FDK/services/littlefs/lfs.c ****                         &fcrc);
ARM GAS  C:\Users\LENOVO\AppData\Local\Temp\ccPMz3A0.s 			page 46


1731:SynaptiX_FDK/services/littlefs/lfs.c ****                 if (err) {
1732:SynaptiX_FDK/services/littlefs/lfs.c ****                     return err;
1733:SynaptiX_FDK/services/littlefs/lfs.c ****                 }
1734:SynaptiX_FDK/services/littlefs/lfs.c ****             }
1735:SynaptiX_FDK/services/littlefs/lfs.c ****         }
1736:SynaptiX_FDK/services/littlefs/lfs.c **** 
1737:SynaptiX_FDK/services/littlefs/lfs.c ****         // build commit crc
1738:SynaptiX_FDK/services/littlefs/lfs.c ****         struct {
1739:SynaptiX_FDK/services/littlefs/lfs.c ****             lfs_tag_t tag;
1740:SynaptiX_FDK/services/littlefs/lfs.c ****             uint32_t crc;
1741:SynaptiX_FDK/services/littlefs/lfs.c ****         } ccrc;
1742:SynaptiX_FDK/services/littlefs/lfs.c ****         lfs_tag_t ntag = LFS_MKTAG(
1743:SynaptiX_FDK/services/littlefs/lfs.c ****                 LFS_TYPE_CCRC + (((uint8_t)~eperturb) >> 7), 0x3ff,
1744:SynaptiX_FDK/services/littlefs/lfs.c ****                 noff - (commit->off+sizeof(lfs_tag_t)));
1745:SynaptiX_FDK/services/littlefs/lfs.c ****         ccrc.tag = lfs_tobe32(ntag ^ commit->ptag);
1746:SynaptiX_FDK/services/littlefs/lfs.c ****         commit->crc = lfs_crc(commit->crc, &ccrc.tag, sizeof(lfs_tag_t));
1747:SynaptiX_FDK/services/littlefs/lfs.c ****         ccrc.crc = lfs_tole32(commit->crc);
1748:SynaptiX_FDK/services/littlefs/lfs.c **** 
1749:SynaptiX_FDK/services/littlefs/lfs.c ****         int err = lfs_bd_prog(lfs,
1750:SynaptiX_FDK/services/littlefs/lfs.c ****                 &lfs->pcache, &lfs->rcache, false,
1751:SynaptiX_FDK/services/littlefs/lfs.c ****                 commit->block, commit->off, &ccrc, sizeof(ccrc));
1752:SynaptiX_FDK/services/littlefs/lfs.c ****         if (err) {
1753:SynaptiX_FDK/services/littlefs/lfs.c ****             return err;
1754:SynaptiX_FDK/services/littlefs/lfs.c ****         }
1755:SynaptiX_FDK/services/littlefs/lfs.c **** 
1756:SynaptiX_FDK/services/littlefs/lfs.c ****         // keep track of non-padding checksum to verify
1757:SynaptiX_FDK/services/littlefs/lfs.c ****         if (off1 == 0) {
1758:SynaptiX_FDK/services/littlefs/lfs.c ****             off1 = commit->off + sizeof(lfs_tag_t);
1759:SynaptiX_FDK/services/littlefs/lfs.c ****             crc1 = commit->crc;
1760:SynaptiX_FDK/services/littlefs/lfs.c ****         }
1761:SynaptiX_FDK/services/littlefs/lfs.c **** 
1762:SynaptiX_FDK/services/littlefs/lfs.c ****         commit->off = noff;
1763:SynaptiX_FDK/services/littlefs/lfs.c ****         // perturb valid bit?
1764:SynaptiX_FDK/services/littlefs/lfs.c ****         commit->ptag = ntag ^ ((0x80UL & ~eperturb) << 24);
1765:SynaptiX_FDK/services/littlefs/lfs.c ****         // reset crc for next commit
1766:SynaptiX_FDK/services/littlefs/lfs.c ****         commit->crc = 0xffffffff;
1767:SynaptiX_FDK/services/littlefs/lfs.c **** 
1768:SynaptiX_FDK/services/littlefs/lfs.c ****         // manually flush here since we don't prog the padding, this confuses
1769:SynaptiX_FDK/services/littlefs/lfs.c ****         // the caching layer
1770:SynaptiX_FDK/services/littlefs/lfs.c ****         if (noff >= end || noff >= lfs->pcache.off + lfs->cfg->cache_size) {
1771:SynaptiX_FDK/services/littlefs/lfs.c ****             // flush buffers
1772:SynaptiX_FDK/services/littlefs/lfs.c ****             int err = lfs_bd_sync(lfs, &lfs->pcache, &lfs->rcache, false);
1773:SynaptiX_FDK/services/littlefs/lfs.c ****             if (err) {
1774:SynaptiX_FDK/services/littlefs/lfs.c ****                 return err;
1775:SynaptiX_FDK/services/littlefs/lfs.c ****             }
1776:SynaptiX_FDK/services/littlefs/lfs.c ****         }
1777:SynaptiX_FDK/services/littlefs/lfs.c ****     }
1778:SynaptiX_FDK/services/littlefs/lfs.c **** 
1779:SynaptiX_FDK/services/littlefs/lfs.c ****     // successful commit, check checksums to make sure
1780:SynaptiX_FDK/services/littlefs/lfs.c ****     //
1781:SynaptiX_FDK/services/littlefs/lfs.c ****     // note that we don't need to check padding commits, worst
1782:SynaptiX_FDK/services/littlefs/lfs.c ****     // case if they are corrupted we would have had to compact anyways
1783:SynaptiX_FDK/services/littlefs/lfs.c ****     lfs_off_t off = commit->begin;
1784:SynaptiX_FDK/services/littlefs/lfs.c ****     uint32_t crc = 0xffffffff;
1785:SynaptiX_FDK/services/littlefs/lfs.c ****     int err = lfs_bd_crc(lfs,
1786:SynaptiX_FDK/services/littlefs/lfs.c ****             NULL, &lfs->rcache, off1+sizeof(uint32_t),
1787:SynaptiX_FDK/services/littlefs/lfs.c ****             commit->block, off, off1-off, &crc);
ARM GAS  C:\Users\LENOVO\AppData\Local\Temp\ccPMz3A0.s 			page 47


1788:SynaptiX_FDK/services/littlefs/lfs.c ****     if (err) {
1789:SynaptiX_FDK/services/littlefs/lfs.c ****         return err;
1790:SynaptiX_FDK/services/littlefs/lfs.c ****     }
1791:SynaptiX_FDK/services/littlefs/lfs.c **** 
1792:SynaptiX_FDK/services/littlefs/lfs.c ****     // check non-padding commits against known crc
1793:SynaptiX_FDK/services/littlefs/lfs.c ****     if (crc != crc1) {
1794:SynaptiX_FDK/services/littlefs/lfs.c ****         return LFS_ERR_CORRUPT;
1795:SynaptiX_FDK/services/littlefs/lfs.c ****     }
1796:SynaptiX_FDK/services/littlefs/lfs.c **** 
1797:SynaptiX_FDK/services/littlefs/lfs.c ****     // make sure to check crc in case we happen to pick
1798:SynaptiX_FDK/services/littlefs/lfs.c ****     // up an unrelated crc (frozen block?)
1799:SynaptiX_FDK/services/littlefs/lfs.c ****     err = lfs_bd_crc(lfs,
1800:SynaptiX_FDK/services/littlefs/lfs.c ****             NULL, &lfs->rcache, sizeof(uint32_t),
1801:SynaptiX_FDK/services/littlefs/lfs.c ****             commit->block, off1, sizeof(uint32_t), &crc);
1802:SynaptiX_FDK/services/littlefs/lfs.c ****     if (err) {
1803:SynaptiX_FDK/services/littlefs/lfs.c ****         return err;
1804:SynaptiX_FDK/services/littlefs/lfs.c ****     }
1805:SynaptiX_FDK/services/littlefs/lfs.c **** 
1806:SynaptiX_FDK/services/littlefs/lfs.c ****     if (crc != 0) {
1807:SynaptiX_FDK/services/littlefs/lfs.c ****         return LFS_ERR_CORRUPT;
1808:SynaptiX_FDK/services/littlefs/lfs.c ****     }
1809:SynaptiX_FDK/services/littlefs/lfs.c **** 
1810:SynaptiX_FDK/services/littlefs/lfs.c ****     return 0;
1811:SynaptiX_FDK/services/littlefs/lfs.c **** }
1812:SynaptiX_FDK/services/littlefs/lfs.c **** #endif
1813:SynaptiX_FDK/services/littlefs/lfs.c **** 
1814:SynaptiX_FDK/services/littlefs/lfs.c **** #ifndef LFS_READONLY
1815:SynaptiX_FDK/services/littlefs/lfs.c **** static int lfs_dir_alloc(lfs_t *lfs, lfs_mdir_t *dir) {
1816:SynaptiX_FDK/services/littlefs/lfs.c ****     // allocate pair of dir blocks (backwards, so we write block 1 first)
1817:SynaptiX_FDK/services/littlefs/lfs.c ****     for (int i = 0; i < 2; i++) {
1818:SynaptiX_FDK/services/littlefs/lfs.c ****         int err = lfs_alloc(lfs, &dir->pair[(i+1)%2]);
1819:SynaptiX_FDK/services/littlefs/lfs.c ****         if (err) {
1820:SynaptiX_FDK/services/littlefs/lfs.c ****             return err;
1821:SynaptiX_FDK/services/littlefs/lfs.c ****         }
1822:SynaptiX_FDK/services/littlefs/lfs.c ****     }
1823:SynaptiX_FDK/services/littlefs/lfs.c **** 
1824:SynaptiX_FDK/services/littlefs/lfs.c ****     // zero for reproducibility in case initial block is unreadable
1825:SynaptiX_FDK/services/littlefs/lfs.c ****     dir->rev = 0;
1826:SynaptiX_FDK/services/littlefs/lfs.c **** 
1827:SynaptiX_FDK/services/littlefs/lfs.c ****     // rather than clobbering one of the blocks we just pretend
1828:SynaptiX_FDK/services/littlefs/lfs.c ****     // the revision may be valid
1829:SynaptiX_FDK/services/littlefs/lfs.c ****     int err = lfs_bd_read(lfs,
1830:SynaptiX_FDK/services/littlefs/lfs.c ****             NULL, &lfs->rcache, sizeof(dir->rev),
1831:SynaptiX_FDK/services/littlefs/lfs.c ****             dir->pair[0], 0, &dir->rev, sizeof(dir->rev));
1832:SynaptiX_FDK/services/littlefs/lfs.c ****     dir->rev = lfs_fromle32(dir->rev);
1833:SynaptiX_FDK/services/littlefs/lfs.c ****     if (err && err != LFS_ERR_CORRUPT) {
1834:SynaptiX_FDK/services/littlefs/lfs.c ****         return err;
1835:SynaptiX_FDK/services/littlefs/lfs.c ****     }
1836:SynaptiX_FDK/services/littlefs/lfs.c **** 
1837:SynaptiX_FDK/services/littlefs/lfs.c ****     // to make sure we don't immediately evict, align the new revision count
1838:SynaptiX_FDK/services/littlefs/lfs.c ****     // to our block_cycles modulus, see lfs_dir_compact for why our modulus
1839:SynaptiX_FDK/services/littlefs/lfs.c ****     // is tweaked this way
1840:SynaptiX_FDK/services/littlefs/lfs.c ****     if (lfs->cfg->block_cycles > 0) {
1841:SynaptiX_FDK/services/littlefs/lfs.c ****         dir->rev = lfs_alignup(dir->rev, ((lfs->cfg->block_cycles+1)|1));
1842:SynaptiX_FDK/services/littlefs/lfs.c ****     }
1843:SynaptiX_FDK/services/littlefs/lfs.c **** 
1844:SynaptiX_FDK/services/littlefs/lfs.c ****     // set defaults
ARM GAS  C:\Users\LENOVO\AppData\Local\Temp\ccPMz3A0.s 			page 48


1845:SynaptiX_FDK/services/littlefs/lfs.c ****     dir->off = sizeof(dir->rev);
1846:SynaptiX_FDK/services/littlefs/lfs.c ****     dir->etag = 0xffffffff;
1847:SynaptiX_FDK/services/littlefs/lfs.c ****     dir->count = 0;
1848:SynaptiX_FDK/services/littlefs/lfs.c ****     dir->tail[0] = LFS_BLOCK_NULL;
1849:SynaptiX_FDK/services/littlefs/lfs.c ****     dir->tail[1] = LFS_BLOCK_NULL;
1850:SynaptiX_FDK/services/littlefs/lfs.c ****     dir->erased = false;
1851:SynaptiX_FDK/services/littlefs/lfs.c ****     dir->split = false;
1852:SynaptiX_FDK/services/littlefs/lfs.c **** 
1853:SynaptiX_FDK/services/littlefs/lfs.c ****     // don't write out yet, let caller take care of that
1854:SynaptiX_FDK/services/littlefs/lfs.c ****     return 0;
1855:SynaptiX_FDK/services/littlefs/lfs.c **** }
1856:SynaptiX_FDK/services/littlefs/lfs.c **** #endif
1857:SynaptiX_FDK/services/littlefs/lfs.c **** 
1858:SynaptiX_FDK/services/littlefs/lfs.c **** #ifndef LFS_READONLY
1859:SynaptiX_FDK/services/littlefs/lfs.c **** static int lfs_dir_drop(lfs_t *lfs, lfs_mdir_t *dir, lfs_mdir_t *tail) {
1860:SynaptiX_FDK/services/littlefs/lfs.c ****     // steal state
1861:SynaptiX_FDK/services/littlefs/lfs.c ****     int err = lfs_dir_getgstate(lfs, tail, &lfs->gdelta);
1862:SynaptiX_FDK/services/littlefs/lfs.c ****     if (err) {
1863:SynaptiX_FDK/services/littlefs/lfs.c ****         return err;
1864:SynaptiX_FDK/services/littlefs/lfs.c ****     }
1865:SynaptiX_FDK/services/littlefs/lfs.c **** 
1866:SynaptiX_FDK/services/littlefs/lfs.c ****     // steal tail
1867:SynaptiX_FDK/services/littlefs/lfs.c ****     lfs_pair_tole32(tail->tail);
1868:SynaptiX_FDK/services/littlefs/lfs.c ****     err = lfs_dir_commit(lfs, dir, LFS_MKATTRS(
1869:SynaptiX_FDK/services/littlefs/lfs.c ****             {LFS_MKTAG(LFS_TYPE_TAIL + tail->split, 0x3ff, 8), tail->tail}));
1870:SynaptiX_FDK/services/littlefs/lfs.c ****     lfs_pair_fromle32(tail->tail);
1871:SynaptiX_FDK/services/littlefs/lfs.c ****     if (err) {
1872:SynaptiX_FDK/services/littlefs/lfs.c ****         return err;
1873:SynaptiX_FDK/services/littlefs/lfs.c ****     }
1874:SynaptiX_FDK/services/littlefs/lfs.c **** 
1875:SynaptiX_FDK/services/littlefs/lfs.c ****     return 0;
1876:SynaptiX_FDK/services/littlefs/lfs.c **** }
1877:SynaptiX_FDK/services/littlefs/lfs.c **** #endif
1878:SynaptiX_FDK/services/littlefs/lfs.c **** 
1879:SynaptiX_FDK/services/littlefs/lfs.c **** #ifndef LFS_READONLY
1880:SynaptiX_FDK/services/littlefs/lfs.c **** static int lfs_dir_split(lfs_t *lfs,
1881:SynaptiX_FDK/services/littlefs/lfs.c ****         lfs_mdir_t *dir, const struct lfs_mattr *attrs, int attrcount,
1882:SynaptiX_FDK/services/littlefs/lfs.c ****         lfs_mdir_t *source, uint16_t split, uint16_t end) {
1883:SynaptiX_FDK/services/littlefs/lfs.c ****     // create tail metadata pair
1884:SynaptiX_FDK/services/littlefs/lfs.c ****     lfs_mdir_t tail;
1885:SynaptiX_FDK/services/littlefs/lfs.c ****     int err = lfs_dir_alloc(lfs, &tail);
1886:SynaptiX_FDK/services/littlefs/lfs.c ****     if (err) {
1887:SynaptiX_FDK/services/littlefs/lfs.c ****         return err;
1888:SynaptiX_FDK/services/littlefs/lfs.c ****     }
1889:SynaptiX_FDK/services/littlefs/lfs.c **** 
1890:SynaptiX_FDK/services/littlefs/lfs.c ****     tail.split = dir->split;
1891:SynaptiX_FDK/services/littlefs/lfs.c ****     tail.tail[0] = dir->tail[0];
1892:SynaptiX_FDK/services/littlefs/lfs.c ****     tail.tail[1] = dir->tail[1];
1893:SynaptiX_FDK/services/littlefs/lfs.c **** 
1894:SynaptiX_FDK/services/littlefs/lfs.c ****     // note we don't care about LFS_OK_RELOCATED
1895:SynaptiX_FDK/services/littlefs/lfs.c ****     int res = lfs_dir_compact(lfs, &tail, attrs, attrcount, source, split, end);
1896:SynaptiX_FDK/services/littlefs/lfs.c ****     if (res < 0) {
1897:SynaptiX_FDK/services/littlefs/lfs.c ****         return res;
1898:SynaptiX_FDK/services/littlefs/lfs.c ****     }
1899:SynaptiX_FDK/services/littlefs/lfs.c **** 
1900:SynaptiX_FDK/services/littlefs/lfs.c ****     dir->tail[0] = tail.pair[0];
1901:SynaptiX_FDK/services/littlefs/lfs.c ****     dir->tail[1] = tail.pair[1];
ARM GAS  C:\Users\LENOVO\AppData\Local\Temp\ccPMz3A0.s 			page 49


1902:SynaptiX_FDK/services/littlefs/lfs.c ****     dir->split = true;
1903:SynaptiX_FDK/services/littlefs/lfs.c **** 
1904:SynaptiX_FDK/services/littlefs/lfs.c ****     // update root if needed
1905:SynaptiX_FDK/services/littlefs/lfs.c ****     if (lfs_pair_cmp(dir->pair, lfs->root) == 0 && split == 0) {
1906:SynaptiX_FDK/services/littlefs/lfs.c ****         lfs->root[0] = tail.pair[0];
1907:SynaptiX_FDK/services/littlefs/lfs.c ****         lfs->root[1] = tail.pair[1];
1908:SynaptiX_FDK/services/littlefs/lfs.c ****     }
1909:SynaptiX_FDK/services/littlefs/lfs.c **** 
1910:SynaptiX_FDK/services/littlefs/lfs.c ****     return 0;
1911:SynaptiX_FDK/services/littlefs/lfs.c **** }
1912:SynaptiX_FDK/services/littlefs/lfs.c **** #endif
1913:SynaptiX_FDK/services/littlefs/lfs.c **** 
1914:SynaptiX_FDK/services/littlefs/lfs.c **** #ifndef LFS_READONLY
1915:SynaptiX_FDK/services/littlefs/lfs.c **** static int lfs_dir_commit_size(void *p, lfs_tag_t tag, const void *buffer) {
 783              		.loc 1 1915 76 is_stmt 1 view -0
 784              		.cfi_startproc
 785              		@ args = 0, pretend = 0, frame = 0
 786              		@ frame_needed = 0, uses_anonymous_args = 0
 787              		@ link register save eliminated.
1916:SynaptiX_FDK/services/littlefs/lfs.c ****     lfs_size_t *size = p;
 788              		.loc 1 1916 5 view .LVU200
1917:SynaptiX_FDK/services/littlefs/lfs.c ****     (void)buffer;
 789              		.loc 1 1917 5 view .LVU201
1918:SynaptiX_FDK/services/littlefs/lfs.c **** 
1919:SynaptiX_FDK/services/littlefs/lfs.c ****     *size += lfs_tag_dsize(tag);
 790              		.loc 1 1919 5 view .LVU202
 791              	.LBB931:
 792              	.LBI931:
 387:SynaptiX_FDK/services/littlefs/lfs.c ****     return sizeof(tag) + lfs_tag_size(tag + lfs_tag_isdelete(tag));
 793              		.loc 1 387 26 view .LVU203
 794              	.LBB932:
 388:SynaptiX_FDK/services/littlefs/lfs.c **** }
 795              		.loc 1 388 5 view .LVU204
 796              	.LBB933:
 797              	.LBI933:
 355:SynaptiX_FDK/services/littlefs/lfs.c ****     return ((int32_t)(tag << 22) >> 22) == -1;
 798              		.loc 1 355 20 view .LVU205
 799              	.LBB934:
 356:SynaptiX_FDK/services/littlefs/lfs.c **** }
 800              		.loc 1 356 5 view .LVU206
 356:SynaptiX_FDK/services/littlefs/lfs.c **** }
 801              		.loc 1 356 34 is_stmt 0 view .LVU207
 802 0000 41F30903 		sbfx	r3, r1, #0, #10
 803              	.LVL81:
 356:SynaptiX_FDK/services/littlefs/lfs.c **** }
 804              		.loc 1 356 34 view .LVU208
 805              	.LBE934:
 806              	.LBE933:
 388:SynaptiX_FDK/services/littlefs/lfs.c **** }
 807              		.loc 1 388 26 discriminator 1 view .LVU209
 808 0004 B3F1FF3F 		cmp	r3, #-1
 809 0008 08BF     		it	eq
 810 000a 0131     		addeq	r1, r1, #1
 811              	.LVL82:
 812              	.LBB935:
 813              	.LBI935:
 383:SynaptiX_FDK/services/littlefs/lfs.c ****     return tag & 0x000003ff;
ARM GAS  C:\Users\LENOVO\AppData\Local\Temp\ccPMz3A0.s 			page 50


 814              		.loc 1 383 26 is_stmt 1 view .LVU210
 815              	.LBB936:
 384:SynaptiX_FDK/services/littlefs/lfs.c **** }
 816              		.loc 1 384 5 view .LVU211
 384:SynaptiX_FDK/services/littlefs/lfs.c **** }
 817              		.loc 1 384 16 is_stmt 0 view .LVU212
 818 000c C1F30901 		ubfx	r1, r1, #0, #10
 819              	.LVL83:
 384:SynaptiX_FDK/services/littlefs/lfs.c **** }
 820              		.loc 1 384 16 view .LVU213
 821              	.LBE936:
 822              	.LBE935:
 388:SynaptiX_FDK/services/littlefs/lfs.c **** }
 823              		.loc 1 388 24 discriminator 2 view .LVU214
 824 0010 0431     		adds	r1, r1, #4
 825              	.LVL84:
 388:SynaptiX_FDK/services/littlefs/lfs.c **** }
 826              		.loc 1 388 24 discriminator 2 view .LVU215
 827              	.LBE932:
 828              	.LBE931:
 829              		.loc 1 1919 5 discriminator 1 view .LVU216
 830 0012 0368     		ldr	r3, [r0]
 831              		.loc 1 1919 11 discriminator 1 view .LVU217
 832 0014 0B44     		add	r3, r3, r1
 833 0016 0360     		str	r3, [r0]
1920:SynaptiX_FDK/services/littlefs/lfs.c ****     return 0;
 834              		.loc 1 1920 5 is_stmt 1 view .LVU218
1921:SynaptiX_FDK/services/littlefs/lfs.c **** }
 835              		.loc 1 1921 1 is_stmt 0 view .LVU219
 836 0018 0020     		movs	r0, #0
 837              	.LVL85:
 838              		.loc 1 1921 1 view .LVU220
 839 001a 7047     		bx	lr
 840              		.cfi_endproc
 841              	.LFE88:
 843              		.section	.text.lfs_dir_needsrelocation,"ax",%progbits
 844              		.align	1
 845              		.syntax unified
 846              		.thumb
 847              		.thumb_func
 849              	lfs_dir_needsrelocation:
 850              	.LVL86:
 851              	.LFB90:
1922:SynaptiX_FDK/services/littlefs/lfs.c **** #endif
1923:SynaptiX_FDK/services/littlefs/lfs.c **** 
1924:SynaptiX_FDK/services/littlefs/lfs.c **** #ifndef LFS_READONLY
1925:SynaptiX_FDK/services/littlefs/lfs.c **** struct lfs_dir_commit_commit {
1926:SynaptiX_FDK/services/littlefs/lfs.c ****     lfs_t *lfs;
1927:SynaptiX_FDK/services/littlefs/lfs.c ****     struct lfs_commit *commit;
1928:SynaptiX_FDK/services/littlefs/lfs.c **** };
1929:SynaptiX_FDK/services/littlefs/lfs.c **** #endif
1930:SynaptiX_FDK/services/littlefs/lfs.c **** 
1931:SynaptiX_FDK/services/littlefs/lfs.c **** #ifndef LFS_READONLY
1932:SynaptiX_FDK/services/littlefs/lfs.c **** static int lfs_dir_commit_commit(void *p, lfs_tag_t tag, const void *buffer) {
1933:SynaptiX_FDK/services/littlefs/lfs.c ****     struct lfs_dir_commit_commit *commit = p;
1934:SynaptiX_FDK/services/littlefs/lfs.c ****     return lfs_dir_commitattr(commit->lfs, commit->commit, tag, buffer);
1935:SynaptiX_FDK/services/littlefs/lfs.c **** }
ARM GAS  C:\Users\LENOVO\AppData\Local\Temp\ccPMz3A0.s 			page 51


1936:SynaptiX_FDK/services/littlefs/lfs.c **** #endif
1937:SynaptiX_FDK/services/littlefs/lfs.c **** 
1938:SynaptiX_FDK/services/littlefs/lfs.c **** #ifndef LFS_READONLY
1939:SynaptiX_FDK/services/littlefs/lfs.c **** static bool lfs_dir_needsrelocation(lfs_t *lfs, lfs_mdir_t *dir) {
 852              		.loc 1 1939 66 is_stmt 1 view -0
 853              		.cfi_startproc
 854              		@ args = 0, pretend = 0, frame = 0
 855              		@ frame_needed = 0, uses_anonymous_args = 0
 856              		@ link register save eliminated.
1940:SynaptiX_FDK/services/littlefs/lfs.c ****     // If our revision count == n * block_cycles, we should force a relocation,
1941:SynaptiX_FDK/services/littlefs/lfs.c ****     // this is how littlefs wear-levels at the metadata-pair level. Note that we
1942:SynaptiX_FDK/services/littlefs/lfs.c ****     // actually use (block_cycles+1)|1, this is to avoid two corner cases:
1943:SynaptiX_FDK/services/littlefs/lfs.c ****     // 1. block_cycles = 1, which would prevent relocations from terminating
1944:SynaptiX_FDK/services/littlefs/lfs.c ****     // 2. block_cycles = 2n, which, due to aliasing, would only ever relocate
1945:SynaptiX_FDK/services/littlefs/lfs.c ****     //    one metadata block in the pair, effectively making this useless
1946:SynaptiX_FDK/services/littlefs/lfs.c ****     return (lfs->cfg->block_cycles > 0
 857              		.loc 1 1946 5 view .LVU222
 858              		.loc 1 1946 16 is_stmt 0 view .LVU223
 859 0000 836E     		ldr	r3, [r0, #104]
 860              		.loc 1 1946 21 view .LVU224
 861 0002 5B6A     		ldr	r3, [r3, #36]
1947:SynaptiX_FDK/services/littlefs/lfs.c ****             && ((dir->rev + 1) % ((lfs->cfg->block_cycles+1)|1) == 0));
 862              		.loc 1 1947 13 view .LVU225
 863 0004 002B     		cmp	r3, #0
 864 0006 0BDD     		ble	.L72
 865              		.loc 1 1947 21 discriminator 1 view .LVU226
 866 0008 8A68     		ldr	r2, [r1, #8]
 867              		.loc 1 1947 27 discriminator 1 view .LVU227
 868 000a 0132     		adds	r2, r2, #1
 869              		.loc 1 1947 58 discriminator 1 view .LVU228
 870 000c 0133     		adds	r3, r3, #1
 871              		.loc 1 1947 61 discriminator 1 view .LVU229
 872 000e 43F00103 		orr	r3, r3, #1
 873              		.loc 1 1947 32 discriminator 1 view .LVU230
 874 0012 B2FBF3F1 		udiv	r1, r2, r3
 875              	.LVL87:
 876              		.loc 1 1947 32 discriminator 1 view .LVU231
 877 0016 03FB1122 		mls	r2, r3, r1, r2
 878              		.loc 1 1947 13 discriminator 1 view .LVU232
 879 001a 1AB1     		cbz	r2, .L73
 880              		.loc 1 1947 13 discriminator 4 view .LVU233
 881 001c 0020     		movs	r0, #0
 882              	.LVL88:
 883              		.loc 1 1947 13 discriminator 4 view .LVU234
 884 001e 7047     		bx	lr
 885              	.LVL89:
 886              	.L72:
 887              		.loc 1 1947 13 discriminator 4 view .LVU235
 888 0020 0020     		movs	r0, #0
 889              	.LVL90:
 890              		.loc 1 1947 13 discriminator 4 view .LVU236
 891 0022 7047     		bx	lr
 892              	.LVL91:
 893              	.L73:
 894              		.loc 1 1947 13 discriminator 3 view .LVU237
 895 0024 0120     		movs	r0, #1
 896              	.LVL92:
ARM GAS  C:\Users\LENOVO\AppData\Local\Temp\ccPMz3A0.s 			page 52


1948:SynaptiX_FDK/services/littlefs/lfs.c **** }
 897              		.loc 1 1948 1 view .LVU238
 898 0026 7047     		bx	lr
 899              		.cfi_endproc
 900              	.LFE90:
 902              		.section	.text.lfs_dir_close_,"ax",%progbits
 903              		.align	1
 904              		.syntax unified
 905              		.thumb
 906              		.thumb_func
 908              	lfs_dir_close_:
 909              	.LVL93:
 910              	.LFB98:
1949:SynaptiX_FDK/services/littlefs/lfs.c **** #endif
1950:SynaptiX_FDK/services/littlefs/lfs.c **** 
1951:SynaptiX_FDK/services/littlefs/lfs.c **** #ifndef LFS_READONLY
1952:SynaptiX_FDK/services/littlefs/lfs.c **** static int lfs_dir_compact(lfs_t *lfs,
1953:SynaptiX_FDK/services/littlefs/lfs.c ****         lfs_mdir_t *dir, const struct lfs_mattr *attrs, int attrcount,
1954:SynaptiX_FDK/services/littlefs/lfs.c ****         lfs_mdir_t *source, uint16_t begin, uint16_t end) {
1955:SynaptiX_FDK/services/littlefs/lfs.c ****     // save some state in case block is bad
1956:SynaptiX_FDK/services/littlefs/lfs.c ****     bool relocated = false;
1957:SynaptiX_FDK/services/littlefs/lfs.c ****     bool tired = lfs_dir_needsrelocation(lfs, dir);
1958:SynaptiX_FDK/services/littlefs/lfs.c **** 
1959:SynaptiX_FDK/services/littlefs/lfs.c ****     // increment revision count
1960:SynaptiX_FDK/services/littlefs/lfs.c ****     dir->rev += 1;
1961:SynaptiX_FDK/services/littlefs/lfs.c **** 
1962:SynaptiX_FDK/services/littlefs/lfs.c ****     // do not proactively relocate blocks during migrations, this
1963:SynaptiX_FDK/services/littlefs/lfs.c ****     // can cause a number of failure states such: clobbering the
1964:SynaptiX_FDK/services/littlefs/lfs.c ****     // v1 superblock if we relocate root, and invalidating directory
1965:SynaptiX_FDK/services/littlefs/lfs.c ****     // pointers if we relocate the head of a directory. On top of
1966:SynaptiX_FDK/services/littlefs/lfs.c ****     // this, relocations increase the overall complexity of
1967:SynaptiX_FDK/services/littlefs/lfs.c ****     // lfs_migration, which is already a delicate operation.
1968:SynaptiX_FDK/services/littlefs/lfs.c **** #ifdef LFS_MIGRATE
1969:SynaptiX_FDK/services/littlefs/lfs.c ****     if (lfs->lfs1) {
1970:SynaptiX_FDK/services/littlefs/lfs.c ****         tired = false;
1971:SynaptiX_FDK/services/littlefs/lfs.c ****     }
1972:SynaptiX_FDK/services/littlefs/lfs.c **** #endif
1973:SynaptiX_FDK/services/littlefs/lfs.c **** 
1974:SynaptiX_FDK/services/littlefs/lfs.c ****     if (tired && lfs_pair_cmp(dir->pair, (const lfs_block_t[2]){0, 1}) != 0) {
1975:SynaptiX_FDK/services/littlefs/lfs.c ****         // we're writing too much, time to relocate
1976:SynaptiX_FDK/services/littlefs/lfs.c ****         goto relocate;
1977:SynaptiX_FDK/services/littlefs/lfs.c ****     }
1978:SynaptiX_FDK/services/littlefs/lfs.c **** 
1979:SynaptiX_FDK/services/littlefs/lfs.c ****     // begin loop to commit compaction to blocks until a compact sticks
1980:SynaptiX_FDK/services/littlefs/lfs.c ****     while (true) {
1981:SynaptiX_FDK/services/littlefs/lfs.c ****         {
1982:SynaptiX_FDK/services/littlefs/lfs.c ****             // setup commit state
1983:SynaptiX_FDK/services/littlefs/lfs.c ****             struct lfs_commit commit = {
1984:SynaptiX_FDK/services/littlefs/lfs.c ****                 .block = dir->pair[1],
1985:SynaptiX_FDK/services/littlefs/lfs.c ****                 .off = 0,
1986:SynaptiX_FDK/services/littlefs/lfs.c ****                 .ptag = 0xffffffff,
1987:SynaptiX_FDK/services/littlefs/lfs.c ****                 .crc = 0xffffffff,
1988:SynaptiX_FDK/services/littlefs/lfs.c **** 
1989:SynaptiX_FDK/services/littlefs/lfs.c ****                 .begin = 0,
1990:SynaptiX_FDK/services/littlefs/lfs.c ****                 .end = (lfs->cfg->metadata_max ?
1991:SynaptiX_FDK/services/littlefs/lfs.c ****                     lfs->cfg->metadata_max : lfs->cfg->block_size) - 8,
1992:SynaptiX_FDK/services/littlefs/lfs.c ****             };
ARM GAS  C:\Users\LENOVO\AppData\Local\Temp\ccPMz3A0.s 			page 53


1993:SynaptiX_FDK/services/littlefs/lfs.c **** 
1994:SynaptiX_FDK/services/littlefs/lfs.c ****             // erase block to write to
1995:SynaptiX_FDK/services/littlefs/lfs.c ****             int err = lfs_bd_erase(lfs, dir->pair[1]);
1996:SynaptiX_FDK/services/littlefs/lfs.c ****             if (err) {
1997:SynaptiX_FDK/services/littlefs/lfs.c ****                 if (err == LFS_ERR_CORRUPT) {
1998:SynaptiX_FDK/services/littlefs/lfs.c ****                     goto relocate;
1999:SynaptiX_FDK/services/littlefs/lfs.c ****                 }
2000:SynaptiX_FDK/services/littlefs/lfs.c ****                 return err;
2001:SynaptiX_FDK/services/littlefs/lfs.c ****             }
2002:SynaptiX_FDK/services/littlefs/lfs.c **** 
2003:SynaptiX_FDK/services/littlefs/lfs.c ****             // write out header
2004:SynaptiX_FDK/services/littlefs/lfs.c ****             dir->rev = lfs_tole32(dir->rev);
2005:SynaptiX_FDK/services/littlefs/lfs.c ****             err = lfs_dir_commitprog(lfs, &commit,
2006:SynaptiX_FDK/services/littlefs/lfs.c ****                     &dir->rev, sizeof(dir->rev));
2007:SynaptiX_FDK/services/littlefs/lfs.c ****             dir->rev = lfs_fromle32(dir->rev);
2008:SynaptiX_FDK/services/littlefs/lfs.c ****             if (err) {
2009:SynaptiX_FDK/services/littlefs/lfs.c ****                 if (err == LFS_ERR_CORRUPT) {
2010:SynaptiX_FDK/services/littlefs/lfs.c ****                     goto relocate;
2011:SynaptiX_FDK/services/littlefs/lfs.c ****                 }
2012:SynaptiX_FDK/services/littlefs/lfs.c ****                 return err;
2013:SynaptiX_FDK/services/littlefs/lfs.c ****             }
2014:SynaptiX_FDK/services/littlefs/lfs.c **** 
2015:SynaptiX_FDK/services/littlefs/lfs.c ****             // traverse the directory, this time writing out all unique tags
2016:SynaptiX_FDK/services/littlefs/lfs.c ****             err = lfs_dir_traverse(lfs,
2017:SynaptiX_FDK/services/littlefs/lfs.c ****                     source, 0, 0xffffffff, attrs, attrcount,
2018:SynaptiX_FDK/services/littlefs/lfs.c ****                     LFS_MKTAG(0x400, 0x3ff, 0),
2019:SynaptiX_FDK/services/littlefs/lfs.c ****                     LFS_MKTAG(LFS_TYPE_NAME, 0, 0),
2020:SynaptiX_FDK/services/littlefs/lfs.c ****                     begin, end, -begin,
2021:SynaptiX_FDK/services/littlefs/lfs.c ****                     lfs_dir_commit_commit, &(struct lfs_dir_commit_commit){
2022:SynaptiX_FDK/services/littlefs/lfs.c ****                         lfs, &commit});
2023:SynaptiX_FDK/services/littlefs/lfs.c ****             if (err) {
2024:SynaptiX_FDK/services/littlefs/lfs.c ****                 if (err == LFS_ERR_CORRUPT) {
2025:SynaptiX_FDK/services/littlefs/lfs.c ****                     goto relocate;
2026:SynaptiX_FDK/services/littlefs/lfs.c ****                 }
2027:SynaptiX_FDK/services/littlefs/lfs.c ****                 return err;
2028:SynaptiX_FDK/services/littlefs/lfs.c ****             }
2029:SynaptiX_FDK/services/littlefs/lfs.c **** 
2030:SynaptiX_FDK/services/littlefs/lfs.c ****             // commit tail, which may be new after last size check
2031:SynaptiX_FDK/services/littlefs/lfs.c ****             if (!lfs_pair_isnull(dir->tail)) {
2032:SynaptiX_FDK/services/littlefs/lfs.c ****                 lfs_pair_tole32(dir->tail);
2033:SynaptiX_FDK/services/littlefs/lfs.c ****                 err = lfs_dir_commitattr(lfs, &commit,
2034:SynaptiX_FDK/services/littlefs/lfs.c ****                         LFS_MKTAG(LFS_TYPE_TAIL + dir->split, 0x3ff, 8),
2035:SynaptiX_FDK/services/littlefs/lfs.c ****                         dir->tail);
2036:SynaptiX_FDK/services/littlefs/lfs.c ****                 lfs_pair_fromle32(dir->tail);
2037:SynaptiX_FDK/services/littlefs/lfs.c ****                 if (err) {
2038:SynaptiX_FDK/services/littlefs/lfs.c ****                     if (err == LFS_ERR_CORRUPT) {
2039:SynaptiX_FDK/services/littlefs/lfs.c ****                         goto relocate;
2040:SynaptiX_FDK/services/littlefs/lfs.c ****                     }
2041:SynaptiX_FDK/services/littlefs/lfs.c ****                     return err;
2042:SynaptiX_FDK/services/littlefs/lfs.c ****                 }
2043:SynaptiX_FDK/services/littlefs/lfs.c ****             }
2044:SynaptiX_FDK/services/littlefs/lfs.c **** 
2045:SynaptiX_FDK/services/littlefs/lfs.c ****             // bring over gstate?
2046:SynaptiX_FDK/services/littlefs/lfs.c ****             lfs_gstate_t delta = {0};
2047:SynaptiX_FDK/services/littlefs/lfs.c ****             if (!relocated) {
2048:SynaptiX_FDK/services/littlefs/lfs.c ****                 lfs_gstate_xor(&delta, &lfs->gdisk);
2049:SynaptiX_FDK/services/littlefs/lfs.c ****                 lfs_gstate_xor(&delta, &lfs->gstate);
ARM GAS  C:\Users\LENOVO\AppData\Local\Temp\ccPMz3A0.s 			page 54


2050:SynaptiX_FDK/services/littlefs/lfs.c ****             }
2051:SynaptiX_FDK/services/littlefs/lfs.c ****             lfs_gstate_xor(&delta, &lfs->gdelta);
2052:SynaptiX_FDK/services/littlefs/lfs.c ****             delta.tag &= ~LFS_MKTAG(0, 0, 0x3ff);
2053:SynaptiX_FDK/services/littlefs/lfs.c **** 
2054:SynaptiX_FDK/services/littlefs/lfs.c ****             err = lfs_dir_getgstate(lfs, dir, &delta);
2055:SynaptiX_FDK/services/littlefs/lfs.c ****             if (err) {
2056:SynaptiX_FDK/services/littlefs/lfs.c ****                 return err;
2057:SynaptiX_FDK/services/littlefs/lfs.c ****             }
2058:SynaptiX_FDK/services/littlefs/lfs.c **** 
2059:SynaptiX_FDK/services/littlefs/lfs.c ****             if (!lfs_gstate_iszero(&delta)) {
2060:SynaptiX_FDK/services/littlefs/lfs.c ****                 lfs_gstate_tole32(&delta);
2061:SynaptiX_FDK/services/littlefs/lfs.c ****                 err = lfs_dir_commitattr(lfs, &commit,
2062:SynaptiX_FDK/services/littlefs/lfs.c ****                         LFS_MKTAG(LFS_TYPE_MOVESTATE, 0x3ff,
2063:SynaptiX_FDK/services/littlefs/lfs.c ****                             sizeof(delta)), &delta);
2064:SynaptiX_FDK/services/littlefs/lfs.c ****                 if (err) {
2065:SynaptiX_FDK/services/littlefs/lfs.c ****                     if (err == LFS_ERR_CORRUPT) {
2066:SynaptiX_FDK/services/littlefs/lfs.c ****                         goto relocate;
2067:SynaptiX_FDK/services/littlefs/lfs.c ****                     }
2068:SynaptiX_FDK/services/littlefs/lfs.c ****                     return err;
2069:SynaptiX_FDK/services/littlefs/lfs.c ****                 }
2070:SynaptiX_FDK/services/littlefs/lfs.c ****             }
2071:SynaptiX_FDK/services/littlefs/lfs.c **** 
2072:SynaptiX_FDK/services/littlefs/lfs.c ****             // complete commit with crc
2073:SynaptiX_FDK/services/littlefs/lfs.c ****             err = lfs_dir_commitcrc(lfs, &commit);
2074:SynaptiX_FDK/services/littlefs/lfs.c ****             if (err) {
2075:SynaptiX_FDK/services/littlefs/lfs.c ****                 if (err == LFS_ERR_CORRUPT) {
2076:SynaptiX_FDK/services/littlefs/lfs.c ****                     goto relocate;
2077:SynaptiX_FDK/services/littlefs/lfs.c ****                 }
2078:SynaptiX_FDK/services/littlefs/lfs.c ****                 return err;
2079:SynaptiX_FDK/services/littlefs/lfs.c ****             }
2080:SynaptiX_FDK/services/littlefs/lfs.c **** 
2081:SynaptiX_FDK/services/littlefs/lfs.c ****             // successful compaction, swap dir pair to indicate most recent
2082:SynaptiX_FDK/services/littlefs/lfs.c ****             LFS_ASSERT(commit.off % lfs->cfg->prog_size == 0);
2083:SynaptiX_FDK/services/littlefs/lfs.c ****             lfs_pair_swap(dir->pair);
2084:SynaptiX_FDK/services/littlefs/lfs.c ****             dir->count = end - begin;
2085:SynaptiX_FDK/services/littlefs/lfs.c ****             dir->off = commit.off;
2086:SynaptiX_FDK/services/littlefs/lfs.c ****             dir->etag = commit.ptag;
2087:SynaptiX_FDK/services/littlefs/lfs.c ****             // update gstate
2088:SynaptiX_FDK/services/littlefs/lfs.c ****             lfs->gdelta = (lfs_gstate_t){0};
2089:SynaptiX_FDK/services/littlefs/lfs.c ****             if (!relocated) {
2090:SynaptiX_FDK/services/littlefs/lfs.c ****                 lfs->gdisk = lfs->gstate;
2091:SynaptiX_FDK/services/littlefs/lfs.c ****             }
2092:SynaptiX_FDK/services/littlefs/lfs.c ****         }
2093:SynaptiX_FDK/services/littlefs/lfs.c ****         break;
2094:SynaptiX_FDK/services/littlefs/lfs.c **** 
2095:SynaptiX_FDK/services/littlefs/lfs.c **** relocate:
2096:SynaptiX_FDK/services/littlefs/lfs.c ****         // commit was corrupted, drop caches and prepare to relocate block
2097:SynaptiX_FDK/services/littlefs/lfs.c ****         relocated = true;
2098:SynaptiX_FDK/services/littlefs/lfs.c ****         lfs_cache_drop(lfs, &lfs->pcache);
2099:SynaptiX_FDK/services/littlefs/lfs.c ****         if (!tired) {
2100:SynaptiX_FDK/services/littlefs/lfs.c ****             LFS_DEBUG("Bad block at 0x%"PRIx32, dir->pair[1]);
2101:SynaptiX_FDK/services/littlefs/lfs.c ****         }
2102:SynaptiX_FDK/services/littlefs/lfs.c **** 
2103:SynaptiX_FDK/services/littlefs/lfs.c ****         // can't relocate superblock, filesystem is now frozen
2104:SynaptiX_FDK/services/littlefs/lfs.c ****         if (lfs_pair_cmp(dir->pair, (const lfs_block_t[2]){0, 1}) == 0) {
2105:SynaptiX_FDK/services/littlefs/lfs.c ****             LFS_WARN("Superblock 0x%"PRIx32" has become unwritable",
2106:SynaptiX_FDK/services/littlefs/lfs.c ****                     dir->pair[1]);
ARM GAS  C:\Users\LENOVO\AppData\Local\Temp\ccPMz3A0.s 			page 55


2107:SynaptiX_FDK/services/littlefs/lfs.c ****             return LFS_ERR_NOSPC;
2108:SynaptiX_FDK/services/littlefs/lfs.c ****         }
2109:SynaptiX_FDK/services/littlefs/lfs.c **** 
2110:SynaptiX_FDK/services/littlefs/lfs.c ****         // relocate half of pair
2111:SynaptiX_FDK/services/littlefs/lfs.c ****         int err = lfs_alloc(lfs, &dir->pair[1]);
2112:SynaptiX_FDK/services/littlefs/lfs.c ****         if (err && (err != LFS_ERR_NOSPC || !tired)) {
2113:SynaptiX_FDK/services/littlefs/lfs.c ****             return err;
2114:SynaptiX_FDK/services/littlefs/lfs.c ****         }
2115:SynaptiX_FDK/services/littlefs/lfs.c **** 
2116:SynaptiX_FDK/services/littlefs/lfs.c ****         tired = false;
2117:SynaptiX_FDK/services/littlefs/lfs.c ****         continue;
2118:SynaptiX_FDK/services/littlefs/lfs.c ****     }
2119:SynaptiX_FDK/services/littlefs/lfs.c **** 
2120:SynaptiX_FDK/services/littlefs/lfs.c ****     return relocated ? LFS_OK_RELOCATED : 0;
2121:SynaptiX_FDK/services/littlefs/lfs.c **** }
2122:SynaptiX_FDK/services/littlefs/lfs.c **** #endif
2123:SynaptiX_FDK/services/littlefs/lfs.c **** 
2124:SynaptiX_FDK/services/littlefs/lfs.c **** #ifndef LFS_READONLY
2125:SynaptiX_FDK/services/littlefs/lfs.c **** static int lfs_dir_splittingcompact(lfs_t *lfs, lfs_mdir_t *dir,
2126:SynaptiX_FDK/services/littlefs/lfs.c ****         const struct lfs_mattr *attrs, int attrcount,
2127:SynaptiX_FDK/services/littlefs/lfs.c ****         lfs_mdir_t *source, uint16_t begin, uint16_t end) {
2128:SynaptiX_FDK/services/littlefs/lfs.c ****     while (true) {
2129:SynaptiX_FDK/services/littlefs/lfs.c ****         // find size of first split, we do this by halving the split until
2130:SynaptiX_FDK/services/littlefs/lfs.c ****         // the metadata is guaranteed to fit
2131:SynaptiX_FDK/services/littlefs/lfs.c ****         //
2132:SynaptiX_FDK/services/littlefs/lfs.c ****         // Note that this isn't a true binary search, we never increase the
2133:SynaptiX_FDK/services/littlefs/lfs.c ****         // split size. This may result in poorly distributed metadata but isn't
2134:SynaptiX_FDK/services/littlefs/lfs.c ****         // worth the extra code size or performance hit to fix.
2135:SynaptiX_FDK/services/littlefs/lfs.c ****         lfs_size_t split = begin;
2136:SynaptiX_FDK/services/littlefs/lfs.c ****         while (end - split > 1) {
2137:SynaptiX_FDK/services/littlefs/lfs.c ****             lfs_size_t size = 0;
2138:SynaptiX_FDK/services/littlefs/lfs.c ****             int err = lfs_dir_traverse(lfs,
2139:SynaptiX_FDK/services/littlefs/lfs.c ****                     source, 0, 0xffffffff, attrs, attrcount,
2140:SynaptiX_FDK/services/littlefs/lfs.c ****                     LFS_MKTAG(0x400, 0x3ff, 0),
2141:SynaptiX_FDK/services/littlefs/lfs.c ****                     LFS_MKTAG(LFS_TYPE_NAME, 0, 0),
2142:SynaptiX_FDK/services/littlefs/lfs.c ****                     split, end, -split,
2143:SynaptiX_FDK/services/littlefs/lfs.c ****                     lfs_dir_commit_size, &size);
2144:SynaptiX_FDK/services/littlefs/lfs.c ****             if (err) {
2145:SynaptiX_FDK/services/littlefs/lfs.c ****                 return err;
2146:SynaptiX_FDK/services/littlefs/lfs.c ****             }
2147:SynaptiX_FDK/services/littlefs/lfs.c **** 
2148:SynaptiX_FDK/services/littlefs/lfs.c ****             // space is complicated, we need room for:
2149:SynaptiX_FDK/services/littlefs/lfs.c ****             //
2150:SynaptiX_FDK/services/littlefs/lfs.c ****             // - tail:         4+2*4 = 12 bytes
2151:SynaptiX_FDK/services/littlefs/lfs.c ****             // - gstate:       4+3*4 = 16 bytes
2152:SynaptiX_FDK/services/littlefs/lfs.c ****             // - move delete:  4     = 4 bytes
2153:SynaptiX_FDK/services/littlefs/lfs.c ****             // - crc:          4+4   = 8 bytes
2154:SynaptiX_FDK/services/littlefs/lfs.c ****             //                 total = 40 bytes
2155:SynaptiX_FDK/services/littlefs/lfs.c ****             //
2156:SynaptiX_FDK/services/littlefs/lfs.c ****             // And we cap at half a block to avoid degenerate cases with
2157:SynaptiX_FDK/services/littlefs/lfs.c ****             // nearly-full metadata blocks.
2158:SynaptiX_FDK/services/littlefs/lfs.c ****             //
2159:SynaptiX_FDK/services/littlefs/lfs.c ****             lfs_size_t metadata_max = (lfs->cfg->metadata_max)
2160:SynaptiX_FDK/services/littlefs/lfs.c ****                     ? lfs->cfg->metadata_max
2161:SynaptiX_FDK/services/littlefs/lfs.c ****                     : lfs->cfg->block_size;
2162:SynaptiX_FDK/services/littlefs/lfs.c ****             if (end - split < 0xff
2163:SynaptiX_FDK/services/littlefs/lfs.c ****                     && size <= lfs_min(
ARM GAS  C:\Users\LENOVO\AppData\Local\Temp\ccPMz3A0.s 			page 56


2164:SynaptiX_FDK/services/littlefs/lfs.c ****                         metadata_max - 40,
2165:SynaptiX_FDK/services/littlefs/lfs.c ****                         lfs_alignup(
2166:SynaptiX_FDK/services/littlefs/lfs.c ****                             metadata_max/2,
2167:SynaptiX_FDK/services/littlefs/lfs.c ****                             lfs->cfg->prog_size))) {
2168:SynaptiX_FDK/services/littlefs/lfs.c ****                 break;
2169:SynaptiX_FDK/services/littlefs/lfs.c ****             }
2170:SynaptiX_FDK/services/littlefs/lfs.c **** 
2171:SynaptiX_FDK/services/littlefs/lfs.c ****             split = split + ((end - split) / 2);
2172:SynaptiX_FDK/services/littlefs/lfs.c ****         }
2173:SynaptiX_FDK/services/littlefs/lfs.c **** 
2174:SynaptiX_FDK/services/littlefs/lfs.c ****         if (split == begin) {
2175:SynaptiX_FDK/services/littlefs/lfs.c ****             // no split needed
2176:SynaptiX_FDK/services/littlefs/lfs.c ****             break;
2177:SynaptiX_FDK/services/littlefs/lfs.c ****         }
2178:SynaptiX_FDK/services/littlefs/lfs.c **** 
2179:SynaptiX_FDK/services/littlefs/lfs.c ****         // split into two metadata pairs and continue
2180:SynaptiX_FDK/services/littlefs/lfs.c ****         int err = lfs_dir_split(lfs, dir, attrs, attrcount,
2181:SynaptiX_FDK/services/littlefs/lfs.c ****                 source, split, end);
2182:SynaptiX_FDK/services/littlefs/lfs.c ****         if (err && err != LFS_ERR_NOSPC) {
2183:SynaptiX_FDK/services/littlefs/lfs.c ****             return err;
2184:SynaptiX_FDK/services/littlefs/lfs.c ****         }
2185:SynaptiX_FDK/services/littlefs/lfs.c **** 
2186:SynaptiX_FDK/services/littlefs/lfs.c ****         if (err) {
2187:SynaptiX_FDK/services/littlefs/lfs.c ****             // we can't allocate a new block, try to compact with degraded
2188:SynaptiX_FDK/services/littlefs/lfs.c ****             // performance
2189:SynaptiX_FDK/services/littlefs/lfs.c ****             LFS_WARN("Unable to split {0x%"PRIx32", 0x%"PRIx32"}",
2190:SynaptiX_FDK/services/littlefs/lfs.c ****                     dir->pair[0], dir->pair[1]);
2191:SynaptiX_FDK/services/littlefs/lfs.c ****             break;
2192:SynaptiX_FDK/services/littlefs/lfs.c ****         } else {
2193:SynaptiX_FDK/services/littlefs/lfs.c ****             end = split;
2194:SynaptiX_FDK/services/littlefs/lfs.c ****         }
2195:SynaptiX_FDK/services/littlefs/lfs.c ****     }
2196:SynaptiX_FDK/services/littlefs/lfs.c **** 
2197:SynaptiX_FDK/services/littlefs/lfs.c ****     if (lfs_dir_needsrelocation(lfs, dir)
2198:SynaptiX_FDK/services/littlefs/lfs.c ****             && lfs_pair_cmp(dir->pair, (const lfs_block_t[2]){0, 1}) == 0) {
2199:SynaptiX_FDK/services/littlefs/lfs.c ****         // oh no! we're writing too much to the superblock,
2200:SynaptiX_FDK/services/littlefs/lfs.c ****         // should we expand?
2201:SynaptiX_FDK/services/littlefs/lfs.c ****         lfs_ssize_t size = lfs_fs_size_(lfs);
2202:SynaptiX_FDK/services/littlefs/lfs.c ****         if (size < 0) {
2203:SynaptiX_FDK/services/littlefs/lfs.c ****             return size;
2204:SynaptiX_FDK/services/littlefs/lfs.c ****         }
2205:SynaptiX_FDK/services/littlefs/lfs.c **** 
2206:SynaptiX_FDK/services/littlefs/lfs.c ****         // littlefs cannot reclaim expanded superblocks, so expand cautiously
2207:SynaptiX_FDK/services/littlefs/lfs.c ****         //
2208:SynaptiX_FDK/services/littlefs/lfs.c ****         // if our filesystem is more than ~88% full, don't expand, this is
2209:SynaptiX_FDK/services/littlefs/lfs.c ****         // somewhat arbitrary
2210:SynaptiX_FDK/services/littlefs/lfs.c ****         if (lfs->block_count - size > lfs->block_count/8) {
2211:SynaptiX_FDK/services/littlefs/lfs.c ****             LFS_DEBUG("Expanding superblock at rev %"PRIu32, dir->rev);
2212:SynaptiX_FDK/services/littlefs/lfs.c ****             int err = lfs_dir_split(lfs, dir, attrs, attrcount,
2213:SynaptiX_FDK/services/littlefs/lfs.c ****                     source, begin, end);
2214:SynaptiX_FDK/services/littlefs/lfs.c ****             if (err && err != LFS_ERR_NOSPC) {
2215:SynaptiX_FDK/services/littlefs/lfs.c ****                 return err;
2216:SynaptiX_FDK/services/littlefs/lfs.c ****             }
2217:SynaptiX_FDK/services/littlefs/lfs.c **** 
2218:SynaptiX_FDK/services/littlefs/lfs.c ****             if (err) {
2219:SynaptiX_FDK/services/littlefs/lfs.c ****                 // welp, we tried, if we ran out of space there's not much
2220:SynaptiX_FDK/services/littlefs/lfs.c ****                 // we can do, we'll error later if we've become frozen
ARM GAS  C:\Users\LENOVO\AppData\Local\Temp\ccPMz3A0.s 			page 57


2221:SynaptiX_FDK/services/littlefs/lfs.c ****                 LFS_WARN("Unable to expand superblock");
2222:SynaptiX_FDK/services/littlefs/lfs.c ****             } else {
2223:SynaptiX_FDK/services/littlefs/lfs.c ****                 // duplicate the superblock entry into the new superblock
2224:SynaptiX_FDK/services/littlefs/lfs.c ****                 end = 1;
2225:SynaptiX_FDK/services/littlefs/lfs.c ****             }
2226:SynaptiX_FDK/services/littlefs/lfs.c ****         }
2227:SynaptiX_FDK/services/littlefs/lfs.c ****     }
2228:SynaptiX_FDK/services/littlefs/lfs.c **** 
2229:SynaptiX_FDK/services/littlefs/lfs.c ****     return lfs_dir_compact(lfs, dir, attrs, attrcount, source, begin, end);
2230:SynaptiX_FDK/services/littlefs/lfs.c **** }
2231:SynaptiX_FDK/services/littlefs/lfs.c **** #endif
2232:SynaptiX_FDK/services/littlefs/lfs.c **** 
2233:SynaptiX_FDK/services/littlefs/lfs.c **** #ifndef LFS_READONLY
2234:SynaptiX_FDK/services/littlefs/lfs.c **** static int lfs_dir_relocatingcommit(lfs_t *lfs, lfs_mdir_t *dir,
2235:SynaptiX_FDK/services/littlefs/lfs.c ****         const lfs_block_t pair[2],
2236:SynaptiX_FDK/services/littlefs/lfs.c ****         const struct lfs_mattr *attrs, int attrcount,
2237:SynaptiX_FDK/services/littlefs/lfs.c ****         lfs_mdir_t *pdir) {
2238:SynaptiX_FDK/services/littlefs/lfs.c ****     int state = 0;
2239:SynaptiX_FDK/services/littlefs/lfs.c **** 
2240:SynaptiX_FDK/services/littlefs/lfs.c ****     // calculate changes to the directory
2241:SynaptiX_FDK/services/littlefs/lfs.c ****     bool hasdelete = false;
2242:SynaptiX_FDK/services/littlefs/lfs.c ****     for (int i = 0; i < attrcount; i++) {
2243:SynaptiX_FDK/services/littlefs/lfs.c ****         if (lfs_tag_type3(attrs[i].tag) == LFS_TYPE_CREATE) {
2244:SynaptiX_FDK/services/littlefs/lfs.c ****             dir->count += 1;
2245:SynaptiX_FDK/services/littlefs/lfs.c ****         } else if (lfs_tag_type3(attrs[i].tag) == LFS_TYPE_DELETE) {
2246:SynaptiX_FDK/services/littlefs/lfs.c ****             LFS_ASSERT(dir->count > 0);
2247:SynaptiX_FDK/services/littlefs/lfs.c ****             dir->count -= 1;
2248:SynaptiX_FDK/services/littlefs/lfs.c ****             hasdelete = true;
2249:SynaptiX_FDK/services/littlefs/lfs.c ****         } else if (lfs_tag_type1(attrs[i].tag) == LFS_TYPE_TAIL) {
2250:SynaptiX_FDK/services/littlefs/lfs.c ****             dir->tail[0] = ((lfs_block_t*)attrs[i].buffer)[0];
2251:SynaptiX_FDK/services/littlefs/lfs.c ****             dir->tail[1] = ((lfs_block_t*)attrs[i].buffer)[1];
2252:SynaptiX_FDK/services/littlefs/lfs.c ****             dir->split = (lfs_tag_chunk(attrs[i].tag) & 1);
2253:SynaptiX_FDK/services/littlefs/lfs.c ****             lfs_pair_fromle32(dir->tail);
2254:SynaptiX_FDK/services/littlefs/lfs.c ****         }
2255:SynaptiX_FDK/services/littlefs/lfs.c ****     }
2256:SynaptiX_FDK/services/littlefs/lfs.c **** 
2257:SynaptiX_FDK/services/littlefs/lfs.c ****     // should we actually drop the directory block?
2258:SynaptiX_FDK/services/littlefs/lfs.c ****     if (hasdelete && dir->count == 0) {
2259:SynaptiX_FDK/services/littlefs/lfs.c ****         LFS_ASSERT(pdir);
2260:SynaptiX_FDK/services/littlefs/lfs.c ****         int err = lfs_fs_pred(lfs, dir->pair, pdir);
2261:SynaptiX_FDK/services/littlefs/lfs.c ****         if (err && err != LFS_ERR_NOENT) {
2262:SynaptiX_FDK/services/littlefs/lfs.c ****             return err;
2263:SynaptiX_FDK/services/littlefs/lfs.c ****         }
2264:SynaptiX_FDK/services/littlefs/lfs.c **** 
2265:SynaptiX_FDK/services/littlefs/lfs.c ****         if (err != LFS_ERR_NOENT && pdir->split) {
2266:SynaptiX_FDK/services/littlefs/lfs.c ****             state = LFS_OK_DROPPED;
2267:SynaptiX_FDK/services/littlefs/lfs.c ****             goto fixmlist;
2268:SynaptiX_FDK/services/littlefs/lfs.c ****         }
2269:SynaptiX_FDK/services/littlefs/lfs.c ****     }
2270:SynaptiX_FDK/services/littlefs/lfs.c **** 
2271:SynaptiX_FDK/services/littlefs/lfs.c ****     if (dir->erased && dir->count < 0xff) {
2272:SynaptiX_FDK/services/littlefs/lfs.c ****         // try to commit
2273:SynaptiX_FDK/services/littlefs/lfs.c ****         struct lfs_commit commit = {
2274:SynaptiX_FDK/services/littlefs/lfs.c ****             .block = dir->pair[0],
2275:SynaptiX_FDK/services/littlefs/lfs.c ****             .off = dir->off,
2276:SynaptiX_FDK/services/littlefs/lfs.c ****             .ptag = dir->etag,
2277:SynaptiX_FDK/services/littlefs/lfs.c ****             .crc = 0xffffffff,
ARM GAS  C:\Users\LENOVO\AppData\Local\Temp\ccPMz3A0.s 			page 58


2278:SynaptiX_FDK/services/littlefs/lfs.c **** 
2279:SynaptiX_FDK/services/littlefs/lfs.c ****             .begin = dir->off,
2280:SynaptiX_FDK/services/littlefs/lfs.c ****             .end = (lfs->cfg->metadata_max ?
2281:SynaptiX_FDK/services/littlefs/lfs.c ****                 lfs->cfg->metadata_max : lfs->cfg->block_size) - 8,
2282:SynaptiX_FDK/services/littlefs/lfs.c ****         };
2283:SynaptiX_FDK/services/littlefs/lfs.c **** 
2284:SynaptiX_FDK/services/littlefs/lfs.c ****         // traverse attrs that need to be written out
2285:SynaptiX_FDK/services/littlefs/lfs.c ****         lfs_pair_tole32(dir->tail);
2286:SynaptiX_FDK/services/littlefs/lfs.c ****         int err = lfs_dir_traverse(lfs,
2287:SynaptiX_FDK/services/littlefs/lfs.c ****                 dir, dir->off, dir->etag, attrs, attrcount,
2288:SynaptiX_FDK/services/littlefs/lfs.c ****                 0, 0, 0, 0, 0,
2289:SynaptiX_FDK/services/littlefs/lfs.c ****                 lfs_dir_commit_commit, &(struct lfs_dir_commit_commit){
2290:SynaptiX_FDK/services/littlefs/lfs.c ****                     lfs, &commit});
2291:SynaptiX_FDK/services/littlefs/lfs.c ****         lfs_pair_fromle32(dir->tail);
2292:SynaptiX_FDK/services/littlefs/lfs.c ****         if (err) {
2293:SynaptiX_FDK/services/littlefs/lfs.c ****             if (err == LFS_ERR_NOSPC || err == LFS_ERR_CORRUPT) {
2294:SynaptiX_FDK/services/littlefs/lfs.c ****                 goto compact;
2295:SynaptiX_FDK/services/littlefs/lfs.c ****             }
2296:SynaptiX_FDK/services/littlefs/lfs.c ****             return err;
2297:SynaptiX_FDK/services/littlefs/lfs.c ****         }
2298:SynaptiX_FDK/services/littlefs/lfs.c **** 
2299:SynaptiX_FDK/services/littlefs/lfs.c ****         // commit any global diffs if we have any
2300:SynaptiX_FDK/services/littlefs/lfs.c ****         lfs_gstate_t delta = {0};
2301:SynaptiX_FDK/services/littlefs/lfs.c ****         lfs_gstate_xor(&delta, &lfs->gstate);
2302:SynaptiX_FDK/services/littlefs/lfs.c ****         lfs_gstate_xor(&delta, &lfs->gdisk);
2303:SynaptiX_FDK/services/littlefs/lfs.c ****         lfs_gstate_xor(&delta, &lfs->gdelta);
2304:SynaptiX_FDK/services/littlefs/lfs.c ****         delta.tag &= ~LFS_MKTAG(0, 0, 0x3ff);
2305:SynaptiX_FDK/services/littlefs/lfs.c ****         if (!lfs_gstate_iszero(&delta)) {
2306:SynaptiX_FDK/services/littlefs/lfs.c ****             err = lfs_dir_getgstate(lfs, dir, &delta);
2307:SynaptiX_FDK/services/littlefs/lfs.c ****             if (err) {
2308:SynaptiX_FDK/services/littlefs/lfs.c ****                 return err;
2309:SynaptiX_FDK/services/littlefs/lfs.c ****             }
2310:SynaptiX_FDK/services/littlefs/lfs.c **** 
2311:SynaptiX_FDK/services/littlefs/lfs.c ****             lfs_gstate_tole32(&delta);
2312:SynaptiX_FDK/services/littlefs/lfs.c ****             err = lfs_dir_commitattr(lfs, &commit,
2313:SynaptiX_FDK/services/littlefs/lfs.c ****                     LFS_MKTAG(LFS_TYPE_MOVESTATE, 0x3ff,
2314:SynaptiX_FDK/services/littlefs/lfs.c ****                         sizeof(delta)), &delta);
2315:SynaptiX_FDK/services/littlefs/lfs.c ****             if (err) {
2316:SynaptiX_FDK/services/littlefs/lfs.c ****                 if (err == LFS_ERR_NOSPC || err == LFS_ERR_CORRUPT) {
2317:SynaptiX_FDK/services/littlefs/lfs.c ****                     goto compact;
2318:SynaptiX_FDK/services/littlefs/lfs.c ****                 }
2319:SynaptiX_FDK/services/littlefs/lfs.c ****                 return err;
2320:SynaptiX_FDK/services/littlefs/lfs.c ****             }
2321:SynaptiX_FDK/services/littlefs/lfs.c ****         }
2322:SynaptiX_FDK/services/littlefs/lfs.c **** 
2323:SynaptiX_FDK/services/littlefs/lfs.c ****         // finalize commit with the crc
2324:SynaptiX_FDK/services/littlefs/lfs.c ****         err = lfs_dir_commitcrc(lfs, &commit);
2325:SynaptiX_FDK/services/littlefs/lfs.c ****         if (err) {
2326:SynaptiX_FDK/services/littlefs/lfs.c ****             if (err == LFS_ERR_NOSPC || err == LFS_ERR_CORRUPT) {
2327:SynaptiX_FDK/services/littlefs/lfs.c ****                 goto compact;
2328:SynaptiX_FDK/services/littlefs/lfs.c ****             }
2329:SynaptiX_FDK/services/littlefs/lfs.c ****             return err;
2330:SynaptiX_FDK/services/littlefs/lfs.c ****         }
2331:SynaptiX_FDK/services/littlefs/lfs.c **** 
2332:SynaptiX_FDK/services/littlefs/lfs.c ****         // successful commit, update dir
2333:SynaptiX_FDK/services/littlefs/lfs.c ****         LFS_ASSERT(commit.off % lfs->cfg->prog_size == 0);
2334:SynaptiX_FDK/services/littlefs/lfs.c ****         dir->off = commit.off;
ARM GAS  C:\Users\LENOVO\AppData\Local\Temp\ccPMz3A0.s 			page 59


2335:SynaptiX_FDK/services/littlefs/lfs.c ****         dir->etag = commit.ptag;
2336:SynaptiX_FDK/services/littlefs/lfs.c ****         // and update gstate
2337:SynaptiX_FDK/services/littlefs/lfs.c ****         lfs->gdisk = lfs->gstate;
2338:SynaptiX_FDK/services/littlefs/lfs.c ****         lfs->gdelta = (lfs_gstate_t){0};
2339:SynaptiX_FDK/services/littlefs/lfs.c **** 
2340:SynaptiX_FDK/services/littlefs/lfs.c ****         goto fixmlist;
2341:SynaptiX_FDK/services/littlefs/lfs.c ****     }
2342:SynaptiX_FDK/services/littlefs/lfs.c **** 
2343:SynaptiX_FDK/services/littlefs/lfs.c **** compact:
2344:SynaptiX_FDK/services/littlefs/lfs.c ****     // fall back to compaction
2345:SynaptiX_FDK/services/littlefs/lfs.c ****     lfs_cache_drop(lfs, &lfs->pcache);
2346:SynaptiX_FDK/services/littlefs/lfs.c **** 
2347:SynaptiX_FDK/services/littlefs/lfs.c ****     state = lfs_dir_splittingcompact(lfs, dir, attrs, attrcount,
2348:SynaptiX_FDK/services/littlefs/lfs.c ****             dir, 0, dir->count);
2349:SynaptiX_FDK/services/littlefs/lfs.c ****     if (state < 0) {
2350:SynaptiX_FDK/services/littlefs/lfs.c ****         return state;
2351:SynaptiX_FDK/services/littlefs/lfs.c ****     }
2352:SynaptiX_FDK/services/littlefs/lfs.c **** 
2353:SynaptiX_FDK/services/littlefs/lfs.c ****     goto fixmlist;
2354:SynaptiX_FDK/services/littlefs/lfs.c **** 
2355:SynaptiX_FDK/services/littlefs/lfs.c **** fixmlist:;
2356:SynaptiX_FDK/services/littlefs/lfs.c ****     // this complicated bit of logic is for fixing up any active
2357:SynaptiX_FDK/services/littlefs/lfs.c ****     // metadata-pairs that we may have affected
2358:SynaptiX_FDK/services/littlefs/lfs.c ****     //
2359:SynaptiX_FDK/services/littlefs/lfs.c ****     // note we have to make two passes since the mdir passed to
2360:SynaptiX_FDK/services/littlefs/lfs.c ****     // lfs_dir_commit could also be in this list, and even then
2361:SynaptiX_FDK/services/littlefs/lfs.c ****     // we need to copy the pair so they don't get clobbered if we refetch
2362:SynaptiX_FDK/services/littlefs/lfs.c ****     // our mdir.
2363:SynaptiX_FDK/services/littlefs/lfs.c ****     lfs_block_t oldpair[2] = {pair[0], pair[1]};
2364:SynaptiX_FDK/services/littlefs/lfs.c ****     for (struct lfs_mlist *d = lfs->mlist; d; d = d->next) {
2365:SynaptiX_FDK/services/littlefs/lfs.c ****         if (lfs_pair_cmp(d->m.pair, oldpair) == 0) {
2366:SynaptiX_FDK/services/littlefs/lfs.c ****             d->m = *dir;
2367:SynaptiX_FDK/services/littlefs/lfs.c ****             if (d->m.pair != pair) {
2368:SynaptiX_FDK/services/littlefs/lfs.c ****                 for (int i = 0; i < attrcount; i++) {
2369:SynaptiX_FDK/services/littlefs/lfs.c ****                     if (lfs_tag_type3(attrs[i].tag) == LFS_TYPE_DELETE &&
2370:SynaptiX_FDK/services/littlefs/lfs.c ****                             d->id == lfs_tag_id(attrs[i].tag) &&
2371:SynaptiX_FDK/services/littlefs/lfs.c ****                             d->type != LFS_TYPE_DIR) {
2372:SynaptiX_FDK/services/littlefs/lfs.c ****                         d->m.pair[0] = LFS_BLOCK_NULL;
2373:SynaptiX_FDK/services/littlefs/lfs.c ****                         d->m.pair[1] = LFS_BLOCK_NULL;
2374:SynaptiX_FDK/services/littlefs/lfs.c ****                     } else if (lfs_tag_type3(attrs[i].tag) == LFS_TYPE_DELETE &&
2375:SynaptiX_FDK/services/littlefs/lfs.c ****                             d->id > lfs_tag_id(attrs[i].tag)) {
2376:SynaptiX_FDK/services/littlefs/lfs.c ****                         d->id -= 1;
2377:SynaptiX_FDK/services/littlefs/lfs.c ****                         if (d->type == LFS_TYPE_DIR) {
2378:SynaptiX_FDK/services/littlefs/lfs.c ****                             ((lfs_dir_t*)d)->pos -= 1;
2379:SynaptiX_FDK/services/littlefs/lfs.c ****                         }
2380:SynaptiX_FDK/services/littlefs/lfs.c ****                     } else if (lfs_tag_type3(attrs[i].tag) == LFS_TYPE_CREATE &&
2381:SynaptiX_FDK/services/littlefs/lfs.c ****                             d->id >= lfs_tag_id(attrs[i].tag)) {
2382:SynaptiX_FDK/services/littlefs/lfs.c ****                         d->id += 1;
2383:SynaptiX_FDK/services/littlefs/lfs.c ****                         if (d->type == LFS_TYPE_DIR) {
2384:SynaptiX_FDK/services/littlefs/lfs.c ****                             ((lfs_dir_t*)d)->pos += 1;
2385:SynaptiX_FDK/services/littlefs/lfs.c ****                         }
2386:SynaptiX_FDK/services/littlefs/lfs.c ****                     }
2387:SynaptiX_FDK/services/littlefs/lfs.c ****                 }
2388:SynaptiX_FDK/services/littlefs/lfs.c ****             }
2389:SynaptiX_FDK/services/littlefs/lfs.c **** 
2390:SynaptiX_FDK/services/littlefs/lfs.c ****             while (d->id >= d->m.count && d->m.split) {
2391:SynaptiX_FDK/services/littlefs/lfs.c ****                 // we split and id is on tail now
ARM GAS  C:\Users\LENOVO\AppData\Local\Temp\ccPMz3A0.s 			page 60


2392:SynaptiX_FDK/services/littlefs/lfs.c ****                 if (lfs_pair_cmp(d->m.tail, lfs->root) != 0) {
2393:SynaptiX_FDK/services/littlefs/lfs.c ****                     d->id -= d->m.count;
2394:SynaptiX_FDK/services/littlefs/lfs.c ****                 }
2395:SynaptiX_FDK/services/littlefs/lfs.c ****                 int err = lfs_dir_fetch(lfs, &d->m, d->m.tail);
2396:SynaptiX_FDK/services/littlefs/lfs.c ****                 if (err) {
2397:SynaptiX_FDK/services/littlefs/lfs.c ****                     return err;
2398:SynaptiX_FDK/services/littlefs/lfs.c ****                 }
2399:SynaptiX_FDK/services/littlefs/lfs.c ****             }
2400:SynaptiX_FDK/services/littlefs/lfs.c ****         }
2401:SynaptiX_FDK/services/littlefs/lfs.c ****     }
2402:SynaptiX_FDK/services/littlefs/lfs.c **** 
2403:SynaptiX_FDK/services/littlefs/lfs.c ****     return state;
2404:SynaptiX_FDK/services/littlefs/lfs.c **** }
2405:SynaptiX_FDK/services/littlefs/lfs.c **** #endif
2406:SynaptiX_FDK/services/littlefs/lfs.c **** 
2407:SynaptiX_FDK/services/littlefs/lfs.c **** #ifndef LFS_READONLY
2408:SynaptiX_FDK/services/littlefs/lfs.c **** static int lfs_dir_orphaningcommit(lfs_t *lfs, lfs_mdir_t *dir,
2409:SynaptiX_FDK/services/littlefs/lfs.c ****         const struct lfs_mattr *attrs, int attrcount) {
2410:SynaptiX_FDK/services/littlefs/lfs.c ****     // check for any inline files that aren't RAM backed and
2411:SynaptiX_FDK/services/littlefs/lfs.c ****     // forcefully evict them, needed for filesystem consistency
2412:SynaptiX_FDK/services/littlefs/lfs.c ****     for (lfs_file_t *f = (lfs_file_t*)lfs->mlist; f; f = f->next) {
2413:SynaptiX_FDK/services/littlefs/lfs.c ****         if (dir != &f->m && lfs_pair_cmp(f->m.pair, dir->pair) == 0 &&
2414:SynaptiX_FDK/services/littlefs/lfs.c ****                 f->type == LFS_TYPE_REG && (f->flags & LFS_F_INLINE) &&
2415:SynaptiX_FDK/services/littlefs/lfs.c ****                 f->ctz.size > lfs->cfg->cache_size) {
2416:SynaptiX_FDK/services/littlefs/lfs.c ****             int err = lfs_file_outline(lfs, f);
2417:SynaptiX_FDK/services/littlefs/lfs.c ****             if (err) {
2418:SynaptiX_FDK/services/littlefs/lfs.c ****                 return err;
2419:SynaptiX_FDK/services/littlefs/lfs.c ****             }
2420:SynaptiX_FDK/services/littlefs/lfs.c **** 
2421:SynaptiX_FDK/services/littlefs/lfs.c ****             err = lfs_file_flush(lfs, f);
2422:SynaptiX_FDK/services/littlefs/lfs.c ****             if (err) {
2423:SynaptiX_FDK/services/littlefs/lfs.c ****                 return err;
2424:SynaptiX_FDK/services/littlefs/lfs.c ****             }
2425:SynaptiX_FDK/services/littlefs/lfs.c ****         }
2426:SynaptiX_FDK/services/littlefs/lfs.c ****     }
2427:SynaptiX_FDK/services/littlefs/lfs.c **** 
2428:SynaptiX_FDK/services/littlefs/lfs.c ****     lfs_block_t lpair[2] = {dir->pair[0], dir->pair[1]};
2429:SynaptiX_FDK/services/littlefs/lfs.c ****     lfs_mdir_t ldir = *dir;
2430:SynaptiX_FDK/services/littlefs/lfs.c ****     lfs_mdir_t pdir;
2431:SynaptiX_FDK/services/littlefs/lfs.c ****     int state = lfs_dir_relocatingcommit(lfs, &ldir, dir->pair,
2432:SynaptiX_FDK/services/littlefs/lfs.c ****             attrs, attrcount, &pdir);
2433:SynaptiX_FDK/services/littlefs/lfs.c ****     if (state < 0) {
2434:SynaptiX_FDK/services/littlefs/lfs.c ****         return state;
2435:SynaptiX_FDK/services/littlefs/lfs.c ****     }
2436:SynaptiX_FDK/services/littlefs/lfs.c **** 
2437:SynaptiX_FDK/services/littlefs/lfs.c ****     // update if we're not in mlist, note we may have already been
2438:SynaptiX_FDK/services/littlefs/lfs.c ****     // updated if we are in mlist
2439:SynaptiX_FDK/services/littlefs/lfs.c ****     if (lfs_pair_cmp(dir->pair, lpair) == 0) {
2440:SynaptiX_FDK/services/littlefs/lfs.c ****         *dir = ldir;
2441:SynaptiX_FDK/services/littlefs/lfs.c ****     }
2442:SynaptiX_FDK/services/littlefs/lfs.c **** 
2443:SynaptiX_FDK/services/littlefs/lfs.c ****     // commit was successful, but may require other changes in the
2444:SynaptiX_FDK/services/littlefs/lfs.c ****     // filesystem, these would normally be tail recursive, but we have
2445:SynaptiX_FDK/services/littlefs/lfs.c ****     // flattened them here avoid unbounded stack usage
2446:SynaptiX_FDK/services/littlefs/lfs.c **** 
2447:SynaptiX_FDK/services/littlefs/lfs.c ****     // need to drop?
2448:SynaptiX_FDK/services/littlefs/lfs.c ****     if (state == LFS_OK_DROPPED) {
ARM GAS  C:\Users\LENOVO\AppData\Local\Temp\ccPMz3A0.s 			page 61


2449:SynaptiX_FDK/services/littlefs/lfs.c ****         // steal state
2450:SynaptiX_FDK/services/littlefs/lfs.c ****         int err = lfs_dir_getgstate(lfs, dir, &lfs->gdelta);
2451:SynaptiX_FDK/services/littlefs/lfs.c ****         if (err) {
2452:SynaptiX_FDK/services/littlefs/lfs.c ****             return err;
2453:SynaptiX_FDK/services/littlefs/lfs.c ****         }
2454:SynaptiX_FDK/services/littlefs/lfs.c **** 
2455:SynaptiX_FDK/services/littlefs/lfs.c ****         // steal tail, note that this can't create a recursive drop
2456:SynaptiX_FDK/services/littlefs/lfs.c ****         lpair[0] = pdir.pair[0];
2457:SynaptiX_FDK/services/littlefs/lfs.c ****         lpair[1] = pdir.pair[1];
2458:SynaptiX_FDK/services/littlefs/lfs.c ****         lfs_pair_tole32(dir->tail);
2459:SynaptiX_FDK/services/littlefs/lfs.c ****         state = lfs_dir_relocatingcommit(lfs, &pdir, lpair, LFS_MKATTRS(
2460:SynaptiX_FDK/services/littlefs/lfs.c ****                     {LFS_MKTAG(LFS_TYPE_TAIL + dir->split, 0x3ff, 8),
2461:SynaptiX_FDK/services/littlefs/lfs.c ****                         dir->tail}),
2462:SynaptiX_FDK/services/littlefs/lfs.c ****                 NULL);
2463:SynaptiX_FDK/services/littlefs/lfs.c ****         lfs_pair_fromle32(dir->tail);
2464:SynaptiX_FDK/services/littlefs/lfs.c ****         if (state < 0) {
2465:SynaptiX_FDK/services/littlefs/lfs.c ****             return state;
2466:SynaptiX_FDK/services/littlefs/lfs.c ****         }
2467:SynaptiX_FDK/services/littlefs/lfs.c **** 
2468:SynaptiX_FDK/services/littlefs/lfs.c ****         ldir = pdir;
2469:SynaptiX_FDK/services/littlefs/lfs.c ****     }
2470:SynaptiX_FDK/services/littlefs/lfs.c **** 
2471:SynaptiX_FDK/services/littlefs/lfs.c ****     // need to relocate?
2472:SynaptiX_FDK/services/littlefs/lfs.c ****     bool orphans = false;
2473:SynaptiX_FDK/services/littlefs/lfs.c ****     while (state == LFS_OK_RELOCATED) {
2474:SynaptiX_FDK/services/littlefs/lfs.c ****         LFS_DEBUG("Relocating {0x%"PRIx32", 0x%"PRIx32"} "
2475:SynaptiX_FDK/services/littlefs/lfs.c ****                     "-> {0x%"PRIx32", 0x%"PRIx32"}",
2476:SynaptiX_FDK/services/littlefs/lfs.c ****                 lpair[0], lpair[1], ldir.pair[0], ldir.pair[1]);
2477:SynaptiX_FDK/services/littlefs/lfs.c ****         state = 0;
2478:SynaptiX_FDK/services/littlefs/lfs.c **** 
2479:SynaptiX_FDK/services/littlefs/lfs.c ****         // update internal root
2480:SynaptiX_FDK/services/littlefs/lfs.c ****         if (lfs_pair_cmp(lpair, lfs->root) == 0) {
2481:SynaptiX_FDK/services/littlefs/lfs.c ****             lfs->root[0] = ldir.pair[0];
2482:SynaptiX_FDK/services/littlefs/lfs.c ****             lfs->root[1] = ldir.pair[1];
2483:SynaptiX_FDK/services/littlefs/lfs.c ****         }
2484:SynaptiX_FDK/services/littlefs/lfs.c **** 
2485:SynaptiX_FDK/services/littlefs/lfs.c ****         // update internally tracked dirs
2486:SynaptiX_FDK/services/littlefs/lfs.c ****         for (struct lfs_mlist *d = lfs->mlist; d; d = d->next) {
2487:SynaptiX_FDK/services/littlefs/lfs.c ****             if (lfs_pair_cmp(lpair, d->m.pair) == 0) {
2488:SynaptiX_FDK/services/littlefs/lfs.c ****                 d->m.pair[0] = ldir.pair[0];
2489:SynaptiX_FDK/services/littlefs/lfs.c ****                 d->m.pair[1] = ldir.pair[1];
2490:SynaptiX_FDK/services/littlefs/lfs.c ****             }
2491:SynaptiX_FDK/services/littlefs/lfs.c **** 
2492:SynaptiX_FDK/services/littlefs/lfs.c ****             if (d->type == LFS_TYPE_DIR &&
2493:SynaptiX_FDK/services/littlefs/lfs.c ****                     lfs_pair_cmp(lpair, ((lfs_dir_t*)d)->head) == 0) {
2494:SynaptiX_FDK/services/littlefs/lfs.c ****                 ((lfs_dir_t*)d)->head[0] = ldir.pair[0];
2495:SynaptiX_FDK/services/littlefs/lfs.c ****                 ((lfs_dir_t*)d)->head[1] = ldir.pair[1];
2496:SynaptiX_FDK/services/littlefs/lfs.c ****             }
2497:SynaptiX_FDK/services/littlefs/lfs.c ****         }
2498:SynaptiX_FDK/services/littlefs/lfs.c **** 
2499:SynaptiX_FDK/services/littlefs/lfs.c ****         // find parent
2500:SynaptiX_FDK/services/littlefs/lfs.c ****         lfs_stag_t tag = lfs_fs_parent(lfs, lpair, &pdir);
2501:SynaptiX_FDK/services/littlefs/lfs.c ****         if (tag < 0 && tag != LFS_ERR_NOENT) {
2502:SynaptiX_FDK/services/littlefs/lfs.c ****             return tag;
2503:SynaptiX_FDK/services/littlefs/lfs.c ****         }
2504:SynaptiX_FDK/services/littlefs/lfs.c **** 
2505:SynaptiX_FDK/services/littlefs/lfs.c ****         bool hasparent = (tag != LFS_ERR_NOENT);
ARM GAS  C:\Users\LENOVO\AppData\Local\Temp\ccPMz3A0.s 			page 62


2506:SynaptiX_FDK/services/littlefs/lfs.c ****         if (tag != LFS_ERR_NOENT) {
2507:SynaptiX_FDK/services/littlefs/lfs.c ****             // note that if we have a parent, we must have a pred, so this will
2508:SynaptiX_FDK/services/littlefs/lfs.c ****             // always create an orphan
2509:SynaptiX_FDK/services/littlefs/lfs.c ****             int err = lfs_fs_preporphans(lfs, +1);
2510:SynaptiX_FDK/services/littlefs/lfs.c ****             if (err) {
2511:SynaptiX_FDK/services/littlefs/lfs.c ****                 return err;
2512:SynaptiX_FDK/services/littlefs/lfs.c ****             }
2513:SynaptiX_FDK/services/littlefs/lfs.c **** 
2514:SynaptiX_FDK/services/littlefs/lfs.c ****             // fix pending move in this pair? this looks like an optimization but
2515:SynaptiX_FDK/services/littlefs/lfs.c ****             // is in fact _required_ since relocating may outdate the move.
2516:SynaptiX_FDK/services/littlefs/lfs.c ****             uint16_t moveid = 0x3ff;
2517:SynaptiX_FDK/services/littlefs/lfs.c ****             if (lfs_gstate_hasmovehere(&lfs->gstate, pdir.pair)) {
2518:SynaptiX_FDK/services/littlefs/lfs.c ****                 moveid = lfs_tag_id(lfs->gstate.tag);
2519:SynaptiX_FDK/services/littlefs/lfs.c ****                 LFS_DEBUG("Fixing move while relocating "
2520:SynaptiX_FDK/services/littlefs/lfs.c ****                         "{0x%"PRIx32", 0x%"PRIx32"} 0x%"PRIx16"\n",
2521:SynaptiX_FDK/services/littlefs/lfs.c ****                         pdir.pair[0], pdir.pair[1], moveid);
2522:SynaptiX_FDK/services/littlefs/lfs.c ****                 lfs_fs_prepmove(lfs, 0x3ff, NULL);
2523:SynaptiX_FDK/services/littlefs/lfs.c ****                 if (moveid < lfs_tag_id(tag)) {
2524:SynaptiX_FDK/services/littlefs/lfs.c ****                     tag -= LFS_MKTAG(0, 1, 0);
2525:SynaptiX_FDK/services/littlefs/lfs.c ****                 }
2526:SynaptiX_FDK/services/littlefs/lfs.c ****             }
2527:SynaptiX_FDK/services/littlefs/lfs.c **** 
2528:SynaptiX_FDK/services/littlefs/lfs.c ****             lfs_block_t ppair[2] = {pdir.pair[0], pdir.pair[1]};
2529:SynaptiX_FDK/services/littlefs/lfs.c ****             lfs_pair_tole32(ldir.pair);
2530:SynaptiX_FDK/services/littlefs/lfs.c ****             state = lfs_dir_relocatingcommit(lfs, &pdir, ppair, LFS_MKATTRS(
2531:SynaptiX_FDK/services/littlefs/lfs.c ****                         {LFS_MKTAG_IF(moveid != 0x3ff,
2532:SynaptiX_FDK/services/littlefs/lfs.c ****                             LFS_TYPE_DELETE, moveid, 0), NULL},
2533:SynaptiX_FDK/services/littlefs/lfs.c ****                         {tag, ldir.pair}),
2534:SynaptiX_FDK/services/littlefs/lfs.c ****                     NULL);
2535:SynaptiX_FDK/services/littlefs/lfs.c ****             lfs_pair_fromle32(ldir.pair);
2536:SynaptiX_FDK/services/littlefs/lfs.c ****             if (state < 0) {
2537:SynaptiX_FDK/services/littlefs/lfs.c ****                 return state;
2538:SynaptiX_FDK/services/littlefs/lfs.c ****             }
2539:SynaptiX_FDK/services/littlefs/lfs.c **** 
2540:SynaptiX_FDK/services/littlefs/lfs.c ****             if (state == LFS_OK_RELOCATED) {
2541:SynaptiX_FDK/services/littlefs/lfs.c ****                 lpair[0] = ppair[0];
2542:SynaptiX_FDK/services/littlefs/lfs.c ****                 lpair[1] = ppair[1];
2543:SynaptiX_FDK/services/littlefs/lfs.c ****                 ldir = pdir;
2544:SynaptiX_FDK/services/littlefs/lfs.c ****                 orphans = true;
2545:SynaptiX_FDK/services/littlefs/lfs.c ****                 continue;
2546:SynaptiX_FDK/services/littlefs/lfs.c ****             }
2547:SynaptiX_FDK/services/littlefs/lfs.c ****         }
2548:SynaptiX_FDK/services/littlefs/lfs.c **** 
2549:SynaptiX_FDK/services/littlefs/lfs.c ****         // find pred
2550:SynaptiX_FDK/services/littlefs/lfs.c ****         int err = lfs_fs_pred(lfs, lpair, &pdir);
2551:SynaptiX_FDK/services/littlefs/lfs.c ****         if (err && err != LFS_ERR_NOENT) {
2552:SynaptiX_FDK/services/littlefs/lfs.c ****             return err;
2553:SynaptiX_FDK/services/littlefs/lfs.c ****         }
2554:SynaptiX_FDK/services/littlefs/lfs.c ****         LFS_ASSERT(!(hasparent && err == LFS_ERR_NOENT));
2555:SynaptiX_FDK/services/littlefs/lfs.c **** 
2556:SynaptiX_FDK/services/littlefs/lfs.c ****         // if we can't find dir, it must be new
2557:SynaptiX_FDK/services/littlefs/lfs.c ****         if (err != LFS_ERR_NOENT) {
2558:SynaptiX_FDK/services/littlefs/lfs.c ****             if (lfs_gstate_hasorphans(&lfs->gstate)) {
2559:SynaptiX_FDK/services/littlefs/lfs.c ****                 // next step, clean up orphans
2560:SynaptiX_FDK/services/littlefs/lfs.c ****                 err = lfs_fs_preporphans(lfs, -(int8_t)hasparent);
2561:SynaptiX_FDK/services/littlefs/lfs.c ****                 if (err) {
2562:SynaptiX_FDK/services/littlefs/lfs.c ****                     return err;
ARM GAS  C:\Users\LENOVO\AppData\Local\Temp\ccPMz3A0.s 			page 63


2563:SynaptiX_FDK/services/littlefs/lfs.c ****                 }
2564:SynaptiX_FDK/services/littlefs/lfs.c ****             }
2565:SynaptiX_FDK/services/littlefs/lfs.c **** 
2566:SynaptiX_FDK/services/littlefs/lfs.c ****             // fix pending move in this pair? this looks like an optimization
2567:SynaptiX_FDK/services/littlefs/lfs.c ****             // but is in fact _required_ since relocating may outdate the move.
2568:SynaptiX_FDK/services/littlefs/lfs.c ****             uint16_t moveid = 0x3ff;
2569:SynaptiX_FDK/services/littlefs/lfs.c ****             if (lfs_gstate_hasmovehere(&lfs->gstate, pdir.pair)) {
2570:SynaptiX_FDK/services/littlefs/lfs.c ****                 moveid = lfs_tag_id(lfs->gstate.tag);
2571:SynaptiX_FDK/services/littlefs/lfs.c ****                 LFS_DEBUG("Fixing move while relocating "
2572:SynaptiX_FDK/services/littlefs/lfs.c ****                         "{0x%"PRIx32", 0x%"PRIx32"} 0x%"PRIx16"\n",
2573:SynaptiX_FDK/services/littlefs/lfs.c ****                         pdir.pair[0], pdir.pair[1], moveid);
2574:SynaptiX_FDK/services/littlefs/lfs.c ****                 lfs_fs_prepmove(lfs, 0x3ff, NULL);
2575:SynaptiX_FDK/services/littlefs/lfs.c ****             }
2576:SynaptiX_FDK/services/littlefs/lfs.c **** 
2577:SynaptiX_FDK/services/littlefs/lfs.c ****             // replace bad pair, either we clean up desync, or no desync occured
2578:SynaptiX_FDK/services/littlefs/lfs.c ****             lpair[0] = pdir.pair[0];
2579:SynaptiX_FDK/services/littlefs/lfs.c ****             lpair[1] = pdir.pair[1];
2580:SynaptiX_FDK/services/littlefs/lfs.c ****             lfs_pair_tole32(ldir.pair);
2581:SynaptiX_FDK/services/littlefs/lfs.c ****             state = lfs_dir_relocatingcommit(lfs, &pdir, lpair, LFS_MKATTRS(
2582:SynaptiX_FDK/services/littlefs/lfs.c ****                         {LFS_MKTAG_IF(moveid != 0x3ff,
