ARM GAS  C:\Users\LENOVO\AppData\Local\Temp\cc57JGiB.s 			page 1


   1              		.cpu cortex-m33
   2              		.arch armv8-m.main
   3              		.fpu fpv5-sp-d16
   4              		.arch_extension dsp
   5              		.eabi_attribute 27, 1
   6              		.eabi_attribute 28, 1
   7              		.eabi_attribute 20, 1
   8              		.eabi_attribute 21, 1
   9              		.eabi_attribute 23, 3
  10              		.eabi_attribute 24, 1
  11              		.eabi_attribute 25, 1
  12              		.eabi_attribute 26, 1
  13              		.eabi_attribute 30, 1
  14              		.eabi_attribute 34, 1
  15              		.eabi_attribute 18, 4
  16              		.file	"minmea.c"
  17              		.text
  18              	.Ltext0:
  19              		.cfi_sections	.debug_frame
  20              		.file 1 "SynaptiX_FDK/components/gps/minmea.c"
  21              		.section	.text.minmea_isfield,"ax",%progbits
  22              		.align	1
  23              		.syntax unified
  24              		.thumb
  25              		.thumb_func
  27              	minmea_isfield:
  28              	.LVL0:
  29              	.LFB4:
  30              		.file 2 "SynaptiX_FDK/components/gps/minmea.h"
   1:SynaptiX_FDK/components/gps/minmea.h **** /*
   2:SynaptiX_FDK/components/gps/minmea.h ****  * Copyright © 2014 Kosma Moczek <kosma@cloudyourcar.com>
   3:SynaptiX_FDK/components/gps/minmea.h ****  * This program is free software. It comes without any warranty, to the extent
   4:SynaptiX_FDK/components/gps/minmea.h ****  * permitted by applicable law. You can redistribute it and/or modify it under
   5:SynaptiX_FDK/components/gps/minmea.h ****  * the terms of the Do What The Fuck You Want To Public License, Version 2, as
   6:SynaptiX_FDK/components/gps/minmea.h ****  * published by Sam Hocevar. See the COPYING file for more details.
   7:SynaptiX_FDK/components/gps/minmea.h ****  */
   8:SynaptiX_FDK/components/gps/minmea.h **** 
   9:SynaptiX_FDK/components/gps/minmea.h **** #ifndef MINMEA_H
  10:SynaptiX_FDK/components/gps/minmea.h **** #define MINMEA_H
  11:SynaptiX_FDK/components/gps/minmea.h **** 
  12:SynaptiX_FDK/components/gps/minmea.h **** #ifdef __cplusplus
  13:SynaptiX_FDK/components/gps/minmea.h **** extern "C" {
  14:SynaptiX_FDK/components/gps/minmea.h **** #endif
  15:SynaptiX_FDK/components/gps/minmea.h **** 
  16:SynaptiX_FDK/components/gps/minmea.h **** #include <ctype.h>
  17:SynaptiX_FDK/components/gps/minmea.h **** #include <stdint.h>
  18:SynaptiX_FDK/components/gps/minmea.h **** #include <stdbool.h>
  19:SynaptiX_FDK/components/gps/minmea.h **** #include <time.h>
  20:SynaptiX_FDK/components/gps/minmea.h **** #include <math.h>
  21:SynaptiX_FDK/components/gps/minmea.h **** #ifdef MINMEA_INCLUDE_COMPAT
  22:SynaptiX_FDK/components/gps/minmea.h **** #include <minmea_compat.h>
  23:SynaptiX_FDK/components/gps/minmea.h **** #endif
  24:SynaptiX_FDK/components/gps/minmea.h **** 
  25:SynaptiX_FDK/components/gps/minmea.h **** #ifndef MINMEA_MAX_SENTENCE_LENGTH
  26:SynaptiX_FDK/components/gps/minmea.h **** #define MINMEA_MAX_SENTENCE_LENGTH 80
  27:SynaptiX_FDK/components/gps/minmea.h **** #endif
  28:SynaptiX_FDK/components/gps/minmea.h **** 
ARM GAS  C:\Users\LENOVO\AppData\Local\Temp\cc57JGiB.s 			page 2


  29:SynaptiX_FDK/components/gps/minmea.h **** enum minmea_sentence_id {
  30:SynaptiX_FDK/components/gps/minmea.h ****     MINMEA_INVALID = -1,
  31:SynaptiX_FDK/components/gps/minmea.h ****     MINMEA_UNKNOWN = 0,
  32:SynaptiX_FDK/components/gps/minmea.h ****     MINMEA_SENTENCE_GBS,
  33:SynaptiX_FDK/components/gps/minmea.h ****     MINMEA_SENTENCE_GGA,
  34:SynaptiX_FDK/components/gps/minmea.h ****     MINMEA_SENTENCE_GLL,
  35:SynaptiX_FDK/components/gps/minmea.h ****     MINMEA_SENTENCE_GSA,
  36:SynaptiX_FDK/components/gps/minmea.h ****     MINMEA_SENTENCE_GST,
  37:SynaptiX_FDK/components/gps/minmea.h ****     MINMEA_SENTENCE_GSV,
  38:SynaptiX_FDK/components/gps/minmea.h ****     MINMEA_SENTENCE_RMC,
  39:SynaptiX_FDK/components/gps/minmea.h ****     MINMEA_SENTENCE_VTG,
  40:SynaptiX_FDK/components/gps/minmea.h ****     MINMEA_SENTENCE_ZDA,
  41:SynaptiX_FDK/components/gps/minmea.h **** };
  42:SynaptiX_FDK/components/gps/minmea.h **** 
  43:SynaptiX_FDK/components/gps/minmea.h **** struct minmea_float {
  44:SynaptiX_FDK/components/gps/minmea.h ****     int_least32_t value;
  45:SynaptiX_FDK/components/gps/minmea.h ****     int_least32_t scale;
  46:SynaptiX_FDK/components/gps/minmea.h **** };
  47:SynaptiX_FDK/components/gps/minmea.h **** 
  48:SynaptiX_FDK/components/gps/minmea.h **** struct minmea_date {
  49:SynaptiX_FDK/components/gps/minmea.h ****     int day;
  50:SynaptiX_FDK/components/gps/minmea.h ****     int month;
  51:SynaptiX_FDK/components/gps/minmea.h ****     int year;
  52:SynaptiX_FDK/components/gps/minmea.h **** };
  53:SynaptiX_FDK/components/gps/minmea.h **** 
  54:SynaptiX_FDK/components/gps/minmea.h **** struct minmea_time {
  55:SynaptiX_FDK/components/gps/minmea.h ****     int hours;
  56:SynaptiX_FDK/components/gps/minmea.h ****     int minutes;
  57:SynaptiX_FDK/components/gps/minmea.h ****     int seconds;
  58:SynaptiX_FDK/components/gps/minmea.h ****     int microseconds;
  59:SynaptiX_FDK/components/gps/minmea.h **** };
  60:SynaptiX_FDK/components/gps/minmea.h **** 
  61:SynaptiX_FDK/components/gps/minmea.h **** // provide backwards compatibility to users expecting a null-terminated string
  62:SynaptiX_FDK/components/gps/minmea.h **** // instead of a struct
  63:SynaptiX_FDK/components/gps/minmea.h **** union minmea_type {
  64:SynaptiX_FDK/components/gps/minmea.h ****   char buf[6];
  65:SynaptiX_FDK/components/gps/minmea.h ****   struct {
  66:SynaptiX_FDK/components/gps/minmea.h ****     char talker_id[2];
  67:SynaptiX_FDK/components/gps/minmea.h ****     char sentence_id[3];
  68:SynaptiX_FDK/components/gps/minmea.h ****     char null_terminator;
  69:SynaptiX_FDK/components/gps/minmea.h ****   };
  70:SynaptiX_FDK/components/gps/minmea.h **** };
  71:SynaptiX_FDK/components/gps/minmea.h **** 
  72:SynaptiX_FDK/components/gps/minmea.h **** struct minmea_sentence_gbs {
  73:SynaptiX_FDK/components/gps/minmea.h ****     union minmea_type type;
  74:SynaptiX_FDK/components/gps/minmea.h ****     struct minmea_time time;
  75:SynaptiX_FDK/components/gps/minmea.h ****     struct minmea_float err_latitude;
  76:SynaptiX_FDK/components/gps/minmea.h ****     struct minmea_float err_longitude;
  77:SynaptiX_FDK/components/gps/minmea.h ****     struct minmea_float err_altitude;
  78:SynaptiX_FDK/components/gps/minmea.h ****     int svid;
  79:SynaptiX_FDK/components/gps/minmea.h ****     struct minmea_float prob;
  80:SynaptiX_FDK/components/gps/minmea.h ****     struct minmea_float bias;
  81:SynaptiX_FDK/components/gps/minmea.h ****     struct minmea_float stddev;
  82:SynaptiX_FDK/components/gps/minmea.h **** };
  83:SynaptiX_FDK/components/gps/minmea.h **** 
  84:SynaptiX_FDK/components/gps/minmea.h **** struct minmea_sentence_rmc {
  85:SynaptiX_FDK/components/gps/minmea.h ****     union minmea_type type;
ARM GAS  C:\Users\LENOVO\AppData\Local\Temp\cc57JGiB.s 			page 3


  86:SynaptiX_FDK/components/gps/minmea.h ****     struct minmea_time time;
  87:SynaptiX_FDK/components/gps/minmea.h ****     bool valid;
  88:SynaptiX_FDK/components/gps/minmea.h ****     struct minmea_float latitude;
  89:SynaptiX_FDK/components/gps/minmea.h ****     struct minmea_float longitude;
  90:SynaptiX_FDK/components/gps/minmea.h ****     struct minmea_float speed;
  91:SynaptiX_FDK/components/gps/minmea.h ****     struct minmea_float course;
  92:SynaptiX_FDK/components/gps/minmea.h ****     struct minmea_date date;
  93:SynaptiX_FDK/components/gps/minmea.h ****     struct minmea_float variation;
  94:SynaptiX_FDK/components/gps/minmea.h **** };
  95:SynaptiX_FDK/components/gps/minmea.h **** 
  96:SynaptiX_FDK/components/gps/minmea.h **** struct minmea_sentence_gga {
  97:SynaptiX_FDK/components/gps/minmea.h ****     union minmea_type type;
  98:SynaptiX_FDK/components/gps/minmea.h ****     struct minmea_time time;
  99:SynaptiX_FDK/components/gps/minmea.h ****     struct minmea_float latitude;
 100:SynaptiX_FDK/components/gps/minmea.h ****     struct minmea_float longitude;
 101:SynaptiX_FDK/components/gps/minmea.h ****     int fix_quality;
 102:SynaptiX_FDK/components/gps/minmea.h ****     int satellites_tracked;
 103:SynaptiX_FDK/components/gps/minmea.h ****     struct minmea_float hdop;
 104:SynaptiX_FDK/components/gps/minmea.h ****     struct minmea_float altitude; char altitude_units;
 105:SynaptiX_FDK/components/gps/minmea.h ****     struct minmea_float height; char height_units;
 106:SynaptiX_FDK/components/gps/minmea.h ****     struct minmea_float dgps_age;
 107:SynaptiX_FDK/components/gps/minmea.h **** };
 108:SynaptiX_FDK/components/gps/minmea.h **** 
 109:SynaptiX_FDK/components/gps/minmea.h **** enum minmea_gll_status {
 110:SynaptiX_FDK/components/gps/minmea.h ****     MINMEA_GLL_STATUS_DATA_VALID = 'A',
 111:SynaptiX_FDK/components/gps/minmea.h ****     MINMEA_GLL_STATUS_DATA_NOT_VALID = 'V',
 112:SynaptiX_FDK/components/gps/minmea.h **** };
 113:SynaptiX_FDK/components/gps/minmea.h **** 
 114:SynaptiX_FDK/components/gps/minmea.h **** // FAA mode added to some fields in NMEA 2.3.
 115:SynaptiX_FDK/components/gps/minmea.h **** enum minmea_faa_mode {
 116:SynaptiX_FDK/components/gps/minmea.h ****     MINMEA_FAA_MODE_AUTONOMOUS = 'A',
 117:SynaptiX_FDK/components/gps/minmea.h ****     MINMEA_FAA_MODE_DIFFERENTIAL = 'D',
 118:SynaptiX_FDK/components/gps/minmea.h ****     MINMEA_FAA_MODE_ESTIMATED = 'E',
 119:SynaptiX_FDK/components/gps/minmea.h ****     MINMEA_FAA_MODE_MANUAL = 'M',
 120:SynaptiX_FDK/components/gps/minmea.h ****     MINMEA_FAA_MODE_SIMULATED = 'S',
 121:SynaptiX_FDK/components/gps/minmea.h ****     MINMEA_FAA_MODE_NOT_VALID = 'N',
 122:SynaptiX_FDK/components/gps/minmea.h ****     MINMEA_FAA_MODE_PRECISE = 'P',
 123:SynaptiX_FDK/components/gps/minmea.h **** };
 124:SynaptiX_FDK/components/gps/minmea.h **** 
 125:SynaptiX_FDK/components/gps/minmea.h **** struct minmea_sentence_gll {
 126:SynaptiX_FDK/components/gps/minmea.h ****     union minmea_type type;
 127:SynaptiX_FDK/components/gps/minmea.h ****     struct minmea_float latitude;
 128:SynaptiX_FDK/components/gps/minmea.h ****     struct minmea_float longitude;
 129:SynaptiX_FDK/components/gps/minmea.h ****     struct minmea_time time;
 130:SynaptiX_FDK/components/gps/minmea.h ****     char status;
 131:SynaptiX_FDK/components/gps/minmea.h ****     char mode;
 132:SynaptiX_FDK/components/gps/minmea.h **** };
 133:SynaptiX_FDK/components/gps/minmea.h **** 
 134:SynaptiX_FDK/components/gps/minmea.h **** struct minmea_sentence_gst {
 135:SynaptiX_FDK/components/gps/minmea.h ****     union minmea_type type;
 136:SynaptiX_FDK/components/gps/minmea.h ****     struct minmea_time time;
 137:SynaptiX_FDK/components/gps/minmea.h ****     struct minmea_float rms_deviation;
 138:SynaptiX_FDK/components/gps/minmea.h ****     struct minmea_float semi_major_deviation;
 139:SynaptiX_FDK/components/gps/minmea.h ****     struct minmea_float semi_minor_deviation;
 140:SynaptiX_FDK/components/gps/minmea.h ****     struct minmea_float semi_major_orientation;
 141:SynaptiX_FDK/components/gps/minmea.h ****     struct minmea_float latitude_error_deviation;
 142:SynaptiX_FDK/components/gps/minmea.h ****     struct minmea_float longitude_error_deviation;
ARM GAS  C:\Users\LENOVO\AppData\Local\Temp\cc57JGiB.s 			page 4


 143:SynaptiX_FDK/components/gps/minmea.h ****     struct minmea_float altitude_error_deviation;
 144:SynaptiX_FDK/components/gps/minmea.h **** };
 145:SynaptiX_FDK/components/gps/minmea.h **** 
 146:SynaptiX_FDK/components/gps/minmea.h **** enum minmea_gsa_mode {
 147:SynaptiX_FDK/components/gps/minmea.h ****     MINMEA_GPGSA_MODE_AUTO = 'A',
 148:SynaptiX_FDK/components/gps/minmea.h ****     MINMEA_GPGSA_MODE_FORCED = 'M',
 149:SynaptiX_FDK/components/gps/minmea.h **** };
 150:SynaptiX_FDK/components/gps/minmea.h **** 
 151:SynaptiX_FDK/components/gps/minmea.h **** enum minmea_gsa_fix_type {
 152:SynaptiX_FDK/components/gps/minmea.h ****     MINMEA_GPGSA_FIX_NONE = 1,
 153:SynaptiX_FDK/components/gps/minmea.h ****     MINMEA_GPGSA_FIX_2D = 2,
 154:SynaptiX_FDK/components/gps/minmea.h ****     MINMEA_GPGSA_FIX_3D = 3,
 155:SynaptiX_FDK/components/gps/minmea.h **** };
 156:SynaptiX_FDK/components/gps/minmea.h **** 
 157:SynaptiX_FDK/components/gps/minmea.h **** struct minmea_sentence_gsa {
 158:SynaptiX_FDK/components/gps/minmea.h ****     union minmea_type type;
 159:SynaptiX_FDK/components/gps/minmea.h ****     char mode;
 160:SynaptiX_FDK/components/gps/minmea.h ****     int fix_type;
 161:SynaptiX_FDK/components/gps/minmea.h ****     int sats[12];
 162:SynaptiX_FDK/components/gps/minmea.h ****     struct minmea_float pdop;
 163:SynaptiX_FDK/components/gps/minmea.h ****     struct minmea_float hdop;
 164:SynaptiX_FDK/components/gps/minmea.h ****     struct minmea_float vdop;
 165:SynaptiX_FDK/components/gps/minmea.h **** };
 166:SynaptiX_FDK/components/gps/minmea.h **** 
 167:SynaptiX_FDK/components/gps/minmea.h **** struct minmea_sat_info {
 168:SynaptiX_FDK/components/gps/minmea.h ****     int nr;
 169:SynaptiX_FDK/components/gps/minmea.h ****     int elevation;
 170:SynaptiX_FDK/components/gps/minmea.h ****     int azimuth;
 171:SynaptiX_FDK/components/gps/minmea.h ****     int snr;
 172:SynaptiX_FDK/components/gps/minmea.h **** };
 173:SynaptiX_FDK/components/gps/minmea.h **** 
 174:SynaptiX_FDK/components/gps/minmea.h **** struct minmea_sentence_gsv {
 175:SynaptiX_FDK/components/gps/minmea.h ****     union minmea_type type;
 176:SynaptiX_FDK/components/gps/minmea.h ****     int total_msgs;
 177:SynaptiX_FDK/components/gps/minmea.h ****     int msg_nr;
 178:SynaptiX_FDK/components/gps/minmea.h ****     int total_sats;
 179:SynaptiX_FDK/components/gps/minmea.h ****     struct minmea_sat_info sats[4];
 180:SynaptiX_FDK/components/gps/minmea.h **** };
 181:SynaptiX_FDK/components/gps/minmea.h **** 
 182:SynaptiX_FDK/components/gps/minmea.h **** struct minmea_sentence_vtg {
 183:SynaptiX_FDK/components/gps/minmea.h ****     union minmea_type type;
 184:SynaptiX_FDK/components/gps/minmea.h ****     struct minmea_float true_track_degrees;
 185:SynaptiX_FDK/components/gps/minmea.h ****     struct minmea_float magnetic_track_degrees;
 186:SynaptiX_FDK/components/gps/minmea.h ****     struct minmea_float speed_knots;
 187:SynaptiX_FDK/components/gps/minmea.h ****     struct minmea_float speed_kph;
 188:SynaptiX_FDK/components/gps/minmea.h ****     enum minmea_faa_mode faa_mode;
 189:SynaptiX_FDK/components/gps/minmea.h **** };
 190:SynaptiX_FDK/components/gps/minmea.h **** 
 191:SynaptiX_FDK/components/gps/minmea.h **** struct minmea_sentence_zda {
 192:SynaptiX_FDK/components/gps/minmea.h ****     union minmea_type type;
 193:SynaptiX_FDK/components/gps/minmea.h ****     struct minmea_time time;
 194:SynaptiX_FDK/components/gps/minmea.h ****     struct minmea_date date;
 195:SynaptiX_FDK/components/gps/minmea.h ****     int hour_offset;
 196:SynaptiX_FDK/components/gps/minmea.h ****     int minute_offset;
 197:SynaptiX_FDK/components/gps/minmea.h **** };
 198:SynaptiX_FDK/components/gps/minmea.h **** 
 199:SynaptiX_FDK/components/gps/minmea.h **** /**
ARM GAS  C:\Users\LENOVO\AppData\Local\Temp\cc57JGiB.s 			page 5


 200:SynaptiX_FDK/components/gps/minmea.h ****  * Calculate raw sentence checksum. Does not check sentence integrity.
 201:SynaptiX_FDK/components/gps/minmea.h ****  */
 202:SynaptiX_FDK/components/gps/minmea.h **** uint8_t minmea_checksum(const char *sentence);
 203:SynaptiX_FDK/components/gps/minmea.h **** 
 204:SynaptiX_FDK/components/gps/minmea.h **** /**
 205:SynaptiX_FDK/components/gps/minmea.h ****  * Check sentence validity and checksum. Returns true for valid sentences.
 206:SynaptiX_FDK/components/gps/minmea.h ****  */
 207:SynaptiX_FDK/components/gps/minmea.h **** bool minmea_check(const char *sentence, bool strict);
 208:SynaptiX_FDK/components/gps/minmea.h **** 
 209:SynaptiX_FDK/components/gps/minmea.h **** /**
 210:SynaptiX_FDK/components/gps/minmea.h ****  * Determine talker identifier.
 211:SynaptiX_FDK/components/gps/minmea.h ****  */
 212:SynaptiX_FDK/components/gps/minmea.h **** bool minmea_talker_id(char talker[3], const char *sentence);
 213:SynaptiX_FDK/components/gps/minmea.h **** 
 214:SynaptiX_FDK/components/gps/minmea.h **** /**
 215:SynaptiX_FDK/components/gps/minmea.h ****  * Get sentence id as string.
 216:SynaptiX_FDK/components/gps/minmea.h ****  */
 217:SynaptiX_FDK/components/gps/minmea.h **** const char* minmea_sentence(enum minmea_sentence_id id);
 218:SynaptiX_FDK/components/gps/minmea.h **** 
 219:SynaptiX_FDK/components/gps/minmea.h **** /**
 220:SynaptiX_FDK/components/gps/minmea.h ****  * Determine sentence identifier.
 221:SynaptiX_FDK/components/gps/minmea.h ****  */
 222:SynaptiX_FDK/components/gps/minmea.h **** enum minmea_sentence_id minmea_sentence_id(const char *sentence, bool strict);
 223:SynaptiX_FDK/components/gps/minmea.h **** 
 224:SynaptiX_FDK/components/gps/minmea.h **** /**
 225:SynaptiX_FDK/components/gps/minmea.h ****  * Scanf-like processor for NMEA sentences. Supports the following formats:
 226:SynaptiX_FDK/components/gps/minmea.h ****  * c - single character (char *)
 227:SynaptiX_FDK/components/gps/minmea.h ****  * d - direction, returned as 1/-1, default 0 (int *)
 228:SynaptiX_FDK/components/gps/minmea.h ****  * f - fractional, returned as value + scale (struct minmea_float *)
 229:SynaptiX_FDK/components/gps/minmea.h ****  * i - decimal, default zero (int *)
 230:SynaptiX_FDK/components/gps/minmea.h ****  * s - string (char *)
 231:SynaptiX_FDK/components/gps/minmea.h ****  * t - talker identifier and type (union minmea_type *)
 232:SynaptiX_FDK/components/gps/minmea.h ****  * D - date (struct minmea_date *)
 233:SynaptiX_FDK/components/gps/minmea.h ****  * T - time stamp (struct minmea_time *)
 234:SynaptiX_FDK/components/gps/minmea.h ****  * _ - ignore this field
 235:SynaptiX_FDK/components/gps/minmea.h ****  * ; - following fields are optional
 236:SynaptiX_FDK/components/gps/minmea.h ****  * Returns true on success. See library source code for details.
 237:SynaptiX_FDK/components/gps/minmea.h ****  */
 238:SynaptiX_FDK/components/gps/minmea.h **** bool minmea_scan(const char *sentence, const char *format, ...);
 239:SynaptiX_FDK/components/gps/minmea.h **** 
 240:SynaptiX_FDK/components/gps/minmea.h **** /*
 241:SynaptiX_FDK/components/gps/minmea.h ****  * Parse a specific type of sentence. Return true on success.
 242:SynaptiX_FDK/components/gps/minmea.h ****  */
 243:SynaptiX_FDK/components/gps/minmea.h **** bool minmea_parse_gbs(struct minmea_sentence_gbs *frame, const char *sentence);
 244:SynaptiX_FDK/components/gps/minmea.h **** bool minmea_parse_rmc(struct minmea_sentence_rmc *frame, const char *sentence);
 245:SynaptiX_FDK/components/gps/minmea.h **** bool minmea_parse_gga(struct minmea_sentence_gga *frame, const char *sentence);
 246:SynaptiX_FDK/components/gps/minmea.h **** bool minmea_parse_gsa(struct minmea_sentence_gsa *frame, const char *sentence);
 247:SynaptiX_FDK/components/gps/minmea.h **** bool minmea_parse_gll(struct minmea_sentence_gll *frame, const char *sentence);
 248:SynaptiX_FDK/components/gps/minmea.h **** bool minmea_parse_gst(struct minmea_sentence_gst *frame, const char *sentence);
 249:SynaptiX_FDK/components/gps/minmea.h **** bool minmea_parse_gsv(struct minmea_sentence_gsv *frame, const char *sentence);
 250:SynaptiX_FDK/components/gps/minmea.h **** bool minmea_parse_vtg(struct minmea_sentence_vtg *frame, const char *sentence);
 251:SynaptiX_FDK/components/gps/minmea.h **** bool minmea_parse_zda(struct minmea_sentence_zda *frame, const char *sentence);
 252:SynaptiX_FDK/components/gps/minmea.h **** 
 253:SynaptiX_FDK/components/gps/minmea.h **** /**
 254:SynaptiX_FDK/components/gps/minmea.h ****  * Convert GPS UTC date/time representation to a UNIX calendar time.
 255:SynaptiX_FDK/components/gps/minmea.h ****  */
 256:SynaptiX_FDK/components/gps/minmea.h **** int minmea_getdatetime(struct tm *tm, const struct minmea_date *date, const struct minmea_time *tim
ARM GAS  C:\Users\LENOVO\AppData\Local\Temp\cc57JGiB.s 			page 6


 257:SynaptiX_FDK/components/gps/minmea.h **** 
 258:SynaptiX_FDK/components/gps/minmea.h **** /**
 259:SynaptiX_FDK/components/gps/minmea.h ****  * Convert GPS UTC date/time representation to a UNIX timestamp.
 260:SynaptiX_FDK/components/gps/minmea.h ****  */
 261:SynaptiX_FDK/components/gps/minmea.h **** int minmea_gettime(struct timespec *ts, const struct minmea_date *date, const struct minmea_time *t
 262:SynaptiX_FDK/components/gps/minmea.h **** 
 263:SynaptiX_FDK/components/gps/minmea.h **** /**
 264:SynaptiX_FDK/components/gps/minmea.h ****  * Rescale a fixed-point value to a different scale. Rounds towards zero.
 265:SynaptiX_FDK/components/gps/minmea.h ****  */
 266:SynaptiX_FDK/components/gps/minmea.h **** static inline int_least32_t minmea_rescale(const struct minmea_float *f, int_least32_t new_scale)
 267:SynaptiX_FDK/components/gps/minmea.h **** {
 268:SynaptiX_FDK/components/gps/minmea.h ****     if (f->scale == 0)
 269:SynaptiX_FDK/components/gps/minmea.h ****         return 0;
 270:SynaptiX_FDK/components/gps/minmea.h ****     if (f->scale == new_scale)
 271:SynaptiX_FDK/components/gps/minmea.h ****         return f->value;
 272:SynaptiX_FDK/components/gps/minmea.h ****     if (f->scale > new_scale)
 273:SynaptiX_FDK/components/gps/minmea.h ****         return (f->value + ((f->value > 0) - (f->value < 0)) * f->scale/new_scale/2) / (f->scale/ne
 274:SynaptiX_FDK/components/gps/minmea.h ****     else
 275:SynaptiX_FDK/components/gps/minmea.h ****         return f->value * (new_scale/f->scale);
 276:SynaptiX_FDK/components/gps/minmea.h **** }
 277:SynaptiX_FDK/components/gps/minmea.h **** 
 278:SynaptiX_FDK/components/gps/minmea.h **** /**
 279:SynaptiX_FDK/components/gps/minmea.h ****  * Convert a fixed-point value to a floating-point value.
 280:SynaptiX_FDK/components/gps/minmea.h ****  * Returns NaN for "unknown" values.
 281:SynaptiX_FDK/components/gps/minmea.h ****  */
 282:SynaptiX_FDK/components/gps/minmea.h **** static inline float minmea_tofloat(const struct minmea_float *f)
 283:SynaptiX_FDK/components/gps/minmea.h **** {
 284:SynaptiX_FDK/components/gps/minmea.h ****     if (f->scale == 0)
 285:SynaptiX_FDK/components/gps/minmea.h ****         return NAN;
 286:SynaptiX_FDK/components/gps/minmea.h ****     return (float) f->value / (float) f->scale;
 287:SynaptiX_FDK/components/gps/minmea.h **** }
 288:SynaptiX_FDK/components/gps/minmea.h **** 
 289:SynaptiX_FDK/components/gps/minmea.h **** /**
 290:SynaptiX_FDK/components/gps/minmea.h ****  * Convert a raw coordinate to a floating point DD.DDD... value.
 291:SynaptiX_FDK/components/gps/minmea.h ****  * Returns NaN for "unknown" values.
 292:SynaptiX_FDK/components/gps/minmea.h ****  */
 293:SynaptiX_FDK/components/gps/minmea.h **** static inline float minmea_tocoord(const struct minmea_float *f)
 294:SynaptiX_FDK/components/gps/minmea.h **** {
 295:SynaptiX_FDK/components/gps/minmea.h ****     if (f->scale == 0)
 296:SynaptiX_FDK/components/gps/minmea.h ****         return NAN;
 297:SynaptiX_FDK/components/gps/minmea.h ****     if (f->scale  > (INT_LEAST32_MAX / 100))
 298:SynaptiX_FDK/components/gps/minmea.h ****         return NAN;
 299:SynaptiX_FDK/components/gps/minmea.h ****     if (f->scale < (INT_LEAST32_MIN / 100))
 300:SynaptiX_FDK/components/gps/minmea.h ****         return NAN;
 301:SynaptiX_FDK/components/gps/minmea.h ****     int_least32_t degrees = f->value / (f->scale * 100);
 302:SynaptiX_FDK/components/gps/minmea.h ****     int_least32_t minutes = f->value % (f->scale * 100);
 303:SynaptiX_FDK/components/gps/minmea.h ****     return (float) degrees + (float) minutes / (60 * f->scale);
 304:SynaptiX_FDK/components/gps/minmea.h **** }
 305:SynaptiX_FDK/components/gps/minmea.h **** 
 306:SynaptiX_FDK/components/gps/minmea.h **** /**
 307:SynaptiX_FDK/components/gps/minmea.h ****  * Check whether a character belongs to the set of characters allowed in a
 308:SynaptiX_FDK/components/gps/minmea.h ****  * sentence data field.
 309:SynaptiX_FDK/components/gps/minmea.h ****  */
 310:SynaptiX_FDK/components/gps/minmea.h **** static inline bool minmea_isfield(char c) {
  31              		.loc 2 310 43 view -0
  32              		.cfi_startproc
  33              		@ args = 0, pretend = 0, frame = 0
ARM GAS  C:\Users\LENOVO\AppData\Local\Temp\cc57JGiB.s 			page 7


  34              		@ frame_needed = 0, uses_anonymous_args = 0
  35              		@ link register save eliminated.
 311:SynaptiX_FDK/components/gps/minmea.h ****     return isprint((unsigned char) c) && c != ',' && c != '*';
  36              		.loc 2 311 5 view .LVU1
  37              		.loc 2 311 12 is_stmt 0 view .LVU2
  38 0000 084B     		ldr	r3, .L7
  39 0002 1B5C     		ldrb	r3, [r3, r0]	@ zero_extendqisi2
  40              		.loc 2 311 51 view .LVU3
  41 0004 13F0970F 		tst	r3, #151
  42 0008 07D0     		beq	.L3
  43              		.loc 2 311 39 discriminator 1 view .LVU4
  44 000a 2C28     		cmp	r0, #44
  45 000c 07D0     		beq	.L4
  46              		.loc 2 311 51 discriminator 3 view .LVU5
  47 000e 2A28     		cmp	r0, #42
  48 0010 01D0     		beq	.L6
  49              		.loc 2 311 51 discriminator 5 view .LVU6
  50 0012 0120     		movs	r0, #1
  51              	.LVL1:
 312:SynaptiX_FDK/components/gps/minmea.h **** }
  52              		.loc 2 312 1 view .LVU7
  53 0014 7047     		bx	lr
  54              	.LVL2:
  55              	.L6:
 311:SynaptiX_FDK/components/gps/minmea.h ****     return isprint((unsigned char) c) && c != ',' && c != '*';
  56              		.loc 2 311 51 discriminator 6 view .LVU8
  57 0016 0020     		movs	r0, #0
  58              	.LVL3:
 311:SynaptiX_FDK/components/gps/minmea.h ****     return isprint((unsigned char) c) && c != ',' && c != '*';
  59              		.loc 2 311 51 discriminator 6 view .LVU9
  60 0018 7047     		bx	lr
  61              	.LVL4:
  62              	.L3:
 311:SynaptiX_FDK/components/gps/minmea.h ****     return isprint((unsigned char) c) && c != ',' && c != '*';
  63              		.loc 2 311 51 discriminator 6 view .LVU10
  64 001a 0020     		movs	r0, #0
  65              	.LVL5:
 311:SynaptiX_FDK/components/gps/minmea.h ****     return isprint((unsigned char) c) && c != ',' && c != '*';
  66              		.loc 2 311 51 discriminator 6 view .LVU11
  67 001c 7047     		bx	lr
  68              	.LVL6:
  69              	.L4:
 311:SynaptiX_FDK/components/gps/minmea.h ****     return isprint((unsigned char) c) && c != ',' && c != '*';
  70              		.loc 2 311 51 discriminator 6 view .LVU12
  71 001e 0020     		movs	r0, #0
  72              	.LVL7:
 311:SynaptiX_FDK/components/gps/minmea.h ****     return isprint((unsigned char) c) && c != ',' && c != '*';
  73              		.loc 2 311 51 discriminator 6 view .LVU13
  74 0020 7047     		bx	lr
  75              	.L8:
  76 0022 00BF     		.align	2
  77              	.L7:
  78 0024 01000000 		.word	_ctype_+1
  79              		.cfi_endproc
  80              	.LFE4:
  82              		.section	.text.hex2int,"ax",%progbits
  83              		.align	1
ARM GAS  C:\Users\LENOVO\AppData\Local\Temp\cc57JGiB.s 			page 8


  84              		.syntax unified
  85              		.thumb
  86              		.thumb_func
  88              	hex2int:
  89              	.LVL8:
  90              	.LFB5:
   1:SynaptiX_FDK/components/gps/minmea.c **** /*
   2:SynaptiX_FDK/components/gps/minmea.c ****  * Copyright © 2014 Kosma Moczek <kosma@cloudyourcar.com>
   3:SynaptiX_FDK/components/gps/minmea.c ****  * This program is free software. It comes without any warranty, to the extent
   4:SynaptiX_FDK/components/gps/minmea.c ****  * permitted by applicable law. You can redistribute it and/or modify it under
   5:SynaptiX_FDK/components/gps/minmea.c ****  * the terms of the Do What The Fuck You Want To Public License, Version 2, as
   6:SynaptiX_FDK/components/gps/minmea.c ****  * published by Sam Hocevar. See the COPYING file for more details.
   7:SynaptiX_FDK/components/gps/minmea.c ****  */
   8:SynaptiX_FDK/components/gps/minmea.c **** 
   9:SynaptiX_FDK/components/gps/minmea.c **** #include "minmea.h"
  10:SynaptiX_FDK/components/gps/minmea.c **** 
  11:SynaptiX_FDK/components/gps/minmea.c **** #include <stdlib.h>
  12:SynaptiX_FDK/components/gps/minmea.c **** #include <string.h>
  13:SynaptiX_FDK/components/gps/minmea.c **** #include <stdarg.h>
  14:SynaptiX_FDK/components/gps/minmea.c **** 
  15:SynaptiX_FDK/components/gps/minmea.c **** #define boolstr(s) ((s) ? "true" : "false")
  16:SynaptiX_FDK/components/gps/minmea.c **** #define countof(array) (sizeof(array) / sizeof(array[0]))
  17:SynaptiX_FDK/components/gps/minmea.c **** 
  18:SynaptiX_FDK/components/gps/minmea.c **** static int hex2int(char c)
  19:SynaptiX_FDK/components/gps/minmea.c **** {
  91              		.loc 1 19 1 is_stmt 1 view -0
  92              		.cfi_startproc
  93              		@ args = 0, pretend = 0, frame = 0
  94              		@ frame_needed = 0, uses_anonymous_args = 0
  95              		@ link register save eliminated.
  20:SynaptiX_FDK/components/gps/minmea.c ****     if (c >= '0' && c <= '9')
  96              		.loc 1 20 5 view .LVU15
  97              		.loc 1 20 18 is_stmt 0 view .LVU16
  98 0000 A0F13003 		sub	r3, r0, #48
  99 0004 DBB2     		uxtb	r3, r3
 100              		.loc 1 20 8 view .LVU17
 101 0006 092B     		cmp	r3, #9
 102 0008 0BD9     		bls	.L14
  21:SynaptiX_FDK/components/gps/minmea.c ****         return c - '0';
  22:SynaptiX_FDK/components/gps/minmea.c ****     if (c >= 'A' && c <= 'F')
 103              		.loc 1 22 5 is_stmt 1 view .LVU18
 104              		.loc 1 22 18 is_stmt 0 view .LVU19
 105 000a A0F14103 		sub	r3, r0, #65
 106 000e DBB2     		uxtb	r3, r3
 107              		.loc 1 22 8 view .LVU20
 108 0010 052B     		cmp	r3, #5
 109 0012 08D9     		bls	.L15
  23:SynaptiX_FDK/components/gps/minmea.c ****         return c - 'A' + 10;
  24:SynaptiX_FDK/components/gps/minmea.c ****     if (c >= 'a' && c <= 'f')
 110              		.loc 1 24 5 is_stmt 1 view .LVU21
 111              		.loc 1 24 18 is_stmt 0 view .LVU22
 112 0014 A0F16103 		sub	r3, r0, #97
 113 0018 DBB2     		uxtb	r3, r3
 114              		.loc 1 24 8 view .LVU23
 115 001a 052B     		cmp	r3, #5
 116 001c 05D8     		bhi	.L13
  25:SynaptiX_FDK/components/gps/minmea.c ****         return c - 'a' + 10;
ARM GAS  C:\Users\LENOVO\AppData\Local\Temp\cc57JGiB.s 			page 9


 117              		.loc 1 25 9 is_stmt 1 view .LVU24
 118              		.loc 1 25 24 is_stmt 0 view .LVU25
 119 001e 5738     		subs	r0, r0, #87
 120              	.LVL9:
 121              		.loc 1 25 24 view .LVU26
 122 0020 7047     		bx	lr
 123              	.LVL10:
 124              	.L14:
  21:SynaptiX_FDK/components/gps/minmea.c ****         return c - '0';
 125              		.loc 1 21 9 is_stmt 1 view .LVU27
  21:SynaptiX_FDK/components/gps/minmea.c ****         return c - '0';
 126              		.loc 1 21 18 is_stmt 0 view .LVU28
 127 0022 3038     		subs	r0, r0, #48
 128              	.LVL11:
  21:SynaptiX_FDK/components/gps/minmea.c ****         return c - '0';
 129              		.loc 1 21 18 view .LVU29
 130 0024 7047     		bx	lr
 131              	.LVL12:
 132              	.L15:
  23:SynaptiX_FDK/components/gps/minmea.c ****         return c - 'A' + 10;
 133              		.loc 1 23 9 is_stmt 1 view .LVU30
  23:SynaptiX_FDK/components/gps/minmea.c ****         return c - 'A' + 10;
 134              		.loc 1 23 24 is_stmt 0 view .LVU31
 135 0026 3738     		subs	r0, r0, #55
 136              	.LVL13:
  23:SynaptiX_FDK/components/gps/minmea.c ****         return c - 'A' + 10;
 137              		.loc 1 23 24 view .LVU32
 138 0028 7047     		bx	lr
 139              	.LVL14:
 140              	.L13:
  26:SynaptiX_FDK/components/gps/minmea.c ****     return -1;
 141              		.loc 1 26 12 view .LVU33
 142 002a 4FF0FF30 		mov	r0, #-1
 143              	.LVL15:
  27:SynaptiX_FDK/components/gps/minmea.c **** }
 144              		.loc 1 27 1 view .LVU34
 145 002e 7047     		bx	lr
 146              		.cfi_endproc
 147              	.LFE5:
 149              		.section	.text.minmea_checksum,"ax",%progbits
 150              		.align	1
 151              		.global	minmea_checksum
 152              		.syntax unified
 153              		.thumb
 154              		.thumb_func
 156              	minmea_checksum:
 157              	.LVL16:
 158              	.LFB6:
  28:SynaptiX_FDK/components/gps/minmea.c **** 
  29:SynaptiX_FDK/components/gps/minmea.c **** uint8_t minmea_checksum(const char *sentence)
  30:SynaptiX_FDK/components/gps/minmea.c **** {
 159              		.loc 1 30 1 is_stmt 1 view -0
 160              		.cfi_startproc
 161              		@ args = 0, pretend = 0, frame = 0
 162              		@ frame_needed = 0, uses_anonymous_args = 0
 163              		@ link register save eliminated.
 164              		.loc 1 30 1 is_stmt 0 view .LVU36
ARM GAS  C:\Users\LENOVO\AppData\Local\Temp\cc57JGiB.s 			page 10


 165 0000 0246     		mov	r2, r0
  31:SynaptiX_FDK/components/gps/minmea.c ****     // Support senteces with or without the starting dollar sign.
  32:SynaptiX_FDK/components/gps/minmea.c ****     if (*sentence == '$')
 166              		.loc 1 32 5 is_stmt 1 view .LVU37
 167              		.loc 1 32 9 is_stmt 0 view .LVU38
 168 0002 0378     		ldrb	r3, [r0]	@ zero_extendqisi2
 169              		.loc 1 32 8 view .LVU39
 170 0004 242B     		cmp	r3, #36
 171 0006 01D0     		beq	.L21
 172              	.LVL17:
 173              	.L17:
  30:SynaptiX_FDK/components/gps/minmea.c ****     // Support senteces with or without the starting dollar sign.
 174              		.loc 1 30 1 view .LVU40
 175 0008 0020     		movs	r0, #0
 176 000a 03E0     		b	.L18
 177              	.LVL18:
 178              	.L21:
  33:SynaptiX_FDK/components/gps/minmea.c ****         sentence++;
 179              		.loc 1 33 9 is_stmt 1 view .LVU41
 180              		.loc 1 33 17 is_stmt 0 view .LVU42
 181 000c 0132     		adds	r2, r2, #1
 182              	.LVL19:
 183              		.loc 1 33 17 view .LVU43
 184 000e FBE7     		b	.L17
 185              	.LVL20:
 186              	.L20:
  34:SynaptiX_FDK/components/gps/minmea.c **** 
  35:SynaptiX_FDK/components/gps/minmea.c ****     uint8_t checksum = 0x00;
  36:SynaptiX_FDK/components/gps/minmea.c **** 
  37:SynaptiX_FDK/components/gps/minmea.c ****     // The optional checksum is an XOR of all bytes between "$" and "*".
  38:SynaptiX_FDK/components/gps/minmea.c ****     while (*sentence && *sentence != '*')
  39:SynaptiX_FDK/components/gps/minmea.c ****         checksum ^= *sentence++;
 187              		.loc 1 39 9 is_stmt 1 view .LVU44
 188              		.loc 1 39 30 is_stmt 0 view .LVU45
 189 0010 0132     		adds	r2, r2, #1
 190              	.LVL21:
 191              		.loc 1 39 18 view .LVU46
 192 0012 5840     		eors	r0, r0, r3
 193              	.LVL22:
 194              	.L18:
  38:SynaptiX_FDK/components/gps/minmea.c ****         checksum ^= *sentence++;
 195              		.loc 1 38 22 is_stmt 1 view .LVU47
  38:SynaptiX_FDK/components/gps/minmea.c ****         checksum ^= *sentence++;
 196              		.loc 1 38 12 is_stmt 0 view .LVU48
 197 0014 1378     		ldrb	r3, [r2]	@ zero_extendqisi2
  38:SynaptiX_FDK/components/gps/minmea.c ****         checksum ^= *sentence++;
 198              		.loc 1 38 22 view .LVU49
 199 0016 0BB1     		cbz	r3, .L19
  38:SynaptiX_FDK/components/gps/minmea.c ****         checksum ^= *sentence++;
 200              		.loc 1 38 22 discriminator 1 view .LVU50
 201 0018 2A2B     		cmp	r3, #42
 202 001a F9D1     		bne	.L20
 203              	.L19:
  40:SynaptiX_FDK/components/gps/minmea.c **** 
  41:SynaptiX_FDK/components/gps/minmea.c ****     return checksum;
 204              		.loc 1 41 5 is_stmt 1 view .LVU51
  42:SynaptiX_FDK/components/gps/minmea.c **** }
ARM GAS  C:\Users\LENOVO\AppData\Local\Temp\cc57JGiB.s 			page 11


 205              		.loc 1 42 1 is_stmt 0 view .LVU52
 206 001c 7047     		bx	lr
 207              		.cfi_endproc
 208              	.LFE6:
 210              		.section	.text.minmea_check,"ax",%progbits
 211              		.align	1
 212              		.global	minmea_check
 213              		.syntax unified
 214              		.thumb
 215              		.thumb_func
 217              	minmea_check:
 218              	.LVL23:
 219              	.LFB7:
  43:SynaptiX_FDK/components/gps/minmea.c **** 
  44:SynaptiX_FDK/components/gps/minmea.c **** bool minmea_check(const char *sentence, bool strict)
  45:SynaptiX_FDK/components/gps/minmea.c **** {
 220              		.loc 1 45 1 is_stmt 1 view -0
 221              		.cfi_startproc
 222              		@ args = 0, pretend = 0, frame = 0
 223              		@ frame_needed = 0, uses_anonymous_args = 0
 224              		.loc 1 45 1 is_stmt 0 view .LVU54
 225 0000 F8B5     		push	{r3, r4, r5, r6, r7, lr}
 226              	.LCFI0:
 227              		.cfi_def_cfa_offset 24
 228              		.cfi_offset 3, -24
 229              		.cfi_offset 4, -20
 230              		.cfi_offset 5, -16
 231              		.cfi_offset 6, -12
 232              		.cfi_offset 7, -8
 233              		.cfi_offset 14, -4
  46:SynaptiX_FDK/components/gps/minmea.c ****     uint8_t checksum = 0x00;
 234              		.loc 1 46 5 is_stmt 1 view .LVU55
 235              	.LVL24:
  47:SynaptiX_FDK/components/gps/minmea.c **** 
  48:SynaptiX_FDK/components/gps/minmea.c ****     // A valid sentence starts with "$".
  49:SynaptiX_FDK/components/gps/minmea.c ****     if (*sentence++ != '$')
 236              		.loc 1 49 5 view .LVU56
 237              		.loc 1 49 18 is_stmt 0 view .LVU57
 238 0002 0446     		mov	r4, r0
 239              	.LVL25:
 240              		.loc 1 49 9 view .LVU58
 241 0004 14F8013B 		ldrb	r3, [r4], #1	@ zero_extendqisi2
 242              	.LVL26:
 243              		.loc 1 49 8 view .LVU59
 244 0008 242B     		cmp	r3, #36
 245 000a 2ED1     		bne	.L31
  46:SynaptiX_FDK/components/gps/minmea.c ****     uint8_t checksum = 0x00;
 246              		.loc 1 46 13 view .LVU60
 247 000c 0025     		movs	r5, #0
 248 000e 01E0     		b	.L24
 249              	.LVL27:
 250              	.L26:
  50:SynaptiX_FDK/components/gps/minmea.c ****         return false;
  51:SynaptiX_FDK/components/gps/minmea.c **** 
  52:SynaptiX_FDK/components/gps/minmea.c ****     // The optional checksum is an XOR of all bytes between "$" and "*".
  53:SynaptiX_FDK/components/gps/minmea.c ****     while (*sentence && *sentence != '*' && isprint((unsigned char) *sentence))
  54:SynaptiX_FDK/components/gps/minmea.c ****         checksum ^= *sentence++;
ARM GAS  C:\Users\LENOVO\AppData\Local\Temp\cc57JGiB.s 			page 12


 251              		.loc 1 54 9 is_stmt 1 view .LVU61
 252              		.loc 1 54 30 is_stmt 0 view .LVU62
 253 0010 0134     		adds	r4, r4, #1
 254              	.LVL28:
 255              		.loc 1 54 18 view .LVU63
 256 0012 5D40     		eors	r5, r5, r3
 257              	.LVL29:
 258              	.L24:
  53:SynaptiX_FDK/components/gps/minmea.c ****         checksum ^= *sentence++;
 259              		.loc 1 53 42 is_stmt 1 view .LVU64
  53:SynaptiX_FDK/components/gps/minmea.c ****         checksum ^= *sentence++;
 260              		.loc 1 53 12 is_stmt 0 view .LVU65
 261 0014 2378     		ldrb	r3, [r4]	@ zero_extendqisi2
  53:SynaptiX_FDK/components/gps/minmea.c ****         checksum ^= *sentence++;
 262              		.loc 1 53 42 view .LVU66
 263 0016 33B1     		cbz	r3, .L25
  53:SynaptiX_FDK/components/gps/minmea.c ****         checksum ^= *sentence++;
 264              		.loc 1 53 22 discriminator 1 view .LVU67
 265 0018 2A2B     		cmp	r3, #42
 266 001a 04D0     		beq	.L25
  53:SynaptiX_FDK/components/gps/minmea.c ****         checksum ^= *sentence++;
 267              		.loc 1 53 45 discriminator 2 view .LVU68
 268 001c 184A     		ldr	r2, .L39
 269 001e D25C     		ldrb	r2, [r2, r3]	@ zero_extendqisi2
  53:SynaptiX_FDK/components/gps/minmea.c ****         checksum ^= *sentence++;
 270              		.loc 1 53 42 discriminator 2 view .LVU69
 271 0020 12F0970F 		tst	r2, #151
 272 0024 F4D1     		bne	.L26
 273              	.L25:
  55:SynaptiX_FDK/components/gps/minmea.c **** 
  56:SynaptiX_FDK/components/gps/minmea.c ****     // If checksum is present...
  57:SynaptiX_FDK/components/gps/minmea.c ****     if (*sentence == '*') {
 274              		.loc 1 57 5 is_stmt 1 view .LVU70
 275              		.loc 1 57 8 is_stmt 0 view .LVU71
 276 0026 2A2B     		cmp	r3, #42
 277 0028 02D0     		beq	.L38
  58:SynaptiX_FDK/components/gps/minmea.c ****         // Extract checksum.
  59:SynaptiX_FDK/components/gps/minmea.c ****         sentence++;
  60:SynaptiX_FDK/components/gps/minmea.c ****         int upper = hex2int(*sentence++);
  61:SynaptiX_FDK/components/gps/minmea.c ****         if (upper == -1)
  62:SynaptiX_FDK/components/gps/minmea.c ****             return false;
  63:SynaptiX_FDK/components/gps/minmea.c ****         int lower = hex2int(*sentence++);
  64:SynaptiX_FDK/components/gps/minmea.c ****         if (lower == -1)
  65:SynaptiX_FDK/components/gps/minmea.c ****             return false;
  66:SynaptiX_FDK/components/gps/minmea.c ****         int expected = upper << 4 | lower;
  67:SynaptiX_FDK/components/gps/minmea.c **** 
  68:SynaptiX_FDK/components/gps/minmea.c ****         // Check for checksum mismatch.
  69:SynaptiX_FDK/components/gps/minmea.c ****         if (checksum != expected)
  70:SynaptiX_FDK/components/gps/minmea.c ****             return false;
  71:SynaptiX_FDK/components/gps/minmea.c ****     } else if (strict) {
 278              		.loc 1 71 12 is_stmt 1 view .LVU72
 279              		.loc 1 71 15 is_stmt 0 view .LVU73
 280 002a B1B1     		cbz	r1, .L29
  72:SynaptiX_FDK/components/gps/minmea.c ****         // Discard non-checksummed frames in strict mode.
  73:SynaptiX_FDK/components/gps/minmea.c ****         return false;
 281              		.loc 1 73 16 view .LVU74
 282 002c 0020     		movs	r0, #0
ARM GAS  C:\Users\LENOVO\AppData\Local\Temp\cc57JGiB.s 			page 13


 283 002e 1DE0     		b	.L23
 284              	.L38:
 285              	.LBB2:
  59:SynaptiX_FDK/components/gps/minmea.c ****         int upper = hex2int(*sentence++);
 286              		.loc 1 59 9 is_stmt 1 view .LVU75
 287              	.LVL30:
  60:SynaptiX_FDK/components/gps/minmea.c ****         if (upper == -1)
 288              		.loc 1 60 9 view .LVU76
  60:SynaptiX_FDK/components/gps/minmea.c ****         if (upper == -1)
 289              		.loc 1 60 21 is_stmt 0 view .LVU77
 290 0030 6078     		ldrb	r0, [r4, #1]	@ zero_extendqisi2
 291 0032 FFF7FEFF 		bl	hex2int
 292              	.LVL31:
  60:SynaptiX_FDK/components/gps/minmea.c ****         if (upper == -1)
 293              		.loc 1 60 21 view .LVU78
 294 0036 0646     		mov	r6, r0
 295              	.LVL32:
  61:SynaptiX_FDK/components/gps/minmea.c ****             return false;
 296              		.loc 1 61 9 is_stmt 1 view .LVU79
  61:SynaptiX_FDK/components/gps/minmea.c ****             return false;
 297              		.loc 1 61 12 is_stmt 0 view .LVU80
 298 0038 B0F1FF3F 		cmp	r0, #-1
 299 003c 17D0     		beq	.L32
  63:SynaptiX_FDK/components/gps/minmea.c ****         if (lower == -1)
 300              		.loc 1 63 9 is_stmt 1 view .LVU81
  63:SynaptiX_FDK/components/gps/minmea.c ****         if (lower == -1)
 301              		.loc 1 63 38 is_stmt 0 view .LVU82
 302 003e E71C     		adds	r7, r4, #3
 303              	.LVL33:
  63:SynaptiX_FDK/components/gps/minmea.c ****         if (lower == -1)
 304              		.loc 1 63 21 view .LVU83
 305 0040 A078     		ldrb	r0, [r4, #2]	@ zero_extendqisi2
 306              	.LVL34:
  63:SynaptiX_FDK/components/gps/minmea.c ****         if (lower == -1)
 307              		.loc 1 63 21 view .LVU84
 308 0042 FFF7FEFF 		bl	hex2int
 309              	.LVL35:
  64:SynaptiX_FDK/components/gps/minmea.c ****             return false;
 310              		.loc 1 64 9 is_stmt 1 view .LVU85
  64:SynaptiX_FDK/components/gps/minmea.c ****             return false;
 311              		.loc 1 64 12 is_stmt 0 view .LVU86
 312 0046 B0F1FF3F 		cmp	r0, #-1
 313 004a 12D0     		beq	.L33
  66:SynaptiX_FDK/components/gps/minmea.c **** 
 314              		.loc 1 66 9 is_stmt 1 view .LVU87
  66:SynaptiX_FDK/components/gps/minmea.c **** 
 315              		.loc 1 66 13 is_stmt 0 view .LVU88
 316 004c 40EA0610 		orr	r0, r0, r6, lsl #4
 317              	.LVL36:
  69:SynaptiX_FDK/components/gps/minmea.c ****             return false;
 318              		.loc 1 69 9 is_stmt 1 view .LVU89
  69:SynaptiX_FDK/components/gps/minmea.c ****             return false;
 319              		.loc 1 69 12 is_stmt 0 view .LVU90
 320 0050 8542     		cmp	r5, r0
 321 0052 10D1     		bne	.L34
  63:SynaptiX_FDK/components/gps/minmea.c ****         if (lower == -1)
 322              		.loc 1 63 38 view .LVU91
ARM GAS  C:\Users\LENOVO\AppData\Local\Temp\cc57JGiB.s 			page 14


 323 0054 3C46     		mov	r4, r7
 324 0056 00E0     		b	.L29
 325              	.LVL37:
 326              	.L30:
  63:SynaptiX_FDK/components/gps/minmea.c ****         if (lower == -1)
 327              		.loc 1 63 38 view .LVU92
 328              	.LBE2:
  74:SynaptiX_FDK/components/gps/minmea.c ****     }
  75:SynaptiX_FDK/components/gps/minmea.c **** 
  76:SynaptiX_FDK/components/gps/minmea.c ****     // The only stuff allowed at this point is a newline.
  77:SynaptiX_FDK/components/gps/minmea.c ****     while (*sentence == '\r' || *sentence == '\n') {
  78:SynaptiX_FDK/components/gps/minmea.c ****         sentence++;
 329              		.loc 1 78 9 is_stmt 1 view .LVU93
 330              		.loc 1 78 17 is_stmt 0 view .LVU94
 331 0058 0134     		adds	r4, r4, #1
 332              	.LVL38:
 333              	.L29:
  77:SynaptiX_FDK/components/gps/minmea.c ****         sentence++;
 334              		.loc 1 77 30 is_stmt 1 view .LVU95
  77:SynaptiX_FDK/components/gps/minmea.c ****         sentence++;
 335              		.loc 1 77 12 is_stmt 0 view .LVU96
 336 005a 2378     		ldrb	r3, [r4]	@ zero_extendqisi2
  77:SynaptiX_FDK/components/gps/minmea.c ****         sentence++;
 337              		.loc 1 77 30 view .LVU97
 338 005c 0D2B     		cmp	r3, #13
 339 005e FBD0     		beq	.L30
  77:SynaptiX_FDK/components/gps/minmea.c ****         sentence++;
 340              		.loc 1 77 30 discriminator 1 view .LVU98
 341 0060 0A2B     		cmp	r3, #10
 342 0062 F9D0     		beq	.L30
  79:SynaptiX_FDK/components/gps/minmea.c ****     }
  80:SynaptiX_FDK/components/gps/minmea.c ****     
  81:SynaptiX_FDK/components/gps/minmea.c ****     if (*sentence) {
 343              		.loc 1 81 5 is_stmt 1 view .LVU99
 344              		.loc 1 81 8 is_stmt 0 view .LVU100
 345 0064 4BB9     		cbnz	r3, .L36
  82:SynaptiX_FDK/components/gps/minmea.c ****         return false;
  83:SynaptiX_FDK/components/gps/minmea.c ****     }
  84:SynaptiX_FDK/components/gps/minmea.c **** 
  85:SynaptiX_FDK/components/gps/minmea.c ****     return true;
 346              		.loc 1 85 12 view .LVU101
 347 0066 0120     		movs	r0, #1
 348 0068 00E0     		b	.L23
 349              	.LVL39:
 350              	.L31:
  50:SynaptiX_FDK/components/gps/minmea.c **** 
 351              		.loc 1 50 16 view .LVU102
 352 006a 0020     		movs	r0, #0
 353              	.LVL40:
 354              	.L23:
  86:SynaptiX_FDK/components/gps/minmea.c **** }
 355              		.loc 1 86 1 view .LVU103
 356 006c F8BD     		pop	{r3, r4, r5, r6, r7, pc}
 357              	.LVL41:
 358              	.L32:
 359              	.LBB3:
  62:SynaptiX_FDK/components/gps/minmea.c ****         int lower = hex2int(*sentence++);
ARM GAS  C:\Users\LENOVO\AppData\Local\Temp\cc57JGiB.s 			page 15


 360              		.loc 1 62 20 view .LVU104
 361 006e 0020     		movs	r0, #0
 362              	.LVL42:
  62:SynaptiX_FDK/components/gps/minmea.c ****         int lower = hex2int(*sentence++);
 363              		.loc 1 62 20 view .LVU105
 364 0070 FCE7     		b	.L23
 365              	.LVL43:
 366              	.L33:
  65:SynaptiX_FDK/components/gps/minmea.c ****         int expected = upper << 4 | lower;
 367              		.loc 1 65 20 view .LVU106
 368 0072 0020     		movs	r0, #0
 369              	.LVL44:
  65:SynaptiX_FDK/components/gps/minmea.c ****         int expected = upper << 4 | lower;
 370              		.loc 1 65 20 view .LVU107
 371 0074 FAE7     		b	.L23
 372              	.LVL45:
 373              	.L34:
  70:SynaptiX_FDK/components/gps/minmea.c ****     } else if (strict) {
 374              		.loc 1 70 20 view .LVU108
 375 0076 0020     		movs	r0, #0
 376              	.LVL46:
  70:SynaptiX_FDK/components/gps/minmea.c ****     } else if (strict) {
 377              		.loc 1 70 20 view .LVU109
 378 0078 F8E7     		b	.L23
 379              	.LVL47:
 380              	.L36:
  70:SynaptiX_FDK/components/gps/minmea.c ****     } else if (strict) {
 381              		.loc 1 70 20 view .LVU110
 382              	.LBE3:
  82:SynaptiX_FDK/components/gps/minmea.c ****     }
 383              		.loc 1 82 16 view .LVU111
 384 007a 0020     		movs	r0, #0
 385 007c F6E7     		b	.L23
 386              	.L40:
 387 007e 00BF     		.align	2
 388              	.L39:
 389 0080 01000000 		.word	_ctype_+1
 390              		.cfi_endproc
 391              	.LFE7:
 393              		.section	.text.minmea_scan,"ax",%progbits
 394              		.align	1
 395              		.global	minmea_scan
 396              		.syntax unified
 397              		.thumb
 398              		.thumb_func
 400              	minmea_scan:
 401              	.LVL48:
 402              	.LFB8:
  87:SynaptiX_FDK/components/gps/minmea.c **** 
  88:SynaptiX_FDK/components/gps/minmea.c **** bool minmea_scan(const char *sentence, const char *format, ...)
  89:SynaptiX_FDK/components/gps/minmea.c **** {
 403              		.loc 1 89 1 is_stmt 1 view -0
 404              		.cfi_startproc
 405              		@ args = 4, pretend = 12, frame = 16
 406              		@ frame_needed = 0, uses_anonymous_args = 1
 407              		.loc 1 89 1 is_stmt 0 view .LVU113
 408 0000 0EB4     		push	{r1, r2, r3}
ARM GAS  C:\Users\LENOVO\AppData\Local\Temp\cc57JGiB.s 			page 16


 409              	.LCFI1:
 410              		.cfi_def_cfa_offset 12
 411              		.cfi_offset 1, -12
 412              		.cfi_offset 2, -8
 413              		.cfi_offset 3, -4
 414 0002 2DE9F04F 		push	{r4, r5, r6, r7, r8, r9, r10, fp, lr}
 415              	.LCFI2:
 416              		.cfi_def_cfa_offset 48
 417              		.cfi_offset 4, -48
 418              		.cfi_offset 5, -44
 419              		.cfi_offset 6, -40
 420              		.cfi_offset 7, -36
 421              		.cfi_offset 8, -32
 422              		.cfi_offset 9, -28
 423              		.cfi_offset 10, -24
 424              		.cfi_offset 11, -20
 425              		.cfi_offset 14, -16
 426 0006 84B0     		sub	sp, sp, #16
 427              	.LCFI3:
 428              		.cfi_def_cfa_offset 64
 429 0008 0D9E     		ldr	r6, [sp, #52]
  90:SynaptiX_FDK/components/gps/minmea.c ****     bool result = false;
 430              		.loc 1 90 5 is_stmt 1 view .LVU114
 431              	.LVL49:
  91:SynaptiX_FDK/components/gps/minmea.c ****     bool optional = false;
 432              		.loc 1 91 5 view .LVU115
  92:SynaptiX_FDK/components/gps/minmea.c **** 
  93:SynaptiX_FDK/components/gps/minmea.c ****     if (sentence == NULL)
 433              		.loc 1 93 5 view .LVU116
 434              		.loc 1 93 8 is_stmt 0 view .LVU117
 435 000a 08B9     		cbnz	r0, .L131
  94:SynaptiX_FDK/components/gps/minmea.c ****         return false;
 436              		.loc 1 94 16 view .LVU118
 437 000c 0020     		movs	r0, #0
 438              	.LVL50:
 439              		.loc 1 94 16 view .LVU119
 440 000e 87E2     		b	.L42
 441              	.LVL51:
 442              	.L131:
 443              		.loc 1 94 16 view .LVU120
 444 0010 0446     		mov	r4, r0
  95:SynaptiX_FDK/components/gps/minmea.c **** 
  96:SynaptiX_FDK/components/gps/minmea.c ****     va_list ap;
 445              		.loc 1 96 5 is_stmt 1 view .LVU121
  97:SynaptiX_FDK/components/gps/minmea.c ****     va_start(ap, format);
 446              		.loc 1 97 5 view .LVU122
 447 0012 0EAB     		add	r3, sp, #56
 448 0014 0393     		str	r3, [sp, #12]
  98:SynaptiX_FDK/components/gps/minmea.c **** 
  99:SynaptiX_FDK/components/gps/minmea.c ****     const char *field = sentence;
 449              		.loc 1 99 5 view .LVU123
 450              	.LVL52:
 100:SynaptiX_FDK/components/gps/minmea.c **** #define next_field() \
 101:SynaptiX_FDK/components/gps/minmea.c ****     do { \
 102:SynaptiX_FDK/components/gps/minmea.c ****         /* Progress to the next field. */ \
 103:SynaptiX_FDK/components/gps/minmea.c ****         while (minmea_isfield(*sentence)) \
 104:SynaptiX_FDK/components/gps/minmea.c ****             sentence++; \
ARM GAS  C:\Users\LENOVO\AppData\Local\Temp\cc57JGiB.s 			page 17


 105:SynaptiX_FDK/components/gps/minmea.c ****         /* Make sure there is a field there. */ \
 106:SynaptiX_FDK/components/gps/minmea.c ****         if (*sentence == ',') { \
 107:SynaptiX_FDK/components/gps/minmea.c ****             sentence++; \
 108:SynaptiX_FDK/components/gps/minmea.c ****             field = sentence; \
 109:SynaptiX_FDK/components/gps/minmea.c ****         } else { \
 110:SynaptiX_FDK/components/gps/minmea.c ****             field = NULL; \
 111:SynaptiX_FDK/components/gps/minmea.c ****         } \
 112:SynaptiX_FDK/components/gps/minmea.c ****     } while (0)
 113:SynaptiX_FDK/components/gps/minmea.c **** 
 114:SynaptiX_FDK/components/gps/minmea.c ****     while (*format) {
 451              		.loc 1 114 5 view .LVU124
  99:SynaptiX_FDK/components/gps/minmea.c **** #define next_field() \
 452              		.loc 1 99 17 is_stmt 0 view .LVU125
 453 0016 0546     		mov	r5, r0
  91:SynaptiX_FDK/components/gps/minmea.c **** 
 454              		.loc 1 91 10 view .LVU126
 455 0018 0027     		movs	r7, #0
 456              		.loc 1 114 11 view .LVU127
 457 001a 07E2     		b	.L43
 458              	.LVL53:
 459              	.L148:
 460              	.LBB4:
 115:SynaptiX_FDK/components/gps/minmea.c ****         char type = *format++;
 116:SynaptiX_FDK/components/gps/minmea.c **** 
 117:SynaptiX_FDK/components/gps/minmea.c ****         if (type == ';') {
 118:SynaptiX_FDK/components/gps/minmea.c ****             // All further fields are optional.
 119:SynaptiX_FDK/components/gps/minmea.c ****             optional = true;
 120:SynaptiX_FDK/components/gps/minmea.c ****             continue;
 121:SynaptiX_FDK/components/gps/minmea.c ****         }
 122:SynaptiX_FDK/components/gps/minmea.c **** 
 123:SynaptiX_FDK/components/gps/minmea.c ****         if (!field && !optional) {
 461              		.loc 1 123 20 discriminator 1 view .LVU128
 462 001c 002F     		cmp	r7, #0
 463 001e 40F00E82 		bne	.L45
 464              	.LBE4:
  90:SynaptiX_FDK/components/gps/minmea.c ****     bool optional = false;
 465              		.loc 1 90 10 view .LVU129
 466 0022 3846     		mov	r0, r7
 467 0024 7CE2     		b	.L42
 468              	.LVL54:
 469              	.L53:
 470              	.LBB40:
 471              	.LBB5:
 124:SynaptiX_FDK/components/gps/minmea.c ****             // Field requested but we ran out if input. Bail out.
 125:SynaptiX_FDK/components/gps/minmea.c ****             goto parse_error;
 126:SynaptiX_FDK/components/gps/minmea.c ****         }
 127:SynaptiX_FDK/components/gps/minmea.c **** 
 128:SynaptiX_FDK/components/gps/minmea.c ****         switch (type) {
 129:SynaptiX_FDK/components/gps/minmea.c ****             case 'c': { // Single character field (char).
 130:SynaptiX_FDK/components/gps/minmea.c ****                 char value = '\0';
 472              		.loc 1 130 17 is_stmt 1 view .LVU130
 131:SynaptiX_FDK/components/gps/minmea.c **** 
 132:SynaptiX_FDK/components/gps/minmea.c ****                 if (field && minmea_isfield(*field))
 473              		.loc 1 132 17 view .LVU131
 474              		.loc 1 132 20 is_stmt 0 view .LVU132
 475 0026 5DB1     		cbz	r5, .L103
 476              		.loc 1 132 30 discriminator 1 view .LVU133
ARM GAS  C:\Users\LENOVO\AppData\Local\Temp\cc57JGiB.s 			page 18


 477 0028 2D78     		ldrb	r5, [r5]	@ zero_extendqisi2
 478              	.LVL55:
 479              		.loc 1 132 30 discriminator 1 view .LVU134
 480 002a 2846     		mov	r0, r5
 481 002c FFF7FEFF 		bl	minmea_isfield
 482              	.LVL56:
 483              		.loc 1 132 27 discriminator 1 view .LVU135
 484 0030 00B9     		cbnz	r0, .L57
 130:SynaptiX_FDK/components/gps/minmea.c **** 
 485              		.loc 1 130 22 view .LVU136
 486 0032 0025     		movs	r5, #0
 487              	.L57:
 488              	.LVL57:
 133:SynaptiX_FDK/components/gps/minmea.c ****                     value = *field;
 134:SynaptiX_FDK/components/gps/minmea.c **** 
 135:SynaptiX_FDK/components/gps/minmea.c ****                 *va_arg(ap, char *) = value;
 489              		.loc 1 135 17 is_stmt 1 view .LVU137
 490              		.loc 1 135 18 is_stmt 0 view .LVU138
 491 0034 039B     		ldr	r3, [sp, #12]
 492 0036 1A1D     		adds	r2, r3, #4
 493 0038 0392     		str	r2, [sp, #12]
 494 003a 1B68     		ldr	r3, [r3]
 495              		.loc 1 135 37 discriminator 1 view .LVU139
 496 003c 1D70     		strb	r5, [r3]
 497              	.LBE5:
 136:SynaptiX_FDK/components/gps/minmea.c ****             } break;
 498              		.loc 1 136 15 is_stmt 1 view .LVU140
 499 003e ECE1     		b	.L96
 500              	.LVL58:
 501              	.L103:
 502              	.LBB6:
 130:SynaptiX_FDK/components/gps/minmea.c **** 
 503              		.loc 1 130 22 is_stmt 0 view .LVU141
 504 0040 0025     		movs	r5, #0
 505              	.LVL59:
 130:SynaptiX_FDK/components/gps/minmea.c **** 
 506              		.loc 1 130 22 view .LVU142
 507 0042 F7E7     		b	.L57
 508              	.LVL60:
 509              	.L52:
 130:SynaptiX_FDK/components/gps/minmea.c **** 
 510              		.loc 1 130 22 view .LVU143
 511              	.LBE6:
 512              	.LBB7:
 137:SynaptiX_FDK/components/gps/minmea.c **** 
 138:SynaptiX_FDK/components/gps/minmea.c ****             case 'd': { // Single character direction field (int).
 139:SynaptiX_FDK/components/gps/minmea.c ****                 int value = 0;
 513              		.loc 1 139 17 is_stmt 1 view .LVU144
 140:SynaptiX_FDK/components/gps/minmea.c **** 
 141:SynaptiX_FDK/components/gps/minmea.c ****                 if (field && minmea_isfield(*field)) {
 514              		.loc 1 141 17 view .LVU145
 515              		.loc 1 141 20 is_stmt 0 view .LVU146
 516 0044 FDB1     		cbz	r5, .L104
 517              		.loc 1 141 30 discriminator 1 view .LVU147
 518 0046 2D78     		ldrb	r5, [r5]	@ zero_extendqisi2
 519              	.LVL61:
 520              		.loc 1 141 30 discriminator 1 view .LVU148
ARM GAS  C:\Users\LENOVO\AppData\Local\Temp\cc57JGiB.s 			page 19


 521 0048 2846     		mov	r0, r5
 522 004a FFF7FEFF 		bl	minmea_isfield
 523              	.LVL62:
 524              		.loc 1 141 27 discriminator 1 view .LVU149
 525 004e E0B1     		cbz	r0, .L105
 142:SynaptiX_FDK/components/gps/minmea.c ****                     switch (*field) {
 526              		.loc 1 142 21 is_stmt 1 view .LVU150
 527 0050 453D     		subs	r5, r5, #69
 528 0052 122D     		cmp	r5, #18
 529 0054 00F26982 		bhi	.L106
 530 0058 DFE815F0 		tbh	[pc, r5, lsl #1]
 531              	.L59:
 532 005c 1300     		.2byte	(.L60-.L59)/2
 533 005e 6702     		.2byte	(.L106-.L59)/2
 534 0060 6702     		.2byte	(.L106-.L59)/2
 535 0062 6702     		.2byte	(.L106-.L59)/2
 536 0064 6702     		.2byte	(.L106-.L59)/2
 537 0066 6702     		.2byte	(.L106-.L59)/2
 538 0068 6702     		.2byte	(.L106-.L59)/2
 539 006a 6702     		.2byte	(.L106-.L59)/2
 540 006c 6702     		.2byte	(.L106-.L59)/2
 541 006e 1300     		.2byte	(.L60-.L59)/2
 542 0070 6702     		.2byte	(.L106-.L59)/2
 543 0072 6702     		.2byte	(.L106-.L59)/2
 544 0074 6702     		.2byte	(.L106-.L59)/2
 545 0076 6702     		.2byte	(.L106-.L59)/2
 546 0078 1E00     		.2byte	(.L107-.L59)/2
 547 007a 6702     		.2byte	(.L106-.L59)/2
 548 007c 6702     		.2byte	(.L106-.L59)/2
 549 007e 6702     		.2byte	(.L106-.L59)/2
 550 0080 1E00     		.2byte	(.L107-.L59)/2
 551              		.p2align 1
 552              	.L60:
 553 0082 0121     		movs	r1, #1
 554 0084 02E0     		b	.L58
 555              	.LVL63:
 556              	.L104:
 139:SynaptiX_FDK/components/gps/minmea.c **** 
 557              		.loc 1 139 21 is_stmt 0 view .LVU151
 558 0086 0021     		movs	r1, #0
 559 0088 00E0     		b	.L58
 560              	.LVL64:
 561              	.L105:
 139:SynaptiX_FDK/components/gps/minmea.c **** 
 562              		.loc 1 139 21 view .LVU152
 563 008a 0021     		movs	r1, #0
 564              	.L58:
 565              	.LVL65:
 143:SynaptiX_FDK/components/gps/minmea.c ****                         case 'N':
 144:SynaptiX_FDK/components/gps/minmea.c ****                         case 'E':
 145:SynaptiX_FDK/components/gps/minmea.c ****                             value = 1;
 146:SynaptiX_FDK/components/gps/minmea.c ****                             break;
 147:SynaptiX_FDK/components/gps/minmea.c ****                         case 'S':
 148:SynaptiX_FDK/components/gps/minmea.c ****                         case 'W':
 149:SynaptiX_FDK/components/gps/minmea.c ****                             value = -1;
 150:SynaptiX_FDK/components/gps/minmea.c ****                             break;
 151:SynaptiX_FDK/components/gps/minmea.c ****                         default:
ARM GAS  C:\Users\LENOVO\AppData\Local\Temp\cc57JGiB.s 			page 20


 152:SynaptiX_FDK/components/gps/minmea.c ****                             goto parse_error;
 153:SynaptiX_FDK/components/gps/minmea.c ****                     }
 154:SynaptiX_FDK/components/gps/minmea.c ****                 }
 155:SynaptiX_FDK/components/gps/minmea.c **** 
 156:SynaptiX_FDK/components/gps/minmea.c ****                 *va_arg(ap, int *) = value;
 566              		.loc 1 156 17 is_stmt 1 view .LVU153
 567              		.loc 1 156 18 is_stmt 0 view .LVU154
 568 008c 039B     		ldr	r3, [sp, #12]
 569 008e 1A1D     		adds	r2, r3, #4
 570 0090 0392     		str	r2, [sp, #12]
 571 0092 1B68     		ldr	r3, [r3]
 572              		.loc 1 156 36 discriminator 1 view .LVU155
 573 0094 1960     		str	r1, [r3]
 574              	.LBE7:
 157:SynaptiX_FDK/components/gps/minmea.c ****             } break;
 575              		.loc 1 157 15 is_stmt 1 view .LVU156
 576 0096 C0E1     		b	.L96
 577              	.LVL66:
 578              	.L107:
 579              	.LBB8:
 149:SynaptiX_FDK/components/gps/minmea.c ****                             break;
 580              		.loc 1 149 35 is_stmt 0 view .LVU157
 581 0098 4FF0FF31 		mov	r1, #-1
 582 009c F6E7     		b	.L58
 583              	.LVL67:
 584              	.L51:
 149:SynaptiX_FDK/components/gps/minmea.c ****                             break;
 585              		.loc 1 149 35 view .LVU158
 586              	.LBE8:
 587              	.LBB9:
 158:SynaptiX_FDK/components/gps/minmea.c **** 
 159:SynaptiX_FDK/components/gps/minmea.c ****             case 'f': { // Fractional value with scale (struct minmea_float).
 160:SynaptiX_FDK/components/gps/minmea.c ****                 int sign = 0;
 588              		.loc 1 160 17 is_stmt 1 view .LVU159
 161:SynaptiX_FDK/components/gps/minmea.c ****                 int_least32_t value = -1;
 589              		.loc 1 161 17 view .LVU160
 162:SynaptiX_FDK/components/gps/minmea.c ****                 int_least32_t scale = 0;
 590              		.loc 1 162 17 view .LVU161
 163:SynaptiX_FDK/components/gps/minmea.c **** 
 164:SynaptiX_FDK/components/gps/minmea.c ****                 if (field) {
 591              		.loc 1 164 17 view .LVU162
 592              		.loc 1 164 20 is_stmt 0 view .LVU163
 593 009e 002D     		cmp	r5, #0
 594 00a0 40F08680 		bne	.L108
 162:SynaptiX_FDK/components/gps/minmea.c ****                 int_least32_t scale = 0;
 595              		.loc 1 162 31 view .LVU164
 596 00a4 4FF0000A 		mov	r10, #0
 161:SynaptiX_FDK/components/gps/minmea.c ****                 int_least32_t scale = 0;
 597              		.loc 1 161 31 view .LVU165
 598 00a8 4FF0FF39 		mov	r9, #-1
 160:SynaptiX_FDK/components/gps/minmea.c ****                 int_least32_t value = -1;
 599              		.loc 1 160 21 view .LVU166
 600 00ac D346     		mov	fp, r10
 601              	.LVL68:
 602              	.L62:
 165:SynaptiX_FDK/components/gps/minmea.c ****                     while (minmea_isfield(*field)) {
 166:SynaptiX_FDK/components/gps/minmea.c ****                         if (*field == '+' && !sign && value == -1) {
ARM GAS  C:\Users\LENOVO\AppData\Local\Temp\cc57JGiB.s 			page 21


 167:SynaptiX_FDK/components/gps/minmea.c ****                             sign = 1;
 168:SynaptiX_FDK/components/gps/minmea.c ****                         } else if (*field == '-' && !sign && value == -1) {
 169:SynaptiX_FDK/components/gps/minmea.c ****                             sign = -1;
 170:SynaptiX_FDK/components/gps/minmea.c ****                         } else if (isdigit((unsigned char) *field)) {
 171:SynaptiX_FDK/components/gps/minmea.c ****                             int digit = *field - '0';
 172:SynaptiX_FDK/components/gps/minmea.c ****                             if (value == -1)
 173:SynaptiX_FDK/components/gps/minmea.c ****                                 value = 0;
 174:SynaptiX_FDK/components/gps/minmea.c ****                             if (value > (INT_LEAST32_MAX-digit) / 10) {
 175:SynaptiX_FDK/components/gps/minmea.c ****                                 /* we ran out of bits, what do we do? */
 176:SynaptiX_FDK/components/gps/minmea.c ****                                 if (scale) {
 177:SynaptiX_FDK/components/gps/minmea.c ****                                     /* truncate extra precision */
 178:SynaptiX_FDK/components/gps/minmea.c ****                                     break;
 179:SynaptiX_FDK/components/gps/minmea.c ****                                 } else {
 180:SynaptiX_FDK/components/gps/minmea.c ****                                     /* integer overflow. bail out. */
 181:SynaptiX_FDK/components/gps/minmea.c ****                                     goto parse_error;
 182:SynaptiX_FDK/components/gps/minmea.c ****                                 }
 183:SynaptiX_FDK/components/gps/minmea.c ****                             }
 184:SynaptiX_FDK/components/gps/minmea.c ****                             value = (10 * value) + digit;
 185:SynaptiX_FDK/components/gps/minmea.c ****                             if (scale)
 186:SynaptiX_FDK/components/gps/minmea.c ****                                 scale *= 10;
 187:SynaptiX_FDK/components/gps/minmea.c ****                         } else if (*field == '.' && scale == 0) {
 188:SynaptiX_FDK/components/gps/minmea.c ****                             scale = 1;
 189:SynaptiX_FDK/components/gps/minmea.c ****                         } else if (*field == ' ') {
 190:SynaptiX_FDK/components/gps/minmea.c ****                             /* Allow spaces at the start of the field. Not NMEA
 191:SynaptiX_FDK/components/gps/minmea.c ****                              * conformant, but some modules do this. */
 192:SynaptiX_FDK/components/gps/minmea.c ****                             if (sign != 0 || value != -1 || scale != 0)
 193:SynaptiX_FDK/components/gps/minmea.c ****                                 goto parse_error;
 194:SynaptiX_FDK/components/gps/minmea.c ****                         } else {
 195:SynaptiX_FDK/components/gps/minmea.c ****                             goto parse_error;
 196:SynaptiX_FDK/components/gps/minmea.c ****                         }
 197:SynaptiX_FDK/components/gps/minmea.c ****                         field++;
 198:SynaptiX_FDK/components/gps/minmea.c ****                     }
 199:SynaptiX_FDK/components/gps/minmea.c ****                 }
 200:SynaptiX_FDK/components/gps/minmea.c **** 
 201:SynaptiX_FDK/components/gps/minmea.c ****                 if ((sign || scale) && value == -1)
 603              		.loc 1 201 27 discriminator 2 view .LVU167
 604 00ae BAF1000F 		cmp	r10, #0
 605 00b2 00F08380 		beq	.L73
 606              	.L72:
 607              		.loc 1 201 37 discriminator 3 view .LVU168
 608 00b6 B9F1FF3F 		cmp	r9, #-1
 609 00ba 00F04082 		beq	.L132
 610              	.L74:
 202:SynaptiX_FDK/components/gps/minmea.c ****                     goto parse_error;
 203:SynaptiX_FDK/components/gps/minmea.c **** 
 204:SynaptiX_FDK/components/gps/minmea.c ****                 if (value == -1) {
 205:SynaptiX_FDK/components/gps/minmea.c ****                     /* No digits were scanned. */
 206:SynaptiX_FDK/components/gps/minmea.c ****                     value = 0;
 207:SynaptiX_FDK/components/gps/minmea.c ****                     scale = 0;
 208:SynaptiX_FDK/components/gps/minmea.c ****                 } else if (scale == 0) {
 611              		.loc 1 208 24 is_stmt 1 view .LVU169
 612              		.loc 1 208 27 is_stmt 0 view .LVU170
 613 00be BAF1000F 		cmp	r10, #0
 614 00c2 00F08180 		beq	.L119
 615              	.L75:
 616              	.LVL69:
 209:SynaptiX_FDK/components/gps/minmea.c ****                     /* No decimal point. */
ARM GAS  C:\Users\LENOVO\AppData\Local\Temp\cc57JGiB.s 			page 22


 210:SynaptiX_FDK/components/gps/minmea.c ****                     scale = 1;
 211:SynaptiX_FDK/components/gps/minmea.c ****                 }
 212:SynaptiX_FDK/components/gps/minmea.c ****                 if (sign)
 617              		.loc 1 212 17 is_stmt 1 view .LVU171
 618              		.loc 1 212 20 is_stmt 0 view .LVU172
 619 00c6 BBF1000F 		cmp	fp, #0
 620 00ca 01D0     		beq	.L76
 213:SynaptiX_FDK/components/gps/minmea.c ****                     value *= sign;
 621              		.loc 1 213 21 is_stmt 1 view .LVU173
 622              		.loc 1 213 27 is_stmt 0 view .LVU174
 623 00cc 0BFB09F9 		mul	r9, fp, r9
 624              	.LVL70:
 625              	.L76:
 214:SynaptiX_FDK/components/gps/minmea.c **** 
 215:SynaptiX_FDK/components/gps/minmea.c ****                 *va_arg(ap, struct minmea_float *) = (struct minmea_float) {value, scale};
 626              		.loc 1 215 17 is_stmt 1 view .LVU175
 627              		.loc 1 215 18 is_stmt 0 view .LVU176
 628 00d0 039B     		ldr	r3, [sp, #12]
 629 00d2 1A1D     		adds	r2, r3, #4
 630 00d4 0392     		str	r2, [sp, #12]
 631 00d6 1B68     		ldr	r3, [r3]
 632              		.loc 1 215 52 discriminator 1 view .LVU177
 633 00d8 C3F80090 		str	r9, [r3]
 634 00dc C3F804A0 		str	r10, [r3, #4]
 635              	.LBE9:
 216:SynaptiX_FDK/components/gps/minmea.c ****             } break;
 636              		.loc 1 216 15 is_stmt 1 view .LVU178
 637 00e0 9BE1     		b	.L96
 638              	.LVL71:
 639              	.L136:
 640              	.LBB12:
 166:SynaptiX_FDK/components/gps/minmea.c ****                             sign = 1;
 641              		.loc 1 166 43 is_stmt 0 discriminator 1 view .LVU179
 642 00e2 BBF1000F 		cmp	fp, #0
 643 00e6 37D1     		bne	.L63
 166:SynaptiX_FDK/components/gps/minmea.c ****                             sign = 1;
 644              		.loc 1 166 52 discriminator 2 view .LVU180
 645 00e8 B9F1FF3F 		cmp	r9, #-1
 646 00ec 34D1     		bne	.L63
 167:SynaptiX_FDK/components/gps/minmea.c ****                         } else if (*field == '-' && !sign && value == -1) {
 647              		.loc 1 167 34 view .LVU181
 648 00ee 4FF0010B 		mov	fp, #1
 649              	.LVL72:
 167:SynaptiX_FDK/components/gps/minmea.c ****                         } else if (*field == '-' && !sign && value == -1) {
 650              		.loc 1 167 34 view .LVU182
 651 00f2 26E0     		b	.L64
 652              	.LVL73:
 653              	.L137:
 168:SynaptiX_FDK/components/gps/minmea.c ****                             sign = -1;
 654              		.loc 1 168 50 discriminator 1 view .LVU183
 655 00f4 BBF1000F 		cmp	fp, #0
 656 00f8 31D1     		bne	.L65
 168:SynaptiX_FDK/components/gps/minmea.c ****                             sign = -1;
 657              		.loc 1 168 59 discriminator 2 view .LVU184
 658 00fa B9F1FF3F 		cmp	r9, #-1
 659 00fe 2ED1     		bne	.L65
 169:SynaptiX_FDK/components/gps/minmea.c ****                         } else if (isdigit((unsigned char) *field)) {
ARM GAS  C:\Users\LENOVO\AppData\Local\Temp\cc57JGiB.s 			page 23


 660              		.loc 1 169 34 view .LVU185
 661 0100 CB46     		mov	fp, r9
 662              	.LVL74:
 169:SynaptiX_FDK/components/gps/minmea.c ****                         } else if (isdigit((unsigned char) *field)) {
 663              		.loc 1 169 34 view .LVU186
 664 0102 1EE0     		b	.L64
 665              	.LVL75:
 666              	.L138:
 667              	.LBB10:
 173:SynaptiX_FDK/components/gps/minmea.c ****                             if (value > (INT_LEAST32_MAX-digit) / 10) {
 668              		.loc 1 173 39 view .LVU187
 669 0104 4FF00009 		mov	r9, #0
 670              	.LVL76:
 173:SynaptiX_FDK/components/gps/minmea.c ****                             if (value > (INT_LEAST32_MAX-digit) / 10) {
 671              		.loc 1 173 39 view .LVU188
 672 0108 34E0     		b	.L67
 673              	.LVL77:
 674              	.L139:
 176:SynaptiX_FDK/components/gps/minmea.c ****                                     /* truncate extra precision */
 675              		.loc 1 176 33 is_stmt 1 view .LVU189
 176:SynaptiX_FDK/components/gps/minmea.c ****                                     /* truncate extra precision */
 676              		.loc 1 176 36 is_stmt 0 view .LVU190
 677 010a BAF1000F 		cmp	r10, #0
 678 010e 03D0     		beq	.L133
 679              	.LVL78:
 680              	.L69:
 176:SynaptiX_FDK/components/gps/minmea.c ****                                     /* truncate extra precision */
 681              		.loc 1 176 36 view .LVU191
 682              	.LBE10:
 201:SynaptiX_FDK/components/gps/minmea.c ****                     goto parse_error;
 683              		.loc 1 201 17 is_stmt 1 view .LVU192
 201:SynaptiX_FDK/components/gps/minmea.c ****                     goto parse_error;
 684              		.loc 1 201 20 is_stmt 0 view .LVU193
 685 0110 BBF1000F 		cmp	fp, #0
 686 0114 CBD0     		beq	.L62
 201:SynaptiX_FDK/components/gps/minmea.c ****                     goto parse_error;
 687              		.loc 1 201 20 view .LVU194
 688 0116 CEE7     		b	.L72
 689              	.LVL79:
 690              	.L133:
 201:SynaptiX_FDK/components/gps/minmea.c ****                     goto parse_error;
 691              		.loc 1 201 20 view .LVU195
 692              	.LBE12:
 693              	.LBE40:
  90:SynaptiX_FDK/components/gps/minmea.c ****     bool optional = false;
 694              		.loc 1 90 10 view .LVU196
 695 0118 0020     		movs	r0, #0
 696 011a 01E2     		b	.L42
 697              	.LVL80:
 698              	.L66:
 699              	.LBB41:
 700              	.LBB13:
 187:SynaptiX_FDK/components/gps/minmea.c ****                             scale = 1;
 701              		.loc 1 187 32 is_stmt 1 view .LVU197
 187:SynaptiX_FDK/components/gps/minmea.c ****                             scale = 1;
 702              		.loc 1 187 35 is_stmt 0 view .LVU198
 703 011c B8F12E0F 		cmp	r8, #46
ARM GAS  C:\Users\LENOVO\AppData\Local\Temp\cc57JGiB.s 			page 24


 704 0120 40D0     		beq	.L134
 705              	.L70:
 189:SynaptiX_FDK/components/gps/minmea.c ****                             /* Allow spaces at the start of the field. Not NMEA
 706              		.loc 1 189 32 is_stmt 1 view .LVU199
 189:SynaptiX_FDK/components/gps/minmea.c ****                             /* Allow spaces at the start of the field. Not NMEA
 707              		.loc 1 189 35 is_stmt 0 view .LVU200
 708 0122 B8F1200F 		cmp	r8, #32
 709 0126 40F00282 		bne	.L113
 192:SynaptiX_FDK/components/gps/minmea.c ****                                 goto parse_error;
 710              		.loc 1 192 29 is_stmt 1 view .LVU201
 192:SynaptiX_FDK/components/gps/minmea.c ****                                 goto parse_error;
 711              		.loc 1 192 32 is_stmt 0 view .LVU202
 712 012a BBF1000F 		cmp	fp, #0
 713 012e 40F00082 		bne	.L114
 192:SynaptiX_FDK/components/gps/minmea.c ****                                 goto parse_error;
 714              		.loc 1 192 43 discriminator 1 view .LVU203
 715 0132 B9F1FF3F 		cmp	r9, #-1
 716 0136 40F0FE81 		bne	.L115
 192:SynaptiX_FDK/components/gps/minmea.c ****                                 goto parse_error;
 717              		.loc 1 192 58 discriminator 2 view .LVU204
 718 013a BAF1000F 		cmp	r10, #0
 719 013e 40F0FC81 		bne	.L135
 720              	.LVL81:
 721              	.L64:
 197:SynaptiX_FDK/components/gps/minmea.c ****                     }
 722              		.loc 1 197 25 is_stmt 1 view .LVU205
 197:SynaptiX_FDK/components/gps/minmea.c ****                     }
 723              		.loc 1 197 30 is_stmt 0 view .LVU206
 724 0142 0135     		adds	r5, r5, #1
 725              	.LVL82:
 726              	.L61:
 165:SynaptiX_FDK/components/gps/minmea.c ****                         if (*field == '+' && !sign && value == -1) {
 727              		.loc 1 165 28 is_stmt 1 view .LVU207
 728 0144 95F80080 		ldrb	r8, [r5]	@ zero_extendqisi2
 729 0148 4046     		mov	r0, r8
 730 014a FFF7FEFF 		bl	minmea_isfield
 731              	.LVL83:
 165:SynaptiX_FDK/components/gps/minmea.c ****                         if (*field == '+' && !sign && value == -1) {
 732              		.loc 1 165 28 is_stmt 0 discriminator 1 view .LVU208
 733 014e 0028     		cmp	r0, #0
 734 0150 DED0     		beq	.L69
 166:SynaptiX_FDK/components/gps/minmea.c ****                             sign = 1;
 735              		.loc 1 166 25 is_stmt 1 view .LVU209
 166:SynaptiX_FDK/components/gps/minmea.c ****                             sign = 1;
 736              		.loc 1 166 28 is_stmt 0 view .LVU210
 737 0152 B8F12B0F 		cmp	r8, #43
 738 0156 C4D0     		beq	.L136
 739              	.L63:
 168:SynaptiX_FDK/components/gps/minmea.c ****                             sign = -1;
 740              		.loc 1 168 32 is_stmt 1 view .LVU211
 168:SynaptiX_FDK/components/gps/minmea.c ****                             sign = -1;
 741              		.loc 1 168 35 is_stmt 0 view .LVU212
 742 0158 B8F12D0F 		cmp	r8, #45
 743 015c CAD0     		beq	.L137
 744              	.L65:
 170:SynaptiX_FDK/components/gps/minmea.c ****                             int digit = *field - '0';
 745              		.loc 1 170 32 is_stmt 1 view .LVU213
ARM GAS  C:\Users\LENOVO\AppData\Local\Temp\cc57JGiB.s 			page 25


 170:SynaptiX_FDK/components/gps/minmea.c ****                             int digit = *field - '0';
 746              		.loc 1 170 36 is_stmt 0 view .LVU214
 747 015e AA4B     		ldr	r3, .L149
 748 0160 13F80830 		ldrb	r3, [r3, r8]	@ zero_extendqisi2
 170:SynaptiX_FDK/components/gps/minmea.c ****                             int digit = *field - '0';
 749              		.loc 1 170 35 view .LVU215
 750 0164 13F0040F 		tst	r3, #4
 751 0168 D8D0     		beq	.L66
 752              	.LBB11:
 171:SynaptiX_FDK/components/gps/minmea.c ****                             if (value == -1)
 753              		.loc 1 171 29 is_stmt 1 view .LVU216
 171:SynaptiX_FDK/components/gps/minmea.c ****                             if (value == -1)
 754              		.loc 1 171 33 is_stmt 0 view .LVU217
 755 016a A8F13008 		sub	r8, r8, #48
 756              	.LVL84:
 172:SynaptiX_FDK/components/gps/minmea.c ****                                 value = 0;
 757              		.loc 1 172 29 is_stmt 1 view .LVU218
 172:SynaptiX_FDK/components/gps/minmea.c ****                                 value = 0;
 758              		.loc 1 172 32 is_stmt 0 view .LVU219
 759 016e B9F1FF3F 		cmp	r9, #-1
 760 0172 C7D0     		beq	.L138
 761              	.LVL85:
 762              	.L67:
 174:SynaptiX_FDK/components/gps/minmea.c ****                                 /* we ran out of bits, what do we do? */
 763              		.loc 1 174 29 is_stmt 1 view .LVU220
 174:SynaptiX_FDK/components/gps/minmea.c ****                                 /* we ran out of bits, what do we do? */
 764              		.loc 1 174 57 is_stmt 0 view .LVU221
 765 0174 6FF00043 		mvn	r3, #-2147483648
 766 0178 A3EB0803 		sub	r3, r3, r8
 174:SynaptiX_FDK/components/gps/minmea.c ****                                 /* we ran out of bits, what do we do? */
 767              		.loc 1 174 65 view .LVU222
 768 017c A34A     		ldr	r2, .L149+4
 769 017e 82FB0312 		smull	r1, r2, r2, r3
 770 0182 DB17     		asrs	r3, r3, #31
 771 0184 C3EBA203 		rsb	r3, r3, r2, asr #2
 174:SynaptiX_FDK/components/gps/minmea.c ****                                 /* we ran out of bits, what do we do? */
 772              		.loc 1 174 32 view .LVU223
 773 0188 4B45     		cmp	r3, r9
 774 018a BEDB     		blt	.L139
 184:SynaptiX_FDK/components/gps/minmea.c ****                             if (scale)
 775              		.loc 1 184 29 is_stmt 1 view .LVU224
 184:SynaptiX_FDK/components/gps/minmea.c ****                             if (scale)
 776              		.loc 1 184 41 is_stmt 0 view .LVU225
 777 018c 09EB8909 		add	r9, r9, r9, lsl #2
 778              	.LVL86:
 184:SynaptiX_FDK/components/gps/minmea.c ****                             if (scale)
 779              		.loc 1 184 35 view .LVU226
 780 0190 08EB4909 		add	r9, r8, r9, lsl #1
 781              	.LVL87:
 185:SynaptiX_FDK/components/gps/minmea.c ****                                 scale *= 10;
 782              		.loc 1 185 29 is_stmt 1 view .LVU227
 185:SynaptiX_FDK/components/gps/minmea.c ****                                 scale *= 10;
 783              		.loc 1 185 32 is_stmt 0 view .LVU228
 784 0194 BAF1000F 		cmp	r10, #0
 785 0198 D3D0     		beq	.L64
 186:SynaptiX_FDK/components/gps/minmea.c ****                         } else if (*field == '.' && scale == 0) {
 786              		.loc 1 186 33 is_stmt 1 view .LVU229
ARM GAS  C:\Users\LENOVO\AppData\Local\Temp\cc57JGiB.s 			page 26


 186:SynaptiX_FDK/components/gps/minmea.c ****                         } else if (*field == '.' && scale == 0) {
 787              		.loc 1 186 39 is_stmt 0 view .LVU230
 788 019a 0AEB8A0A 		add	r10, r10, r10, lsl #2
 789              	.LVL88:
 186:SynaptiX_FDK/components/gps/minmea.c ****                         } else if (*field == '.' && scale == 0) {
 790              		.loc 1 186 39 view .LVU231
 791 019e 4FEA4A0A 		lsl	r10, r10, #1
 792              	.LVL89:
 186:SynaptiX_FDK/components/gps/minmea.c ****                         } else if (*field == '.' && scale == 0) {
 793              		.loc 1 186 39 view .LVU232
 794 01a2 CEE7     		b	.L64
 795              	.LVL90:
 796              	.L134:
 186:SynaptiX_FDK/components/gps/minmea.c ****                         } else if (*field == '.' && scale == 0) {
 797              		.loc 1 186 39 view .LVU233
 798              	.LBE11:
 187:SynaptiX_FDK/components/gps/minmea.c ****                             scale = 1;
 799              		.loc 1 187 50 discriminator 1 view .LVU234
 800 01a4 BAF1000F 		cmp	r10, #0
 801 01a8 BBD1     		bne	.L70
 188:SynaptiX_FDK/components/gps/minmea.c ****                         } else if (*field == ' ') {
 802              		.loc 1 188 35 view .LVU235
 803 01aa 4FF0010A 		mov	r10, #1
 804              	.LVL91:
 188:SynaptiX_FDK/components/gps/minmea.c ****                         } else if (*field == ' ') {
 805              		.loc 1 188 35 view .LVU236
 806 01ae C8E7     		b	.L64
 807              	.LVL92:
 808              	.L108:
 162:SynaptiX_FDK/components/gps/minmea.c **** 
 809              		.loc 1 162 31 view .LVU237
 810 01b0 4FF0000A 		mov	r10, #0
 161:SynaptiX_FDK/components/gps/minmea.c ****                 int_least32_t scale = 0;
 811              		.loc 1 161 31 view .LVU238
 812 01b4 4FF0FF39 		mov	r9, #-1
 160:SynaptiX_FDK/components/gps/minmea.c ****                 int_least32_t value = -1;
 813              		.loc 1 160 21 view .LVU239
 814 01b8 D346     		mov	fp, r10
 815 01ba C3E7     		b	.L61
 816              	.LVL93:
 817              	.L73:
 204:SynaptiX_FDK/components/gps/minmea.c ****                     /* No digits were scanned. */
 818              		.loc 1 204 17 is_stmt 1 view .LVU240
 204:SynaptiX_FDK/components/gps/minmea.c ****                     /* No digits were scanned. */
 819              		.loc 1 204 20 is_stmt 0 view .LVU241
 820 01bc B9F1FF3F 		cmp	r9, #-1
 821 01c0 7FF47DAF 		bne	.L74
 206:SynaptiX_FDK/components/gps/minmea.c ****                     scale = 0;
 822              		.loc 1 206 27 view .LVU242
 823 01c4 D146     		mov	r9, r10
 824 01c6 7EE7     		b	.L75
 825              	.L119:
 210:SynaptiX_FDK/components/gps/minmea.c ****                 }
 826              		.loc 1 210 27 view .LVU243
 827 01c8 4FF0010A 		mov	r10, #1
 828 01cc 7BE7     		b	.L75
 829              	.LVL94:
ARM GAS  C:\Users\LENOVO\AppData\Local\Temp\cc57JGiB.s 			page 27


 830              	.L50:
 210:SynaptiX_FDK/components/gps/minmea.c ****                 }
 831              		.loc 1 210 27 view .LVU244
 832              	.LBE13:
 833              	.LBB14:
 217:SynaptiX_FDK/components/gps/minmea.c **** 
 218:SynaptiX_FDK/components/gps/minmea.c ****             case 'i': { // Integer value, default 0 (int).
 219:SynaptiX_FDK/components/gps/minmea.c ****                 int value = 0;
 834              		.loc 1 219 17 is_stmt 1 view .LVU245
 220:SynaptiX_FDK/components/gps/minmea.c **** 
 221:SynaptiX_FDK/components/gps/minmea.c ****                 if (field) {
 835              		.loc 1 221 17 view .LVU246
 836              		.loc 1 221 20 is_stmt 0 view .LVU247
 837 01ce 95B1     		cbz	r5, .L120
 838              	.LBB15:
 222:SynaptiX_FDK/components/gps/minmea.c ****                     char *endptr;
 839              		.loc 1 222 21 is_stmt 1 view .LVU248
 223:SynaptiX_FDK/components/gps/minmea.c ****                     value = strtol(field, &endptr, 10);
 840              		.loc 1 223 21 view .LVU249
 841              		.loc 1 223 29 is_stmt 0 view .LVU250
 842 01d0 0A22     		movs	r2, #10
 843 01d2 02A9     		add	r1, sp, #8
 844 01d4 2846     		mov	r0, r5
 845 01d6 FFF7FEFF 		bl	strtol
 846              	.LVL95:
 847              		.loc 1 223 29 view .LVU251
 848 01da 0546     		mov	r5, r0
 849              	.LVL96:
 224:SynaptiX_FDK/components/gps/minmea.c ****                     if (minmea_isfield(*endptr))
 850              		.loc 1 224 21 is_stmt 1 view .LVU252
 851              		.loc 1 224 25 is_stmt 0 view .LVU253
 852 01dc 029B     		ldr	r3, [sp, #8]
 853 01de 1878     		ldrb	r0, [r3]	@ zero_extendqisi2
 854              	.LVL97:
 855              		.loc 1 224 25 view .LVU254
 856 01e0 FFF7FEFF 		bl	minmea_isfield
 857              	.LVL98:
 858              		.loc 1 224 24 discriminator 1 view .LVU255
 859 01e4 28B9     		cbnz	r0, .L140
 860              	.LVL99:
 861              	.L77:
 862              		.loc 1 224 24 discriminator 1 view .LVU256
 863              	.LBE15:
 225:SynaptiX_FDK/components/gps/minmea.c ****                         goto parse_error;
 226:SynaptiX_FDK/components/gps/minmea.c ****                 }
 227:SynaptiX_FDK/components/gps/minmea.c **** 
 228:SynaptiX_FDK/components/gps/minmea.c ****                 *va_arg(ap, int *) = value;
 864              		.loc 1 228 17 is_stmt 1 view .LVU257
 865              		.loc 1 228 18 is_stmt 0 view .LVU258
 866 01e6 039B     		ldr	r3, [sp, #12]
 867 01e8 1A1D     		adds	r2, r3, #4
 868 01ea 0392     		str	r2, [sp, #12]
 869 01ec 1B68     		ldr	r3, [r3]
 870              		.loc 1 228 36 discriminator 1 view .LVU259
 871 01ee 1D60     		str	r5, [r3]
 872              	.LBE14:
 229:SynaptiX_FDK/components/gps/minmea.c ****             } break;
ARM GAS  C:\Users\LENOVO\AppData\Local\Temp\cc57JGiB.s 			page 28


 873              		.loc 1 229 15 is_stmt 1 view .LVU260
 874 01f0 13E1     		b	.L96
 875              	.L140:
 876              	.LBB17:
 877              	.LBB16:
 225:SynaptiX_FDK/components/gps/minmea.c ****                         goto parse_error;
 878              		.loc 1 225 25 view .LVU261
 879              	.LBE16:
 880              	.LBE17:
 881              	.LBE41:
  90:SynaptiX_FDK/components/gps/minmea.c ****     bool optional = false;
 882              		.loc 1 90 10 is_stmt 0 view .LVU262
 883 01f2 0020     		movs	r0, #0
 884 01f4 94E1     		b	.L42
 885              	.LVL100:
 886              	.L120:
 887              	.LBB42:
 888              	.LBB18:
 219:SynaptiX_FDK/components/gps/minmea.c **** 
 889              		.loc 1 219 21 view .LVU263
 890 01f6 0025     		movs	r5, #0
 891              	.LVL101:
 219:SynaptiX_FDK/components/gps/minmea.c **** 
 892              		.loc 1 219 21 view .LVU264
 893 01f8 F5E7     		b	.L77
 894              	.LVL102:
 895              	.L49:
 219:SynaptiX_FDK/components/gps/minmea.c **** 
 896              		.loc 1 219 21 view .LVU265
 897              	.LBE18:
 898              	.LBB19:
 230:SynaptiX_FDK/components/gps/minmea.c **** 
 231:SynaptiX_FDK/components/gps/minmea.c ****             case 's': { // String value (char *).
 232:SynaptiX_FDK/components/gps/minmea.c ****                 char *buf = va_arg(ap, char *);
 899              		.loc 1 232 17 is_stmt 1 view .LVU266
 900              		.loc 1 232 23 is_stmt 0 view .LVU267
 901 01fa 039B     		ldr	r3, [sp, #12]
 902              	.LVL103:
 903              		.loc 1 232 23 view .LVU268
 904 01fc 1A1D     		adds	r2, r3, #4
 905 01fe 0392     		str	r2, [sp, #12]
 906              	.LVL104:
 907              		.loc 1 232 23 view .LVU269
 908 0200 D3F80080 		ldr	r8, [r3]
 233:SynaptiX_FDK/components/gps/minmea.c **** 
 234:SynaptiX_FDK/components/gps/minmea.c ****                 if (field) {
 909              		.loc 1 234 17 is_stmt 1 view .LVU270
 910              		.loc 1 234 20 is_stmt 0 view .LVU271
 911 0204 45B9     		cbnz	r5, .L79
 912              	.L80:
 913              	.LVL105:
 235:SynaptiX_FDK/components/gps/minmea.c ****                     while (minmea_isfield(*field))
 236:SynaptiX_FDK/components/gps/minmea.c ****                         *buf++ = *field++;
 237:SynaptiX_FDK/components/gps/minmea.c ****                 }
 238:SynaptiX_FDK/components/gps/minmea.c **** 
 239:SynaptiX_FDK/components/gps/minmea.c ****                 *buf = '\0';
 914              		.loc 1 239 17 is_stmt 1 view .LVU272
ARM GAS  C:\Users\LENOVO\AppData\Local\Temp\cc57JGiB.s 			page 29


 915              		.loc 1 239 22 is_stmt 0 view .LVU273
 916 0206 0023     		movs	r3, #0
 917 0208 88F80030 		strb	r3, [r8]
 918              	.LBE19:
 240:SynaptiX_FDK/components/gps/minmea.c ****             } break;
 919              		.loc 1 240 15 is_stmt 1 view .LVU274
 920 020c 05E1     		b	.L96
 921              	.L81:
 922              	.LBB20:
 236:SynaptiX_FDK/components/gps/minmea.c ****                 }
 923              		.loc 1 236 25 view .LVU275
 236:SynaptiX_FDK/components/gps/minmea.c ****                 }
 924              		.loc 1 236 40 is_stmt 0 view .LVU276
 925 020e 0135     		adds	r5, r5, #1
 926              	.LVL106:
 236:SynaptiX_FDK/components/gps/minmea.c ****                 }
 927              		.loc 1 236 29 view .LVU277
 928 0210 4346     		mov	r3, r8
 929              	.LVL107:
 236:SynaptiX_FDK/components/gps/minmea.c ****                 }
 930              		.loc 1 236 32 view .LVU278
 931 0212 03F8019B 		strb	r9, [r3], #1
 932              	.LVL108:
 236:SynaptiX_FDK/components/gps/minmea.c ****                 }
 933              		.loc 1 236 29 view .LVU279
 934 0216 9846     		mov	r8, r3
 935              	.LVL109:
 936              	.L79:
 235:SynaptiX_FDK/components/gps/minmea.c ****                     while (minmea_isfield(*field))
 937              		.loc 1 235 28 is_stmt 1 view .LVU280
 938 0218 95F80090 		ldrb	r9, [r5]	@ zero_extendqisi2
 939 021c 4846     		mov	r0, r9
 940 021e FFF7FEFF 		bl	minmea_isfield
 941              	.LVL110:
 235:SynaptiX_FDK/components/gps/minmea.c ****                     while (minmea_isfield(*field))
 942              		.loc 1 235 28 is_stmt 0 discriminator 1 view .LVU281
 943 0222 0028     		cmp	r0, #0
 944 0224 F3D1     		bne	.L81
 235:SynaptiX_FDK/components/gps/minmea.c ****                     while (minmea_isfield(*field))
 945              		.loc 1 235 28 discriminator 1 view .LVU282
 946 0226 EEE7     		b	.L80
 947              	.LVL111:
 948              	.L47:
 235:SynaptiX_FDK/components/gps/minmea.c ****                     while (minmea_isfield(*field))
 949              		.loc 1 235 28 discriminator 1 view .LVU283
 950              	.LBE20:
 951              	.LBB21:
 241:SynaptiX_FDK/components/gps/minmea.c **** 
 242:SynaptiX_FDK/components/gps/minmea.c ****             case 't': { // NMEA talker identifier and type (union minmea_type *).
 243:SynaptiX_FDK/components/gps/minmea.c ****                 // This field is always mandatory.
 244:SynaptiX_FDK/components/gps/minmea.c ****                 if (!field)
 952              		.loc 1 244 17 is_stmt 1 view .LVU284
 953              		.loc 1 244 20 is_stmt 0 view .LVU285
 954 0228 002D     		cmp	r5, #0
 955 022a 00F08A81 		beq	.L121
 245:SynaptiX_FDK/components/gps/minmea.c ****                     goto parse_error;
 246:SynaptiX_FDK/components/gps/minmea.c **** 
ARM GAS  C:\Users\LENOVO\AppData\Local\Temp\cc57JGiB.s 			page 30


 247:SynaptiX_FDK/components/gps/minmea.c ****                 if (field[0] != '$')
 956              		.loc 1 247 17 is_stmt 1 view .LVU286
 957              		.loc 1 247 26 is_stmt 0 view .LVU287
 958 022e 2B78     		ldrb	r3, [r5]	@ zero_extendqisi2
 959              	.LVL112:
 960              		.loc 1 247 20 view .LVU288
 961 0230 242B     		cmp	r3, #36
 962 0232 40F08881 		bne	.L122
 963              	.LBB22:
 248:SynaptiX_FDK/components/gps/minmea.c ****                     goto parse_error;
 249:SynaptiX_FDK/components/gps/minmea.c ****                 for (int f=0; f<5; f++)
 964              		.loc 1 249 26 view .LVU289
 965 0236 4FF00008 		mov	r8, #0
 966              	.LVL113:
 967              	.L82:
 968              		.loc 1 249 32 is_stmt 1 discriminator 1 view .LVU290
 969 023a B8F1040F 		cmp	r8, #4
 970 023e 08DC     		bgt	.L141
 250:SynaptiX_FDK/components/gps/minmea.c ****                     if (!minmea_isfield(field[1+f]))
 971              		.loc 1 250 21 view .LVU291
 972              		.loc 1 250 48 is_stmt 0 view .LVU292
 973 0240 08F10108 		add	r8, r8, #1
 974              	.LVL114:
 975              		.loc 1 250 26 view .LVU293
 976 0244 15F80800 		ldrb	r0, [r5, r8]	@ zero_extendqisi2
 977 0248 FFF7FEFF 		bl	minmea_isfield
 978              	.LVL115:
 979              		.loc 1 250 24 discriminator 1 view .LVU294
 980 024c 0028     		cmp	r0, #0
 981 024e F4D1     		bne	.L82
 982 0250 66E1     		b	.L42
 983              	.LVL116:
 984              	.L141:
 985              		.loc 1 250 24 discriminator 1 view .LVU295
 986              	.LBE22:
 251:SynaptiX_FDK/components/gps/minmea.c ****                         goto parse_error;
 252:SynaptiX_FDK/components/gps/minmea.c **** 
 253:SynaptiX_FDK/components/gps/minmea.c ****                 union minmea_type *buf = va_arg(ap, union minmea_type *);
 987              		.loc 1 253 17 is_stmt 1 view .LVU296
 988              		.loc 1 253 36 is_stmt 0 view .LVU297
 989 0252 039B     		ldr	r3, [sp, #12]
 990 0254 1A1D     		adds	r2, r3, #4
 991 0256 0392     		str	r2, [sp, #12]
 992 0258 1B68     		ldr	r3, [r3]
 254:SynaptiX_FDK/components/gps/minmea.c ****                 memcpy(buf, field+1, (sizeof(*buf) - sizeof(buf->null_terminator)));
 993              		.loc 1 254 17 is_stmt 1 view .LVU298
 994 025a D5F80120 		ldr	r2, [r5, #1]	@ unaligned
 995 025e 1A60     		str	r2, [r3]	@ unaligned
 996 0260 6A79     		ldrb	r2, [r5, #5]	@ zero_extendqisi2
 997 0262 1A71     		strb	r2, [r3, #4]
 255:SynaptiX_FDK/components/gps/minmea.c ****                 buf->null_terminator = '\0';
 998              		.loc 1 255 17 view .LVU299
 999              		.loc 1 255 38 is_stmt 0 view .LVU300
 1000 0264 0022     		movs	r2, #0
 1001 0266 5A71     		strb	r2, [r3, #5]
 1002              	.LBE21:
 256:SynaptiX_FDK/components/gps/minmea.c ****             } break;
ARM GAS  C:\Users\LENOVO\AppData\Local\Temp\cc57JGiB.s 			page 31


 1003              		.loc 1 256 15 is_stmt 1 view .LVU301
 1004 0268 D7E0     		b	.L96
 1005              	.LVL117:
 1006              	.L56:
 1007              	.LBB23:
 257:SynaptiX_FDK/components/gps/minmea.c **** 
 258:SynaptiX_FDK/components/gps/minmea.c ****             case 'D': { // Date (int, int, int), -1 if empty.
 259:SynaptiX_FDK/components/gps/minmea.c ****                 struct minmea_date *date = va_arg(ap, struct minmea_date *);
 1008              		.loc 1 259 17 view .LVU302
 1009              		.loc 1 259 37 is_stmt 0 view .LVU303
 1010 026a 039B     		ldr	r3, [sp, #12]
 1011              	.LVL118:
 1012              		.loc 1 259 37 view .LVU304
 1013 026c 1A1D     		adds	r2, r3, #4
 1014 026e 0392     		str	r2, [sp, #12]
 1015              	.LVL119:
 1016              		.loc 1 259 37 view .LVU305
 1017 0270 D3F80080 		ldr	r8, [r3]
 260:SynaptiX_FDK/components/gps/minmea.c **** 
 261:SynaptiX_FDK/components/gps/minmea.c ****                 int d = -1, m = -1, y = -1;
 1018              		.loc 1 261 17 is_stmt 1 view .LVU306
 1019              	.LVL120:
 262:SynaptiX_FDK/components/gps/minmea.c **** 
 263:SynaptiX_FDK/components/gps/minmea.c ****                 if (field && minmea_isfield(*field)) {
 1020              		.loc 1 263 17 view .LVU307
 1021              		.loc 1 263 20 is_stmt 0 view .LVU308
 1022 0274 002D     		cmp	r5, #0
 1023 0276 48D0     		beq	.L123
 1024              		.loc 1 263 30 discriminator 1 view .LVU309
 1025 0278 95F80090 		ldrb	r9, [r5]	@ zero_extendqisi2
 1026 027c 4846     		mov	r0, r9
 1027 027e FFF7FEFF 		bl	minmea_isfield
 1028              	.LVL121:
 1029              		.loc 1 263 27 discriminator 1 view .LVU310
 1030 0282 60B9     		cbnz	r0, .L124
 261:SynaptiX_FDK/components/gps/minmea.c **** 
 1031              		.loc 1 261 37 view .LVU311
 1032 0284 4FF0FF30 		mov	r0, #-1
 261:SynaptiX_FDK/components/gps/minmea.c **** 
 1033              		.loc 1 261 29 view .LVU312
 1034 0288 0546     		mov	r5, r0
 1035              	.LVL122:
 261:SynaptiX_FDK/components/gps/minmea.c **** 
 1036              		.loc 1 261 21 view .LVU313
 1037 028a 8146     		mov	r9, r0
 1038              	.LVL123:
 1039              	.L84:
 264:SynaptiX_FDK/components/gps/minmea.c ****                     // Always six digits.
 265:SynaptiX_FDK/components/gps/minmea.c ****                     for (int f=0; f<6; f++)
 266:SynaptiX_FDK/components/gps/minmea.c ****                         if (!isdigit((unsigned char) field[f]))
 267:SynaptiX_FDK/components/gps/minmea.c ****                             goto parse_error;
 268:SynaptiX_FDK/components/gps/minmea.c **** 
 269:SynaptiX_FDK/components/gps/minmea.c ****                     char dArr[] = {field[0], field[1], '\0'};
 270:SynaptiX_FDK/components/gps/minmea.c ****                     char mArr[] = {field[2], field[3], '\0'};
 271:SynaptiX_FDK/components/gps/minmea.c ****                     char yArr[] = {field[4], field[5], '\0'};
 272:SynaptiX_FDK/components/gps/minmea.c ****                     d = strtol(dArr, NULL, 10);
 273:SynaptiX_FDK/components/gps/minmea.c ****                     m = strtol(mArr, NULL, 10);
ARM GAS  C:\Users\LENOVO\AppData\Local\Temp\cc57JGiB.s 			page 32


 274:SynaptiX_FDK/components/gps/minmea.c ****                     y = strtol(yArr, NULL, 10);
 275:SynaptiX_FDK/components/gps/minmea.c ****                 }
 276:SynaptiX_FDK/components/gps/minmea.c **** 
 277:SynaptiX_FDK/components/gps/minmea.c ****                 date->day = d;
 1040              		.loc 1 277 17 is_stmt 1 view .LVU314
 1041              		.loc 1 277 27 is_stmt 0 view .LVU315
 1042 028c C8F80090 		str	r9, [r8]
 278:SynaptiX_FDK/components/gps/minmea.c ****                 date->month = m;
 1043              		.loc 1 278 17 is_stmt 1 view .LVU316
 1044              		.loc 1 278 29 is_stmt 0 view .LVU317
 1045 0290 C8F80450 		str	r5, [r8, #4]
 279:SynaptiX_FDK/components/gps/minmea.c ****                 date->year = y;
 1046              		.loc 1 279 17 is_stmt 1 view .LVU318
 1047              		.loc 1 279 28 is_stmt 0 view .LVU319
 1048 0294 C8F80800 		str	r0, [r8, #8]
 1049              	.LBE23:
 280:SynaptiX_FDK/components/gps/minmea.c ****             } break;
 1050              		.loc 1 280 15 is_stmt 1 view .LVU320
 1051 0298 BFE0     		b	.L96
 1052              	.LVL124:
 1053              	.L143:
 1054              	.LBB28:
 1055              	.LBB24:
 1056              	.LBB25:
 267:SynaptiX_FDK/components/gps/minmea.c **** 
 1057              		.loc 1 267 29 view .LVU321
 1058              	.LBE25:
 1059              	.LBE24:
 1060              	.LBE28:
 1061              	.LBE42:
  90:SynaptiX_FDK/components/gps/minmea.c ****     bool optional = false;
 1062              		.loc 1 90 10 is_stmt 0 view .LVU322
 1063 029a 0020     		movs	r0, #0
 1064 029c 40E1     		b	.L42
 1065              	.LVL125:
 1066              	.L124:
 1067              	.LBB43:
 1068              	.LBB29:
 1069              	.LBB27:
 1070              	.LBB26:
 265:SynaptiX_FDK/components/gps/minmea.c ****                         if (!isdigit((unsigned char) field[f]))
 1071              		.loc 1 265 30 view .LVU323
 1072 029e 0023     		movs	r3, #0
 1073              	.L85:
 1074              	.LVL126:
 265:SynaptiX_FDK/components/gps/minmea.c ****                         if (!isdigit((unsigned char) field[f]))
 1075              		.loc 1 265 36 is_stmt 1 discriminator 1 view .LVU324
 1076 02a0 052B     		cmp	r3, #5
 1077 02a2 07DC     		bgt	.L142
 266:SynaptiX_FDK/components/gps/minmea.c ****                             goto parse_error;
 1078              		.loc 1 266 25 view .LVU325
 266:SynaptiX_FDK/components/gps/minmea.c ****                             goto parse_error;
 1079              		.loc 1 266 30 is_stmt 0 view .LVU326
 1080 02a4 EA5C     		ldrb	r2, [r5, r3]	@ zero_extendqisi2
 1081 02a6 5849     		ldr	r1, .L149
 1082 02a8 8A5C     		ldrb	r2, [r1, r2]	@ zero_extendqisi2
 266:SynaptiX_FDK/components/gps/minmea.c ****                             goto parse_error;
ARM GAS  C:\Users\LENOVO\AppData\Local\Temp\cc57JGiB.s 			page 33


 1083              		.loc 1 266 28 view .LVU327
 1084 02aa 12F0040F 		tst	r2, #4
 1085 02ae F4D0     		beq	.L143
 265:SynaptiX_FDK/components/gps/minmea.c ****                         if (!isdigit((unsigned char) field[f]))
 1086              		.loc 1 265 41 is_stmt 1 discriminator 2 view .LVU328
 1087 02b0 0133     		adds	r3, r3, #1
 1088              	.LVL127:
 265:SynaptiX_FDK/components/gps/minmea.c ****                         if (!isdigit((unsigned char) field[f]))
 1089              		.loc 1 265 41 is_stmt 0 discriminator 2 view .LVU329
 1090 02b2 F5E7     		b	.L85
 1091              	.L142:
 265:SynaptiX_FDK/components/gps/minmea.c ****                         if (!isdigit((unsigned char) field[f]))
 1092              		.loc 1 265 41 discriminator 2 view .LVU330
 1093              	.LBE26:
 269:SynaptiX_FDK/components/gps/minmea.c ****                     char mArr[] = {field[2], field[3], '\0'};
 1094              		.loc 1 269 21 is_stmt 1 view .LVU331
 269:SynaptiX_FDK/components/gps/minmea.c ****                     char mArr[] = {field[2], field[3], '\0'};
 1095              		.loc 1 269 26 is_stmt 0 view .LVU332
 1096 02b4 8DF80090 		strb	r9, [sp]
 269:SynaptiX_FDK/components/gps/minmea.c ****                     char mArr[] = {field[2], field[3], '\0'};
 1097              		.loc 1 269 51 view .LVU333
 1098 02b8 6B78     		ldrb	r3, [r5, #1]	@ zero_extendqisi2
 1099              	.LVL128:
 269:SynaptiX_FDK/components/gps/minmea.c ****                     char mArr[] = {field[2], field[3], '\0'};
 1100              		.loc 1 269 26 view .LVU334
 1101 02ba 8DF80130 		strb	r3, [sp, #1]
 1102 02be 4FF0000A 		mov	r10, #0
 1103 02c2 8DF802A0 		strb	r10, [sp, #2]
 270:SynaptiX_FDK/components/gps/minmea.c ****                     char yArr[] = {field[4], field[5], '\0'};
 1104              		.loc 1 270 21 is_stmt 1 view .LVU335
 270:SynaptiX_FDK/components/gps/minmea.c ****                     char yArr[] = {field[4], field[5], '\0'};
 1105              		.loc 1 270 41 is_stmt 0 view .LVU336
 1106 02c6 AB78     		ldrb	r3, [r5, #2]	@ zero_extendqisi2
 270:SynaptiX_FDK/components/gps/minmea.c ****                     char yArr[] = {field[4], field[5], '\0'};
 1107              		.loc 1 270 26 view .LVU337
 1108 02c8 8DF80430 		strb	r3, [sp, #4]
 270:SynaptiX_FDK/components/gps/minmea.c ****                     char yArr[] = {field[4], field[5], '\0'};
 1109              		.loc 1 270 51 view .LVU338
 1110 02cc EB78     		ldrb	r3, [r5, #3]	@ zero_extendqisi2
 270:SynaptiX_FDK/components/gps/minmea.c ****                     char yArr[] = {field[4], field[5], '\0'};
 1111              		.loc 1 270 26 view .LVU339
 1112 02ce 8DF80530 		strb	r3, [sp, #5]
 1113 02d2 8DF806A0 		strb	r10, [sp, #6]
 271:SynaptiX_FDK/components/gps/minmea.c ****                     d = strtol(dArr, NULL, 10);
 1114              		.loc 1 271 21 is_stmt 1 view .LVU340
 271:SynaptiX_FDK/components/gps/minmea.c ****                     d = strtol(dArr, NULL, 10);
 1115              		.loc 1 271 41 is_stmt 0 view .LVU341
 1116 02d6 2B79     		ldrb	r3, [r5, #4]	@ zero_extendqisi2
 271:SynaptiX_FDK/components/gps/minmea.c ****                     d = strtol(dArr, NULL, 10);
 1117              		.loc 1 271 26 view .LVU342
 1118 02d8 8DF80830 		strb	r3, [sp, #8]
 271:SynaptiX_FDK/components/gps/minmea.c ****                     d = strtol(dArr, NULL, 10);
 1119              		.loc 1 271 51 view .LVU343
 1120 02dc 6B79     		ldrb	r3, [r5, #5]	@ zero_extendqisi2
 271:SynaptiX_FDK/components/gps/minmea.c ****                     d = strtol(dArr, NULL, 10);
 1121              		.loc 1 271 26 view .LVU344
 1122 02de 8DF80930 		strb	r3, [sp, #9]
ARM GAS  C:\Users\LENOVO\AppData\Local\Temp\cc57JGiB.s 			page 34


 1123 02e2 8DF80AA0 		strb	r10, [sp, #10]
 272:SynaptiX_FDK/components/gps/minmea.c ****                     m = strtol(mArr, NULL, 10);
 1124              		.loc 1 272 21 is_stmt 1 view .LVU345
 272:SynaptiX_FDK/components/gps/minmea.c ****                     m = strtol(mArr, NULL, 10);
 1125              		.loc 1 272 25 is_stmt 0 view .LVU346
 1126 02e6 0A22     		movs	r2, #10
 1127 02e8 5146     		mov	r1, r10
 1128 02ea 6846     		mov	r0, sp
 1129 02ec FFF7FEFF 		bl	strtol
 1130              	.LVL129:
 1131 02f0 8146     		mov	r9, r0
 1132              	.LVL130:
 273:SynaptiX_FDK/components/gps/minmea.c ****                     y = strtol(yArr, NULL, 10);
 1133              		.loc 1 273 21 is_stmt 1 view .LVU347
 273:SynaptiX_FDK/components/gps/minmea.c ****                     y = strtol(yArr, NULL, 10);
 1134              		.loc 1 273 25 is_stmt 0 view .LVU348
 1135 02f2 0A22     		movs	r2, #10
 1136 02f4 5146     		mov	r1, r10
 1137 02f6 01A8     		add	r0, sp, #4
 1138              	.LVL131:
 273:SynaptiX_FDK/components/gps/minmea.c ****                     y = strtol(yArr, NULL, 10);
 1139              		.loc 1 273 25 view .LVU349
 1140 02f8 FFF7FEFF 		bl	strtol
 1141              	.LVL132:
 1142 02fc 0546     		mov	r5, r0
 1143              	.LVL133:
 274:SynaptiX_FDK/components/gps/minmea.c ****                 }
 1144              		.loc 1 274 21 is_stmt 1 view .LVU350
 274:SynaptiX_FDK/components/gps/minmea.c ****                 }
 1145              		.loc 1 274 25 is_stmt 0 view .LVU351
 1146 02fe 0A22     		movs	r2, #10
 1147 0300 5146     		mov	r1, r10
 1148 0302 02A8     		add	r0, sp, #8
 1149              	.LVL134:
 274:SynaptiX_FDK/components/gps/minmea.c ****                 }
 1150              		.loc 1 274 25 view .LVU352
 1151 0304 FFF7FEFF 		bl	strtol
 1152              	.LVL135:
 274:SynaptiX_FDK/components/gps/minmea.c ****                 }
 1153              		.loc 1 274 25 view .LVU353
 1154 0308 C0E7     		b	.L84
 1155              	.LVL136:
 1156              	.L123:
 274:SynaptiX_FDK/components/gps/minmea.c ****                 }
 1157              		.loc 1 274 25 view .LVU354
 1158              	.LBE27:
 261:SynaptiX_FDK/components/gps/minmea.c **** 
 1159              		.loc 1 261 37 view .LVU355
 1160 030a 4FF0FF30 		mov	r0, #-1
 261:SynaptiX_FDK/components/gps/minmea.c **** 
 1161              		.loc 1 261 29 view .LVU356
 1162 030e 0546     		mov	r5, r0
 1163              	.LVL137:
 261:SynaptiX_FDK/components/gps/minmea.c **** 
 1164              		.loc 1 261 21 view .LVU357
 1165 0310 8146     		mov	r9, r0
 1166 0312 BBE7     		b	.L84
ARM GAS  C:\Users\LENOVO\AppData\Local\Temp\cc57JGiB.s 			page 35


 1167              	.LVL138:
 1168              	.L55:
 261:SynaptiX_FDK/components/gps/minmea.c **** 
 1169              		.loc 1 261 21 view .LVU358
 1170              	.LBE29:
 1171              	.LBB30:
 281:SynaptiX_FDK/components/gps/minmea.c **** 
 282:SynaptiX_FDK/components/gps/minmea.c ****             case 'T': { // Time (int, int, int, int), -1 if empty.
 283:SynaptiX_FDK/components/gps/minmea.c ****                 struct minmea_time *time_ = va_arg(ap, struct minmea_time *);
 1172              		.loc 1 283 17 is_stmt 1 view .LVU359
 1173              		.loc 1 283 37 is_stmt 0 view .LVU360
 1174 0314 039B     		ldr	r3, [sp, #12]
 1175              	.LVL139:
 1176              		.loc 1 283 37 view .LVU361
 1177 0316 1A1D     		adds	r2, r3, #4
 1178 0318 0392     		str	r2, [sp, #12]
 1179              	.LVL140:
 1180              		.loc 1 283 37 view .LVU362
 1181 031a D3F80080 		ldr	r8, [r3]
 284:SynaptiX_FDK/components/gps/minmea.c **** 
 285:SynaptiX_FDK/components/gps/minmea.c ****                 int h = -1, i = -1, s = -1, u = -1;
 1182              		.loc 1 285 17 is_stmt 1 view .LVU363
 1183              	.LVL141:
 286:SynaptiX_FDK/components/gps/minmea.c **** 
 287:SynaptiX_FDK/components/gps/minmea.c ****                 if (field && minmea_isfield(*field)) {
 1184              		.loc 1 287 17 view .LVU364
 1185              		.loc 1 287 20 is_stmt 0 view .LVU365
 1186 031e 002D     		cmp	r5, #0
 1187 0320 6CD0     		beq	.L125
 1188              		.loc 1 287 30 discriminator 1 view .LVU366
 1189 0322 95F80090 		ldrb	r9, [r5]	@ zero_extendqisi2
 1190 0326 4846     		mov	r0, r9
 1191 0328 FFF7FEFF 		bl	minmea_isfield
 1192              	.LVL142:
 1193              		.loc 1 287 27 discriminator 1 view .LVU367
 1194 032c 78B9     		cbnz	r0, .L126
 285:SynaptiX_FDK/components/gps/minmea.c **** 
 1195              		.loc 1 285 45 view .LVU368
 1196 032e 4FF0FF33 		mov	r3, #-1
 285:SynaptiX_FDK/components/gps/minmea.c **** 
 1197              		.loc 1 285 37 view .LVU369
 1198 0332 1846     		mov	r0, r3
 285:SynaptiX_FDK/components/gps/minmea.c **** 
 1199              		.loc 1 285 29 view .LVU370
 1200 0334 9946     		mov	r9, r3
 285:SynaptiX_FDK/components/gps/minmea.c **** 
 1201              		.loc 1 285 21 view .LVU371
 1202 0336 9A46     		mov	r10, r3
 1203              	.LVL143:
 1204              	.L88:
 288:SynaptiX_FDK/components/gps/minmea.c ****                     // Minimum required: integer time.
 289:SynaptiX_FDK/components/gps/minmea.c ****                     for (int f=0; f<6; f++)
 290:SynaptiX_FDK/components/gps/minmea.c ****                         if (!isdigit((unsigned char) field[f]))
 291:SynaptiX_FDK/components/gps/minmea.c ****                             goto parse_error;
 292:SynaptiX_FDK/components/gps/minmea.c **** 
 293:SynaptiX_FDK/components/gps/minmea.c ****                     char hArr[] = {field[0], field[1], '\0'};
 294:SynaptiX_FDK/components/gps/minmea.c ****                     char iArr[] = {field[2], field[3], '\0'};
ARM GAS  C:\Users\LENOVO\AppData\Local\Temp\cc57JGiB.s 			page 36


 295:SynaptiX_FDK/components/gps/minmea.c ****                     char sArr[] = {field[4], field[5], '\0'};
 296:SynaptiX_FDK/components/gps/minmea.c ****                     h = strtol(hArr, NULL, 10);
 297:SynaptiX_FDK/components/gps/minmea.c ****                     i = strtol(iArr, NULL, 10);
 298:SynaptiX_FDK/components/gps/minmea.c ****                     s = strtol(sArr, NULL, 10);
 299:SynaptiX_FDK/components/gps/minmea.c ****                     field += 6;
 300:SynaptiX_FDK/components/gps/minmea.c **** 
 301:SynaptiX_FDK/components/gps/minmea.c ****                     // Extra: fractional time. Saved as microseconds.
 302:SynaptiX_FDK/components/gps/minmea.c ****                     if (*field++ == '.') {
 303:SynaptiX_FDK/components/gps/minmea.c ****                         uint32_t value = 0;
 304:SynaptiX_FDK/components/gps/minmea.c ****                         uint32_t scale = 1000000LU;
 305:SynaptiX_FDK/components/gps/minmea.c ****                         while (isdigit((unsigned char) *field) && scale > 1) {
 306:SynaptiX_FDK/components/gps/minmea.c ****                             value = (value * 10) + (*field++ - '0');
 307:SynaptiX_FDK/components/gps/minmea.c ****                             scale /= 10;
 308:SynaptiX_FDK/components/gps/minmea.c ****                         }
 309:SynaptiX_FDK/components/gps/minmea.c ****                         u = value * scale;
 310:SynaptiX_FDK/components/gps/minmea.c ****                     } else {
 311:SynaptiX_FDK/components/gps/minmea.c ****                         u = 0;
 312:SynaptiX_FDK/components/gps/minmea.c ****                     }
 313:SynaptiX_FDK/components/gps/minmea.c ****                 }
 314:SynaptiX_FDK/components/gps/minmea.c **** 
 315:SynaptiX_FDK/components/gps/minmea.c ****                 time_->hours = h;
 1205              		.loc 1 315 17 is_stmt 1 view .LVU372
 1206              		.loc 1 315 30 is_stmt 0 view .LVU373
 1207 0338 C8F800A0 		str	r10, [r8]
 316:SynaptiX_FDK/components/gps/minmea.c ****                 time_->minutes = i;
 1208              		.loc 1 316 17 is_stmt 1 view .LVU374
 1209              		.loc 1 316 32 is_stmt 0 view .LVU375
 1210 033c C8F80490 		str	r9, [r8, #4]
 317:SynaptiX_FDK/components/gps/minmea.c ****                 time_->seconds = s;
 1211              		.loc 1 317 17 is_stmt 1 view .LVU376
 1212              		.loc 1 317 32 is_stmt 0 view .LVU377
 1213 0340 C8F80800 		str	r0, [r8, #8]
 318:SynaptiX_FDK/components/gps/minmea.c ****                 time_->microseconds = u;
 1214              		.loc 1 318 17 is_stmt 1 view .LVU378
 1215              		.loc 1 318 37 is_stmt 0 view .LVU379
 1216 0344 C8F80C30 		str	r3, [r8, #12]
 1217              	.LBE30:
 319:SynaptiX_FDK/components/gps/minmea.c ****             } break;
 1218              		.loc 1 319 15 is_stmt 1 view .LVU380
 1219 0348 67E0     		b	.L96
 1220              	.LVL144:
 1221              	.L145:
 1222              	.LBB37:
 1223              	.LBB31:
 1224              	.LBB32:
 291:SynaptiX_FDK/components/gps/minmea.c **** 
 1225              		.loc 1 291 29 view .LVU381
 1226              	.LBE32:
 1227              	.LBE31:
 1228              	.LBE37:
 1229              	.LBE43:
  90:SynaptiX_FDK/components/gps/minmea.c ****     bool optional = false;
 1230              		.loc 1 90 10 is_stmt 0 view .LVU382
 1231 034a 0020     		movs	r0, #0
 1232 034c E8E0     		b	.L42
 1233              	.LVL145:
 1234              	.L126:
ARM GAS  C:\Users\LENOVO\AppData\Local\Temp\cc57JGiB.s 			page 37


 1235              	.LBB44:
 1236              	.LBB38:
 1237              	.LBB36:
 1238              	.LBB33:
 289:SynaptiX_FDK/components/gps/minmea.c ****                         if (!isdigit((unsigned char) field[f]))
 1239              		.loc 1 289 30 view .LVU383
 1240 034e 0023     		movs	r3, #0
 1241              	.L89:
 1242              	.LVL146:
 289:SynaptiX_FDK/components/gps/minmea.c ****                         if (!isdigit((unsigned char) field[f]))
 1243              		.loc 1 289 36 is_stmt 1 discriminator 1 view .LVU384
 1244 0350 052B     		cmp	r3, #5
 1245 0352 07DC     		bgt	.L144
 290:SynaptiX_FDK/components/gps/minmea.c ****                             goto parse_error;
 1246              		.loc 1 290 25 view .LVU385
 290:SynaptiX_FDK/components/gps/minmea.c ****                             goto parse_error;
 1247              		.loc 1 290 30 is_stmt 0 view .LVU386
 1248 0354 EA5C     		ldrb	r2, [r5, r3]	@ zero_extendqisi2
 1249 0356 2C49     		ldr	r1, .L149
 1250 0358 8A5C     		ldrb	r2, [r1, r2]	@ zero_extendqisi2
 290:SynaptiX_FDK/components/gps/minmea.c ****                             goto parse_error;
 1251              		.loc 1 290 28 view .LVU387
 1252 035a 12F0040F 		tst	r2, #4
 1253 035e F4D0     		beq	.L145
 289:SynaptiX_FDK/components/gps/minmea.c ****                         if (!isdigit((unsigned char) field[f]))
 1254              		.loc 1 289 41 is_stmt 1 discriminator 2 view .LVU388
 1255 0360 0133     		adds	r3, r3, #1
 1256              	.LVL147:
 289:SynaptiX_FDK/components/gps/minmea.c ****                         if (!isdigit((unsigned char) field[f]))
 1257              		.loc 1 289 41 is_stmt 0 discriminator 2 view .LVU389
 1258 0362 F5E7     		b	.L89
 1259              	.L144:
 289:SynaptiX_FDK/components/gps/minmea.c ****                         if (!isdigit((unsigned char) field[f]))
 1260              		.loc 1 289 41 discriminator 2 view .LVU390
 1261              	.LBE33:
 293:SynaptiX_FDK/components/gps/minmea.c ****                     char iArr[] = {field[2], field[3], '\0'};
 1262              		.loc 1 293 21 is_stmt 1 view .LVU391
 293:SynaptiX_FDK/components/gps/minmea.c ****                     char iArr[] = {field[2], field[3], '\0'};
 1263              		.loc 1 293 26 is_stmt 0 view .LVU392
 1264 0364 8DF80090 		strb	r9, [sp]
 293:SynaptiX_FDK/components/gps/minmea.c ****                     char iArr[] = {field[2], field[3], '\0'};
 1265              		.loc 1 293 51 view .LVU393
 1266 0368 6B78     		ldrb	r3, [r5, #1]	@ zero_extendqisi2
 1267              	.LVL148:
 293:SynaptiX_FDK/components/gps/minmea.c ****                     char iArr[] = {field[2], field[3], '\0'};
 1268              		.loc 1 293 26 view .LVU394
 1269 036a 8DF80130 		strb	r3, [sp, #1]
 1270 036e 4FF0000B 		mov	fp, #0
 1271 0372 8DF802B0 		strb	fp, [sp, #2]
 294:SynaptiX_FDK/components/gps/minmea.c ****                     char sArr[] = {field[4], field[5], '\0'};
 1272              		.loc 1 294 21 is_stmt 1 view .LVU395
 294:SynaptiX_FDK/components/gps/minmea.c ****                     char sArr[] = {field[4], field[5], '\0'};
 1273              		.loc 1 294 41 is_stmt 0 view .LVU396
 1274 0376 AB78     		ldrb	r3, [r5, #2]	@ zero_extendqisi2
 294:SynaptiX_FDK/components/gps/minmea.c ****                     char sArr[] = {field[4], field[5], '\0'};
 1275              		.loc 1 294 26 view .LVU397
 1276 0378 8DF80430 		strb	r3, [sp, #4]
ARM GAS  C:\Users\LENOVO\AppData\Local\Temp\cc57JGiB.s 			page 38


 294:SynaptiX_FDK/components/gps/minmea.c ****                     char sArr[] = {field[4], field[5], '\0'};
 1277              		.loc 1 294 51 view .LVU398
 1278 037c EB78     		ldrb	r3, [r5, #3]	@ zero_extendqisi2
 294:SynaptiX_FDK/components/gps/minmea.c ****                     char sArr[] = {field[4], field[5], '\0'};
 1279              		.loc 1 294 26 view .LVU399
 1280 037e 8DF80530 		strb	r3, [sp, #5]
 1281 0382 8DF806B0 		strb	fp, [sp, #6]
 295:SynaptiX_FDK/components/gps/minmea.c ****                     h = strtol(hArr, NULL, 10);
 1282              		.loc 1 295 21 is_stmt 1 view .LVU400
 295:SynaptiX_FDK/components/gps/minmea.c ****                     h = strtol(hArr, NULL, 10);
 1283              		.loc 1 295 41 is_stmt 0 view .LVU401
 1284 0386 2B79     		ldrb	r3, [r5, #4]	@ zero_extendqisi2
 295:SynaptiX_FDK/components/gps/minmea.c ****                     h = strtol(hArr, NULL, 10);
 1285              		.loc 1 295 26 view .LVU402
 1286 0388 8DF80830 		strb	r3, [sp, #8]
 295:SynaptiX_FDK/components/gps/minmea.c ****                     h = strtol(hArr, NULL, 10);
 1287              		.loc 1 295 51 view .LVU403
 1288 038c 6B79     		ldrb	r3, [r5, #5]	@ zero_extendqisi2
 295:SynaptiX_FDK/components/gps/minmea.c ****                     h = strtol(hArr, NULL, 10);
 1289              		.loc 1 295 26 view .LVU404
 1290 038e 8DF80930 		strb	r3, [sp, #9]
 1291 0392 8DF80AB0 		strb	fp, [sp, #10]
 296:SynaptiX_FDK/components/gps/minmea.c ****                     i = strtol(iArr, NULL, 10);
 1292              		.loc 1 296 21 is_stmt 1 view .LVU405
 296:SynaptiX_FDK/components/gps/minmea.c ****                     i = strtol(iArr, NULL, 10);
 1293              		.loc 1 296 25 is_stmt 0 view .LVU406
 1294 0396 0A22     		movs	r2, #10
 1295 0398 5946     		mov	r1, fp
 1296 039a 6846     		mov	r0, sp
 1297 039c FFF7FEFF 		bl	strtol
 1298              	.LVL149:
 1299 03a0 8246     		mov	r10, r0
 1300              	.LVL150:
 297:SynaptiX_FDK/components/gps/minmea.c ****                     s = strtol(sArr, NULL, 10);
 1301              		.loc 1 297 21 is_stmt 1 view .LVU407
 297:SynaptiX_FDK/components/gps/minmea.c ****                     s = strtol(sArr, NULL, 10);
 1302              		.loc 1 297 25 is_stmt 0 view .LVU408
 1303 03a2 0A22     		movs	r2, #10
 1304 03a4 5946     		mov	r1, fp
 1305 03a6 01A8     		add	r0, sp, #4
 1306              	.LVL151:
 297:SynaptiX_FDK/components/gps/minmea.c ****                     s = strtol(sArr, NULL, 10);
 1307              		.loc 1 297 25 view .LVU409
 1308 03a8 FFF7FEFF 		bl	strtol
 1309              	.LVL152:
 1310 03ac 8146     		mov	r9, r0
 1311              	.LVL153:
 298:SynaptiX_FDK/components/gps/minmea.c ****                     field += 6;
 1312              		.loc 1 298 21 is_stmt 1 view .LVU410
 298:SynaptiX_FDK/components/gps/minmea.c ****                     field += 6;
 1313              		.loc 1 298 25 is_stmt 0 view .LVU411
 1314 03ae 0A22     		movs	r2, #10
 1315 03b0 5946     		mov	r1, fp
 1316 03b2 02A8     		add	r0, sp, #8
 1317              	.LVL154:
 298:SynaptiX_FDK/components/gps/minmea.c ****                     field += 6;
 1318              		.loc 1 298 25 view .LVU412
ARM GAS  C:\Users\LENOVO\AppData\Local\Temp\cc57JGiB.s 			page 39


 1319 03b4 FFF7FEFF 		bl	strtol
 1320              	.LVL155:
 299:SynaptiX_FDK/components/gps/minmea.c **** 
 1321              		.loc 1 299 21 is_stmt 1 view .LVU413
 302:SynaptiX_FDK/components/gps/minmea.c ****                         uint32_t value = 0;
 1322              		.loc 1 302 21 view .LVU414
 302:SynaptiX_FDK/components/gps/minmea.c ****                         uint32_t value = 0;
 1323              		.loc 1 302 31 is_stmt 0 view .LVU415
 1324 03b8 05F1070C 		add	ip, r5, #7
 1325              	.LVL156:
 302:SynaptiX_FDK/components/gps/minmea.c ****                         uint32_t value = 0;
 1326              		.loc 1 302 25 view .LVU416
 1327 03bc AB79     		ldrb	r3, [r5, #6]	@ zero_extendqisi2
 302:SynaptiX_FDK/components/gps/minmea.c ****                         uint32_t value = 0;
 1328              		.loc 1 302 24 view .LVU417
 1329 03be 2E2B     		cmp	r3, #46
 1330 03c0 19D0     		beq	.L127
 311:SynaptiX_FDK/components/gps/minmea.c ****                     }
 1331              		.loc 1 311 27 view .LVU418
 1332 03c2 5B46     		mov	r3, fp
 1333 03c4 B8E7     		b	.L88
 1334              	.LVL157:
 1335              	.L95:
 1336              	.LBB34:
 306:SynaptiX_FDK/components/gps/minmea.c ****                             scale /= 10;
 1337              		.loc 1 306 29 is_stmt 1 view .LVU419
 306:SynaptiX_FDK/components/gps/minmea.c ****                             scale /= 10;
 1338              		.loc 1 306 44 is_stmt 0 view .LVU420
 1339 03c6 03EB8303 		add	r3, r3, r3, lsl #2
 1340              	.LVL158:
 306:SynaptiX_FDK/components/gps/minmea.c ****                             scale /= 10;
 1341              		.loc 1 306 59 view .LVU421
 1342 03ca 0CF1010C 		add	ip, ip, #1
 1343              	.LVL159:
 306:SynaptiX_FDK/components/gps/minmea.c ****                             scale /= 10;
 1344              		.loc 1 306 50 view .LVU422
 1345 03ce 02EB4302 		add	r2, r2, r3, lsl #1
 306:SynaptiX_FDK/components/gps/minmea.c ****                             scale /= 10;
 1346              		.loc 1 306 35 view .LVU423
 1347 03d2 A2F13003 		sub	r3, r2, #48
 1348              	.LVL160:
 307:SynaptiX_FDK/components/gps/minmea.c ****                         }
 1349              		.loc 1 307 29 is_stmt 1 view .LVU424
 307:SynaptiX_FDK/components/gps/minmea.c ****                         }
 1350              		.loc 1 307 35 is_stmt 0 view .LVU425
 1351 03d6 0E4A     		ldr	r2, .L149+8
 1352 03d8 A2FB0112 		umull	r1, r2, r2, r1
 1353              	.LVL161:
 307:SynaptiX_FDK/components/gps/minmea.c ****                         }
 1354              		.loc 1 307 35 view .LVU426
 1355 03dc D108     		lsrs	r1, r2, #3
 1356              	.LVL162:
 1357              	.L92:
 305:SynaptiX_FDK/components/gps/minmea.c ****                             value = (value * 10) + (*field++ - '0');
 1358              		.loc 1 305 64 is_stmt 1 view .LVU427
 305:SynaptiX_FDK/components/gps/minmea.c ****                             value = (value * 10) + (*field++ - '0');
 1359              		.loc 1 305 32 is_stmt 0 view .LVU428
ARM GAS  C:\Users\LENOVO\AppData\Local\Temp\cc57JGiB.s 			page 40


 1360 03de 9CF80020 		ldrb	r2, [ip]	@ zero_extendqisi2
 1361 03e2 094D     		ldr	r5, .L149
 1362 03e4 AD5C     		ldrb	r5, [r5, r2]	@ zero_extendqisi2
 305:SynaptiX_FDK/components/gps/minmea.c ****                             value = (value * 10) + (*field++ - '0');
 1363              		.loc 1 305 64 view .LVU429
 1364 03e6 15F0040F 		tst	r5, #4
 1365 03ea 01D0     		beq	.L94
 305:SynaptiX_FDK/components/gps/minmea.c ****                             value = (value * 10) + (*field++ - '0');
 1366              		.loc 1 305 64 discriminator 1 view .LVU430
 1367 03ec 0129     		cmp	r1, #1
 1368 03ee EAD8     		bhi	.L95
 1369              	.L94:
 309:SynaptiX_FDK/components/gps/minmea.c ****                     } else {
 1370              		.loc 1 309 25 is_stmt 1 view .LVU431
 309:SynaptiX_FDK/components/gps/minmea.c ****                     } else {
 1371              		.loc 1 309 35 is_stmt 0 view .LVU432
 1372 03f0 01FB03F3 		mul	r3, r1, r3
 1373              	.LVL163:
 309:SynaptiX_FDK/components/gps/minmea.c ****                     } else {
 1374              		.loc 1 309 35 view .LVU433
 1375              	.LBE34:
 1376 03f4 A0E7     		b	.L88
 1377              	.LVL164:
 1378              	.L127:
 1379              	.LBB35:
 304:SynaptiX_FDK/components/gps/minmea.c ****                         while (isdigit((unsigned char) *field) && scale > 1) {
 1380              		.loc 1 304 34 view .LVU434
 1381 03f6 0749     		ldr	r1, .L149+12
 303:SynaptiX_FDK/components/gps/minmea.c ****                         uint32_t scale = 1000000LU;
 1382              		.loc 1 303 34 view .LVU435
 1383 03f8 0023     		movs	r3, #0
 1384 03fa F0E7     		b	.L92
 1385              	.LVL165:
 1386              	.L125:
 303:SynaptiX_FDK/components/gps/minmea.c ****                         uint32_t scale = 1000000LU;
 1387              		.loc 1 303 34 view .LVU436
 1388              	.LBE35:
 1389              	.LBE36:
 285:SynaptiX_FDK/components/gps/minmea.c **** 
 1390              		.loc 1 285 45 view .LVU437
 1391 03fc 4FF0FF33 		mov	r3, #-1
 285:SynaptiX_FDK/components/gps/minmea.c **** 
 1392              		.loc 1 285 37 view .LVU438
 1393 0400 1846     		mov	r0, r3
 285:SynaptiX_FDK/components/gps/minmea.c **** 
 1394              		.loc 1 285 29 view .LVU439
 1395 0402 9946     		mov	r9, r3
 285:SynaptiX_FDK/components/gps/minmea.c **** 
 1396              		.loc 1 285 21 view .LVU440
 1397 0404 9A46     		mov	r10, r3
 1398 0406 97E7     		b	.L88
 1399              	.L150:
 1400              		.align	2
 1401              	.L149:
 1402 0408 01000000 		.word	_ctype_+1
 1403 040c 67666666 		.word	1717986919
 1404 0410 CDCCCCCC 		.word	-858993459
ARM GAS  C:\Users\LENOVO\AppData\Local\Temp\cc57JGiB.s 			page 41


 1405 0414 40420F00 		.word	1000000
 1406              	.LVL166:
 1407              	.L97:
 285:SynaptiX_FDK/components/gps/minmea.c **** 
 1408              		.loc 1 285 21 view .LVU441
 1409              	.LBE38:
 320:SynaptiX_FDK/components/gps/minmea.c **** 
 321:SynaptiX_FDK/components/gps/minmea.c ****             case '_': { // Ignore the field.
 322:SynaptiX_FDK/components/gps/minmea.c ****             } break;
 323:SynaptiX_FDK/components/gps/minmea.c **** 
 324:SynaptiX_FDK/components/gps/minmea.c ****             default: { // Unknown.
 325:SynaptiX_FDK/components/gps/minmea.c ****                 goto parse_error;
 326:SynaptiX_FDK/components/gps/minmea.c ****             }
 327:SynaptiX_FDK/components/gps/minmea.c ****         }
 328:SynaptiX_FDK/components/gps/minmea.c **** 
 329:SynaptiX_FDK/components/gps/minmea.c ****         next_field();
 1410              		.loc 1 329 9 is_stmt 1 discriminator 2 view .LVU442
 1411 0418 0134     		adds	r4, r4, #1
 1412              	.LVL167:
 1413              	.L96:
 1414              		.loc 1 329 9 discriminator 1 view .LVU443
 1415 041a 2578     		ldrb	r5, [r4]	@ zero_extendqisi2
 1416 041c 2846     		mov	r0, r5
 1417 041e FFF7FEFF 		bl	minmea_isfield
 1418              	.LVL168:
 1419 0422 0028     		cmp	r0, #0
 1420 0424 F8D1     		bne	.L97
 1421              		.loc 1 329 9 discriminator 3 view .LVU444
 1422 0426 2C2D     		cmp	r5, #44
 1423 0428 72D0     		beq	.L146
 1424              		.loc 1 329 9 is_stmt 0 discriminator 5 view .LVU445
 1425 042a 0025     		movs	r5, #0
 1426              	.LVL169:
 1427              	.L43:
 1428              		.loc 1 329 9 is_stmt 1 discriminator 7 view .LVU446
 1429              	.LBE44:
 114:SynaptiX_FDK/components/gps/minmea.c ****         char type = *format++;
 1430              		.loc 1 114 12 view .LVU447
 1431 042c 3378     		ldrb	r3, [r6]	@ zero_extendqisi2
 1432 042e 002B     		cmp	r3, #0
 1433 0430 73D0     		beq	.L147
 1434              	.LBB45:
 115:SynaptiX_FDK/components/gps/minmea.c **** 
 1435              		.loc 1 115 9 view .LVU448
 115:SynaptiX_FDK/components/gps/minmea.c **** 
 1436              		.loc 1 115 28 is_stmt 0 view .LVU449
 1437 0432 0136     		adds	r6, r6, #1
 1438              	.LVL170:
 117:SynaptiX_FDK/components/gps/minmea.c ****             // All further fields are optional.
 1439              		.loc 1 117 9 is_stmt 1 view .LVU450
 117:SynaptiX_FDK/components/gps/minmea.c ****             // All further fields are optional.
 1440              		.loc 1 117 12 is_stmt 0 view .LVU451
 1441 0434 3B2B     		cmp	r3, #59
 1442 0436 6ED0     		beq	.L100
 123:SynaptiX_FDK/components/gps/minmea.c ****             // Field requested but we ran out if input. Bail out.
 1443              		.loc 1 123 9 is_stmt 1 view .LVU452
 123:SynaptiX_FDK/components/gps/minmea.c ****             // Field requested but we ran out if input. Bail out.
ARM GAS  C:\Users\LENOVO\AppData\Local\Temp\cc57JGiB.s 			page 42


 1444              		.loc 1 123 12 is_stmt 0 view .LVU453
 1445 0438 002D     		cmp	r5, #0
 1446 043a 3FF4EFAD 		beq	.L148
 1447              	.L45:
 128:SynaptiX_FDK/components/gps/minmea.c ****             case 'c': { // Single character field (char).
 1448              		.loc 1 128 9 is_stmt 1 view .LVU454
 1449 043e 443B     		subs	r3, r3, #68
 1450              	.LVL171:
 128:SynaptiX_FDK/components/gps/minmea.c ****             case 'c': { // Single character field (char).
 1451              		.loc 1 128 9 is_stmt 0 view .LVU455
 1452 0440 302B     		cmp	r3, #48
 1453 0442 6CD8     		bhi	.L102
 1454 0444 01A2     		adr	r2, .L48
 1455 0446 52F823F0 		ldr	pc, [r2, r3, lsl #2]
 1456 044a 00BF     		.p2align 2
 1457              	.L48:
 1458 044c 6B020000 		.word	.L56+1
 1459 0450 1F050000 		.word	.L102+1
 1460 0454 1F050000 		.word	.L102+1
 1461 0458 1F050000 		.word	.L102+1
 1462 045c 1F050000 		.word	.L102+1
 1463 0460 1F050000 		.word	.L102+1
 1464 0464 1F050000 		.word	.L102+1
 1465 0468 1F050000 		.word	.L102+1
 1466 046c 1F050000 		.word	.L102+1
 1467 0470 1F050000 		.word	.L102+1
 1468 0474 1F050000 		.word	.L102+1
 1469 0478 1F050000 		.word	.L102+1
 1470 047c 1F050000 		.word	.L102+1
 1471 0480 1F050000 		.word	.L102+1
 1472 0484 1F050000 		.word	.L102+1
 1473 0488 1F050000 		.word	.L102+1
 1474 048c 15030000 		.word	.L55+1
 1475 0490 1F050000 		.word	.L102+1
 1476 0494 1F050000 		.word	.L102+1
 1477 0498 1F050000 		.word	.L102+1
 1478 049c 1F050000 		.word	.L102+1
 1479 04a0 1F050000 		.word	.L102+1
 1480 04a4 1F050000 		.word	.L102+1
 1481 04a8 1F050000 		.word	.L102+1
 1482 04ac 1F050000 		.word	.L102+1
 1483 04b0 1F050000 		.word	.L102+1
 1484 04b4 1F050000 		.word	.L102+1
 1485 04b8 1B040000 		.word	.L96+1
 1486 04bc 1F050000 		.word	.L102+1
 1487 04c0 1F050000 		.word	.L102+1
 1488 04c4 1F050000 		.word	.L102+1
 1489 04c8 27000000 		.word	.L53+1
 1490 04cc 45000000 		.word	.L52+1
 1491 04d0 1F050000 		.word	.L102+1
 1492 04d4 9F000000 		.word	.L51+1
 1493 04d8 1F050000 		.word	.L102+1
 1494 04dc 1F050000 		.word	.L102+1
 1495 04e0 CF010000 		.word	.L50+1
 1496 04e4 1F050000 		.word	.L102+1
 1497 04e8 1F050000 		.word	.L102+1
 1498 04ec 1F050000 		.word	.L102+1
ARM GAS  C:\Users\LENOVO\AppData\Local\Temp\cc57JGiB.s 			page 43


 1499 04f0 1F050000 		.word	.L102+1
 1500 04f4 1F050000 		.word	.L102+1
 1501 04f8 1F050000 		.word	.L102+1
 1502 04fc 1F050000 		.word	.L102+1
 1503 0500 1F050000 		.word	.L102+1
 1504 0504 1F050000 		.word	.L102+1
 1505 0508 FB010000 		.word	.L49+1
 1506 050c 29020000 		.word	.L47+1
 1507              	.LVL172:
 1508              		.p2align 1
 1509              	.L146:
 1510              		.loc 1 329 9 is_stmt 1 discriminator 4 view .LVU456
 1511 0510 0134     		adds	r4, r4, #1
 1512              	.LVL173:
 1513              		.loc 1 329 9 discriminator 4 view .LVU457
 1514              		.loc 1 329 9 is_stmt 0 discriminator 4 view .LVU458
 1515 0512 2546     		mov	r5, r4
 1516 0514 8AE7     		b	.L43
 1517              	.LVL174:
 1518              	.L100:
 119:SynaptiX_FDK/components/gps/minmea.c ****             continue;
 1519              		.loc 1 119 22 view .LVU459
 1520 0516 0127     		movs	r7, #1
 1521              	.LVL175:
 119:SynaptiX_FDK/components/gps/minmea.c ****             continue;
 1522              		.loc 1 119 22 view .LVU460
 1523 0518 88E7     		b	.L43
 1524              	.LVL176:
 1525              	.L147:
 119:SynaptiX_FDK/components/gps/minmea.c ****             continue;
 1526              		.loc 1 119 22 view .LVU461
 1527              	.LBE45:
 330:SynaptiX_FDK/components/gps/minmea.c ****     }
 331:SynaptiX_FDK/components/gps/minmea.c **** 
 332:SynaptiX_FDK/components/gps/minmea.c ****     result = true;
 1528              		.loc 1 332 12 view .LVU462
 1529 051a 0120     		movs	r0, #1
 1530 051c 00E0     		b	.L42
 1531              	.LVL177:
 1532              	.L102:
 1533              	.LBB46:
 128:SynaptiX_FDK/components/gps/minmea.c ****             case 'c': { // Single character field (char).
 1534              		.loc 1 128 9 view .LVU463
 1535 051e 0020     		movs	r0, #0
 1536              	.LVL178:
 1537              	.L42:
 128:SynaptiX_FDK/components/gps/minmea.c ****             case 'c': { // Single character field (char).
 1538              		.loc 1 128 9 view .LVU464
 1539              	.LBE46:
 333:SynaptiX_FDK/components/gps/minmea.c **** 
 334:SynaptiX_FDK/components/gps/minmea.c **** parse_error:
 335:SynaptiX_FDK/components/gps/minmea.c ****     va_end(ap);
 336:SynaptiX_FDK/components/gps/minmea.c ****     return result;
 337:SynaptiX_FDK/components/gps/minmea.c **** }
 1540              		.loc 1 337 1 view .LVU465
 1541 0520 04B0     		add	sp, sp, #16
 1542              	.LCFI4:
ARM GAS  C:\Users\LENOVO\AppData\Local\Temp\cc57JGiB.s 			page 44


 1543              		.cfi_remember_state
 1544              		.cfi_def_cfa_offset 48
 1545              		@ sp needed
 1546 0522 BDE8F04F 		pop	{r4, r5, r6, r7, r8, r9, r10, fp, lr}
 1547              	.LCFI5:
 1548              		.cfi_restore 14
 1549              		.cfi_restore 11
 1550              		.cfi_restore 10
 1551              		.cfi_restore 9
 1552              		.cfi_restore 8
 1553              		.cfi_restore 7
 1554              		.cfi_restore 6
 1555              		.cfi_restore 5
 1556              		.cfi_restore 4
 1557              		.cfi_def_cfa_offset 12
 1558 0526 03B0     		add	sp, sp, #12
 1559              	.LCFI6:
 1560              		.cfi_restore 3
 1561              		.cfi_restore 2
 1562              		.cfi_restore 1
 1563              		.cfi_def_cfa_offset 0
 1564 0528 7047     		bx	lr
 1565              	.LVL179:
 1566              	.L106:
 1567              	.LCFI7:
 1568              		.cfi_restore_state
 1569              	.LBB47:
 1570              	.LBB39:
 142:SynaptiX_FDK/components/gps/minmea.c ****                         case 'N':
 1571              		.loc 1 142 21 view .LVU466
 1572 052a 0020     		movs	r0, #0
 1573 052c F8E7     		b	.L42
 1574              	.LVL180:
 1575              	.L113:
 142:SynaptiX_FDK/components/gps/minmea.c ****                         case 'N':
 1576              		.loc 1 142 21 view .LVU467
 1577              	.LBE39:
 1578              	.LBE47:
  90:SynaptiX_FDK/components/gps/minmea.c ****     bool optional = false;
 1579              		.loc 1 90 10 view .LVU468
 1580 052e 0020     		movs	r0, #0
 1581 0530 F6E7     		b	.L42
 1582              	.L114:
 1583 0532 0020     		movs	r0, #0
 1584 0534 F4E7     		b	.L42
 1585              	.L115:
  90:SynaptiX_FDK/components/gps/minmea.c ****     bool optional = false;
 1586              		.loc 1 90 10 view .LVU469
 1587 0536 0020     		movs	r0, #0
 1588 0538 F2E7     		b	.L42
 1589              	.L135:
 1590 053a 0020     		movs	r0, #0
 1591 053c F0E7     		b	.L42
 1592              	.LVL181:
 1593              	.L132:
  90:SynaptiX_FDK/components/gps/minmea.c ****     bool optional = false;
 1594              		.loc 1 90 10 view .LVU470
ARM GAS  C:\Users\LENOVO\AppData\Local\Temp\cc57JGiB.s 			page 45


 1595 053e 0020     		movs	r0, #0
 1596 0540 EEE7     		b	.L42
 1597              	.LVL182:
 1598              	.L121:
  90:SynaptiX_FDK/components/gps/minmea.c ****     bool optional = false;
 1599              		.loc 1 90 10 view .LVU471
 1600 0542 0020     		movs	r0, #0
 1601 0544 ECE7     		b	.L42
 1602              	.LVL183:
 1603              	.L122:
  90:SynaptiX_FDK/components/gps/minmea.c ****     bool optional = false;
 1604              		.loc 1 90 10 view .LVU472
 1605 0546 0020     		movs	r0, #0
 1606              	.L46:
 335:SynaptiX_FDK/components/gps/minmea.c ****     return result;
 1607              		.loc 1 335 5 is_stmt 1 view .LVU473
 336:SynaptiX_FDK/components/gps/minmea.c **** }
 1608              		.loc 1 336 5 view .LVU474
 336:SynaptiX_FDK/components/gps/minmea.c **** }
 1609              		.loc 1 336 12 is_stmt 0 view .LVU475
 1610 0548 EAE7     		b	.L42
 1611              		.cfi_endproc
 1612              	.LFE8:
 1614 054a 00BF     		.section	.rodata.minmea_talker_id.str1.4,"aMS",%progbits,1
 1615              		.align	2
 1616              	.LC0:
 1617 0000 7400     		.ascii	"t\000"
 1618              		.section	.text.minmea_talker_id,"ax",%progbits
 1619              		.align	1
 1620              		.global	minmea_talker_id
 1621              		.syntax unified
 1622              		.thumb
 1623              		.thumb_func
 1625              	minmea_talker_id:
 1626              	.LVL184:
 1627              	.LFB9:
 338:SynaptiX_FDK/components/gps/minmea.c **** 
 339:SynaptiX_FDK/components/gps/minmea.c **** bool minmea_talker_id(char talker[3], const char *sentence)
 340:SynaptiX_FDK/components/gps/minmea.c **** {
 1628              		.loc 1 340 1 is_stmt 1 view -0
 1629              		.cfi_startproc
 1630              		@ args = 0, pretend = 0, frame = 8
 1631              		@ frame_needed = 0, uses_anonymous_args = 0
 1632              		.loc 1 340 1 is_stmt 0 view .LVU477
 1633 0000 10B5     		push	{r4, lr}
 1634              	.LCFI8:
 1635              		.cfi_def_cfa_offset 8
 1636              		.cfi_offset 4, -8
 1637              		.cfi_offset 14, -4
 1638 0002 82B0     		sub	sp, sp, #8
 1639              	.LCFI9:
 1640              		.cfi_def_cfa_offset 16
 1641 0004 0446     		mov	r4, r0
 1642 0006 0846     		mov	r0, r1
 1643              	.LVL185:
 341:SynaptiX_FDK/components/gps/minmea.c ****     union minmea_type type;
 1644              		.loc 1 341 5 is_stmt 1 view .LVU478
ARM GAS  C:\Users\LENOVO\AppData\Local\Temp\cc57JGiB.s 			page 46


 342:SynaptiX_FDK/components/gps/minmea.c ****     if (!minmea_scan(sentence, "t", &type))
 1645              		.loc 1 342 5 view .LVU479
 1646              		.loc 1 342 10 is_stmt 0 view .LVU480
 1647 0008 6A46     		mov	r2, sp
 1648 000a 0749     		ldr	r1, .L154
 1649              	.LVL186:
 1650              		.loc 1 342 10 view .LVU481
 1651 000c FFF7FEFF 		bl	minmea_scan
 1652              	.LVL187:
 1653              		.loc 1 342 8 discriminator 1 view .LVU482
 1654 0010 38B1     		cbz	r0, .L152
 343:SynaptiX_FDK/components/gps/minmea.c ****         return false;
 344:SynaptiX_FDK/components/gps/minmea.c **** 
 345:SynaptiX_FDK/components/gps/minmea.c ****     talker[0] = type.talker_id[0];
 1655              		.loc 1 345 5 is_stmt 1 view .LVU483
 1656              		.loc 1 345 31 is_stmt 0 view .LVU484
 1657 0012 9DF80030 		ldrb	r3, [sp]	@ zero_extendqisi2
 1658              		.loc 1 345 15 view .LVU485
 1659 0016 2370     		strb	r3, [r4]
 346:SynaptiX_FDK/components/gps/minmea.c ****     talker[1] = type.talker_id[1];
 1660              		.loc 1 346 5 is_stmt 1 view .LVU486
 1661              		.loc 1 346 31 is_stmt 0 view .LVU487
 1662 0018 9DF80130 		ldrb	r3, [sp, #1]	@ zero_extendqisi2
 1663              		.loc 1 346 15 view .LVU488
 1664 001c 6370     		strb	r3, [r4, #1]
 347:SynaptiX_FDK/components/gps/minmea.c ****     talker[2] = '\0';
 1665              		.loc 1 347 5 is_stmt 1 view .LVU489
 1666              		.loc 1 347 15 is_stmt 0 view .LVU490
 1667 001e 0023     		movs	r3, #0
 1668 0020 A370     		strb	r3, [r4, #2]
 348:SynaptiX_FDK/components/gps/minmea.c **** 
 349:SynaptiX_FDK/components/gps/minmea.c ****     return true;
 1669              		.loc 1 349 5 is_stmt 1 view .LVU491
 1670              	.L152:
 350:SynaptiX_FDK/components/gps/minmea.c **** }
 1671              		.loc 1 350 1 is_stmt 0 view .LVU492
 1672 0022 02B0     		add	sp, sp, #8
 1673              	.LCFI10:
 1674              		.cfi_def_cfa_offset 8
 1675              		@ sp needed
 1676 0024 10BD     		pop	{r4, pc}
 1677              	.LVL188:
 1678              	.L155:
 1679              		.loc 1 350 1 view .LVU493
 1680 0026 00BF     		.align	2
 1681              	.L154:
 1682 0028 00000000 		.word	.LC0
 1683              		.cfi_endproc
 1684              	.LFE9:
 1686              		.section	.rodata.minmea_sentence.str1.4,"aMS",%progbits,1
 1687              		.align	2
 1688              	.LC1:
 1689 0000 554E4B4E 		.ascii	"UNKNOWN\000"
 1689      4F574E00 
 1690              		.section	.text.minmea_sentence,"ax",%progbits
 1691              		.align	1
 1692              		.global	minmea_sentence
ARM GAS  C:\Users\LENOVO\AppData\Local\Temp\cc57JGiB.s 			page 47


 1693              		.syntax unified
 1694              		.thumb
 1695              		.thumb_func
 1697              	minmea_sentence:
 1698              	.LVL189:
 1699              	.LFB10:
 351:SynaptiX_FDK/components/gps/minmea.c **** 
 352:SynaptiX_FDK/components/gps/minmea.c **** struct sentence_id_map_entry {
 353:SynaptiX_FDK/components/gps/minmea.c ****     const char *str;
 354:SynaptiX_FDK/components/gps/minmea.c ****     enum minmea_sentence_id id;
 355:SynaptiX_FDK/components/gps/minmea.c **** };
 356:SynaptiX_FDK/components/gps/minmea.c **** 
 357:SynaptiX_FDK/components/gps/minmea.c **** struct sentence_id_map_entry sentence_id_map[] = {
 358:SynaptiX_FDK/components/gps/minmea.c ****     { "INVALID", MINMEA_INVALID },
 359:SynaptiX_FDK/components/gps/minmea.c ****     { "GBS", MINMEA_SENTENCE_GBS },
 360:SynaptiX_FDK/components/gps/minmea.c ****     { "GGA", MINMEA_SENTENCE_GGA },
 361:SynaptiX_FDK/components/gps/minmea.c ****     { "GLL", MINMEA_SENTENCE_GLL },
 362:SynaptiX_FDK/components/gps/minmea.c ****     { "GSA", MINMEA_SENTENCE_GSA },
 363:SynaptiX_FDK/components/gps/minmea.c ****     { "GST", MINMEA_SENTENCE_GST },
 364:SynaptiX_FDK/components/gps/minmea.c ****     { "GSV", MINMEA_SENTENCE_GSV },
 365:SynaptiX_FDK/components/gps/minmea.c ****     { "RMC", MINMEA_SENTENCE_RMC },
 366:SynaptiX_FDK/components/gps/minmea.c ****     { "VTG", MINMEA_SENTENCE_VTG },
 367:SynaptiX_FDK/components/gps/minmea.c ****     { "ZDA", MINMEA_SENTENCE_ZDA },
 368:SynaptiX_FDK/components/gps/minmea.c **** };
 369:SynaptiX_FDK/components/gps/minmea.c **** 
 370:SynaptiX_FDK/components/gps/minmea.c **** const char* minmea_sentence(enum minmea_sentence_id id) {
 1700              		.loc 1 370 57 is_stmt 1 view -0
 1701              		.cfi_startproc
 1702              		@ args = 0, pretend = 0, frame = 0
 1703              		@ frame_needed = 0, uses_anonymous_args = 0
 1704              		@ link register save eliminated.
 371:SynaptiX_FDK/components/gps/minmea.c ****     if (id < 0 || id >= (int)countof(sentence_id_map)) {
 1705              		.loc 1 371 5 view .LVU495
 1706              		.loc 1 371 16 is_stmt 0 view .LVU496
 1707 0000 C3B2     		uxtb	r3, r0
 1708              		.loc 1 371 8 view .LVU497
 1709 0002 092B     		cmp	r3, #9
 1710 0004 03D8     		bhi	.L158
 372:SynaptiX_FDK/components/gps/minmea.c ****         return "UNKNOWN";
 373:SynaptiX_FDK/components/gps/minmea.c ****     }
 374:SynaptiX_FDK/components/gps/minmea.c ****     return sentence_id_map[id].str;
 1711              		.loc 1 374 5 is_stmt 1 view .LVU498
 1712              		.loc 1 374 31 is_stmt 0 view .LVU499
 1713 0006 034B     		ldr	r3, .L159
 1714 0008 53F83000 		ldr	r0, [r3, r0, lsl #3]
 1715              	.LVL190:
 1716              		.loc 1 374 31 view .LVU500
 1717 000c 7047     		bx	lr
 1718              	.LVL191:
 1719              	.L158:
 372:SynaptiX_FDK/components/gps/minmea.c ****         return "UNKNOWN";
 1720              		.loc 1 372 16 view .LVU501
 1721 000e 0248     		ldr	r0, .L159+4
 1722              	.LVL192:
 375:SynaptiX_FDK/components/gps/minmea.c **** }
 1723              		.loc 1 375 1 view .LVU502
 1724 0010 7047     		bx	lr
ARM GAS  C:\Users\LENOVO\AppData\Local\Temp\cc57JGiB.s 			page 48


 1725              	.L160:
 1726 0012 00BF     		.align	2
 1727              	.L159:
 1728 0014 00000000 		.word	sentence_id_map
 1729 0018 00000000 		.word	.LC1
 1730              		.cfi_endproc
 1731              	.LFE10:
 1733              		.section	.text.minmea_sentence_id,"ax",%progbits
 1734              		.align	1
 1735              		.global	minmea_sentence_id
 1736              		.syntax unified
 1737              		.thumb
 1738              		.thumb_func
 1740              	minmea_sentence_id:
 1741              	.LVL193:
 1742              	.LFB11:
 376:SynaptiX_FDK/components/gps/minmea.c **** 
 377:SynaptiX_FDK/components/gps/minmea.c **** enum minmea_sentence_id minmea_sentence_id(const char *sentence, bool strict)
 378:SynaptiX_FDK/components/gps/minmea.c **** {
 1743              		.loc 1 378 1 is_stmt 1 view -0
 1744              		.cfi_startproc
 1745              		@ args = 0, pretend = 0, frame = 8
 1746              		@ frame_needed = 0, uses_anonymous_args = 0
 1747              		.loc 1 378 1 is_stmt 0 view .LVU504
 1748 0000 10B5     		push	{r4, lr}
 1749              	.LCFI11:
 1750              		.cfi_def_cfa_offset 8
 1751              		.cfi_offset 4, -8
 1752              		.cfi_offset 14, -4
 1753 0002 82B0     		sub	sp, sp, #8
 1754              	.LCFI12:
 1755              		.cfi_def_cfa_offset 16
 1756 0004 0446     		mov	r4, r0
 379:SynaptiX_FDK/components/gps/minmea.c ****     if (!minmea_check(sentence, strict))
 1757              		.loc 1 379 5 is_stmt 1 view .LVU505
 1758              		.loc 1 379 10 is_stmt 0 view .LVU506
 1759 0006 FFF7FEFF 		bl	minmea_check
 1760              	.LVL194:
 1761              		.loc 1 379 8 discriminator 1 view .LVU507
 1762 000a F8B1     		cbz	r0, .L166
 380:SynaptiX_FDK/components/gps/minmea.c ****         return MINMEA_INVALID;
 381:SynaptiX_FDK/components/gps/minmea.c **** 
 382:SynaptiX_FDK/components/gps/minmea.c ****     union minmea_type type;
 1763              		.loc 1 382 5 is_stmt 1 view .LVU508
 383:SynaptiX_FDK/components/gps/minmea.c ****     if (!minmea_scan(sentence, "t", &type))
 1764              		.loc 1 383 5 view .LVU509
 1765              		.loc 1 383 10 is_stmt 0 view .LVU510
 1766 000c 6A46     		mov	r2, sp
 1767 000e 1149     		ldr	r1, .L172
 1768 0010 2046     		mov	r0, r4
 1769 0012 FFF7FEFF 		bl	minmea_scan
 1770              	.LVL195:
 1771              		.loc 1 383 8 discriminator 1 view .LVU511
 1772 0016 68B1     		cbz	r0, .L169
 1773              	.LBB48:
 384:SynaptiX_FDK/components/gps/minmea.c ****         return MINMEA_INVALID;
 385:SynaptiX_FDK/components/gps/minmea.c **** 
ARM GAS  C:\Users\LENOVO\AppData\Local\Temp\cc57JGiB.s 			page 49


 386:SynaptiX_FDK/components/gps/minmea.c ****     for (unsigned int i = 0; i < countof(sentence_id_map); i++) {
 1774              		.loc 1 386 23 view .LVU512
 1775 0018 0024     		movs	r4, #0
 1776              	.LVL196:
 1777              	.L163:
 1778              		.loc 1 386 32 is_stmt 1 discriminator 1 view .LVU513
 1779 001a 092C     		cmp	r4, #9
 1780 001c 13D8     		bhi	.L170
 387:SynaptiX_FDK/components/gps/minmea.c ****         if (!memcmp(type.sentence_id, sentence_id_map[i].str, sizeof(type.sentence_id))) {
 1781              		.loc 1 387 9 view .LVU514
 1782              		.loc 1 387 14 is_stmt 0 view .LVU515
 1783 001e 0322     		movs	r2, #3
 1784 0020 0D4B     		ldr	r3, .L172+4
 1785 0022 53F83410 		ldr	r1, [r3, r4, lsl #3]
 1786 0026 0DF10200 		add	r0, sp, #2
 1787 002a FFF7FEFF 		bl	memcmp
 1788              	.LVL197:
 1789              		.loc 1 387 12 discriminator 1 view .LVU516
 1790 002e 20B1     		cbz	r0, .L171
 386:SynaptiX_FDK/components/gps/minmea.c ****         if (!memcmp(type.sentence_id, sentence_id_map[i].str, sizeof(type.sentence_id))) {
 1791              		.loc 1 386 61 is_stmt 1 discriminator 2 view .LVU517
 1792 0030 0134     		adds	r4, r4, #1
 1793              	.LVL198:
 386:SynaptiX_FDK/components/gps/minmea.c ****         if (!memcmp(type.sentence_id, sentence_id_map[i].str, sizeof(type.sentence_id))) {
 1794              		.loc 1 386 61 is_stmt 0 discriminator 2 view .LVU518
 1795 0032 F2E7     		b	.L163
 1796              	.LVL199:
 1797              	.L169:
 386:SynaptiX_FDK/components/gps/minmea.c ****         if (!memcmp(type.sentence_id, sentence_id_map[i].str, sizeof(type.sentence_id))) {
 1798              		.loc 1 386 61 discriminator 2 view .LVU519
 1799              	.LBE48:
 384:SynaptiX_FDK/components/gps/minmea.c ****         return MINMEA_INVALID;
 1800              		.loc 1 384 16 view .LVU520
 1801 0034 4FF0FF30 		mov	r0, #-1
 1802 0038 06E0     		b	.L162
 1803              	.LVL200:
 1804              	.L171:
 1805              	.LBB49:
 388:SynaptiX_FDK/components/gps/minmea.c ****             return sentence_id_map[i].id;
 1806              		.loc 1 388 13 is_stmt 1 view .LVU521
 1807              		.loc 1 388 38 is_stmt 0 view .LVU522
 1808 003a 074B     		ldr	r3, .L172+4
 1809 003c 03EBC403 		add	r3, r3, r4, lsl #3
 1810 0040 93F90400 		ldrsb	r0, [r3, #4]
 1811 0044 00E0     		b	.L162
 1812              	.L170:
 1813              		.loc 1 388 38 view .LVU523
 1814              	.LBE49:
 389:SynaptiX_FDK/components/gps/minmea.c ****         }
 390:SynaptiX_FDK/components/gps/minmea.c ****     }
 391:SynaptiX_FDK/components/gps/minmea.c **** 
 392:SynaptiX_FDK/components/gps/minmea.c ****     return MINMEA_UNKNOWN;
 1815              		.loc 1 392 12 view .LVU524
 1816 0046 0020     		movs	r0, #0
 1817              	.LVL201:
 1818              	.L162:
 393:SynaptiX_FDK/components/gps/minmea.c **** }
ARM GAS  C:\Users\LENOVO\AppData\Local\Temp\cc57JGiB.s 			page 50


 1819              		.loc 1 393 1 view .LVU525
 1820 0048 02B0     		add	sp, sp, #8
 1821              	.LCFI13:
 1822              		.cfi_remember_state
 1823              		.cfi_def_cfa_offset 8
 1824              		@ sp needed
 1825 004a 10BD     		pop	{r4, pc}
 1826              	.LVL202:
 1827              	.L166:
 1828              	.LCFI14:
 1829              		.cfi_restore_state
 380:SynaptiX_FDK/components/gps/minmea.c **** 
 1830              		.loc 1 380 16 view .LVU526
 1831 004c 4FF0FF30 		mov	r0, #-1
 1832 0050 FAE7     		b	.L162
 1833              	.L173:
 1834 0052 00BF     		.align	2
 1835              	.L172:
 1836 0054 00000000 		.word	.LC0
 1837 0058 00000000 		.word	sentence_id_map
 1838              		.cfi_endproc
 1839              	.LFE11:
 1841              		.section	.rodata.minmea_parse_gbs.str1.4,"aMS",%progbits,1
 1842              		.align	2
 1843              	.LC2:
 1844 0000 74546666 		.ascii	"tTfffifff\000"
 1844      66696666 
 1844      6600
 1845 000a 0000     		.align	2
 1846              	.LC3:
 1847 000c 47425300 		.ascii	"GBS\000"
 1848              		.section	.text.minmea_parse_gbs,"ax",%progbits
 1849              		.align	1
 1850              		.global	minmea_parse_gbs
 1851              		.syntax unified
 1852              		.thumb
 1853              		.thumb_func
 1855              	minmea_parse_gbs:
 1856              	.LVL203:
 1857              	.LFB12:
 394:SynaptiX_FDK/components/gps/minmea.c **** 
 395:SynaptiX_FDK/components/gps/minmea.c **** bool minmea_parse_gbs(struct minmea_sentence_gbs *frame, const char *sentence)
 396:SynaptiX_FDK/components/gps/minmea.c **** {
 1858              		.loc 1 396 1 is_stmt 1 view -0
 1859              		.cfi_startproc
 1860              		@ args = 0, pretend = 0, frame = 0
 1861              		@ frame_needed = 0, uses_anonymous_args = 0
 1862              		.loc 1 396 1 is_stmt 0 view .LVU528
 1863 0000 30B5     		push	{r4, r5, lr}
 1864              	.LCFI15:
 1865              		.cfi_def_cfa_offset 12
 1866              		.cfi_offset 4, -12
 1867              		.cfi_offset 5, -8
 1868              		.cfi_offset 14, -4
 1869 0002 89B0     		sub	sp, sp, #36
 1870              	.LCFI16:
 1871              		.cfi_def_cfa_offset 48
ARM GAS  C:\Users\LENOVO\AppData\Local\Temp\cc57JGiB.s 			page 51


 1872 0004 0446     		mov	r4, r0
 1873 0006 0846     		mov	r0, r1
 1874              	.LVL204:
 397:SynaptiX_FDK/components/gps/minmea.c ****     // $GNGBS,170556.00,3.0,2.9,8.3,,,,*5C
 398:SynaptiX_FDK/components/gps/minmea.c ****     if (!minmea_scan(sentence, "tTfffifff",
 1875              		.loc 1 398 5 is_stmt 1 view .LVU529
 1876              		.loc 1 398 10 is_stmt 0 view .LVU530
 1877 0008 04F14403 		add	r3, r4, #68
 1878 000c 0693     		str	r3, [sp, #24]
 1879 000e 04F13C03 		add	r3, r4, #60
 1880 0012 0593     		str	r3, [sp, #20]
 1881 0014 04F13403 		add	r3, r4, #52
 1882 0018 0493     		str	r3, [sp, #16]
 1883 001a 04F13003 		add	r3, r4, #48
 1884 001e 0393     		str	r3, [sp, #12]
 1885 0020 04F12803 		add	r3, r4, #40
 1886 0024 0293     		str	r3, [sp, #8]
 1887 0026 04F12003 		add	r3, r4, #32
 1888 002a 0193     		str	r3, [sp, #4]
 1889 002c 04F11803 		add	r3, r4, #24
 1890 0030 0093     		str	r3, [sp]
 1891 0032 04F10803 		add	r3, r4, #8
 1892 0036 2246     		mov	r2, r4
 1893 0038 0749     		ldr	r1, .L179
 1894              	.LVL205:
 1895              		.loc 1 398 10 view .LVU531
 1896 003a FFF7FEFF 		bl	minmea_scan
 1897              	.LVL206:
 1898              		.loc 1 398 8 discriminator 1 view .LVU532
 1899 003e 0546     		mov	r5, r0
 1900 0040 28B1     		cbz	r0, .L175
 399:SynaptiX_FDK/components/gps/minmea.c ****             &frame->type,
 400:SynaptiX_FDK/components/gps/minmea.c ****             &frame->time,
 401:SynaptiX_FDK/components/gps/minmea.c ****             &frame->err_latitude,
 402:SynaptiX_FDK/components/gps/minmea.c ****             &frame->err_longitude,
 403:SynaptiX_FDK/components/gps/minmea.c ****             &frame->err_altitude,
 404:SynaptiX_FDK/components/gps/minmea.c ****             &frame->svid,
 405:SynaptiX_FDK/components/gps/minmea.c ****             &frame->prob,
 406:SynaptiX_FDK/components/gps/minmea.c ****             &frame->bias,
 407:SynaptiX_FDK/components/gps/minmea.c ****             &frame->stddev
 408:SynaptiX_FDK/components/gps/minmea.c ****             ))
 409:SynaptiX_FDK/components/gps/minmea.c ****         return false;
 410:SynaptiX_FDK/components/gps/minmea.c ****     if (memcmp(frame->type.sentence_id, "GBS", sizeof(frame->type.sentence_id)))
 1901              		.loc 1 410 5 is_stmt 1 view .LVU533
 1902              		.loc 1 410 9 is_stmt 0 view .LVU534
 1903 0042 0322     		movs	r2, #3
 1904 0044 0549     		ldr	r1, .L179+4
 1905 0046 A01C     		adds	r0, r4, #2
 1906 0048 FFF7FEFF 		bl	memcmp
 1907              	.LVL207:
 1908              		.loc 1 410 8 discriminator 1 view .LVU535
 1909 004c 10B9     		cbnz	r0, .L178
 1910              	.L175:
 411:SynaptiX_FDK/components/gps/minmea.c ****         return false;
 412:SynaptiX_FDK/components/gps/minmea.c **** 
 413:SynaptiX_FDK/components/gps/minmea.c ****     return true;
 414:SynaptiX_FDK/components/gps/minmea.c **** }
ARM GAS  C:\Users\LENOVO\AppData\Local\Temp\cc57JGiB.s 			page 52


 1911              		.loc 1 414 1 view .LVU536
 1912 004e 2846     		mov	r0, r5
 1913 0050 09B0     		add	sp, sp, #36
 1914              	.LCFI17:
 1915              		.cfi_remember_state
 1916              		.cfi_def_cfa_offset 12
 1917              		@ sp needed
 1918 0052 30BD     		pop	{r4, r5, pc}
 1919              	.LVL208:
 1920              	.L178:
 1921              	.LCFI18:
 1922              		.cfi_restore_state
 411:SynaptiX_FDK/components/gps/minmea.c ****         return false;
 1923              		.loc 1 411 16 view .LVU537
 1924 0054 0025     		movs	r5, #0
 1925 0056 FAE7     		b	.L175
 1926              	.L180:
 1927              		.align	2
 1928              	.L179:
 1929 0058 00000000 		.word	.LC2
 1930 005c 0C000000 		.word	.LC3
 1931              		.cfi_endproc
 1932              	.LFE12:
 1934              		.section	.rodata.minmea_parse_rmc.str1.4,"aMS",%progbits,1
 1935              		.align	2
 1936              	.LC4:
 1937 0000 74546366 		.ascii	"tTcfdfdffDfd\000"
 1937      64666466 
 1937      66446664 
 1937      00
 1938 000d 000000   		.align	2
 1939              	.LC5:
 1940 0010 524D4300 		.ascii	"RMC\000"
 1941              		.section	.text.minmea_parse_rmc,"ax",%progbits
 1942              		.align	1
 1943              		.global	minmea_parse_rmc
 1944              		.syntax unified
 1945              		.thumb
 1946              		.thumb_func
 1948              	minmea_parse_rmc:
 1949              	.LVL209:
 1950              	.LFB13:
 415:SynaptiX_FDK/components/gps/minmea.c **** 
 416:SynaptiX_FDK/components/gps/minmea.c **** bool minmea_parse_rmc(struct minmea_sentence_rmc *frame, const char *sentence)
 417:SynaptiX_FDK/components/gps/minmea.c **** {
 1951              		.loc 1 417 1 is_stmt 1 view -0
 1952              		.cfi_startproc
 1953              		@ args = 0, pretend = 0, frame = 16
 1954              		@ frame_needed = 0, uses_anonymous_args = 0
 1955              		.loc 1 417 1 is_stmt 0 view .LVU539
 1956 0000 30B5     		push	{r4, r5, lr}
 1957              	.LCFI19:
 1958              		.cfi_def_cfa_offset 12
 1959              		.cfi_offset 4, -12
 1960              		.cfi_offset 5, -8
 1961              		.cfi_offset 14, -4
 1962 0002 8FB0     		sub	sp, sp, #60
ARM GAS  C:\Users\LENOVO\AppData\Local\Temp\cc57JGiB.s 			page 53


 1963              	.LCFI20:
 1964              		.cfi_def_cfa_offset 72
 1965 0004 0446     		mov	r4, r0
 1966 0006 0846     		mov	r0, r1
 1967              	.LVL210:
 418:SynaptiX_FDK/components/gps/minmea.c ****     // $GPRMC,081836,A,3751.65,S,14507.36,E,000.0,360.0,130998,011.3,E*62
 419:SynaptiX_FDK/components/gps/minmea.c ****     char validity;
 1968              		.loc 1 419 5 is_stmt 1 view .LVU540
 420:SynaptiX_FDK/components/gps/minmea.c ****     int latitude_direction;
 1969              		.loc 1 420 5 view .LVU541
 421:SynaptiX_FDK/components/gps/minmea.c ****     int longitude_direction;
 1970              		.loc 1 421 5 view .LVU542
 422:SynaptiX_FDK/components/gps/minmea.c ****     int variation_direction;
 1971              		.loc 1 422 5 view .LVU543
 423:SynaptiX_FDK/components/gps/minmea.c ****     if (!minmea_scan(sentence, "tTcfdfdffDfd",
 1972              		.loc 1 423 5 view .LVU544
 1973              		.loc 1 423 10 is_stmt 0 view .LVU545
 1974 0008 0AAB     		add	r3, sp, #40
 1975 000a 0993     		str	r3, [sp, #36]
 1976 000c 04F14803 		add	r3, r4, #72
 1977 0010 0893     		str	r3, [sp, #32]
 1978 0012 04F13C03 		add	r3, r4, #60
 1979 0016 0793     		str	r3, [sp, #28]
 1980 0018 04F13403 		add	r3, r4, #52
 1981 001c 0693     		str	r3, [sp, #24]
 1982 001e 04F12C03 		add	r3, r4, #44
 1983 0022 0593     		str	r3, [sp, #20]
 1984 0024 0BAB     		add	r3, sp, #44
 1985 0026 0493     		str	r3, [sp, #16]
 1986 0028 04F12403 		add	r3, r4, #36
 1987 002c 0393     		str	r3, [sp, #12]
 1988 002e 0CAB     		add	r3, sp, #48
 1989 0030 0293     		str	r3, [sp, #8]
 1990 0032 04F11C03 		add	r3, r4, #28
 1991 0036 0193     		str	r3, [sp, #4]
 1992 0038 0DF13703 		add	r3, sp, #55
 1993 003c 0093     		str	r3, [sp]
 1994 003e 04F10803 		add	r3, r4, #8
 1995 0042 2246     		mov	r2, r4
 1996 0044 1249     		ldr	r1, .L185
 1997              	.LVL211:
 1998              		.loc 1 423 10 view .LVU546
 1999 0046 FFF7FEFF 		bl	minmea_scan
 2000              	.LVL212:
 2001              		.loc 1 423 8 discriminator 1 view .LVU547
 2002 004a 0546     		mov	r5, r0
 2003 004c D8B1     		cbz	r0, .L182
 424:SynaptiX_FDK/components/gps/minmea.c ****             &frame->type,
 425:SynaptiX_FDK/components/gps/minmea.c ****             &frame->time,
 426:SynaptiX_FDK/components/gps/minmea.c ****             &validity,
 427:SynaptiX_FDK/components/gps/minmea.c ****             &frame->latitude, &latitude_direction,
 428:SynaptiX_FDK/components/gps/minmea.c ****             &frame->longitude, &longitude_direction,
 429:SynaptiX_FDK/components/gps/minmea.c ****             &frame->speed,
 430:SynaptiX_FDK/components/gps/minmea.c ****             &frame->course,
 431:SynaptiX_FDK/components/gps/minmea.c ****             &frame->date,
 432:SynaptiX_FDK/components/gps/minmea.c ****             &frame->variation, &variation_direction))
 433:SynaptiX_FDK/components/gps/minmea.c ****         return false;
ARM GAS  C:\Users\LENOVO\AppData\Local\Temp\cc57JGiB.s 			page 54


 434:SynaptiX_FDK/components/gps/minmea.c ****     if (memcmp(frame->type.sentence_id, "RMC", sizeof(frame->type.sentence_id)))
 2004              		.loc 1 434 5 is_stmt 1 view .LVU548
 2005              		.loc 1 434 9 is_stmt 0 view .LVU549
 2006 004e 0322     		movs	r2, #3
 2007 0050 1049     		ldr	r1, .L185+4
 2008 0052 A01C     		adds	r0, r4, #2
 2009 0054 FFF7FEFF 		bl	memcmp
 2010              	.LVL213:
 2011              		.loc 1 434 8 discriminator 1 view .LVU550
 2012 0058 C0B9     		cbnz	r0, .L183
 435:SynaptiX_FDK/components/gps/minmea.c ****         return false;
 436:SynaptiX_FDK/components/gps/minmea.c **** 
 437:SynaptiX_FDK/components/gps/minmea.c ****     frame->valid = (validity == 'A');
 2013              		.loc 1 437 5 is_stmt 1 view .LVU551
 2014              		.loc 1 437 30 is_stmt 0 view .LVU552
 2015 005a 9DF83730 		ldrb	r3, [sp, #55]	@ zero_extendqisi2
 2016 005e 412B     		cmp	r3, #65
 2017 0060 14BF     		ite	ne
 2018 0062 0023     		movne	r3, #0
 2019 0064 0123     		moveq	r3, #1
 2020              		.loc 1 437 18 view .LVU553
 2021 0066 2376     		strb	r3, [r4, #24]
 438:SynaptiX_FDK/components/gps/minmea.c ****     frame->latitude.value *= latitude_direction;
 2022              		.loc 1 438 5 is_stmt 1 view .LVU554
 2023              		.loc 1 438 20 is_stmt 0 view .LVU555
 2024 0068 E269     		ldr	r2, [r4, #28]
 2025              		.loc 1 438 27 view .LVU556
 2026 006a 0C9B     		ldr	r3, [sp, #48]
 2027 006c 02FB03F3 		mul	r3, r2, r3
 2028 0070 E361     		str	r3, [r4, #28]
 439:SynaptiX_FDK/components/gps/minmea.c ****     frame->longitude.value *= longitude_direction;
 2029              		.loc 1 439 5 is_stmt 1 view .LVU557
 2030              		.loc 1 439 21 is_stmt 0 view .LVU558
 2031 0072 626A     		ldr	r2, [r4, #36]
 2032              		.loc 1 439 28 view .LVU559
 2033 0074 0B9B     		ldr	r3, [sp, #44]
 2034 0076 02FB03F3 		mul	r3, r2, r3
 2035 007a 6362     		str	r3, [r4, #36]
 440:SynaptiX_FDK/components/gps/minmea.c ****     frame->variation.value *= variation_direction;
 2036              		.loc 1 440 5 is_stmt 1 view .LVU560
 2037              		.loc 1 440 21 is_stmt 0 view .LVU561
 2038 007c A26C     		ldr	r2, [r4, #72]
 2039              		.loc 1 440 28 view .LVU562
 2040 007e 0A9B     		ldr	r3, [sp, #40]
 2041 0080 02FB03F3 		mul	r3, r2, r3
 2042 0084 A364     		str	r3, [r4, #72]
 441:SynaptiX_FDK/components/gps/minmea.c **** 
 442:SynaptiX_FDK/components/gps/minmea.c ****     return true;
 2043              		.loc 1 442 5 is_stmt 1 view .LVU563
 2044              	.L182:
 443:SynaptiX_FDK/components/gps/minmea.c **** }
 2045              		.loc 1 443 1 is_stmt 0 view .LVU564
 2046 0086 2846     		mov	r0, r5
 2047 0088 0FB0     		add	sp, sp, #60
 2048              	.LCFI21:
 2049              		.cfi_remember_state
 2050              		.cfi_def_cfa_offset 12
ARM GAS  C:\Users\LENOVO\AppData\Local\Temp\cc57JGiB.s 			page 55


 2051              		@ sp needed
 2052 008a 30BD     		pop	{r4, r5, pc}
 2053              	.LVL214:
 2054              	.L183:
 2055              	.LCFI22:
 2056              		.cfi_restore_state
 435:SynaptiX_FDK/components/gps/minmea.c **** 
 2057              		.loc 1 435 16 view .LVU565
 2058 008c 0025     		movs	r5, #0
 2059 008e FAE7     		b	.L182
 2060              	.L186:
 2061              		.align	2
 2062              	.L185:
 2063 0090 00000000 		.word	.LC4
 2064 0094 10000000 		.word	.LC5
 2065              		.cfi_endproc
 2066              	.LFE13:
 2068              		.section	.rodata.minmea_parse_gga.str1.4,"aMS",%progbits,1
 2069              		.align	2
 2070              	.LC6:
 2071 0000 74546664 		.ascii	"tTfdfdiiffcfcf_\000"
 2071      66646969 
 2071      66666366 
 2071      63665F00 
 2072              		.align	2
 2073              	.LC7:
 2074 0010 47474100 		.ascii	"GGA\000"
 2075              		.section	.text.minmea_parse_gga,"ax",%progbits
 2076              		.align	1
 2077              		.global	minmea_parse_gga
 2078              		.syntax unified
 2079              		.thumb
 2080              		.thumb_func
 2082              	minmea_parse_gga:
 2083              	.LVL215:
 2084              	.LFB14:
 444:SynaptiX_FDK/components/gps/minmea.c **** 
 445:SynaptiX_FDK/components/gps/minmea.c **** bool minmea_parse_gga(struct minmea_sentence_gga *frame, const char *sentence)
 446:SynaptiX_FDK/components/gps/minmea.c **** {
 2085              		.loc 1 446 1 is_stmt 1 view -0
 2086              		.cfi_startproc
 2087              		@ args = 0, pretend = 0, frame = 8
 2088              		@ frame_needed = 0, uses_anonymous_args = 0
 2089              		.loc 1 446 1 is_stmt 0 view .LVU567
 2090 0000 30B5     		push	{r4, r5, lr}
 2091              	.LCFI23:
 2092              		.cfi_def_cfa_offset 12
 2093              		.cfi_offset 4, -12
 2094              		.cfi_offset 5, -8
 2095              		.cfi_offset 14, -4
 2096 0002 8FB0     		sub	sp, sp, #60
 2097              	.LCFI24:
 2098              		.cfi_def_cfa_offset 72
 2099 0004 0446     		mov	r4, r0
 2100 0006 0846     		mov	r0, r1
 2101              	.LVL216:
 447:SynaptiX_FDK/components/gps/minmea.c ****     // $GPGGA,123519,4807.038,N,01131.000,E,1,08,0.9,545.4,M,46.9,M,,*47
ARM GAS  C:\Users\LENOVO\AppData\Local\Temp\cc57JGiB.s 			page 56


 448:SynaptiX_FDK/components/gps/minmea.c ****     int latitude_direction;
 2102              		.loc 1 448 5 is_stmt 1 view .LVU568
 449:SynaptiX_FDK/components/gps/minmea.c ****     int longitude_direction;
 2103              		.loc 1 449 5 view .LVU569
 450:SynaptiX_FDK/components/gps/minmea.c **** 
 451:SynaptiX_FDK/components/gps/minmea.c ****     if (!minmea_scan(sentence, "tTfdfdiiffcfcf_",
 2104              		.loc 1 451 5 view .LVU570
 2105              		.loc 1 451 10 is_stmt 0 view .LVU571
 2106 0008 04F15003 		add	r3, r4, #80
 2107 000c 0B93     		str	r3, [sp, #44]
 2108 000e 04F14C03 		add	r3, r4, #76
 2109 0012 0A93     		str	r3, [sp, #40]
 2110 0014 04F14403 		add	r3, r4, #68
 2111 0018 0993     		str	r3, [sp, #36]
 2112 001a 04F14003 		add	r3, r4, #64
 2113 001e 0893     		str	r3, [sp, #32]
 2114 0020 04F13803 		add	r3, r4, #56
 2115 0024 0793     		str	r3, [sp, #28]
 2116 0026 04F13003 		add	r3, r4, #48
 2117 002a 0693     		str	r3, [sp, #24]
 2118 002c 04F12C03 		add	r3, r4, #44
 2119 0030 0593     		str	r3, [sp, #20]
 2120 0032 04F12803 		add	r3, r4, #40
 2121 0036 0493     		str	r3, [sp, #16]
 2122 0038 0CAB     		add	r3, sp, #48
 2123 003a 0393     		str	r3, [sp, #12]
 2124 003c 04F12003 		add	r3, r4, #32
 2125 0040 0293     		str	r3, [sp, #8]
 2126 0042 0DAB     		add	r3, sp, #52
 2127 0044 0193     		str	r3, [sp, #4]
 2128 0046 04F11803 		add	r3, r4, #24
 2129 004a 0093     		str	r3, [sp]
 2130 004c 04F10803 		add	r3, r4, #8
 2131 0050 2246     		mov	r2, r4
 2132 0052 0D49     		ldr	r1, .L191
 2133              	.LVL217:
 2134              		.loc 1 451 10 view .LVU572
 2135 0054 FFF7FEFF 		bl	minmea_scan
 2136              	.LVL218:
 2137              		.loc 1 451 8 discriminator 1 view .LVU573
 2138 0058 0546     		mov	r5, r0
 2139 005a 78B1     		cbz	r0, .L188
 452:SynaptiX_FDK/components/gps/minmea.c ****             &frame->type,
 453:SynaptiX_FDK/components/gps/minmea.c ****             &frame->time,
 454:SynaptiX_FDK/components/gps/minmea.c ****             &frame->latitude, &latitude_direction,
 455:SynaptiX_FDK/components/gps/minmea.c ****             &frame->longitude, &longitude_direction,
 456:SynaptiX_FDK/components/gps/minmea.c ****             &frame->fix_quality,
 457:SynaptiX_FDK/components/gps/minmea.c ****             &frame->satellites_tracked,
 458:SynaptiX_FDK/components/gps/minmea.c ****             &frame->hdop,
 459:SynaptiX_FDK/components/gps/minmea.c ****             &frame->altitude, &frame->altitude_units,
 460:SynaptiX_FDK/components/gps/minmea.c ****             &frame->height, &frame->height_units,
 461:SynaptiX_FDK/components/gps/minmea.c ****             &frame->dgps_age))
 462:SynaptiX_FDK/components/gps/minmea.c ****         return false;
 463:SynaptiX_FDK/components/gps/minmea.c ****     if (memcmp(frame->type.sentence_id, "GGA", sizeof(frame->type.sentence_id)))
 2140              		.loc 1 463 5 is_stmt 1 view .LVU574
 2141              		.loc 1 463 9 is_stmt 0 view .LVU575
 2142 005c 0322     		movs	r2, #3
ARM GAS  C:\Users\LENOVO\AppData\Local\Temp\cc57JGiB.s 			page 57


 2143 005e 0B49     		ldr	r1, .L191+4
 2144 0060 A01C     		adds	r0, r4, #2
 2145 0062 FFF7FEFF 		bl	memcmp
 2146              	.LVL219:
 2147              		.loc 1 463 8 discriminator 1 view .LVU576
 2148 0066 60B9     		cbnz	r0, .L189
 464:SynaptiX_FDK/components/gps/minmea.c ****         return false;
 465:SynaptiX_FDK/components/gps/minmea.c **** 
 466:SynaptiX_FDK/components/gps/minmea.c ****     frame->latitude.value *= latitude_direction;
 2149              		.loc 1 466 5 is_stmt 1 view .LVU577
 2150              		.loc 1 466 20 is_stmt 0 view .LVU578
 2151 0068 A269     		ldr	r2, [r4, #24]
 2152              		.loc 1 466 27 view .LVU579
 2153 006a 0D9B     		ldr	r3, [sp, #52]
 2154 006c 02FB03F3 		mul	r3, r2, r3
 2155 0070 A361     		str	r3, [r4, #24]
 467:SynaptiX_FDK/components/gps/minmea.c ****     frame->longitude.value *= longitude_direction;
 2156              		.loc 1 467 5 is_stmt 1 view .LVU580
 2157              		.loc 1 467 21 is_stmt 0 view .LVU581
 2158 0072 226A     		ldr	r2, [r4, #32]
 2159              		.loc 1 467 28 view .LVU582
 2160 0074 0C9B     		ldr	r3, [sp, #48]
 2161 0076 02FB03F3 		mul	r3, r2, r3
 2162 007a 2362     		str	r3, [r4, #32]
 468:SynaptiX_FDK/components/gps/minmea.c **** 
 469:SynaptiX_FDK/components/gps/minmea.c ****     return true;
 2163              		.loc 1 469 5 is_stmt 1 view .LVU583
 2164              	.L188:
 470:SynaptiX_FDK/components/gps/minmea.c **** }
 2165              		.loc 1 470 1 is_stmt 0 view .LVU584
 2166 007c 2846     		mov	r0, r5
 2167 007e 0FB0     		add	sp, sp, #60
 2168              	.LCFI25:
 2169              		.cfi_remember_state
 2170              		.cfi_def_cfa_offset 12
 2171              		@ sp needed
 2172 0080 30BD     		pop	{r4, r5, pc}
 2173              	.LVL220:
 2174              	.L189:
 2175              	.LCFI26:
 2176              		.cfi_restore_state
 464:SynaptiX_FDK/components/gps/minmea.c **** 
 2177              		.loc 1 464 16 view .LVU585
 2178 0082 0025     		movs	r5, #0
 2179 0084 FAE7     		b	.L188
 2180              	.L192:
 2181 0086 00BF     		.align	2
 2182              	.L191:
 2183 0088 00000000 		.word	.LC6
 2184 008c 10000000 		.word	.LC7
 2185              		.cfi_endproc
 2186              	.LFE14:
 2188              		.section	.rodata.minmea_parse_gsa.str1.4,"aMS",%progbits,1
 2189              		.align	2
 2190              	.LC8:
 2191 0000 74636969 		.ascii	"tciiiiiiiiiiiiifff\000"
 2191      69696969 
ARM GAS  C:\Users\LENOVO\AppData\Local\Temp\cc57JGiB.s 			page 58


 2191      69696969 
 2191      69696966 
 2191      666600
 2192 0013 00       		.align	2
 2193              	.LC9:
 2194 0014 47534100 		.ascii	"GSA\000"
 2195              		.section	.text.minmea_parse_gsa,"ax",%progbits
 2196              		.align	1
 2197              		.global	minmea_parse_gsa
 2198              		.syntax unified
 2199              		.thumb
 2200              		.thumb_func
 2202              	minmea_parse_gsa:
 2203              	.LVL221:
 2204              	.LFB15:
 471:SynaptiX_FDK/components/gps/minmea.c **** 
 472:SynaptiX_FDK/components/gps/minmea.c **** bool minmea_parse_gsa(struct minmea_sentence_gsa *frame, const char *sentence)
 473:SynaptiX_FDK/components/gps/minmea.c **** {
 2205              		.loc 1 473 1 is_stmt 1 view -0
 2206              		.cfi_startproc
 2207              		@ args = 0, pretend = 0, frame = 0
 2208              		@ frame_needed = 0, uses_anonymous_args = 0
 2209              		.loc 1 473 1 is_stmt 0 view .LVU587
 2210 0000 30B5     		push	{r4, r5, lr}
 2211              	.LCFI27:
 2212              		.cfi_def_cfa_offset 12
 2213              		.cfi_offset 4, -12
 2214              		.cfi_offset 5, -8
 2215              		.cfi_offset 14, -4
 2216 0002 91B0     		sub	sp, sp, #68
 2217              	.LCFI28:
 2218              		.cfi_def_cfa_offset 80
 2219 0004 0446     		mov	r4, r0
 2220 0006 0846     		mov	r0, r1
 2221              	.LVL222:
 474:SynaptiX_FDK/components/gps/minmea.c ****     // $GPGSA,A,3,04,05,,09,12,,,24,,,,,2.5,1.3,2.1*39
 475:SynaptiX_FDK/components/gps/minmea.c **** 
 476:SynaptiX_FDK/components/gps/minmea.c ****     if (!minmea_scan(sentence, "tciiiiiiiiiiiiifff",
 2222              		.loc 1 476 5 is_stmt 1 view .LVU588
 2223              		.loc 1 476 10 is_stmt 0 view .LVU589
 2224 0008 04F14C03 		add	r3, r4, #76
 2225 000c 0F93     		str	r3, [sp, #60]
 2226 000e 04F14403 		add	r3, r4, #68
 2227 0012 0E93     		str	r3, [sp, #56]
 2228 0014 04F13C03 		add	r3, r4, #60
 2229 0018 0D93     		str	r3, [sp, #52]
 2230 001a 04F13803 		add	r3, r4, #56
 2231 001e 0C93     		str	r3, [sp, #48]
 2232 0020 04F13403 		add	r3, r4, #52
 2233 0024 0B93     		str	r3, [sp, #44]
 2234 0026 04F13003 		add	r3, r4, #48
 2235 002a 0A93     		str	r3, [sp, #40]
 2236 002c 04F12C03 		add	r3, r4, #44
 2237 0030 0993     		str	r3, [sp, #36]
 2238 0032 04F12803 		add	r3, r4, #40
 2239 0036 0893     		str	r3, [sp, #32]
 2240 0038 04F12403 		add	r3, r4, #36
ARM GAS  C:\Users\LENOVO\AppData\Local\Temp\cc57JGiB.s 			page 59


 2241 003c 0793     		str	r3, [sp, #28]
 2242 003e 04F12003 		add	r3, r4, #32
 2243 0042 0693     		str	r3, [sp, #24]
 2244 0044 04F11C03 		add	r3, r4, #28
 2245 0048 0593     		str	r3, [sp, #20]
 2246 004a 04F11803 		add	r3, r4, #24
 2247 004e 0493     		str	r3, [sp, #16]
 2248 0050 04F11403 		add	r3, r4, #20
 2249 0054 0393     		str	r3, [sp, #12]
 2250 0056 04F11003 		add	r3, r4, #16
 2251 005a 0293     		str	r3, [sp, #8]
 2252 005c 04F10C03 		add	r3, r4, #12
 2253 0060 0193     		str	r3, [sp, #4]
 2254 0062 04F10803 		add	r3, r4, #8
 2255 0066 0093     		str	r3, [sp]
 2256 0068 A31D     		adds	r3, r4, #6
 2257 006a 2246     		mov	r2, r4
 2258 006c 0749     		ldr	r1, .L198
 2259              	.LVL223:
 2260              		.loc 1 476 10 view .LVU590
 2261 006e FFF7FEFF 		bl	minmea_scan
 2262              	.LVL224:
 2263              		.loc 1 476 8 discriminator 1 view .LVU591
 2264 0072 0546     		mov	r5, r0
 2265 0074 28B1     		cbz	r0, .L194
 477:SynaptiX_FDK/components/gps/minmea.c ****             &frame->type,
 478:SynaptiX_FDK/components/gps/minmea.c ****             &frame->mode,
 479:SynaptiX_FDK/components/gps/minmea.c ****             &frame->fix_type,
 480:SynaptiX_FDK/components/gps/minmea.c ****             &frame->sats[0],
 481:SynaptiX_FDK/components/gps/minmea.c ****             &frame->sats[1],
 482:SynaptiX_FDK/components/gps/minmea.c ****             &frame->sats[2],
 483:SynaptiX_FDK/components/gps/minmea.c ****             &frame->sats[3],
 484:SynaptiX_FDK/components/gps/minmea.c ****             &frame->sats[4],
 485:SynaptiX_FDK/components/gps/minmea.c ****             &frame->sats[5],
 486:SynaptiX_FDK/components/gps/minmea.c ****             &frame->sats[6],
 487:SynaptiX_FDK/components/gps/minmea.c ****             &frame->sats[7],
 488:SynaptiX_FDK/components/gps/minmea.c ****             &frame->sats[8],
 489:SynaptiX_FDK/components/gps/minmea.c ****             &frame->sats[9],
 490:SynaptiX_FDK/components/gps/minmea.c ****             &frame->sats[10],
 491:SynaptiX_FDK/components/gps/minmea.c ****             &frame->sats[11],
 492:SynaptiX_FDK/components/gps/minmea.c ****             &frame->pdop,
 493:SynaptiX_FDK/components/gps/minmea.c ****             &frame->hdop,
 494:SynaptiX_FDK/components/gps/minmea.c ****             &frame->vdop))
 495:SynaptiX_FDK/components/gps/minmea.c ****         return false;
 496:SynaptiX_FDK/components/gps/minmea.c ****     if (memcmp(frame->type.sentence_id, "GSA", sizeof(frame->type.sentence_id)))
 2266              		.loc 1 496 5 is_stmt 1 view .LVU592
 2267              		.loc 1 496 9 is_stmt 0 view .LVU593
 2268 0076 0322     		movs	r2, #3
 2269 0078 0549     		ldr	r1, .L198+4
 2270 007a A01C     		adds	r0, r4, #2
 2271 007c FFF7FEFF 		bl	memcmp
 2272              	.LVL225:
 2273              		.loc 1 496 8 discriminator 1 view .LVU594
 2274 0080 10B9     		cbnz	r0, .L197
 2275              	.L194:
 497:SynaptiX_FDK/components/gps/minmea.c ****         return false;
 498:SynaptiX_FDK/components/gps/minmea.c **** 
ARM GAS  C:\Users\LENOVO\AppData\Local\Temp\cc57JGiB.s 			page 60


 499:SynaptiX_FDK/components/gps/minmea.c ****     return true;
 500:SynaptiX_FDK/components/gps/minmea.c **** }
 2276              		.loc 1 500 1 view .LVU595
 2277 0082 2846     		mov	r0, r5
 2278 0084 11B0     		add	sp, sp, #68
 2279              	.LCFI29:
 2280              		.cfi_remember_state
 2281              		.cfi_def_cfa_offset 12
 2282              		@ sp needed
 2283 0086 30BD     		pop	{r4, r5, pc}
 2284              	.LVL226:
 2285              	.L197:
 2286              	.LCFI30:
 2287              		.cfi_restore_state
 497:SynaptiX_FDK/components/gps/minmea.c ****         return false;
 2288              		.loc 1 497 16 view .LVU596
 2289 0088 0025     		movs	r5, #0
 2290 008a FAE7     		b	.L194
 2291              	.L199:
 2292              		.align	2
 2293              	.L198:
 2294 008c 00000000 		.word	.LC8
 2295 0090 14000000 		.word	.LC9
 2296              		.cfi_endproc
 2297              	.LFE15:
 2299              		.section	.rodata.minmea_parse_gll.str1.4,"aMS",%progbits,1
 2300              		.align	2
 2301              	.LC10:
 2302 0000 74666466 		.ascii	"tfdfdTc;c\000"
 2302      6454633B 
 2302      6300
 2303 000a 0000     		.align	2
 2304              	.LC11:
 2305 000c 474C4C00 		.ascii	"GLL\000"
 2306              		.section	.text.minmea_parse_gll,"ax",%progbits
 2307              		.align	1
 2308              		.global	minmea_parse_gll
 2309              		.syntax unified
 2310              		.thumb
 2311              		.thumb_func
 2313              	minmea_parse_gll:
 2314              	.LVL227:
 2315              	.LFB16:
 501:SynaptiX_FDK/components/gps/minmea.c **** 
 502:SynaptiX_FDK/components/gps/minmea.c **** bool minmea_parse_gll(struct minmea_sentence_gll *frame, const char *sentence)
 503:SynaptiX_FDK/components/gps/minmea.c **** {
 2316              		.loc 1 503 1 is_stmt 1 view -0
 2317              		.cfi_startproc
 2318              		@ args = 0, pretend = 0, frame = 8
 2319              		@ frame_needed = 0, uses_anonymous_args = 0
 2320              		.loc 1 503 1 is_stmt 0 view .LVU598
 2321 0000 30B5     		push	{r4, r5, lr}
 2322              	.LCFI31:
 2323              		.cfi_def_cfa_offset 12
 2324              		.cfi_offset 4, -12
 2325              		.cfi_offset 5, -8
 2326              		.cfi_offset 14, -4
ARM GAS  C:\Users\LENOVO\AppData\Local\Temp\cc57JGiB.s 			page 61


 2327 0002 89B0     		sub	sp, sp, #36
 2328              	.LCFI32:
 2329              		.cfi_def_cfa_offset 48
 2330 0004 0446     		mov	r4, r0
 2331 0006 0846     		mov	r0, r1
 2332              	.LVL228:
 504:SynaptiX_FDK/components/gps/minmea.c ****     // $GPGLL,3723.2475,N,12158.3416,W,161229.487,A,A*41$;
 505:SynaptiX_FDK/components/gps/minmea.c ****     int latitude_direction;
 2333              		.loc 1 505 5 is_stmt 1 view .LVU599
 506:SynaptiX_FDK/components/gps/minmea.c ****     int longitude_direction;
 2334              		.loc 1 506 5 view .LVU600
 507:SynaptiX_FDK/components/gps/minmea.c **** 
 508:SynaptiX_FDK/components/gps/minmea.c ****     if (!minmea_scan(sentence, "tfdfdTc;c",
 2335              		.loc 1 508 5 view .LVU601
 2336              		.loc 1 508 10 is_stmt 0 view .LVU602
 2337 0008 04F12903 		add	r3, r4, #41
 2338 000c 0593     		str	r3, [sp, #20]
 2339 000e 04F12803 		add	r3, r4, #40
 2340 0012 0493     		str	r3, [sp, #16]
 2341 0014 04F11803 		add	r3, r4, #24
 2342 0018 0393     		str	r3, [sp, #12]
 2343 001a 06AB     		add	r3, sp, #24
 2344 001c 0293     		str	r3, [sp, #8]
 2345 001e 04F11003 		add	r3, r4, #16
 2346 0022 0193     		str	r3, [sp, #4]
 2347 0024 07AB     		add	r3, sp, #28
 2348 0026 0093     		str	r3, [sp]
 2349 0028 04F10803 		add	r3, r4, #8
 2350 002c 2246     		mov	r2, r4
 2351 002e 0D49     		ldr	r1, .L204
 2352              	.LVL229:
 2353              		.loc 1 508 10 view .LVU603
 2354 0030 FFF7FEFF 		bl	minmea_scan
 2355              	.LVL230:
 2356              		.loc 1 508 8 discriminator 1 view .LVU604
 2357 0034 0546     		mov	r5, r0
 2358 0036 78B1     		cbz	r0, .L201
 509:SynaptiX_FDK/components/gps/minmea.c ****             &frame->type,
 510:SynaptiX_FDK/components/gps/minmea.c ****             &frame->latitude, &latitude_direction,
 511:SynaptiX_FDK/components/gps/minmea.c ****             &frame->longitude, &longitude_direction,
 512:SynaptiX_FDK/components/gps/minmea.c ****             &frame->time,
 513:SynaptiX_FDK/components/gps/minmea.c ****             &frame->status,
 514:SynaptiX_FDK/components/gps/minmea.c ****             &frame->mode))
 515:SynaptiX_FDK/components/gps/minmea.c ****         return false;
 516:SynaptiX_FDK/components/gps/minmea.c ****     if (memcmp(frame->type.sentence_id, "GLL", sizeof(frame->type.sentence_id)))
 2359              		.loc 1 516 5 is_stmt 1 view .LVU605
 2360              		.loc 1 516 9 is_stmt 0 view .LVU606
 2361 0038 0322     		movs	r2, #3
 2362 003a 0B49     		ldr	r1, .L204+4
 2363 003c A01C     		adds	r0, r4, #2
 2364 003e FFF7FEFF 		bl	memcmp
 2365              	.LVL231:
 2366              		.loc 1 516 8 discriminator 1 view .LVU607
 2367 0042 60B9     		cbnz	r0, .L202
 517:SynaptiX_FDK/components/gps/minmea.c ****         return false;
 518:SynaptiX_FDK/components/gps/minmea.c **** 
 519:SynaptiX_FDK/components/gps/minmea.c ****     frame->latitude.value *= latitude_direction;
ARM GAS  C:\Users\LENOVO\AppData\Local\Temp\cc57JGiB.s 			page 62


 2368              		.loc 1 519 5 is_stmt 1 view .LVU608
 2369              		.loc 1 519 20 is_stmt 0 view .LVU609
 2370 0044 A268     		ldr	r2, [r4, #8]
 2371              		.loc 1 519 27 view .LVU610
 2372 0046 079B     		ldr	r3, [sp, #28]
 2373 0048 02FB03F3 		mul	r3, r2, r3
 2374 004c A360     		str	r3, [r4, #8]
 520:SynaptiX_FDK/components/gps/minmea.c ****     frame->longitude.value *= longitude_direction;
 2375              		.loc 1 520 5 is_stmt 1 view .LVU611
 2376              		.loc 1 520 21 is_stmt 0 view .LVU612
 2377 004e 2269     		ldr	r2, [r4, #16]
 2378              		.loc 1 520 28 view .LVU613
 2379 0050 069B     		ldr	r3, [sp, #24]
 2380 0052 02FB03F3 		mul	r3, r2, r3
 2381 0056 2361     		str	r3, [r4, #16]
 521:SynaptiX_FDK/components/gps/minmea.c **** 
 522:SynaptiX_FDK/components/gps/minmea.c ****     return true;
 2382              		.loc 1 522 5 is_stmt 1 view .LVU614
 2383              	.L201:
 523:SynaptiX_FDK/components/gps/minmea.c **** }
 2384              		.loc 1 523 1 is_stmt 0 view .LVU615
 2385 0058 2846     		mov	r0, r5
 2386 005a 09B0     		add	sp, sp, #36
 2387              	.LCFI33:
 2388              		.cfi_remember_state
 2389              		.cfi_def_cfa_offset 12
 2390              		@ sp needed
 2391 005c 30BD     		pop	{r4, r5, pc}
 2392              	.LVL232:
 2393              	.L202:
 2394              	.LCFI34:
 2395              		.cfi_restore_state
 517:SynaptiX_FDK/components/gps/minmea.c **** 
 2396              		.loc 1 517 16 view .LVU616
 2397 005e 0025     		movs	r5, #0
 2398 0060 FAE7     		b	.L201
 2399              	.L205:
 2400 0062 00BF     		.align	2
 2401              	.L204:
 2402 0064 00000000 		.word	.LC10
 2403 0068 0C000000 		.word	.LC11
 2404              		.cfi_endproc
 2405              	.LFE16:
 2407              		.section	.rodata.minmea_parse_gst.str1.4,"aMS",%progbits,1
 2408              		.align	2
 2409              	.LC12:
 2410 0000 74546666 		.ascii	"tTfffffff\000"
 2410      66666666 
 2410      6600
 2411 000a 0000     		.align	2
 2412              	.LC13:
 2413 000c 47535400 		.ascii	"GST\000"
 2414              		.section	.text.minmea_parse_gst,"ax",%progbits
 2415              		.align	1
 2416              		.global	minmea_parse_gst
 2417              		.syntax unified
 2418              		.thumb
ARM GAS  C:\Users\LENOVO\AppData\Local\Temp\cc57JGiB.s 			page 63


 2419              		.thumb_func
 2421              	minmea_parse_gst:
 2422              	.LVL233:
 2423              	.LFB17:
 524:SynaptiX_FDK/components/gps/minmea.c **** 
 525:SynaptiX_FDK/components/gps/minmea.c **** bool minmea_parse_gst(struct minmea_sentence_gst *frame, const char *sentence)
 526:SynaptiX_FDK/components/gps/minmea.c **** {
 2424              		.loc 1 526 1 is_stmt 1 view -0
 2425              		.cfi_startproc
 2426              		@ args = 0, pretend = 0, frame = 0
 2427              		@ frame_needed = 0, uses_anonymous_args = 0
 2428              		.loc 1 526 1 is_stmt 0 view .LVU618
 2429 0000 30B5     		push	{r4, r5, lr}
 2430              	.LCFI35:
 2431              		.cfi_def_cfa_offset 12
 2432              		.cfi_offset 4, -12
 2433              		.cfi_offset 5, -8
 2434              		.cfi_offset 14, -4
 2435 0002 89B0     		sub	sp, sp, #36
 2436              	.LCFI36:
 2437              		.cfi_def_cfa_offset 48
 2438 0004 0446     		mov	r4, r0
 2439 0006 0846     		mov	r0, r1
 2440              	.LVL234:
 527:SynaptiX_FDK/components/gps/minmea.c ****     // $GPGST,024603.00,3.2,6.6,4.7,47.3,5.8,5.6,22.0*58
 528:SynaptiX_FDK/components/gps/minmea.c ****     if (!minmea_scan(sentence, "tTfffffff",
 2441              		.loc 1 528 5 is_stmt 1 view .LVU619
 2442              		.loc 1 528 10 is_stmt 0 view .LVU620
 2443 0008 04F14803 		add	r3, r4, #72
 2444 000c 0693     		str	r3, [sp, #24]
 2445 000e 04F14003 		add	r3, r4, #64
 2446 0012 0593     		str	r3, [sp, #20]
 2447 0014 04F13803 		add	r3, r4, #56
 2448 0018 0493     		str	r3, [sp, #16]
 2449 001a 04F13003 		add	r3, r4, #48
 2450 001e 0393     		str	r3, [sp, #12]
 2451 0020 04F12803 		add	r3, r4, #40
 2452 0024 0293     		str	r3, [sp, #8]
 2453 0026 04F12003 		add	r3, r4, #32
 2454 002a 0193     		str	r3, [sp, #4]
 2455 002c 04F11803 		add	r3, r4, #24
 2456 0030 0093     		str	r3, [sp]
 2457 0032 04F10803 		add	r3, r4, #8
 2458 0036 2246     		mov	r2, r4
 2459 0038 0749     		ldr	r1, .L211
 2460              	.LVL235:
 2461              		.loc 1 528 10 view .LVU621
 2462 003a FFF7FEFF 		bl	minmea_scan
 2463              	.LVL236:
 2464              		.loc 1 528 8 discriminator 1 view .LVU622
 2465 003e 0546     		mov	r5, r0
 2466 0040 28B1     		cbz	r0, .L207
 529:SynaptiX_FDK/components/gps/minmea.c ****             &frame->type,
 530:SynaptiX_FDK/components/gps/minmea.c ****             &frame->time,
 531:SynaptiX_FDK/components/gps/minmea.c ****             &frame->rms_deviation,
 532:SynaptiX_FDK/components/gps/minmea.c ****             &frame->semi_major_deviation,
 533:SynaptiX_FDK/components/gps/minmea.c ****             &frame->semi_minor_deviation,
ARM GAS  C:\Users\LENOVO\AppData\Local\Temp\cc57JGiB.s 			page 64


 534:SynaptiX_FDK/components/gps/minmea.c ****             &frame->semi_major_orientation,
 535:SynaptiX_FDK/components/gps/minmea.c ****             &frame->latitude_error_deviation,
 536:SynaptiX_FDK/components/gps/minmea.c ****             &frame->longitude_error_deviation,
 537:SynaptiX_FDK/components/gps/minmea.c ****             &frame->altitude_error_deviation))
 538:SynaptiX_FDK/components/gps/minmea.c ****         return false;
 539:SynaptiX_FDK/components/gps/minmea.c ****     if (memcmp(frame->type.sentence_id, "GST", sizeof(frame->type.sentence_id)))
 2467              		.loc 1 539 5 is_stmt 1 view .LVU623
 2468              		.loc 1 539 9 is_stmt 0 view .LVU624
 2469 0042 0322     		movs	r2, #3
 2470 0044 0549     		ldr	r1, .L211+4
 2471 0046 A01C     		adds	r0, r4, #2
 2472 0048 FFF7FEFF 		bl	memcmp
 2473              	.LVL237:
 2474              		.loc 1 539 8 discriminator 1 view .LVU625
 2475 004c 10B9     		cbnz	r0, .L210
 2476              	.L207:
 540:SynaptiX_FDK/components/gps/minmea.c ****         return false;
 541:SynaptiX_FDK/components/gps/minmea.c **** 
 542:SynaptiX_FDK/components/gps/minmea.c ****     return true;
 543:SynaptiX_FDK/components/gps/minmea.c **** }
 2477              		.loc 1 543 1 view .LVU626
 2478 004e 2846     		mov	r0, r5
 2479 0050 09B0     		add	sp, sp, #36
 2480              	.LCFI37:
 2481              		.cfi_remember_state
 2482              		.cfi_def_cfa_offset 12
 2483              		@ sp needed
 2484 0052 30BD     		pop	{r4, r5, pc}
 2485              	.LVL238:
 2486              	.L210:
 2487              	.LCFI38:
 2488              		.cfi_restore_state
 540:SynaptiX_FDK/components/gps/minmea.c ****         return false;
 2489              		.loc 1 540 16 view .LVU627
 2490 0054 0025     		movs	r5, #0
 2491 0056 FAE7     		b	.L207
 2492              	.L212:
 2493              		.align	2
 2494              	.L211:
 2495 0058 00000000 		.word	.LC12
 2496 005c 0C000000 		.word	.LC13
 2497              		.cfi_endproc
 2498              	.LFE17:
 2500              		.section	.rodata.minmea_parse_gsv.str1.4,"aMS",%progbits,1
 2501              		.align	2
 2502              	.LC14:
 2503 0000 74696969 		.ascii	"tiii;iiiiiiiiiiiiiiii\000"
 2503      3B696969 
 2503      69696969 
 2503      69696969 
 2503      69696969 
 2504 0016 0000     		.align	2
 2505              	.LC15:
 2506 0018 47535600 		.ascii	"GSV\000"
 2507              		.section	.text.minmea_parse_gsv,"ax",%progbits
 2508              		.align	1
 2509              		.global	minmea_parse_gsv
ARM GAS  C:\Users\LENOVO\AppData\Local\Temp\cc57JGiB.s 			page 65


 2510              		.syntax unified
 2511              		.thumb
 2512              		.thumb_func
 2514              	minmea_parse_gsv:
 2515              	.LVL239:
 2516              	.LFB18:
 544:SynaptiX_FDK/components/gps/minmea.c **** 
 545:SynaptiX_FDK/components/gps/minmea.c **** bool minmea_parse_gsv(struct minmea_sentence_gsv *frame, const char *sentence)
 546:SynaptiX_FDK/components/gps/minmea.c **** {
 2517              		.loc 1 546 1 is_stmt 1 view -0
 2518              		.cfi_startproc
 2519              		@ args = 0, pretend = 0, frame = 0
 2520              		@ frame_needed = 0, uses_anonymous_args = 0
 2521              		.loc 1 546 1 is_stmt 0 view .LVU629
 2522 0000 30B5     		push	{r4, r5, lr}
 2523              	.LCFI39:
 2524              		.cfi_def_cfa_offset 12
 2525              		.cfi_offset 4, -12
 2526              		.cfi_offset 5, -8
 2527              		.cfi_offset 14, -4
 2528 0002 93B0     		sub	sp, sp, #76
 2529              	.LCFI40:
 2530              		.cfi_def_cfa_offset 88
 2531 0004 0446     		mov	r4, r0
 2532 0006 0846     		mov	r0, r1
 2533              	.LVL240:
 547:SynaptiX_FDK/components/gps/minmea.c ****     // $GPGSV,3,1,11,03,03,111,00,04,15,270,00,06,01,010,00,13,06,292,00*74
 548:SynaptiX_FDK/components/gps/minmea.c ****     // $GPGSV,3,3,11,22,42,067,42,24,14,311,43,27,05,244,00,,,,*4D
 549:SynaptiX_FDK/components/gps/minmea.c ****     // $GPGSV,4,2,11,08,51,203,30,09,45,215,28*75
 550:SynaptiX_FDK/components/gps/minmea.c ****     // $GPGSV,4,4,13,39,31,170,27*40
 551:SynaptiX_FDK/components/gps/minmea.c ****     // $GPGSV,4,4,13*7B
 552:SynaptiX_FDK/components/gps/minmea.c **** 
 553:SynaptiX_FDK/components/gps/minmea.c ****     if (!minmea_scan(sentence, "tiii;iiiiiiiiiiiiiiii",
 2534              		.loc 1 553 5 is_stmt 1 view .LVU630
 2535              		.loc 1 553 10 is_stmt 0 view .LVU631
 2536 0008 04F15003 		add	r3, r4, #80
 2537 000c 1193     		str	r3, [sp, #68]
 2538 000e 04F14C03 		add	r3, r4, #76
 2539 0012 1093     		str	r3, [sp, #64]
 2540 0014 04F14803 		add	r3, r4, #72
 2541 0018 0F93     		str	r3, [sp, #60]
 2542 001a 04F14403 		add	r3, r4, #68
 2543 001e 0E93     		str	r3, [sp, #56]
 2544 0020 04F14003 		add	r3, r4, #64
 2545 0024 0D93     		str	r3, [sp, #52]
 2546 0026 04F13C03 		add	r3, r4, #60
 2547 002a 0C93     		str	r3, [sp, #48]
 2548 002c 04F13803 		add	r3, r4, #56
 2549 0030 0B93     		str	r3, [sp, #44]
 2550 0032 04F13403 		add	r3, r4, #52
 2551 0036 0A93     		str	r3, [sp, #40]
 2552 0038 04F13003 		add	r3, r4, #48
 2553 003c 0993     		str	r3, [sp, #36]
 2554 003e 04F12C03 		add	r3, r4, #44
 2555 0042 0893     		str	r3, [sp, #32]
 2556 0044 04F12803 		add	r3, r4, #40
 2557 0048 0793     		str	r3, [sp, #28]
ARM GAS  C:\Users\LENOVO\AppData\Local\Temp\cc57JGiB.s 			page 66


 2558 004a 04F12403 		add	r3, r4, #36
 2559 004e 0693     		str	r3, [sp, #24]
 2560 0050 04F12003 		add	r3, r4, #32
 2561 0054 0593     		str	r3, [sp, #20]
 2562 0056 04F11C03 		add	r3, r4, #28
 2563 005a 0493     		str	r3, [sp, #16]
 2564 005c 04F11803 		add	r3, r4, #24
 2565 0060 0393     		str	r3, [sp, #12]
 2566 0062 04F11403 		add	r3, r4, #20
 2567 0066 0293     		str	r3, [sp, #8]
 2568 0068 04F11003 		add	r3, r4, #16
 2569 006c 0193     		str	r3, [sp, #4]
 2570 006e 04F10C03 		add	r3, r4, #12
 2571 0072 0093     		str	r3, [sp]
 2572 0074 04F10803 		add	r3, r4, #8
 2573 0078 2246     		mov	r2, r4
 2574 007a 0849     		ldr	r1, .L218
 2575              	.LVL241:
 2576              		.loc 1 553 10 view .LVU632
 2577 007c FFF7FEFF 		bl	minmea_scan
 2578              	.LVL242:
 2579              		.loc 1 553 8 discriminator 1 view .LVU633
 2580 0080 0546     		mov	r5, r0
 2581 0082 28B1     		cbz	r0, .L214
 554:SynaptiX_FDK/components/gps/minmea.c ****             &frame->type,
 555:SynaptiX_FDK/components/gps/minmea.c ****             &frame->total_msgs,
 556:SynaptiX_FDK/components/gps/minmea.c ****             &frame->msg_nr,
 557:SynaptiX_FDK/components/gps/minmea.c ****             &frame->total_sats,
 558:SynaptiX_FDK/components/gps/minmea.c ****             &frame->sats[0].nr,
 559:SynaptiX_FDK/components/gps/minmea.c ****             &frame->sats[0].elevation,
 560:SynaptiX_FDK/components/gps/minmea.c ****             &frame->sats[0].azimuth,
 561:SynaptiX_FDK/components/gps/minmea.c ****             &frame->sats[0].snr,
 562:SynaptiX_FDK/components/gps/minmea.c ****             &frame->sats[1].nr,
 563:SynaptiX_FDK/components/gps/minmea.c ****             &frame->sats[1].elevation,
 564:SynaptiX_FDK/components/gps/minmea.c ****             &frame->sats[1].azimuth,
 565:SynaptiX_FDK/components/gps/minmea.c ****             &frame->sats[1].snr,
 566:SynaptiX_FDK/components/gps/minmea.c ****             &frame->sats[2].nr,
 567:SynaptiX_FDK/components/gps/minmea.c ****             &frame->sats[2].elevation,
 568:SynaptiX_FDK/components/gps/minmea.c ****             &frame->sats[2].azimuth,
 569:SynaptiX_FDK/components/gps/minmea.c ****             &frame->sats[2].snr,
 570:SynaptiX_FDK/components/gps/minmea.c ****             &frame->sats[3].nr,
 571:SynaptiX_FDK/components/gps/minmea.c ****             &frame->sats[3].elevation,
 572:SynaptiX_FDK/components/gps/minmea.c ****             &frame->sats[3].azimuth,
 573:SynaptiX_FDK/components/gps/minmea.c ****             &frame->sats[3].snr
 574:SynaptiX_FDK/components/gps/minmea.c ****             )) {
 575:SynaptiX_FDK/components/gps/minmea.c ****         return false;
 576:SynaptiX_FDK/components/gps/minmea.c ****     }
 577:SynaptiX_FDK/components/gps/minmea.c ****     if (memcmp(frame->type.sentence_id, "GSV", sizeof(frame->type.sentence_id)))
 2582              		.loc 1 577 5 is_stmt 1 view .LVU634
 2583              		.loc 1 577 9 is_stmt 0 view .LVU635
 2584 0084 0322     		movs	r2, #3
 2585 0086 0649     		ldr	r1, .L218+4
 2586 0088 A01C     		adds	r0, r4, #2
 2587 008a FFF7FEFF 		bl	memcmp
 2588              	.LVL243:
 2589              		.loc 1 577 8 discriminator 1 view .LVU636
 2590 008e 10B9     		cbnz	r0, .L217
ARM GAS  C:\Users\LENOVO\AppData\Local\Temp\cc57JGiB.s 			page 67


 2591              	.L214:
 578:SynaptiX_FDK/components/gps/minmea.c ****         return false;
 579:SynaptiX_FDK/components/gps/minmea.c ****     return true;
 580:SynaptiX_FDK/components/gps/minmea.c **** }
 2592              		.loc 1 580 1 view .LVU637
 2593 0090 2846     		mov	r0, r5
 2594 0092 13B0     		add	sp, sp, #76
 2595              	.LCFI41:
 2596              		.cfi_remember_state
 2597              		.cfi_def_cfa_offset 12
 2598              		@ sp needed
 2599 0094 30BD     		pop	{r4, r5, pc}
 2600              	.LVL244:
 2601              	.L217:
 2602              	.LCFI42:
 2603              		.cfi_restore_state
 578:SynaptiX_FDK/components/gps/minmea.c ****         return false;
 2604              		.loc 1 578 16 view .LVU638
 2605 0096 0025     		movs	r5, #0
 2606 0098 FAE7     		b	.L214
 2607              	.L219:
 2608 009a 00BF     		.align	2
 2609              	.L218:
 2610 009c 00000000 		.word	.LC14
 2611 00a0 18000000 		.word	.LC15
 2612              		.cfi_endproc
 2613              	.LFE18:
 2615              		.section	.rodata.minmea_parse_vtg.str1.4,"aMS",%progbits,1
 2616              		.align	2
 2617              	.LC16:
 2618 0000 743B6663 		.ascii	"t;fcfcfcfcc\000"
 2618      66636663 
 2618      66636300 
 2619              		.align	2
 2620              	.LC17:
 2621 000c 56544700 		.ascii	"VTG\000"
 2622              		.section	.text.minmea_parse_vtg,"ax",%progbits
 2623              		.align	1
 2624              		.global	minmea_parse_vtg
 2625              		.syntax unified
 2626              		.thumb
 2627              		.thumb_func
 2629              	minmea_parse_vtg:
 2630              	.LVL245:
 2631              	.LFB19:
 581:SynaptiX_FDK/components/gps/minmea.c **** 
 582:SynaptiX_FDK/components/gps/minmea.c **** bool minmea_parse_vtg(struct minmea_sentence_vtg *frame, const char *sentence)
 583:SynaptiX_FDK/components/gps/minmea.c **** {
 2632              		.loc 1 583 1 is_stmt 1 view -0
 2633              		.cfi_startproc
 2634              		@ args = 0, pretend = 0, frame = 8
 2635              		@ frame_needed = 0, uses_anonymous_args = 0
 2636              		.loc 1 583 1 is_stmt 0 view .LVU640
 2637 0000 30B5     		push	{r4, r5, lr}
 2638              	.LCFI43:
 2639              		.cfi_def_cfa_offset 12
 2640              		.cfi_offset 4, -12
ARM GAS  C:\Users\LENOVO\AppData\Local\Temp\cc57JGiB.s 			page 68


 2641              		.cfi_offset 5, -8
 2642              		.cfi_offset 14, -4
 2643 0002 8BB0     		sub	sp, sp, #44
 2644              	.LCFI44:
 2645              		.cfi_def_cfa_offset 56
 2646 0004 0446     		mov	r4, r0
 2647 0006 0846     		mov	r0, r1
 2648              	.LVL246:
 584:SynaptiX_FDK/components/gps/minmea.c ****     // $GPVTG,054.7,T,034.4,M,005.5,N,010.2,K*48
 585:SynaptiX_FDK/components/gps/minmea.c ****     // $GPVTG,156.1,T,140.9,M,0.0,N,0.0,K*41
 586:SynaptiX_FDK/components/gps/minmea.c ****     // $GPVTG,096.5,T,083.5,M,0.0,N,0.0,K,D*22
 587:SynaptiX_FDK/components/gps/minmea.c ****     // $GPVTG,188.36,T,,M,0.820,N,1.519,K,A*3F
 588:SynaptiX_FDK/components/gps/minmea.c ****     char c_true, c_magnetic, c_knots, c_kph, c_faa_mode;
 2649              		.loc 1 588 5 is_stmt 1 view .LVU641
 589:SynaptiX_FDK/components/gps/minmea.c **** 
 590:SynaptiX_FDK/components/gps/minmea.c ****     if (!minmea_scan(sentence, "t;fcfcfcfcc",
 2650              		.loc 1 590 5 view .LVU642
 2651              		.loc 1 590 10 is_stmt 0 view .LVU643
 2652 0008 0DF12303 		add	r3, sp, #35
 2653 000c 0793     		str	r3, [sp, #28]
 2654 000e 09AB     		add	r3, sp, #36
 2655 0010 0693     		str	r3, [sp, #24]
 2656 0012 04F12003 		add	r3, r4, #32
 2657 0016 0593     		str	r3, [sp, #20]
 2658 0018 0DF12503 		add	r3, sp, #37
 2659 001c 0493     		str	r3, [sp, #16]
 2660 001e 04F11803 		add	r3, r4, #24
 2661 0022 0393     		str	r3, [sp, #12]
 2662 0024 0DF12603 		add	r3, sp, #38
 2663 0028 0293     		str	r3, [sp, #8]
 2664 002a 04F11003 		add	r3, r4, #16
 2665 002e 0193     		str	r3, [sp, #4]
 2666 0030 0DF12703 		add	r3, sp, #39
 2667 0034 0093     		str	r3, [sp]
 2668 0036 04F10803 		add	r3, r4, #8
 2669 003a 2246     		mov	r2, r4
 2670 003c 1549     		ldr	r1, .L228
 2671              	.LVL247:
 2672              		.loc 1 590 10 view .LVU644
 2673 003e FFF7FEFF 		bl	minmea_scan
 2674              	.LVL248:
 2675              		.loc 1 590 8 discriminator 1 view .LVU645
 2676 0042 0546     		mov	r5, r0
 2677 0044 08B3     		cbz	r0, .L221
 591:SynaptiX_FDK/components/gps/minmea.c ****             &frame->type,
 592:SynaptiX_FDK/components/gps/minmea.c ****             &frame->true_track_degrees,
 593:SynaptiX_FDK/components/gps/minmea.c ****             &c_true,
 594:SynaptiX_FDK/components/gps/minmea.c ****             &frame->magnetic_track_degrees,
 595:SynaptiX_FDK/components/gps/minmea.c ****             &c_magnetic,
 596:SynaptiX_FDK/components/gps/minmea.c ****             &frame->speed_knots,
 597:SynaptiX_FDK/components/gps/minmea.c ****             &c_knots,
 598:SynaptiX_FDK/components/gps/minmea.c ****             &frame->speed_kph,
 599:SynaptiX_FDK/components/gps/minmea.c ****             &c_kph,
 600:SynaptiX_FDK/components/gps/minmea.c ****             &c_faa_mode))
 601:SynaptiX_FDK/components/gps/minmea.c ****         return false;
 602:SynaptiX_FDK/components/gps/minmea.c ****     if (memcmp(frame->type.sentence_id, "VTG", sizeof(frame->type.sentence_id)))
 2678              		.loc 1 602 5 is_stmt 1 view .LVU646
ARM GAS  C:\Users\LENOVO\AppData\Local\Temp\cc57JGiB.s 			page 69


 2679              		.loc 1 602 9 is_stmt 0 view .LVU647
 2680 0046 0322     		movs	r2, #3
 2681 0048 1349     		ldr	r1, .L228+4
 2682 004a A01C     		adds	r0, r4, #2
 2683 004c FFF7FEFF 		bl	memcmp
 2684              	.LVL249:
 2685              		.loc 1 602 8 discriminator 1 view .LVU648
 2686 0050 F0B9     		cbnz	r0, .L226
 603:SynaptiX_FDK/components/gps/minmea.c ****         return false;
 604:SynaptiX_FDK/components/gps/minmea.c ****     // values are only valid with the accompanying characters
 605:SynaptiX_FDK/components/gps/minmea.c ****     if (c_true != 'T')
 2687              		.loc 1 605 5 is_stmt 1 view .LVU649
 2688              		.loc 1 605 16 is_stmt 0 view .LVU650
 2689 0052 9DF82730 		ldrb	r3, [sp, #39]	@ zero_extendqisi2
 2690              		.loc 1 605 8 view .LVU651
 2691 0056 542B     		cmp	r3, #84
 2692 0058 01D0     		beq	.L222
 606:SynaptiX_FDK/components/gps/minmea.c ****         frame->true_track_degrees.scale = 0;
 2693              		.loc 1 606 9 is_stmt 1 view .LVU652
 2694              		.loc 1 606 41 is_stmt 0 view .LVU653
 2695 005a 0023     		movs	r3, #0
 2696 005c E360     		str	r3, [r4, #12]
 2697              	.L222:
 607:SynaptiX_FDK/components/gps/minmea.c ****     if (c_magnetic != 'M')
 2698              		.loc 1 607 5 is_stmt 1 view .LVU654
 2699              		.loc 1 607 20 is_stmt 0 view .LVU655
 2700 005e 9DF82630 		ldrb	r3, [sp, #38]	@ zero_extendqisi2
 2701              		.loc 1 607 8 view .LVU656
 2702 0062 4D2B     		cmp	r3, #77
 2703 0064 01D0     		beq	.L223
 608:SynaptiX_FDK/components/gps/minmea.c ****         frame->magnetic_track_degrees.scale = 0;
 2704              		.loc 1 608 9 is_stmt 1 view .LVU657
 2705              		.loc 1 608 45 is_stmt 0 view .LVU658
 2706 0066 0023     		movs	r3, #0
 2707 0068 6361     		str	r3, [r4, #20]
 2708              	.L223:
 609:SynaptiX_FDK/components/gps/minmea.c ****     if (c_knots != 'N')
 2709              		.loc 1 609 5 is_stmt 1 view .LVU659
 2710              		.loc 1 609 17 is_stmt 0 view .LVU660
 2711 006a 9DF82530 		ldrb	r3, [sp, #37]	@ zero_extendqisi2
 2712              		.loc 1 609 8 view .LVU661
 2713 006e 4E2B     		cmp	r3, #78
 2714 0070 01D0     		beq	.L224
 610:SynaptiX_FDK/components/gps/minmea.c ****         frame->speed_knots.scale = 0;
 2715              		.loc 1 610 9 is_stmt 1 view .LVU662
 2716              		.loc 1 610 34 is_stmt 0 view .LVU663
 2717 0072 0023     		movs	r3, #0
 2718 0074 E361     		str	r3, [r4, #28]
 2719              	.L224:
 611:SynaptiX_FDK/components/gps/minmea.c ****     if (c_kph != 'K')
 2720              		.loc 1 611 5 is_stmt 1 view .LVU664
 2721              		.loc 1 611 15 is_stmt 0 view .LVU665
 2722 0076 9DF82430 		ldrb	r3, [sp, #36]	@ zero_extendqisi2
 2723              		.loc 1 611 8 view .LVU666
 2724 007a 4B2B     		cmp	r3, #75
 2725 007c 01D0     		beq	.L225
 612:SynaptiX_FDK/components/gps/minmea.c ****         frame->speed_kph.scale = 0;
ARM GAS  C:\Users\LENOVO\AppData\Local\Temp\cc57JGiB.s 			page 70


 2726              		.loc 1 612 9 is_stmt 1 view .LVU667
 2727              		.loc 1 612 32 is_stmt 0 view .LVU668
 2728 007e 0023     		movs	r3, #0
 2729 0080 6362     		str	r3, [r4, #36]
 2730              	.L225:
 613:SynaptiX_FDK/components/gps/minmea.c ****     frame->faa_mode = (enum minmea_faa_mode)c_faa_mode;
 2731              		.loc 1 613 5 is_stmt 1 view .LVU669
 2732              		.loc 1 613 21 is_stmt 0 view .LVU670
 2733 0082 9DF82330 		ldrb	r3, [sp, #35]	@ zero_extendqisi2
 2734 0086 84F82830 		strb	r3, [r4, #40]
 614:SynaptiX_FDK/components/gps/minmea.c **** 
 615:SynaptiX_FDK/components/gps/minmea.c ****     return true;
 2735              		.loc 1 615 5 is_stmt 1 view .LVU671
 2736              	.L221:
 616:SynaptiX_FDK/components/gps/minmea.c **** }
 2737              		.loc 1 616 1 is_stmt 0 view .LVU672
 2738 008a 2846     		mov	r0, r5
 2739 008c 0BB0     		add	sp, sp, #44
 2740              	.LCFI45:
 2741              		.cfi_remember_state
 2742              		.cfi_def_cfa_offset 12
 2743              		@ sp needed
 2744 008e 30BD     		pop	{r4, r5, pc}
 2745              	.LVL250:
 2746              	.L226:
 2747              	.LCFI46:
 2748              		.cfi_restore_state
 603:SynaptiX_FDK/components/gps/minmea.c ****     // values are only valid with the accompanying characters
 2749              		.loc 1 603 16 view .LVU673
 2750 0090 0025     		movs	r5, #0
 2751 0092 FAE7     		b	.L221
 2752              	.L229:
 2753              		.align	2
 2754              	.L228:
 2755 0094 00000000 		.word	.LC16
 2756 0098 0C000000 		.word	.LC17
 2757              		.cfi_endproc
 2758              	.LFE19:
 2760              		.section	.rodata.minmea_parse_zda.str1.4,"aMS",%progbits,1
 2761              		.align	2
 2762              	.LC18:
 2763 0000 74546969 		.ascii	"tTiiiii\000"
 2763      69696900 
 2764              		.align	2
 2765              	.LC19:
 2766 0008 5A444100 		.ascii	"ZDA\000"
 2767              		.section	.text.minmea_parse_zda,"ax",%progbits
 2768              		.align	1
 2769              		.global	minmea_parse_zda
 2770              		.syntax unified
 2771              		.thumb
 2772              		.thumb_func
 2774              	minmea_parse_zda:
 2775              	.LVL251:
 2776              	.LFB20:
 617:SynaptiX_FDK/components/gps/minmea.c **** 
 618:SynaptiX_FDK/components/gps/minmea.c **** bool minmea_parse_zda(struct minmea_sentence_zda *frame, const char *sentence)
ARM GAS  C:\Users\LENOVO\AppData\Local\Temp\cc57JGiB.s 			page 71


 619:SynaptiX_FDK/components/gps/minmea.c **** {
 2777              		.loc 1 619 1 is_stmt 1 view -0
 2778              		.cfi_startproc
 2779              		@ args = 0, pretend = 0, frame = 0
 2780              		@ frame_needed = 0, uses_anonymous_args = 0
 2781              		.loc 1 619 1 is_stmt 0 view .LVU675
 2782 0000 30B5     		push	{r4, r5, lr}
 2783              	.LCFI47:
 2784              		.cfi_def_cfa_offset 12
 2785              		.cfi_offset 4, -12
 2786              		.cfi_offset 5, -8
 2787              		.cfi_offset 14, -4
 2788 0002 87B0     		sub	sp, sp, #28
 2789              	.LCFI48:
 2790              		.cfi_def_cfa_offset 40
 2791 0004 0446     		mov	r4, r0
 2792 0006 0846     		mov	r0, r1
 2793              	.LVL252:
 620:SynaptiX_FDK/components/gps/minmea.c ****   // $GPZDA,201530.00,04,07,2002,00,00*60
 621:SynaptiX_FDK/components/gps/minmea.c ****   if(!minmea_scan(sentence, "tTiiiii",
 2794              		.loc 1 621 3 is_stmt 1 view .LVU676
 2795              		.loc 1 621 7 is_stmt 0 view .LVU677
 2796 0008 04F12803 		add	r3, r4, #40
 2797 000c 0493     		str	r3, [sp, #16]
 2798 000e 04F12403 		add	r3, r4, #36
 2799 0012 0393     		str	r3, [sp, #12]
 2800 0014 04F12003 		add	r3, r4, #32
 2801 0018 0293     		str	r3, [sp, #8]
 2802 001a 04F11C03 		add	r3, r4, #28
 2803 001e 0193     		str	r3, [sp, #4]
 2804 0020 04F11803 		add	r3, r4, #24
 2805 0024 0093     		str	r3, [sp]
 2806 0026 04F10803 		add	r3, r4, #8
 2807 002a 2246     		mov	r2, r4
 2808 002c 0F49     		ldr	r1, .L237
 2809              	.LVL253:
 2810              		.loc 1 621 7 view .LVU678
 2811 002e FFF7FEFF 		bl	minmea_scan
 2812              	.LVL254:
 2813              		.loc 1 621 5 discriminator 1 view .LVU679
 2814 0032 0546     		mov	r5, r0
 2815 0034 98B1     		cbz	r0, .L231
 622:SynaptiX_FDK/components/gps/minmea.c ****             &frame->type,
 623:SynaptiX_FDK/components/gps/minmea.c ****           &frame->time,
 624:SynaptiX_FDK/components/gps/minmea.c ****           &frame->date.day,
 625:SynaptiX_FDK/components/gps/minmea.c ****           &frame->date.month,
 626:SynaptiX_FDK/components/gps/minmea.c ****           &frame->date.year,
 627:SynaptiX_FDK/components/gps/minmea.c ****           &frame->hour_offset,
 628:SynaptiX_FDK/components/gps/minmea.c ****           &frame->minute_offset))
 629:SynaptiX_FDK/components/gps/minmea.c ****       return false;
 630:SynaptiX_FDK/components/gps/minmea.c ****     if (memcmp(frame->type.sentence_id, "ZDA", sizeof(frame->type.sentence_id)))
 2816              		.loc 1 630 5 is_stmt 1 view .LVU680
 2817              		.loc 1 630 9 is_stmt 0 view .LVU681
 2818 0036 0322     		movs	r2, #3
 2819 0038 0D49     		ldr	r1, .L237+4
 2820 003a A01C     		adds	r0, r4, #2
 2821 003c FFF7FEFF 		bl	memcmp
ARM GAS  C:\Users\LENOVO\AppData\Local\Temp\cc57JGiB.s 			page 72


 2822              	.LVL255:
 2823              		.loc 1 630 8 discriminator 1 view .LVU682
 2824 0040 60B9     		cbnz	r0, .L232
 631:SynaptiX_FDK/components/gps/minmea.c ****       return false;
 632:SynaptiX_FDK/components/gps/minmea.c **** 
 633:SynaptiX_FDK/components/gps/minmea.c ****   // check offsets
 634:SynaptiX_FDK/components/gps/minmea.c ****   if (abs(frame->hour_offset) > 13 ||
 2825              		.loc 1 634 3 is_stmt 1 view .LVU683
 2826              		.loc 1 634 16 is_stmt 0 view .LVU684
 2827 0042 636A     		ldr	r3, [r4, #36]
 2828              		.loc 1 634 7 view .LVU685
 2829 0044 002B     		cmp	r3, #0
 2830 0046 B8BF     		it	lt
 2831 0048 5B42     		rsblt	r3, r3, #0
 2832              		.loc 1 634 6 view .LVU686
 2833 004a 0D2B     		cmp	r3, #13
 2834 004c 0ADC     		bgt	.L233
 635:SynaptiX_FDK/components/gps/minmea.c ****       frame->minute_offset > 59 ||
 2835              		.loc 1 635 12 view .LVU687
 2836 004e A36A     		ldr	r3, [r4, #40]
 634:SynaptiX_FDK/components/gps/minmea.c ****       frame->minute_offset > 59 ||
 2837              		.loc 1 634 36 discriminator 1 view .LVU688
 2838 0050 3B2B     		cmp	r3, #59
 2839 0052 09DC     		bgt	.L234
 2840              		.loc 1 635 33 view .LVU689
 2841 0054 002B     		cmp	r3, #0
 2842 0056 02DA     		bge	.L231
 636:SynaptiX_FDK/components/gps/minmea.c ****       frame->minute_offset < 0)
 637:SynaptiX_FDK/components/gps/minmea.c ****       return false;
 2843              		.loc 1 637 14 view .LVU690
 2844 0058 0025     		movs	r5, #0
 2845 005a 00E0     		b	.L231
 2846              	.L232:
 631:SynaptiX_FDK/components/gps/minmea.c **** 
 2847              		.loc 1 631 14 view .LVU691
 2848 005c 0025     		movs	r5, #0
 2849              	.L231:
 638:SynaptiX_FDK/components/gps/minmea.c **** 
 639:SynaptiX_FDK/components/gps/minmea.c ****   return true;
 640:SynaptiX_FDK/components/gps/minmea.c **** }
 2850              		.loc 1 640 1 view .LVU692
 2851 005e 2846     		mov	r0, r5
 2852 0060 07B0     		add	sp, sp, #28
 2853              	.LCFI49:
 2854              		.cfi_remember_state
 2855              		.cfi_def_cfa_offset 12
 2856              		@ sp needed
 2857 0062 30BD     		pop	{r4, r5, pc}
 2858              	.LVL256:
 2859              	.L233:
 2860              	.LCFI50:
 2861              		.cfi_restore_state
 637:SynaptiX_FDK/components/gps/minmea.c **** 
 2862              		.loc 1 637 14 view .LVU693
 2863 0064 0025     		movs	r5, #0
 2864 0066 FAE7     		b	.L231
 2865              	.L234:
ARM GAS  C:\Users\LENOVO\AppData\Local\Temp\cc57JGiB.s 			page 73


 2866 0068 0025     		movs	r5, #0
 2867 006a F8E7     		b	.L231
 2868              	.L238:
 2869              		.align	2
 2870              	.L237:
 2871 006c 00000000 		.word	.LC18
 2872 0070 08000000 		.word	.LC19
 2873              		.cfi_endproc
 2874              	.LFE20:
 2876              		.section	.text.minmea_getdatetime,"ax",%progbits
 2877              		.align	1
 2878              		.global	minmea_getdatetime
 2879              		.syntax unified
 2880              		.thumb
 2881              		.thumb_func
 2883              	minmea_getdatetime:
 2884              	.LVL257:
 2885              	.LFB21:
 641:SynaptiX_FDK/components/gps/minmea.c **** 
 642:SynaptiX_FDK/components/gps/minmea.c **** int minmea_getdatetime(struct tm *tm, const struct minmea_date *date, const struct minmea_time *tim
 643:SynaptiX_FDK/components/gps/minmea.c **** {
 2886              		.loc 1 643 1 is_stmt 1 view -0
 2887              		.cfi_startproc
 2888              		@ args = 0, pretend = 0, frame = 0
 2889              		@ frame_needed = 0, uses_anonymous_args = 0
 2890              		.loc 1 643 1 is_stmt 0 view .LVU695
 2891 0000 70B5     		push	{r4, r5, r6, lr}
 2892              	.LCFI51:
 2893              		.cfi_def_cfa_offset 16
 2894              		.cfi_offset 4, -16
 2895              		.cfi_offset 5, -12
 2896              		.cfi_offset 6, -8
 2897              		.cfi_offset 14, -4
 2898 0002 0446     		mov	r4, r0
 644:SynaptiX_FDK/components/gps/minmea.c ****     if (date->year == -1 || time_->hours == -1)
 2899              		.loc 1 644 5 is_stmt 1 view .LVU696
 2900              		.loc 1 644 13 is_stmt 0 view .LVU697
 2901 0004 8868     		ldr	r0, [r1, #8]
 2902              	.LVL258:
 2903              		.loc 1 644 8 view .LVU698
 2904 0006 B0F1FF3F 		cmp	r0, #-1
 2905 000a 1BD0     		beq	.L239
 2906 000c 0D46     		mov	r5, r1
 2907 000e 1646     		mov	r6, r2
 2908              		.loc 1 644 34 discriminator 1 view .LVU699
 2909 0010 1068     		ldr	r0, [r2]
 2910              		.loc 1 644 26 discriminator 1 view .LVU700
 2911 0012 B0F1FF3F 		cmp	r0, #-1
 2912 0016 15D0     		beq	.L239
 645:SynaptiX_FDK/components/gps/minmea.c ****         return -1;
 646:SynaptiX_FDK/components/gps/minmea.c **** 
 647:SynaptiX_FDK/components/gps/minmea.c ****     memset(tm, 0, sizeof(*tm));
 2913              		.loc 1 647 5 is_stmt 1 view .LVU701
 2914 0018 2422     		movs	r2, #36
 2915              	.LVL259:
 2916              		.loc 1 647 5 is_stmt 0 view .LVU702
 2917 001a 0021     		movs	r1, #0
ARM GAS  C:\Users\LENOVO\AppData\Local\Temp\cc57JGiB.s 			page 74


 2918              	.LVL260:
 2919              		.loc 1 647 5 view .LVU703
 2920 001c 2046     		mov	r0, r4
 2921 001e FFF7FEFF 		bl	memset
 2922              	.LVL261:
 648:SynaptiX_FDK/components/gps/minmea.c ****     if (date->year < 80) {
 2923              		.loc 1 648 5 is_stmt 1 view .LVU704
 2924              		.loc 1 648 13 is_stmt 0 view .LVU705
 2925 0022 AB68     		ldr	r3, [r5, #8]
 2926              		.loc 1 648 8 view .LVU706
 2927 0024 4F2B     		cmp	r3, #79
 2928 0026 0EDC     		bgt	.L241
 649:SynaptiX_FDK/components/gps/minmea.c ****         tm->tm_year = 2000 + date->year - 1900; // 2000-2079
 2929              		.loc 1 649 9 is_stmt 1 view .LVU707
 2930              		.loc 1 649 41 is_stmt 0 view .LVU708
 2931 0028 6433     		adds	r3, r3, #100
 2932              		.loc 1 649 21 view .LVU709
 2933 002a 6361     		str	r3, [r4, #20]
 2934              	.L242:
 650:SynaptiX_FDK/components/gps/minmea.c ****     } else if (date->year >= 1900) {
 651:SynaptiX_FDK/components/gps/minmea.c ****         tm->tm_year = date->year - 1900;        // 4 digit year, use directly
 652:SynaptiX_FDK/components/gps/minmea.c ****     } else {
 653:SynaptiX_FDK/components/gps/minmea.c ****         tm->tm_year = date->year;               // 1980-1999
 654:SynaptiX_FDK/components/gps/minmea.c ****     }
 655:SynaptiX_FDK/components/gps/minmea.c ****     tm->tm_mon = date->month - 1;
 2935              		.loc 1 655 5 is_stmt 1 view .LVU710
 2936              		.loc 1 655 22 is_stmt 0 view .LVU711
 2937 002c 6B68     		ldr	r3, [r5, #4]
 2938              		.loc 1 655 30 view .LVU712
 2939 002e 013B     		subs	r3, r3, #1
 2940              		.loc 1 655 16 view .LVU713
 2941 0030 2361     		str	r3, [r4, #16]
 656:SynaptiX_FDK/components/gps/minmea.c ****     tm->tm_mday = date->day;
 2942              		.loc 1 656 5 is_stmt 1 view .LVU714
 2943              		.loc 1 656 23 is_stmt 0 view .LVU715
 2944 0032 2B68     		ldr	r3, [r5]
 2945              		.loc 1 656 17 view .LVU716
 2946 0034 E360     		str	r3, [r4, #12]
 657:SynaptiX_FDK/components/gps/minmea.c ****     tm->tm_hour = time_->hours;
 2947              		.loc 1 657 5 is_stmt 1 view .LVU717
 2948              		.loc 1 657 24 is_stmt 0 view .LVU718
 2949 0036 3368     		ldr	r3, [r6]
 2950              		.loc 1 657 17 view .LVU719
 2951 0038 A360     		str	r3, [r4, #8]
 658:SynaptiX_FDK/components/gps/minmea.c ****     tm->tm_min = time_->minutes;
 2952              		.loc 1 658 5 is_stmt 1 view .LVU720
 2953              		.loc 1 658 23 is_stmt 0 view .LVU721
 2954 003a 7368     		ldr	r3, [r6, #4]
 2955              		.loc 1 658 16 view .LVU722
 2956 003c 6360     		str	r3, [r4, #4]
 659:SynaptiX_FDK/components/gps/minmea.c ****     tm->tm_sec = time_->seconds;
 2957              		.loc 1 659 5 is_stmt 1 view .LVU723
 2958              		.loc 1 659 23 is_stmt 0 view .LVU724
 2959 003e B368     		ldr	r3, [r6, #8]
 2960              		.loc 1 659 16 view .LVU725
 2961 0040 2360     		str	r3, [r4]
 660:SynaptiX_FDK/components/gps/minmea.c **** 
ARM GAS  C:\Users\LENOVO\AppData\Local\Temp\cc57JGiB.s 			page 75


 661:SynaptiX_FDK/components/gps/minmea.c ****     return 0;
 2962              		.loc 1 661 5 is_stmt 1 view .LVU726
 2963              		.loc 1 661 12 is_stmt 0 view .LVU727
 2964 0042 0020     		movs	r0, #0
 2965              	.LVL262:
 2966              	.L239:
 662:SynaptiX_FDK/components/gps/minmea.c **** }
 2967              		.loc 1 662 1 view .LVU728
 2968 0044 70BD     		pop	{r4, r5, r6, pc}
 2969              	.LVL263:
 2970              	.L241:
 650:SynaptiX_FDK/components/gps/minmea.c ****         tm->tm_year = date->year - 1900;        // 4 digit year, use directly
 2971              		.loc 1 650 12 is_stmt 1 view .LVU729
 650:SynaptiX_FDK/components/gps/minmea.c ****         tm->tm_year = date->year - 1900;        // 4 digit year, use directly
 2972              		.loc 1 650 15 is_stmt 0 view .LVU730
 2973 0046 40F26B72 		movw	r2, #1899
 2974 004a 9342     		cmp	r3, r2
 2975 004c 03DD     		ble	.L243
 651:SynaptiX_FDK/components/gps/minmea.c ****     } else {
 2976              		.loc 1 651 9 is_stmt 1 view .LVU731
 651:SynaptiX_FDK/components/gps/minmea.c ****     } else {
 2977              		.loc 1 651 34 is_stmt 0 view .LVU732
 2978 004e A3F26C73 		subw	r3, r3, #1900
 651:SynaptiX_FDK/components/gps/minmea.c ****     } else {
 2979              		.loc 1 651 21 view .LVU733
 2980 0052 6361     		str	r3, [r4, #20]
 2981 0054 EAE7     		b	.L242
 2982              	.L243:
 653:SynaptiX_FDK/components/gps/minmea.c ****     }
 2983              		.loc 1 653 9 is_stmt 1 view .LVU734
 653:SynaptiX_FDK/components/gps/minmea.c ****     }
 2984              		.loc 1 653 21 is_stmt 0 view .LVU735
 2985 0056 6361     		str	r3, [r4, #20]
 2986 0058 E8E7     		b	.L242
 2987              		.cfi_endproc
 2988              	.LFE21:
 2990              		.section	.text.minmea_gettime,"ax",%progbits
 2991              		.align	1
 2992              		.global	minmea_gettime
 2993              		.syntax unified
 2994              		.thumb
 2995              		.thumb_func
 2997              	minmea_gettime:
 2998              	.LVL264:
 2999              	.LFB22:
 663:SynaptiX_FDK/components/gps/minmea.c **** 
 664:SynaptiX_FDK/components/gps/minmea.c **** int minmea_gettime(struct timespec *ts, const struct minmea_date *date, const struct minmea_time *t
 665:SynaptiX_FDK/components/gps/minmea.c **** {
 3000              		.loc 1 665 1 is_stmt 1 view -0
 3001              		.cfi_startproc
 3002              		@ args = 0, pretend = 0, frame = 0
 3003              		@ frame_needed = 0, uses_anonymous_args = 0
 3004              		@ link register save eliminated.
 666:SynaptiX_FDK/components/gps/minmea.c ****     // struct tm tm;
 667:SynaptiX_FDK/components/gps/minmea.c ****     // if (minmea_getdatetime(&tm, date, time_))
 668:SynaptiX_FDK/components/gps/minmea.c ****     //     return -1;
 669:SynaptiX_FDK/components/gps/minmea.c **** 
ARM GAS  C:\Users\LENOVO\AppData\Local\Temp\cc57JGiB.s 			page 76


 670:SynaptiX_FDK/components/gps/minmea.c ****     // time_t timestamp = timegm(&tm); /* See README.md if your system lacks timegm(). */
 671:SynaptiX_FDK/components/gps/minmea.c ****     // if (timestamp != (time_t)-1) {
 672:SynaptiX_FDK/components/gps/minmea.c ****     //     ts->tv_sec = timestamp;
 673:SynaptiX_FDK/components/gps/minmea.c ****     //     ts->tv_nsec = time_->microseconds * 1000;
 674:SynaptiX_FDK/components/gps/minmea.c ****     //     return 0;
 675:SynaptiX_FDK/components/gps/minmea.c ****     // } else {
 676:SynaptiX_FDK/components/gps/minmea.c ****     //     return -1;
 677:SynaptiX_FDK/components/gps/minmea.c ****     // }
 678:SynaptiX_FDK/components/gps/minmea.c **** }
 3005              		.loc 1 678 1 view .LVU737
 3006              	.LVL265:
 3007              		.loc 1 678 1 is_stmt 0 view .LVU738
 3008 0000 7047     		bx	lr
 3009              		.cfi_endproc
 3010              	.LFE22:
 3012              		.global	sentence_id_map
 3013              		.section	.rodata.str1.4,"aMS",%progbits,1
 3014              		.align	2
 3015              	.LC20:
 3016 0000 494E5641 		.ascii	"INVALID\000"
 3016      4C494400 
 3017              		.section	.data.sentence_id_map,"aw"
 3018              		.align	2
 3021              	sentence_id_map:
 3022 0000 00000000 		.word	.LC20
 3023 0004 FF       		.byte	-1
 3024 0005 000000   		.space	3
 3025 0008 0C000000 		.word	.LC3
 3026 000c 01       		.byte	1
 3027 000d 000000   		.space	3
 3028 0010 10000000 		.word	.LC7
 3029 0014 02       		.byte	2
 3030 0015 000000   		.space	3
 3031 0018 0C000000 		.word	.LC11
 3032 001c 03       		.byte	3
 3033 001d 000000   		.space	3
 3034 0020 14000000 		.word	.LC9
 3035 0024 04       		.byte	4
 3036 0025 000000   		.space	3
 3037 0028 0C000000 		.word	.LC13
 3038 002c 05       		.byte	5
 3039 002d 000000   		.space	3
 3040 0030 18000000 		.word	.LC15
 3041 0034 06       		.byte	6
 3042 0035 000000   		.space	3
 3043 0038 10000000 		.word	.LC5
 3044 003c 07       		.byte	7
 3045 003d 000000   		.space	3
 3046 0040 0C000000 		.word	.LC17
 3047 0044 08       		.byte	8
 3048 0045 000000   		.space	3
 3049 0048 08000000 		.word	.LC19
 3050 004c 09       		.byte	9
 3051 004d 000000   		.space	3
 3052              		.text
 3053              	.Letext0:
 3054              		.file 3 "C:\\ST\\STM32CubeCLT_1.20.0\\GNU-tools-for-STM32\\bin/../lib/gcc/arm-none-eabi/13.3.1/../
ARM GAS  C:\Users\LENOVO\AppData\Local\Temp\cc57JGiB.s 			page 77


 3055              		.file 4 "C:\\ST\\STM32CubeCLT_1.20.0\\GNU-tools-for-STM32\\bin/../lib/gcc/arm-none-eabi/13.3.1/inc
 3056              		.file 5 "C:\\ST\\STM32CubeCLT_1.20.0\\GNU-tools-for-STM32\\bin/../lib/gcc/arm-none-eabi/13.3.1/../
 3057              		.file 6 "C:\\ST\\STM32CubeCLT_1.20.0\\GNU-tools-for-STM32\\bin/../lib/gcc/arm-none-eabi/13.3.1/../
 3058              		.file 7 "C:\\ST\\STM32CubeCLT_1.20.0\\GNU-tools-for-STM32\\bin/../lib/gcc/arm-none-eabi/13.3.1/../
 3059              		.file 8 "C:\\ST\\STM32CubeCLT_1.20.0\\GNU-tools-for-STM32\\bin/../lib/gcc/arm-none-eabi/13.3.1/../
 3060              		.file 9 "C:\\ST\\STM32CubeCLT_1.20.0\\GNU-tools-for-STM32\\bin/../lib/gcc/arm-none-eabi/13.3.1/../
 3061              		.file 10 "C:\\ST\\STM32CubeCLT_1.20.0\\GNU-tools-for-STM32\\bin/../lib/gcc/arm-none-eabi/13.3.1/in
 3062              		.file 11 "C:\\ST\\STM32CubeCLT_1.20.0\\GNU-tools-for-STM32\\bin/../lib/gcc/arm-none-eabi/13.3.1/..
 3063              		.file 12 "C:\\ST\\STM32CubeCLT_1.20.0\\GNU-tools-for-STM32\\bin/../lib/gcc/arm-none-eabi/13.3.1/..
 3064              		.file 13 "C:\\ST\\STM32CubeCLT_1.20.0\\GNU-tools-for-STM32\\bin/../lib/gcc/arm-none-eabi/13.3.1/..
 3065              		.file 14 "<built-in>"
ARM GAS  C:\Users\LENOVO\AppData\Local\Temp\cc57JGiB.s 			page 78

