ARM GAS  C:\Users\LENOVO\AppData\Local\Temp\cc8CFzeV.s 			page 1


   1              		.cpu cortex-m33
   2              		.arch armv8-m.main
   3              		.fpu fpv5-sp-d16
   4              		.arch_extension dsp
   5              		.eabi_attribute 27, 1
   6              		.eabi_attribute 28, 1
   7              		.eabi_attribute 20, 1
   8              		.eabi_attribute 21, 1
   9              		.eabi_attribute 23, 3
  10              		.eabi_attribute 24, 1
  11              		.eabi_attribute 25, 1
  12              		.eabi_attribute 26, 1
  13              		.eabi_attribute 30, 1
  14              		.eabi_attribute 34, 1
  15              		.eabi_attribute 18, 4
  16              		.file	"msc_device.c"
  17              		.text
  18              	.Ltext0:
  19              		.cfi_sections	.debug_frame
  20              		.file 1 "SynaptiX_FDK/lib/tinyusb/src/class/msc/msc_device.c"
  21              		.section	.text.proc_bot_reset,"ax",%progbits
  22              		.align	1
  23              		.syntax unified
  24              		.thumb
  25              		.thumb_func
  27              	proc_bot_reset:
  28              	.LVL0:
  29              	.LFB662:
   1:SynaptiX_FDK/lib/tinyusb/src/class/msc/msc_device.c **** /*
   2:SynaptiX_FDK/lib/tinyusb/src/class/msc/msc_device.c ****  * The MIT License (MIT)
   3:SynaptiX_FDK/lib/tinyusb/src/class/msc/msc_device.c ****  *
   4:SynaptiX_FDK/lib/tinyusb/src/class/msc/msc_device.c ****  * Copyright (c) 2019 Ha Thach (tinyusb.org)
   5:SynaptiX_FDK/lib/tinyusb/src/class/msc/msc_device.c ****  *
   6:SynaptiX_FDK/lib/tinyusb/src/class/msc/msc_device.c ****  * Permission is hereby granted, free of charge, to any person obtaining a copy
   7:SynaptiX_FDK/lib/tinyusb/src/class/msc/msc_device.c ****  * of this software and associated documentation files (the "Software"), to deal
   8:SynaptiX_FDK/lib/tinyusb/src/class/msc/msc_device.c ****  * in the Software without restriction, including without limitation the rights
   9:SynaptiX_FDK/lib/tinyusb/src/class/msc/msc_device.c ****  * to use, copy, modify, merge, publish, distribute, sublicense, and/or sell
  10:SynaptiX_FDK/lib/tinyusb/src/class/msc/msc_device.c ****  * copies of the Software, and to permit persons to whom the Software is
  11:SynaptiX_FDK/lib/tinyusb/src/class/msc/msc_device.c ****  * furnished to do so, subject to the following conditions:
  12:SynaptiX_FDK/lib/tinyusb/src/class/msc/msc_device.c ****  *
  13:SynaptiX_FDK/lib/tinyusb/src/class/msc/msc_device.c ****  * The above copyright notice and this permission notice shall be included in
  14:SynaptiX_FDK/lib/tinyusb/src/class/msc/msc_device.c ****  * all copies or substantial portions of the Software.
  15:SynaptiX_FDK/lib/tinyusb/src/class/msc/msc_device.c ****  *
  16:SynaptiX_FDK/lib/tinyusb/src/class/msc/msc_device.c ****  * THE SOFTWARE IS PROVIDED "AS IS", WITHOUT WARRANTY OF ANY KIND, EXPRESS OR
  17:SynaptiX_FDK/lib/tinyusb/src/class/msc/msc_device.c ****  * IMPLIED, INCLUDING BUT NOT LIMITED TO THE WARRANTIES OF MERCHANTABILITY,
  18:SynaptiX_FDK/lib/tinyusb/src/class/msc/msc_device.c ****  * FITNESS FOR A PARTICULAR PURPOSE AND NONINFRINGEMENT. IN NO EVENT SHALL THE
  19:SynaptiX_FDK/lib/tinyusb/src/class/msc/msc_device.c ****  * AUTHORS OR COPYRIGHT HOLDERS BE LIABLE FOR ANY CLAIM, DAMAGES OR OTHER
  20:SynaptiX_FDK/lib/tinyusb/src/class/msc/msc_device.c ****  * LIABILITY, WHETHER IN AN ACTION OF CONTRACT, TORT OR OTHERWISE, ARISING FROM,
  21:SynaptiX_FDK/lib/tinyusb/src/class/msc/msc_device.c ****  * OUT OF OR IN CONNECTION WITH THE SOFTWARE OR THE USE OR OTHER DEALINGS IN
  22:SynaptiX_FDK/lib/tinyusb/src/class/msc/msc_device.c ****  * THE SOFTWARE.
  23:SynaptiX_FDK/lib/tinyusb/src/class/msc/msc_device.c ****  *
  24:SynaptiX_FDK/lib/tinyusb/src/class/msc/msc_device.c ****  * This file is part of the TinyUSB stack.
  25:SynaptiX_FDK/lib/tinyusb/src/class/msc/msc_device.c ****  */
  26:SynaptiX_FDK/lib/tinyusb/src/class/msc/msc_device.c **** 
  27:SynaptiX_FDK/lib/tinyusb/src/class/msc/msc_device.c **** #include "tusb_option.h"
  28:SynaptiX_FDK/lib/tinyusb/src/class/msc/msc_device.c **** 
  29:SynaptiX_FDK/lib/tinyusb/src/class/msc/msc_device.c **** #if (CFG_TUD_ENABLED && CFG_TUD_MSC)
ARM GAS  C:\Users\LENOVO\AppData\Local\Temp\cc8CFzeV.s 			page 2


  30:SynaptiX_FDK/lib/tinyusb/src/class/msc/msc_device.c **** 
  31:SynaptiX_FDK/lib/tinyusb/src/class/msc/msc_device.c **** #include "device/dcd.h"         // for faking dcd_event_xfer_complete
  32:SynaptiX_FDK/lib/tinyusb/src/class/msc/msc_device.c **** #include "device/usbd.h"
  33:SynaptiX_FDK/lib/tinyusb/src/class/msc/msc_device.c **** #include "device/usbd_pvt.h"
  34:SynaptiX_FDK/lib/tinyusb/src/class/msc/msc_device.c **** 
  35:SynaptiX_FDK/lib/tinyusb/src/class/msc/msc_device.c **** #include "msc_device.h"
  36:SynaptiX_FDK/lib/tinyusb/src/class/msc/msc_device.c **** 
  37:SynaptiX_FDK/lib/tinyusb/src/class/msc/msc_device.c **** // Level where CFG_TUSB_DEBUG must be at least for this driver is logged
  38:SynaptiX_FDK/lib/tinyusb/src/class/msc/msc_device.c **** #ifndef CFG_TUD_MSC_LOG_LEVEL
  39:SynaptiX_FDK/lib/tinyusb/src/class/msc/msc_device.c ****   #define CFG_TUD_MSC_LOG_LEVEL   CFG_TUD_LOG_LEVEL
  40:SynaptiX_FDK/lib/tinyusb/src/class/msc/msc_device.c **** #endif
  41:SynaptiX_FDK/lib/tinyusb/src/class/msc/msc_device.c **** 
  42:SynaptiX_FDK/lib/tinyusb/src/class/msc/msc_device.c **** #define TU_LOG_DRV(...)   TU_LOG(CFG_TUD_MSC_LOG_LEVEL, __VA_ARGS__)
  43:SynaptiX_FDK/lib/tinyusb/src/class/msc/msc_device.c **** 
  44:SynaptiX_FDK/lib/tinyusb/src/class/msc/msc_device.c **** //--------------------------------------------------------------------+
  45:SynaptiX_FDK/lib/tinyusb/src/class/msc/msc_device.c **** // Weak stubs: invoked if no strong implementation is available
  46:SynaptiX_FDK/lib/tinyusb/src/class/msc/msc_device.c **** //--------------------------------------------------------------------+
  47:SynaptiX_FDK/lib/tinyusb/src/class/msc/msc_device.c **** TU_ATTR_WEAK void tud_msc_inquiry_cb(uint8_t lun, uint8_t vendor_id[8], uint8_t product_id[16], uin
  48:SynaptiX_FDK/lib/tinyusb/src/class/msc/msc_device.c ****   (void) lun; (void) vendor_id; (void) product_id; (void) product_rev;
  49:SynaptiX_FDK/lib/tinyusb/src/class/msc/msc_device.c **** }
  50:SynaptiX_FDK/lib/tinyusb/src/class/msc/msc_device.c **** TU_ATTR_WEAK uint32_t tud_msc_inquiry2_cb(uint8_t lun, scsi_inquiry_resp_t *inquiry_resp, uint32_t 
  51:SynaptiX_FDK/lib/tinyusb/src/class/msc/msc_device.c ****   (void) lun; (void) inquiry_resp; (void) bufsize;
  52:SynaptiX_FDK/lib/tinyusb/src/class/msc/msc_device.c ****   return 0;
  53:SynaptiX_FDK/lib/tinyusb/src/class/msc/msc_device.c **** }
  54:SynaptiX_FDK/lib/tinyusb/src/class/msc/msc_device.c **** 
  55:SynaptiX_FDK/lib/tinyusb/src/class/msc/msc_device.c **** //--------------------------------------------------------------------+
  56:SynaptiX_FDK/lib/tinyusb/src/class/msc/msc_device.c **** // MACRO CONSTANT TYPEDEF
  57:SynaptiX_FDK/lib/tinyusb/src/class/msc/msc_device.c **** //--------------------------------------------------------------------+
  58:SynaptiX_FDK/lib/tinyusb/src/class/msc/msc_device.c **** enum {
  59:SynaptiX_FDK/lib/tinyusb/src/class/msc/msc_device.c ****   MSC_STAGE_CMD  = 0,
  60:SynaptiX_FDK/lib/tinyusb/src/class/msc/msc_device.c ****   MSC_STAGE_DATA,
  61:SynaptiX_FDK/lib/tinyusb/src/class/msc/msc_device.c ****   MSC_STAGE_STATUS,
  62:SynaptiX_FDK/lib/tinyusb/src/class/msc/msc_device.c ****   MSC_STAGE_STATUS_SENT,
  63:SynaptiX_FDK/lib/tinyusb/src/class/msc/msc_device.c ****   MSC_STAGE_NEED_RESET,
  64:SynaptiX_FDK/lib/tinyusb/src/class/msc/msc_device.c **** };
  65:SynaptiX_FDK/lib/tinyusb/src/class/msc/msc_device.c **** 
  66:SynaptiX_FDK/lib/tinyusb/src/class/msc/msc_device.c **** typedef struct {
  67:SynaptiX_FDK/lib/tinyusb/src/class/msc/msc_device.c ****   TU_ATTR_ALIGNED(4) msc_cbw_t cbw; // 31 bytes
  68:SynaptiX_FDK/lib/tinyusb/src/class/msc/msc_device.c ****   uint8_t  rhport;
  69:SynaptiX_FDK/lib/tinyusb/src/class/msc/msc_device.c **** 
  70:SynaptiX_FDK/lib/tinyusb/src/class/msc/msc_device.c ****   TU_ATTR_ALIGNED(4) msc_csw_t csw; // 13 bytes
  71:SynaptiX_FDK/lib/tinyusb/src/class/msc/msc_device.c ****   uint8_t  itf_num;
  72:SynaptiX_FDK/lib/tinyusb/src/class/msc/msc_device.c ****   uint8_t  ep_in;
  73:SynaptiX_FDK/lib/tinyusb/src/class/msc/msc_device.c ****   uint8_t  ep_out;
  74:SynaptiX_FDK/lib/tinyusb/src/class/msc/msc_device.c **** 
  75:SynaptiX_FDK/lib/tinyusb/src/class/msc/msc_device.c ****   uint32_t total_len;   // byte to be transferred, can be smaller than total_bytes in cbw
  76:SynaptiX_FDK/lib/tinyusb/src/class/msc/msc_device.c ****   uint32_t xferred_len; // numbered of bytes transferred so far in the Data Stage
  77:SynaptiX_FDK/lib/tinyusb/src/class/msc/msc_device.c **** 
  78:SynaptiX_FDK/lib/tinyusb/src/class/msc/msc_device.c ****   // Bulk Only Transfer (BOT) Protocol
  79:SynaptiX_FDK/lib/tinyusb/src/class/msc/msc_device.c ****   uint8_t stage;
  80:SynaptiX_FDK/lib/tinyusb/src/class/msc/msc_device.c **** 
  81:SynaptiX_FDK/lib/tinyusb/src/class/msc/msc_device.c ****   // SCSI Sense Response Data
  82:SynaptiX_FDK/lib/tinyusb/src/class/msc/msc_device.c ****   uint8_t sense_key;
  83:SynaptiX_FDK/lib/tinyusb/src/class/msc/msc_device.c ****   uint8_t add_sense_code;
  84:SynaptiX_FDK/lib/tinyusb/src/class/msc/msc_device.c ****   uint8_t add_sense_qualifier;
  85:SynaptiX_FDK/lib/tinyusb/src/class/msc/msc_device.c **** 
  86:SynaptiX_FDK/lib/tinyusb/src/class/msc/msc_device.c ****   bool pending_io; // pending async IO
ARM GAS  C:\Users\LENOVO\AppData\Local\Temp\cc8CFzeV.s 			page 3


  87:SynaptiX_FDK/lib/tinyusb/src/class/msc/msc_device.c **** }mscd_interface_t;
  88:SynaptiX_FDK/lib/tinyusb/src/class/msc/msc_device.c **** 
  89:SynaptiX_FDK/lib/tinyusb/src/class/msc/msc_device.c **** static mscd_interface_t _mscd_itf;
  90:SynaptiX_FDK/lib/tinyusb/src/class/msc/msc_device.c **** 
  91:SynaptiX_FDK/lib/tinyusb/src/class/msc/msc_device.c **** CFG_TUD_MEM_SECTION static struct {
  92:SynaptiX_FDK/lib/tinyusb/src/class/msc/msc_device.c ****   TUD_EPBUF_DEF(buf, CFG_TUD_MSC_EP_BUFSIZE);
  93:SynaptiX_FDK/lib/tinyusb/src/class/msc/msc_device.c **** } _mscd_epbuf;
  94:SynaptiX_FDK/lib/tinyusb/src/class/msc/msc_device.c **** 
  95:SynaptiX_FDK/lib/tinyusb/src/class/msc/msc_device.c **** TU_VERIFY_STATIC(CFG_TUD_MSC_EP_BUFSIZE >= 64, "CFG_TUD_MSC_EP_BUFSIZE must be at least 64");
  96:SynaptiX_FDK/lib/tinyusb/src/class/msc/msc_device.c **** 
  97:SynaptiX_FDK/lib/tinyusb/src/class/msc/msc_device.c **** //--------------------------------------------------------------------+
  98:SynaptiX_FDK/lib/tinyusb/src/class/msc/msc_device.c **** // INTERNAL OBJECT & FUNCTION DECLARATION
  99:SynaptiX_FDK/lib/tinyusb/src/class/msc/msc_device.c **** //--------------------------------------------------------------------+
 100:SynaptiX_FDK/lib/tinyusb/src/class/msc/msc_device.c **** static int32_t proc_builtin_scsi(uint8_t lun, uint8_t const scsi_cmd[16], uint8_t* buffer, uint32_t
 101:SynaptiX_FDK/lib/tinyusb/src/class/msc/msc_device.c **** static void proc_read10_cmd(mscd_interface_t* p_msc);
 102:SynaptiX_FDK/lib/tinyusb/src/class/msc/msc_device.c **** static void proc_read_io_data(mscd_interface_t* p_msc, int32_t nbytes);
 103:SynaptiX_FDK/lib/tinyusb/src/class/msc/msc_device.c **** static void proc_write10_cmd(mscd_interface_t* p_msc);
 104:SynaptiX_FDK/lib/tinyusb/src/class/msc/msc_device.c **** static void proc_write10_host_data(mscd_interface_t* p_msc, uint32_t xferred_bytes);
 105:SynaptiX_FDK/lib/tinyusb/src/class/msc/msc_device.c **** static void proc_write_io_data(mscd_interface_t* p_msc, uint32_t xferred_bytes, int32_t nbytes);
 106:SynaptiX_FDK/lib/tinyusb/src/class/msc/msc_device.c **** static bool proc_stage_status(mscd_interface_t* p_msc);
 107:SynaptiX_FDK/lib/tinyusb/src/class/msc/msc_device.c **** 
 108:SynaptiX_FDK/lib/tinyusb/src/class/msc/msc_device.c **** TU_ATTR_ALWAYS_INLINE static inline bool is_data_in(uint8_t dir) {
 109:SynaptiX_FDK/lib/tinyusb/src/class/msc/msc_device.c ****   return tu_bit_test(dir, 7);
 110:SynaptiX_FDK/lib/tinyusb/src/class/msc/msc_device.c **** }
 111:SynaptiX_FDK/lib/tinyusb/src/class/msc/msc_device.c **** 
 112:SynaptiX_FDK/lib/tinyusb/src/class/msc/msc_device.c **** TU_ATTR_ALWAYS_INLINE static inline bool send_csw(mscd_interface_t* p_msc) {
 113:SynaptiX_FDK/lib/tinyusb/src/class/msc/msc_device.c ****   // Data residue is always = host expect - actual transferred
 114:SynaptiX_FDK/lib/tinyusb/src/class/msc/msc_device.c ****   uint8_t rhport = p_msc->rhport;
 115:SynaptiX_FDK/lib/tinyusb/src/class/msc/msc_device.c ****   p_msc->csw.data_residue = p_msc->cbw.total_bytes - p_msc->xferred_len;
 116:SynaptiX_FDK/lib/tinyusb/src/class/msc/msc_device.c ****   p_msc->stage = MSC_STAGE_STATUS_SENT;
 117:SynaptiX_FDK/lib/tinyusb/src/class/msc/msc_device.c ****   memcpy(_mscd_epbuf.buf, &p_msc->csw, sizeof(msc_csw_t)); //-V1086
 118:SynaptiX_FDK/lib/tinyusb/src/class/msc/msc_device.c ****   return usbd_edpt_xfer(rhport, p_msc->ep_in , _mscd_epbuf.buf, sizeof(msc_csw_t), false);
 119:SynaptiX_FDK/lib/tinyusb/src/class/msc/msc_device.c **** }
 120:SynaptiX_FDK/lib/tinyusb/src/class/msc/msc_device.c **** 
 121:SynaptiX_FDK/lib/tinyusb/src/class/msc/msc_device.c **** TU_ATTR_ALWAYS_INLINE static inline bool prepare_cbw(mscd_interface_t* p_msc) {
 122:SynaptiX_FDK/lib/tinyusb/src/class/msc/msc_device.c ****   uint8_t rhport = p_msc->rhport;
 123:SynaptiX_FDK/lib/tinyusb/src/class/msc/msc_device.c ****   p_msc->stage = MSC_STAGE_CMD;
 124:SynaptiX_FDK/lib/tinyusb/src/class/msc/msc_device.c ****   return usbd_edpt_xfer(rhport, p_msc->ep_out,  _mscd_epbuf.buf, sizeof(msc_cbw_t), false);
 125:SynaptiX_FDK/lib/tinyusb/src/class/msc/msc_device.c **** }
 126:SynaptiX_FDK/lib/tinyusb/src/class/msc/msc_device.c **** 
 127:SynaptiX_FDK/lib/tinyusb/src/class/msc/msc_device.c **** static void fail_scsi_op(mscd_interface_t* p_msc, uint8_t status) {
 128:SynaptiX_FDK/lib/tinyusb/src/class/msc/msc_device.c ****   msc_cbw_t const * p_cbw = &p_msc->cbw;
 129:SynaptiX_FDK/lib/tinyusb/src/class/msc/msc_device.c ****   msc_csw_t       * p_csw = &p_msc->csw;
 130:SynaptiX_FDK/lib/tinyusb/src/class/msc/msc_device.c ****   uint8_t rhport = p_msc->rhport;
 131:SynaptiX_FDK/lib/tinyusb/src/class/msc/msc_device.c **** 
 132:SynaptiX_FDK/lib/tinyusb/src/class/msc/msc_device.c ****   p_csw->status       = status;
 133:SynaptiX_FDK/lib/tinyusb/src/class/msc/msc_device.c ****   p_csw->data_residue = p_msc->cbw.total_bytes - p_msc->xferred_len;
 134:SynaptiX_FDK/lib/tinyusb/src/class/msc/msc_device.c ****   p_msc->stage        = MSC_STAGE_STATUS;
 135:SynaptiX_FDK/lib/tinyusb/src/class/msc/msc_device.c **** 
 136:SynaptiX_FDK/lib/tinyusb/src/class/msc/msc_device.c ****   // failed but sense key is not set: default to Illegal Request
 137:SynaptiX_FDK/lib/tinyusb/src/class/msc/msc_device.c ****   if (p_msc->sense_key == 0) {
 138:SynaptiX_FDK/lib/tinyusb/src/class/msc/msc_device.c ****     (void) tud_msc_set_sense(p_cbw->lun, SCSI_SENSE_ILLEGAL_REQUEST, 0x20, 0x00);
 139:SynaptiX_FDK/lib/tinyusb/src/class/msc/msc_device.c ****   }
 140:SynaptiX_FDK/lib/tinyusb/src/class/msc/msc_device.c **** 
 141:SynaptiX_FDK/lib/tinyusb/src/class/msc/msc_device.c ****   // If there is data stage and not yet complete, stall it
 142:SynaptiX_FDK/lib/tinyusb/src/class/msc/msc_device.c ****   if (p_cbw->total_bytes && p_csw->data_residue) {
 143:SynaptiX_FDK/lib/tinyusb/src/class/msc/msc_device.c ****     if (is_data_in(p_cbw->dir)) {
ARM GAS  C:\Users\LENOVO\AppData\Local\Temp\cc8CFzeV.s 			page 4


 144:SynaptiX_FDK/lib/tinyusb/src/class/msc/msc_device.c ****       usbd_edpt_stall(rhport, p_msc->ep_in);
 145:SynaptiX_FDK/lib/tinyusb/src/class/msc/msc_device.c ****     } else {
 146:SynaptiX_FDK/lib/tinyusb/src/class/msc/msc_device.c ****       usbd_edpt_stall(rhport, p_msc->ep_out);
 147:SynaptiX_FDK/lib/tinyusb/src/class/msc/msc_device.c ****     }
 148:SynaptiX_FDK/lib/tinyusb/src/class/msc/msc_device.c ****   }
 149:SynaptiX_FDK/lib/tinyusb/src/class/msc/msc_device.c **** }
 150:SynaptiX_FDK/lib/tinyusb/src/class/msc/msc_device.c **** 
 151:SynaptiX_FDK/lib/tinyusb/src/class/msc/msc_device.c **** TU_ATTR_ALWAYS_INLINE static inline uint32_t rdwr10_get_lba(uint8_t const command[]) {
 152:SynaptiX_FDK/lib/tinyusb/src/class/msc/msc_device.c ****   // use offsetof to avoid pointer to the odd/unaligned address
 153:SynaptiX_FDK/lib/tinyusb/src/class/msc/msc_device.c ****   const uint32_t lba = tu_unaligned_read32(command + offsetof(scsi_write10_t, lba));
 154:SynaptiX_FDK/lib/tinyusb/src/class/msc/msc_device.c ****   return tu_ntohl(lba); // lba is in Big Endian
 155:SynaptiX_FDK/lib/tinyusb/src/class/msc/msc_device.c **** }
 156:SynaptiX_FDK/lib/tinyusb/src/class/msc/msc_device.c **** 
 157:SynaptiX_FDK/lib/tinyusb/src/class/msc/msc_device.c **** TU_ATTR_ALWAYS_INLINE static inline uint16_t rdwr10_get_blockcount(msc_cbw_t const* cbw) {
 158:SynaptiX_FDK/lib/tinyusb/src/class/msc/msc_device.c ****   uint16_t const block_count = tu_unaligned_read16(cbw->command + offsetof(scsi_write10_t, block_co
 159:SynaptiX_FDK/lib/tinyusb/src/class/msc/msc_device.c ****   return tu_ntohs(block_count);
 160:SynaptiX_FDK/lib/tinyusb/src/class/msc/msc_device.c **** }
 161:SynaptiX_FDK/lib/tinyusb/src/class/msc/msc_device.c **** 
 162:SynaptiX_FDK/lib/tinyusb/src/class/msc/msc_device.c **** TU_ATTR_ALWAYS_INLINE static inline uint16_t rdwr10_get_blocksize(msc_cbw_t const* cbw) {
 163:SynaptiX_FDK/lib/tinyusb/src/class/msc/msc_device.c ****   // first extract block count in the command
 164:SynaptiX_FDK/lib/tinyusb/src/class/msc/msc_device.c ****   uint16_t const block_count = rdwr10_get_blockcount(cbw);
 165:SynaptiX_FDK/lib/tinyusb/src/class/msc/msc_device.c ****   if (block_count == 0) {
 166:SynaptiX_FDK/lib/tinyusb/src/class/msc/msc_device.c ****     return 0; // invalid block count
 167:SynaptiX_FDK/lib/tinyusb/src/class/msc/msc_device.c ****   }
 168:SynaptiX_FDK/lib/tinyusb/src/class/msc/msc_device.c ****   return (uint16_t) (cbw->total_bytes / block_count);
 169:SynaptiX_FDK/lib/tinyusb/src/class/msc/msc_device.c **** }
 170:SynaptiX_FDK/lib/tinyusb/src/class/msc/msc_device.c **** 
 171:SynaptiX_FDK/lib/tinyusb/src/class/msc/msc_device.c **** static uint8_t rdwr10_validate_cmd(msc_cbw_t const* cbw) {
 172:SynaptiX_FDK/lib/tinyusb/src/class/msc/msc_device.c ****   uint8_t status = MSC_CSW_STATUS_PASSED;
 173:SynaptiX_FDK/lib/tinyusb/src/class/msc/msc_device.c ****   uint16_t const block_count = rdwr10_get_blockcount(cbw);
 174:SynaptiX_FDK/lib/tinyusb/src/class/msc/msc_device.c **** 
 175:SynaptiX_FDK/lib/tinyusb/src/class/msc/msc_device.c ****   if (cbw->total_bytes == 0) {
 176:SynaptiX_FDK/lib/tinyusb/src/class/msc/msc_device.c ****     if (block_count > 0) {
 177:SynaptiX_FDK/lib/tinyusb/src/class/msc/msc_device.c ****       TU_LOG_DRV("  SCSI case 2 (Hn < Di) or case 3 (Hn < Do) \r\n");
 178:SynaptiX_FDK/lib/tinyusb/src/class/msc/msc_device.c ****       status = MSC_CSW_STATUS_PHASE_ERROR;
 179:SynaptiX_FDK/lib/tinyusb/src/class/msc/msc_device.c ****     } else {
 180:SynaptiX_FDK/lib/tinyusb/src/class/msc/msc_device.c ****       // no data transfer, only exist in complaint test suite
 181:SynaptiX_FDK/lib/tinyusb/src/class/msc/msc_device.c ****     }
 182:SynaptiX_FDK/lib/tinyusb/src/class/msc/msc_device.c ****   } else {
 183:SynaptiX_FDK/lib/tinyusb/src/class/msc/msc_device.c ****     if (SCSI_CMD_READ_10 == cbw->command[0] && !is_data_in(cbw->dir)) {
 184:SynaptiX_FDK/lib/tinyusb/src/class/msc/msc_device.c ****       TU_LOG_DRV("  SCSI case 10 (Ho <> Di)\r\n");
 185:SynaptiX_FDK/lib/tinyusb/src/class/msc/msc_device.c ****       status = MSC_CSW_STATUS_PHASE_ERROR;
 186:SynaptiX_FDK/lib/tinyusb/src/class/msc/msc_device.c ****     } else if (SCSI_CMD_WRITE_10 == cbw->command[0] && is_data_in(cbw->dir)) {
 187:SynaptiX_FDK/lib/tinyusb/src/class/msc/msc_device.c ****       TU_LOG_DRV("  SCSI case 8 (Hi <> Do)\r\n");
 188:SynaptiX_FDK/lib/tinyusb/src/class/msc/msc_device.c ****       status = MSC_CSW_STATUS_PHASE_ERROR;
 189:SynaptiX_FDK/lib/tinyusb/src/class/msc/msc_device.c ****     } else if (0 == block_count) {
 190:SynaptiX_FDK/lib/tinyusb/src/class/msc/msc_device.c ****       TU_LOG_DRV("  SCSI case 4 Hi > Dn (READ10) or case 9 Ho > Dn (WRITE10) \r\n");
 191:SynaptiX_FDK/lib/tinyusb/src/class/msc/msc_device.c ****       status = MSC_CSW_STATUS_FAILED;
 192:SynaptiX_FDK/lib/tinyusb/src/class/msc/msc_device.c ****     } else if (cbw->total_bytes / block_count == 0) {
 193:SynaptiX_FDK/lib/tinyusb/src/class/msc/msc_device.c ****       TU_LOG_DRV(" Computed block size = 0. SCSI case 7 Hi < Di (READ10) or case 13 Ho < Do (WRIT10
 194:SynaptiX_FDK/lib/tinyusb/src/class/msc/msc_device.c ****       status = MSC_CSW_STATUS_PHASE_ERROR;
 195:SynaptiX_FDK/lib/tinyusb/src/class/msc/msc_device.c ****     } else {
 196:SynaptiX_FDK/lib/tinyusb/src/class/msc/msc_device.c ****       // nothing to do
 197:SynaptiX_FDK/lib/tinyusb/src/class/msc/msc_device.c ****     }
 198:SynaptiX_FDK/lib/tinyusb/src/class/msc/msc_device.c ****   }
 199:SynaptiX_FDK/lib/tinyusb/src/class/msc/msc_device.c **** 
 200:SynaptiX_FDK/lib/tinyusb/src/class/msc/msc_device.c ****   return status;
ARM GAS  C:\Users\LENOVO\AppData\Local\Temp\cc8CFzeV.s 			page 5


 201:SynaptiX_FDK/lib/tinyusb/src/class/msc/msc_device.c **** }
 202:SynaptiX_FDK/lib/tinyusb/src/class/msc/msc_device.c **** 
 203:SynaptiX_FDK/lib/tinyusb/src/class/msc/msc_device.c **** static bool proc_stage_status(mscd_interface_t *p_msc) {
 204:SynaptiX_FDK/lib/tinyusb/src/class/msc/msc_device.c ****   uint8_t rhport = p_msc->rhport;
 205:SynaptiX_FDK/lib/tinyusb/src/class/msc/msc_device.c ****   msc_cbw_t const *p_cbw = &p_msc->cbw;
 206:SynaptiX_FDK/lib/tinyusb/src/class/msc/msc_device.c **** 
 207:SynaptiX_FDK/lib/tinyusb/src/class/msc/msc_device.c ****   // skip status if epin is currently stalled, will do it when received Clear Stall request
 208:SynaptiX_FDK/lib/tinyusb/src/class/msc/msc_device.c ****   if (!usbd_edpt_stalled(rhport, p_msc->ep_in)) {
 209:SynaptiX_FDK/lib/tinyusb/src/class/msc/msc_device.c ****     if ((p_cbw->total_bytes > p_msc->xferred_len) && is_data_in(p_cbw->dir)) {
 210:SynaptiX_FDK/lib/tinyusb/src/class/msc/msc_device.c ****       // 6.7 The 13 Cases: case 5 (Hi > Di): STALL before status
 211:SynaptiX_FDK/lib/tinyusb/src/class/msc/msc_device.c ****       // TU_LOG_DRV("  SCSI case 5 (Hi > Di): %lu > %lu\r\n", p_cbw->total_bytes, p_msc->xferred_le
 212:SynaptiX_FDK/lib/tinyusb/src/class/msc/msc_device.c ****       usbd_edpt_stall(rhport, p_msc->ep_in);
 213:SynaptiX_FDK/lib/tinyusb/src/class/msc/msc_device.c ****     } else {
 214:SynaptiX_FDK/lib/tinyusb/src/class/msc/msc_device.c ****       TU_ASSERT(send_csw(p_msc));
 215:SynaptiX_FDK/lib/tinyusb/src/class/msc/msc_device.c ****     }
 216:SynaptiX_FDK/lib/tinyusb/src/class/msc/msc_device.c ****   }
 217:SynaptiX_FDK/lib/tinyusb/src/class/msc/msc_device.c **** 
 218:SynaptiX_FDK/lib/tinyusb/src/class/msc/msc_device.c ****   #if TU_CHECK_MCU(OPT_MCU_CXD56)
 219:SynaptiX_FDK/lib/tinyusb/src/class/msc/msc_device.c ****   // WORKAROUND: cxd56 has its own nuttx usb stack which does not forward Set/ClearFeature(Endpoint
 220:SynaptiX_FDK/lib/tinyusb/src/class/msc/msc_device.c ****   // There is no way for us to know when EP is un-stall, therefore we will unconditionally un-stall
 221:SynaptiX_FDK/lib/tinyusb/src/class/msc/msc_device.c ****   // hope everything will work
 222:SynaptiX_FDK/lib/tinyusb/src/class/msc/msc_device.c ****   if (usbd_edpt_stalled(rhport, p_msc->ep_in)) {
 223:SynaptiX_FDK/lib/tinyusb/src/class/msc/msc_device.c ****     usbd_edpt_clear_stall(rhport, p_msc->ep_in);
 224:SynaptiX_FDK/lib/tinyusb/src/class/msc/msc_device.c ****     send_csw(p_msc);
 225:SynaptiX_FDK/lib/tinyusb/src/class/msc/msc_device.c ****   }
 226:SynaptiX_FDK/lib/tinyusb/src/class/msc/msc_device.c ****   #endif
 227:SynaptiX_FDK/lib/tinyusb/src/class/msc/msc_device.c ****   return true;
 228:SynaptiX_FDK/lib/tinyusb/src/class/msc/msc_device.c **** }
 229:SynaptiX_FDK/lib/tinyusb/src/class/msc/msc_device.c **** 
 230:SynaptiX_FDK/lib/tinyusb/src/class/msc/msc_device.c **** //--------------------------------------------------------------------+
 231:SynaptiX_FDK/lib/tinyusb/src/class/msc/msc_device.c **** // Weak stubs: invoked if no strong implementation is available
 232:SynaptiX_FDK/lib/tinyusb/src/class/msc/msc_device.c **** //--------------------------------------------------------------------+
 233:SynaptiX_FDK/lib/tinyusb/src/class/msc/msc_device.c **** TU_ATTR_WEAK void tud_msc_read10_complete_cb(uint8_t lun) {
 234:SynaptiX_FDK/lib/tinyusb/src/class/msc/msc_device.c ****   (void) lun;
 235:SynaptiX_FDK/lib/tinyusb/src/class/msc/msc_device.c **** }
 236:SynaptiX_FDK/lib/tinyusb/src/class/msc/msc_device.c **** 
 237:SynaptiX_FDK/lib/tinyusb/src/class/msc/msc_device.c **** TU_ATTR_WEAK void tud_msc_write10_complete_cb(uint8_t lun) {
 238:SynaptiX_FDK/lib/tinyusb/src/class/msc/msc_device.c ****   (void) lun;
 239:SynaptiX_FDK/lib/tinyusb/src/class/msc/msc_device.c **** }
 240:SynaptiX_FDK/lib/tinyusb/src/class/msc/msc_device.c **** 
 241:SynaptiX_FDK/lib/tinyusb/src/class/msc/msc_device.c **** TU_ATTR_WEAK void tud_msc_scsi_complete_cb(uint8_t lun, uint8_t const scsi_cmd[16]) {
 242:SynaptiX_FDK/lib/tinyusb/src/class/msc/msc_device.c ****   (void) lun;
 243:SynaptiX_FDK/lib/tinyusb/src/class/msc/msc_device.c ****   (void) scsi_cmd;
 244:SynaptiX_FDK/lib/tinyusb/src/class/msc/msc_device.c **** }
 245:SynaptiX_FDK/lib/tinyusb/src/class/msc/msc_device.c **** 
 246:SynaptiX_FDK/lib/tinyusb/src/class/msc/msc_device.c **** TU_ATTR_WEAK uint8_t tud_msc_get_maxlun_cb(void) {
 247:SynaptiX_FDK/lib/tinyusb/src/class/msc/msc_device.c ****   return 1;
 248:SynaptiX_FDK/lib/tinyusb/src/class/msc/msc_device.c **** }
 249:SynaptiX_FDK/lib/tinyusb/src/class/msc/msc_device.c **** 
 250:SynaptiX_FDK/lib/tinyusb/src/class/msc/msc_device.c **** TU_ATTR_WEAK bool tud_msc_start_stop_cb(uint8_t lun, uint8_t power_condition, bool start, bool load
 251:SynaptiX_FDK/lib/tinyusb/src/class/msc/msc_device.c ****   (void) lun;
 252:SynaptiX_FDK/lib/tinyusb/src/class/msc/msc_device.c ****   (void) power_condition;
 253:SynaptiX_FDK/lib/tinyusb/src/class/msc/msc_device.c ****   (void) start;
 254:SynaptiX_FDK/lib/tinyusb/src/class/msc/msc_device.c ****   (void) load_eject;
 255:SynaptiX_FDK/lib/tinyusb/src/class/msc/msc_device.c ****   return true;
 256:SynaptiX_FDK/lib/tinyusb/src/class/msc/msc_device.c **** }
 257:SynaptiX_FDK/lib/tinyusb/src/class/msc/msc_device.c **** 
ARM GAS  C:\Users\LENOVO\AppData\Local\Temp\cc8CFzeV.s 			page 6


 258:SynaptiX_FDK/lib/tinyusb/src/class/msc/msc_device.c **** TU_ATTR_WEAK bool tud_msc_prevent_allow_medium_removal_cb(uint8_t lun, uint8_t prohibit_removal, ui
 259:SynaptiX_FDK/lib/tinyusb/src/class/msc/msc_device.c ****   (void) lun;
 260:SynaptiX_FDK/lib/tinyusb/src/class/msc/msc_device.c ****   (void) prohibit_removal;
 261:SynaptiX_FDK/lib/tinyusb/src/class/msc/msc_device.c ****   (void) control;
 262:SynaptiX_FDK/lib/tinyusb/src/class/msc/msc_device.c ****   return true;
 263:SynaptiX_FDK/lib/tinyusb/src/class/msc/msc_device.c **** }
 264:SynaptiX_FDK/lib/tinyusb/src/class/msc/msc_device.c **** 
 265:SynaptiX_FDK/lib/tinyusb/src/class/msc/msc_device.c **** TU_ATTR_WEAK int32_t tud_msc_request_sense_cb(uint8_t lun, void* buffer, uint16_t bufsize) {
 266:SynaptiX_FDK/lib/tinyusb/src/class/msc/msc_device.c ****   (void) lun;
 267:SynaptiX_FDK/lib/tinyusb/src/class/msc/msc_device.c ****   (void) buffer;
 268:SynaptiX_FDK/lib/tinyusb/src/class/msc/msc_device.c ****   (void) bufsize;
 269:SynaptiX_FDK/lib/tinyusb/src/class/msc/msc_device.c ****   return sizeof(scsi_sense_fixed_resp_t);
 270:SynaptiX_FDK/lib/tinyusb/src/class/msc/msc_device.c **** }
 271:SynaptiX_FDK/lib/tinyusb/src/class/msc/msc_device.c **** 
 272:SynaptiX_FDK/lib/tinyusb/src/class/msc/msc_device.c **** TU_ATTR_WEAK bool tud_msc_is_writable_cb(uint8_t lun) {
 273:SynaptiX_FDK/lib/tinyusb/src/class/msc/msc_device.c ****   (void) lun;
 274:SynaptiX_FDK/lib/tinyusb/src/class/msc/msc_device.c ****   return true;
 275:SynaptiX_FDK/lib/tinyusb/src/class/msc/msc_device.c **** }
 276:SynaptiX_FDK/lib/tinyusb/src/class/msc/msc_device.c **** 
 277:SynaptiX_FDK/lib/tinyusb/src/class/msc/msc_device.c **** //--------------------------------------------------------------------+
 278:SynaptiX_FDK/lib/tinyusb/src/class/msc/msc_device.c **** // Debug
 279:SynaptiX_FDK/lib/tinyusb/src/class/msc/msc_device.c **** //--------------------------------------------------------------------+
 280:SynaptiX_FDK/lib/tinyusb/src/class/msc/msc_device.c **** #if CFG_TUSB_DEBUG >= CFG_TUD_MSC_LOG_LEVEL
 281:SynaptiX_FDK/lib/tinyusb/src/class/msc/msc_device.c **** 
 282:SynaptiX_FDK/lib/tinyusb/src/class/msc/msc_device.c **** TU_ATTR_UNUSED tu_static tu_lookup_entry_t const _msc_scsi_cmd_lookup[] = {
 283:SynaptiX_FDK/lib/tinyusb/src/class/msc/msc_device.c ****   { .key = SCSI_CMD_TEST_UNIT_READY              , .data = "Test Unit Ready" },
 284:SynaptiX_FDK/lib/tinyusb/src/class/msc/msc_device.c ****   { .key = SCSI_CMD_INQUIRY                      , .data = "Inquiry" },
 285:SynaptiX_FDK/lib/tinyusb/src/class/msc/msc_device.c ****   { .key = SCSI_CMD_MODE_SELECT_6                , .data = "Mode_Select 6" },
 286:SynaptiX_FDK/lib/tinyusb/src/class/msc/msc_device.c ****   { .key = SCSI_CMD_MODE_SENSE_6                 , .data = "Mode_Sense 6" },
 287:SynaptiX_FDK/lib/tinyusb/src/class/msc/msc_device.c ****   { .key = SCSI_CMD_START_STOP_UNIT              , .data = "Start Stop Unit" },
 288:SynaptiX_FDK/lib/tinyusb/src/class/msc/msc_device.c ****   { .key = SCSI_CMD_PREVENT_ALLOW_MEDIUM_REMOVAL , .data = "Prevent/Allow Medium Removal" },
 289:SynaptiX_FDK/lib/tinyusb/src/class/msc/msc_device.c ****   { .key = SCSI_CMD_READ_CAPACITY_10             , .data = "Read Capacity10" },
 290:SynaptiX_FDK/lib/tinyusb/src/class/msc/msc_device.c ****   { .key = SCSI_CMD_REQUEST_SENSE                , .data = "Request Sense" },
 291:SynaptiX_FDK/lib/tinyusb/src/class/msc/msc_device.c ****   { .key = SCSI_CMD_READ_FORMAT_CAPACITY         , .data = "Read Format Capacity" },
 292:SynaptiX_FDK/lib/tinyusb/src/class/msc/msc_device.c ****   { .key = SCSI_CMD_READ_10                      , .data = "Read10" },
 293:SynaptiX_FDK/lib/tinyusb/src/class/msc/msc_device.c ****   { .key = SCSI_CMD_WRITE_10                     , .data = "Write10" }
 294:SynaptiX_FDK/lib/tinyusb/src/class/msc/msc_device.c **** };
 295:SynaptiX_FDK/lib/tinyusb/src/class/msc/msc_device.c **** 
 296:SynaptiX_FDK/lib/tinyusb/src/class/msc/msc_device.c **** TU_ATTR_UNUSED tu_static tu_lookup_table_t const _msc_scsi_cmd_table = {
 297:SynaptiX_FDK/lib/tinyusb/src/class/msc/msc_device.c ****   .count = TU_ARRAY_SIZE(_msc_scsi_cmd_lookup),
 298:SynaptiX_FDK/lib/tinyusb/src/class/msc/msc_device.c ****   .items = _msc_scsi_cmd_lookup
 299:SynaptiX_FDK/lib/tinyusb/src/class/msc/msc_device.c **** };
 300:SynaptiX_FDK/lib/tinyusb/src/class/msc/msc_device.c **** 
 301:SynaptiX_FDK/lib/tinyusb/src/class/msc/msc_device.c **** #endif
 302:SynaptiX_FDK/lib/tinyusb/src/class/msc/msc_device.c **** 
 303:SynaptiX_FDK/lib/tinyusb/src/class/msc/msc_device.c **** //--------------------------------------------------------------------+
 304:SynaptiX_FDK/lib/tinyusb/src/class/msc/msc_device.c **** // APPLICATION API
 305:SynaptiX_FDK/lib/tinyusb/src/class/msc/msc_device.c **** //--------------------------------------------------------------------+
 306:SynaptiX_FDK/lib/tinyusb/src/class/msc/msc_device.c **** bool tud_msc_set_sense(uint8_t lun, uint8_t sense_key, uint8_t add_sense_code, uint8_t add_sense_qu
 307:SynaptiX_FDK/lib/tinyusb/src/class/msc/msc_device.c ****   (void) lun;
 308:SynaptiX_FDK/lib/tinyusb/src/class/msc/msc_device.c ****   _mscd_itf.sense_key           = sense_key;
 309:SynaptiX_FDK/lib/tinyusb/src/class/msc/msc_device.c ****   _mscd_itf.add_sense_code      = add_sense_code;
 310:SynaptiX_FDK/lib/tinyusb/src/class/msc/msc_device.c ****   _mscd_itf.add_sense_qualifier = add_sense_qualifier;
 311:SynaptiX_FDK/lib/tinyusb/src/class/msc/msc_device.c ****   return true;
 312:SynaptiX_FDK/lib/tinyusb/src/class/msc/msc_device.c **** }
 313:SynaptiX_FDK/lib/tinyusb/src/class/msc/msc_device.c **** 
 314:SynaptiX_FDK/lib/tinyusb/src/class/msc/msc_device.c **** TU_ATTR_ALWAYS_INLINE static inline void set_sense_medium_not_present(uint8_t lun) {
ARM GAS  C:\Users\LENOVO\AppData\Local\Temp\cc8CFzeV.s 			page 7


 315:SynaptiX_FDK/lib/tinyusb/src/class/msc/msc_device.c ****   // default sense is NOT READY, MEDIUM NOT PRESENT
 316:SynaptiX_FDK/lib/tinyusb/src/class/msc/msc_device.c ****   (void) tud_msc_set_sense(lun, SCSI_SENSE_NOT_READY, 0x3A, 0x00);
 317:SynaptiX_FDK/lib/tinyusb/src/class/msc/msc_device.c **** }
 318:SynaptiX_FDK/lib/tinyusb/src/class/msc/msc_device.c **** 
 319:SynaptiX_FDK/lib/tinyusb/src/class/msc/msc_device.c **** static void proc_async_io_done(void *bytes_io) {
 320:SynaptiX_FDK/lib/tinyusb/src/class/msc/msc_device.c ****   mscd_interface_t *p_msc = &_mscd_itf;
 321:SynaptiX_FDK/lib/tinyusb/src/class/msc/msc_device.c ****   TU_VERIFY(p_msc->pending_io, );
 322:SynaptiX_FDK/lib/tinyusb/src/class/msc/msc_device.c ****   const int32_t nbytes = (int32_t) (intptr_t) bytes_io;
 323:SynaptiX_FDK/lib/tinyusb/src/class/msc/msc_device.c ****   const uint8_t cmd = p_msc->cbw.command[0];
 324:SynaptiX_FDK/lib/tinyusb/src/class/msc/msc_device.c **** 
 325:SynaptiX_FDK/lib/tinyusb/src/class/msc/msc_device.c ****   p_msc->pending_io = false;
 326:SynaptiX_FDK/lib/tinyusb/src/class/msc/msc_device.c ****   switch (cmd) {
 327:SynaptiX_FDK/lib/tinyusb/src/class/msc/msc_device.c ****     case SCSI_CMD_READ_10:
 328:SynaptiX_FDK/lib/tinyusb/src/class/msc/msc_device.c ****       proc_read_io_data(p_msc, nbytes);
 329:SynaptiX_FDK/lib/tinyusb/src/class/msc/msc_device.c ****       break;
 330:SynaptiX_FDK/lib/tinyusb/src/class/msc/msc_device.c **** 
 331:SynaptiX_FDK/lib/tinyusb/src/class/msc/msc_device.c ****     case SCSI_CMD_WRITE_10:
 332:SynaptiX_FDK/lib/tinyusb/src/class/msc/msc_device.c ****       proc_write_io_data(p_msc, (uint32_t) nbytes, nbytes);
 333:SynaptiX_FDK/lib/tinyusb/src/class/msc/msc_device.c ****       break;
 334:SynaptiX_FDK/lib/tinyusb/src/class/msc/msc_device.c **** 
 335:SynaptiX_FDK/lib/tinyusb/src/class/msc/msc_device.c ****     default: break; // nothing to do
 336:SynaptiX_FDK/lib/tinyusb/src/class/msc/msc_device.c ****   }
 337:SynaptiX_FDK/lib/tinyusb/src/class/msc/msc_device.c **** 
 338:SynaptiX_FDK/lib/tinyusb/src/class/msc/msc_device.c ****   // send status if stage is transitioned to STATUS
 339:SynaptiX_FDK/lib/tinyusb/src/class/msc/msc_device.c ****   if (p_msc->stage == MSC_STAGE_STATUS) {
 340:SynaptiX_FDK/lib/tinyusb/src/class/msc/msc_device.c ****     proc_stage_status(p_msc);
 341:SynaptiX_FDK/lib/tinyusb/src/class/msc/msc_device.c ****   }
 342:SynaptiX_FDK/lib/tinyusb/src/class/msc/msc_device.c **** }
 343:SynaptiX_FDK/lib/tinyusb/src/class/msc/msc_device.c **** 
 344:SynaptiX_FDK/lib/tinyusb/src/class/msc/msc_device.c **** bool tud_msc_async_io_done(int32_t bytes_io, bool in_isr) {
 345:SynaptiX_FDK/lib/tinyusb/src/class/msc/msc_device.c ****   // Precheck to avoid queueing multiple RW done callback
 346:SynaptiX_FDK/lib/tinyusb/src/class/msc/msc_device.c ****   TU_VERIFY(_mscd_itf.pending_io);
 347:SynaptiX_FDK/lib/tinyusb/src/class/msc/msc_device.c ****   if (bytes_io == 0) {
 348:SynaptiX_FDK/lib/tinyusb/src/class/msc/msc_device.c ****     bytes_io = TUD_MSC_RET_ERROR; // 0 is treated as error, no reason to call this with BUSY here
 349:SynaptiX_FDK/lib/tinyusb/src/class/msc/msc_device.c ****   }
 350:SynaptiX_FDK/lib/tinyusb/src/class/msc/msc_device.c ****   usbd_defer_func(proc_async_io_done, (void *) (intptr_t) bytes_io, in_isr);
 351:SynaptiX_FDK/lib/tinyusb/src/class/msc/msc_device.c ****   return true;
 352:SynaptiX_FDK/lib/tinyusb/src/class/msc/msc_device.c **** }
 353:SynaptiX_FDK/lib/tinyusb/src/class/msc/msc_device.c **** 
 354:SynaptiX_FDK/lib/tinyusb/src/class/msc/msc_device.c **** //--------------------------------------------------------------------+
 355:SynaptiX_FDK/lib/tinyusb/src/class/msc/msc_device.c **** // USBD Driver API
 356:SynaptiX_FDK/lib/tinyusb/src/class/msc/msc_device.c **** //--------------------------------------------------------------------+
 357:SynaptiX_FDK/lib/tinyusb/src/class/msc/msc_device.c **** void mscd_init(void) {
 358:SynaptiX_FDK/lib/tinyusb/src/class/msc/msc_device.c ****   TU_LOG_INT(CFG_TUD_MSC_LOG_LEVEL, sizeof(mscd_interface_t));
 359:SynaptiX_FDK/lib/tinyusb/src/class/msc/msc_device.c ****   tu_memclr(&_mscd_itf, sizeof(mscd_interface_t));
 360:SynaptiX_FDK/lib/tinyusb/src/class/msc/msc_device.c **** }
 361:SynaptiX_FDK/lib/tinyusb/src/class/msc/msc_device.c **** 
 362:SynaptiX_FDK/lib/tinyusb/src/class/msc/msc_device.c **** bool mscd_deinit(void) {
 363:SynaptiX_FDK/lib/tinyusb/src/class/msc/msc_device.c ****   return true; // nothing to do
 364:SynaptiX_FDK/lib/tinyusb/src/class/msc/msc_device.c **** }
 365:SynaptiX_FDK/lib/tinyusb/src/class/msc/msc_device.c **** 
 366:SynaptiX_FDK/lib/tinyusb/src/class/msc/msc_device.c **** void mscd_reset(uint8_t rhport) {
 367:SynaptiX_FDK/lib/tinyusb/src/class/msc/msc_device.c ****   (void) rhport;
 368:SynaptiX_FDK/lib/tinyusb/src/class/msc/msc_device.c ****   tu_memclr(&_mscd_itf, sizeof(mscd_interface_t));
 369:SynaptiX_FDK/lib/tinyusb/src/class/msc/msc_device.c **** }
 370:SynaptiX_FDK/lib/tinyusb/src/class/msc/msc_device.c **** 
 371:SynaptiX_FDK/lib/tinyusb/src/class/msc/msc_device.c **** uint16_t mscd_open(uint8_t rhport, tusb_desc_interface_t const * itf_desc, uint16_t max_len) {
ARM GAS  C:\Users\LENOVO\AppData\Local\Temp\cc8CFzeV.s 			page 8


 372:SynaptiX_FDK/lib/tinyusb/src/class/msc/msc_device.c ****   // only support SCSI's BOT protocol
 373:SynaptiX_FDK/lib/tinyusb/src/class/msc/msc_device.c ****   TU_VERIFY(TUSB_CLASS_MSC    == itf_desc->bInterfaceClass &&
 374:SynaptiX_FDK/lib/tinyusb/src/class/msc/msc_device.c ****             MSC_SUBCLASS_SCSI == itf_desc->bInterfaceSubClass &&
 375:SynaptiX_FDK/lib/tinyusb/src/class/msc/msc_device.c ****             MSC_PROTOCOL_BOT  == itf_desc->bInterfaceProtocol, 0);
 376:SynaptiX_FDK/lib/tinyusb/src/class/msc/msc_device.c ****   uint16_t const drv_len = sizeof(tusb_desc_interface_t) + 2*sizeof(tusb_desc_endpoint_t);
 377:SynaptiX_FDK/lib/tinyusb/src/class/msc/msc_device.c ****   TU_ASSERT(max_len >= drv_len, 0); // Max length must be at least 1 interface + 2 endpoints
 378:SynaptiX_FDK/lib/tinyusb/src/class/msc/msc_device.c **** 
 379:SynaptiX_FDK/lib/tinyusb/src/class/msc/msc_device.c ****   mscd_interface_t * p_msc = &_mscd_itf;
 380:SynaptiX_FDK/lib/tinyusb/src/class/msc/msc_device.c ****   p_msc->itf_num = itf_desc->bInterfaceNumber;
 381:SynaptiX_FDK/lib/tinyusb/src/class/msc/msc_device.c ****   p_msc->rhport = rhport;
 382:SynaptiX_FDK/lib/tinyusb/src/class/msc/msc_device.c **** 
 383:SynaptiX_FDK/lib/tinyusb/src/class/msc/msc_device.c ****   // Open endpoint pair
 384:SynaptiX_FDK/lib/tinyusb/src/class/msc/msc_device.c ****   TU_ASSERT(usbd_open_edpt_pair(rhport, tu_desc_next(itf_desc), 2, TUSB_XFER_BULK, &p_msc->ep_out, 
 385:SynaptiX_FDK/lib/tinyusb/src/class/msc/msc_device.c **** 
 386:SynaptiX_FDK/lib/tinyusb/src/class/msc/msc_device.c ****   // Prepare for Command Block Wrapper
 387:SynaptiX_FDK/lib/tinyusb/src/class/msc/msc_device.c ****   TU_ASSERT(prepare_cbw(p_msc), drv_len);
 388:SynaptiX_FDK/lib/tinyusb/src/class/msc/msc_device.c **** 
 389:SynaptiX_FDK/lib/tinyusb/src/class/msc/msc_device.c ****   return drv_len;
 390:SynaptiX_FDK/lib/tinyusb/src/class/msc/msc_device.c **** }
 391:SynaptiX_FDK/lib/tinyusb/src/class/msc/msc_device.c **** 
 392:SynaptiX_FDK/lib/tinyusb/src/class/msc/msc_device.c **** static void proc_bot_reset(mscd_interface_t* p_msc) {
  30              		.loc 1 392 53 view -0
  31              		.cfi_startproc
  32              		@ args = 0, pretend = 0, frame = 0
  33              		@ frame_needed = 0, uses_anonymous_args = 0
  34              		@ link register save eliminated.
 393:SynaptiX_FDK/lib/tinyusb/src/class/msc/msc_device.c ****   p_msc->stage       = MSC_STAGE_CMD;
  35              		.loc 1 393 3 view .LVU1
  36              		.loc 1 393 22 is_stmt 0 view .LVU2
  37 0000 0023     		movs	r3, #0
  38 0002 80F83830 		strb	r3, [r0, #56]
 394:SynaptiX_FDK/lib/tinyusb/src/class/msc/msc_device.c ****   p_msc->total_len   = 0;
  39              		.loc 1 394 3 is_stmt 1 view .LVU3
  40              		.loc 1 394 22 is_stmt 0 view .LVU4
  41 0006 0363     		str	r3, [r0, #48]
 395:SynaptiX_FDK/lib/tinyusb/src/class/msc/msc_device.c ****   p_msc->xferred_len = 0;
  42              		.loc 1 395 3 is_stmt 1 view .LVU5
  43              		.loc 1 395 22 is_stmt 0 view .LVU6
  44 0008 4363     		str	r3, [r0, #52]
 396:SynaptiX_FDK/lib/tinyusb/src/class/msc/msc_device.c ****   p_msc->sense_key           = 0;
  45              		.loc 1 396 3 is_stmt 1 view .LVU7
  46              		.loc 1 396 30 is_stmt 0 view .LVU8
  47 000a 80F83930 		strb	r3, [r0, #57]
 397:SynaptiX_FDK/lib/tinyusb/src/class/msc/msc_device.c ****   p_msc->add_sense_code      = 0;
  48              		.loc 1 397 3 is_stmt 1 view .LVU9
  49              		.loc 1 397 30 is_stmt 0 view .LVU10
  50 000e 80F83A30 		strb	r3, [r0, #58]
 398:SynaptiX_FDK/lib/tinyusb/src/class/msc/msc_device.c ****   p_msc->add_sense_qualifier = 0;
  51              		.loc 1 398 3 is_stmt 1 view .LVU11
  52              		.loc 1 398 30 is_stmt 0 view .LVU12
  53 0012 80F83B30 		strb	r3, [r0, #59]
 399:SynaptiX_FDK/lib/tinyusb/src/class/msc/msc_device.c **** }
  54              		.loc 1 399 1 view .LVU13
  55 0016 7047     		bx	lr
  56              		.cfi_endproc
  57              	.LFE662:
  59              		.section	.text.proc_stage_status,"ax",%progbits
ARM GAS  C:\Users\LENOVO\AppData\Local\Temp\cc8CFzeV.s 			page 9


  60              		.align	1
  61              		.syntax unified
  62              		.thumb
  63              		.thumb_func
  65              	proc_stage_status:
  66              	.LVL1:
  67              	.LFB645:
 203:SynaptiX_FDK/lib/tinyusb/src/class/msc/msc_device.c ****   uint8_t rhport = p_msc->rhport;
  68              		.loc 1 203 56 is_stmt 1 view -0
  69              		.cfi_startproc
  70              		@ args = 0, pretend = 0, frame = 0
  71              		@ frame_needed = 0, uses_anonymous_args = 0
 203:SynaptiX_FDK/lib/tinyusb/src/class/msc/msc_device.c ****   uint8_t rhport = p_msc->rhport;
  72              		.loc 1 203 56 is_stmt 0 view .LVU15
  73 0000 30B5     		push	{r4, r5, lr}
  74              	.LCFI0:
  75              		.cfi_def_cfa_offset 12
  76              		.cfi_offset 4, -12
  77              		.cfi_offset 5, -8
  78              		.cfi_offset 14, -4
  79 0002 83B0     		sub	sp, sp, #12
  80              	.LCFI1:
  81              		.cfi_def_cfa_offset 24
  82 0004 0446     		mov	r4, r0
 204:SynaptiX_FDK/lib/tinyusb/src/class/msc/msc_device.c ****   msc_cbw_t const *p_cbw = &p_msc->cbw;
  83              		.loc 1 204 3 is_stmt 1 view .LVU16
 204:SynaptiX_FDK/lib/tinyusb/src/class/msc/msc_device.c ****   msc_cbw_t const *p_cbw = &p_msc->cbw;
  84              		.loc 1 204 11 is_stmt 0 view .LVU17
  85 0006 C57F     		ldrb	r5, [r0, #31]	@ zero_extendqisi2
  86              	.LVL2:
 205:SynaptiX_FDK/lib/tinyusb/src/class/msc/msc_device.c **** 
  87              		.loc 1 205 3 is_stmt 1 view .LVU18
 208:SynaptiX_FDK/lib/tinyusb/src/class/msc/msc_device.c ****     if ((p_cbw->total_bytes > p_msc->xferred_len) && is_data_in(p_cbw->dir)) {
  88              		.loc 1 208 3 view .LVU19
 208:SynaptiX_FDK/lib/tinyusb/src/class/msc/msc_device.c ****     if ((p_cbw->total_bytes > p_msc->xferred_len) && is_data_in(p_cbw->dir)) {
  89              		.loc 1 208 8 is_stmt 0 view .LVU20
  90 0008 90F82E10 		ldrb	r1, [r0, #46]	@ zero_extendqisi2
  91 000c 2846     		mov	r0, r5
  92              	.LVL3:
 208:SynaptiX_FDK/lib/tinyusb/src/class/msc/msc_device.c ****     if ((p_cbw->total_bytes > p_msc->xferred_len) && is_data_in(p_cbw->dir)) {
  93              		.loc 1 208 8 view .LVU21
  94 000e FFF7FEFF 		bl	usbd_edpt_stalled
  95              	.LVL4:
 208:SynaptiX_FDK/lib/tinyusb/src/class/msc/msc_device.c ****     if ((p_cbw->total_bytes > p_msc->xferred_len) && is_data_in(p_cbw->dir)) {
  96              		.loc 1 208 6 discriminator 1 view .LVU22
  97 0012 F0B9     		cbnz	r0, .L3
 209:SynaptiX_FDK/lib/tinyusb/src/class/msc/msc_device.c ****       // 6.7 The 13 Cases: case 5 (Hi > Di): STALL before status
  98              		.loc 1 209 5 is_stmt 1 view .LVU23
 209:SynaptiX_FDK/lib/tinyusb/src/class/msc/msc_device.c ****       // 6.7 The 13 Cases: case 5 (Hi > Di): STALL before status
  99              		.loc 1 209 15 is_stmt 0 view .LVU24
 100 0014 A368     		ldr	r3, [r4, #8]	@ unaligned
 209:SynaptiX_FDK/lib/tinyusb/src/class/msc/msc_device.c ****       // 6.7 The 13 Cases: case 5 (Hi > Di): STALL before status
 101              		.loc 1 209 36 view .LVU25
 102 0016 626B     		ldr	r2, [r4, #52]
 209:SynaptiX_FDK/lib/tinyusb/src/class/msc/msc_device.c ****       // 6.7 The 13 Cases: case 5 (Hi > Di): STALL before status
 103              		.loc 1 209 8 view .LVU26
 104 0018 9342     		cmp	r3, r2
ARM GAS  C:\Users\LENOVO\AppData\Local\Temp\cc8CFzeV.s 			page 10


 105 001a 02D9     		bls	.L4
 209:SynaptiX_FDK/lib/tinyusb/src/class/msc/msc_device.c ****       // 6.7 The 13 Cases: case 5 (Hi > Di): STALL before status
 106              		.loc 1 209 70 discriminator 1 view .LVU27
 107 001c 217B     		ldrb	r1, [r4, #12]	@ zero_extendqisi2
 209:SynaptiX_FDK/lib/tinyusb/src/class/msc/msc_device.c ****       // 6.7 The 13 Cases: case 5 (Hi > Di): STALL before status
 108              		.loc 1 209 51 discriminator 1 view .LVU28
 109 001e C909     		lsrs	r1, r1, #7
 110 0020 19D1     		bne	.L7
 111              	.L4:
 214:SynaptiX_FDK/lib/tinyusb/src/class/msc/msc_device.c ****     }
 112              		.loc 1 214 7 is_stmt 1 view .LVU29
 214:SynaptiX_FDK/lib/tinyusb/src/class/msc/msc_device.c ****     }
 113              		.loc 1 214 7 view .LVU30
 114              	.LVL5:
 115              	.LBB139:
 116              	.LBI139:
 112:SynaptiX_FDK/lib/tinyusb/src/class/msc/msc_device.c ****   // Data residue is always = host expect - actual transferred
 117              		.loc 1 112 42 view .LVU31
 118              	.LBB140:
 114:SynaptiX_FDK/lib/tinyusb/src/class/msc/msc_device.c ****   p_msc->csw.data_residue = p_msc->cbw.total_bytes - p_msc->xferred_len;
 119              		.loc 1 114 3 view .LVU32
 115:SynaptiX_FDK/lib/tinyusb/src/class/msc/msc_device.c ****   p_msc->stage = MSC_STAGE_STATUS_SENT;
 120              		.loc 1 115 3 view .LVU33
 115:SynaptiX_FDK/lib/tinyusb/src/class/msc/msc_device.c ****   p_msc->stage = MSC_STAGE_STATUS_SENT;
 121              		.loc 1 115 52 is_stmt 0 view .LVU34
 122 0022 9B1A     		subs	r3, r3, r2
 115:SynaptiX_FDK/lib/tinyusb/src/class/msc/msc_device.c ****   p_msc->stage = MSC_STAGE_STATUS_SENT;
 123              		.loc 1 115 27 view .LVU35
 124 0024 A362     		str	r3, [r4, #40]
 116:SynaptiX_FDK/lib/tinyusb/src/class/msc/msc_device.c ****   memcpy(_mscd_epbuf.buf, &p_msc->csw, sizeof(msc_csw_t)); //-V1086
 125              		.loc 1 116 3 is_stmt 1 view .LVU36
 116:SynaptiX_FDK/lib/tinyusb/src/class/msc/msc_device.c ****   memcpy(_mscd_epbuf.buf, &p_msc->csw, sizeof(msc_csw_t)); //-V1086
 126              		.loc 1 116 16 is_stmt 0 view .LVU37
 127 0026 0323     		movs	r3, #3
 128 0028 84F83830 		strb	r3, [r4, #56]
 117:SynaptiX_FDK/lib/tinyusb/src/class/msc/msc_device.c ****   return usbd_edpt_xfer(rhport, p_msc->ep_in , _mscd_epbuf.buf, sizeof(msc_csw_t), false);
 129              		.loc 1 117 3 is_stmt 1 view .LVU38
 130 002c 124D     		ldr	r5, .L9
 131              	.LVL6:
 117:SynaptiX_FDK/lib/tinyusb/src/class/msc/msc_device.c ****   return usbd_edpt_xfer(rhport, p_msc->ep_in , _mscd_epbuf.buf, sizeof(msc_csw_t), false);
 132              		.loc 1 117 3 is_stmt 0 view .LVU39
 133 002e 2B46     		mov	r3, r5
 134 0030 206A     		ldr	r0, [r4, #32]	@ unaligned
 135 0032 616A     		ldr	r1, [r4, #36]	@ unaligned
 136 0034 A26A     		ldr	r2, [r4, #40]	@ unaligned
 137 0036 07C3     		stmia	r3!, {r0, r1, r2}
 138 0038 94F82C20 		ldrb	r2, [r4, #44]	@ zero_extendqisi2
 139 003c 1A70     		strb	r2, [r3]
 118:SynaptiX_FDK/lib/tinyusb/src/class/msc/msc_device.c **** }
 140              		.loc 1 118 3 is_stmt 1 view .LVU40
 118:SynaptiX_FDK/lib/tinyusb/src/class/msc/msc_device.c **** }
 141              		.loc 1 118 10 is_stmt 0 view .LVU41
 142 003e 0023     		movs	r3, #0
 143 0040 0093     		str	r3, [sp]
 144              	.LVL7:
 118:SynaptiX_FDK/lib/tinyusb/src/class/msc/msc_device.c **** }
 145              		.loc 1 118 10 view .LVU42
ARM GAS  C:\Users\LENOVO\AppData\Local\Temp\cc8CFzeV.s 			page 11


 146 0042 0D23     		movs	r3, #13
 147 0044 2A46     		mov	r2, r5
 148 0046 94F82E10 		ldrb	r1, [r4, #46]	@ zero_extendqisi2
 149 004a E07F     		ldrb	r0, [r4, #31]	@ zero_extendqisi2
 150 004c FFF7FEFF 		bl	usbd_edpt_xfer
 151              	.LVL8:
 118:SynaptiX_FDK/lib/tinyusb/src/class/msc/msc_device.c **** }
 152              		.loc 1 118 10 view .LVU43
 153              	.LBE140:
 154              	.LBE139:
 214:SynaptiX_FDK/lib/tinyusb/src/class/msc/msc_device.c ****     }
 155              		.loc 1 214 7 discriminator 1 view .LVU44
 156 0050 40B1     		cbz	r0, .L8
 157              	.L3:
 228:SynaptiX_FDK/lib/tinyusb/src/class/msc/msc_device.c **** 
 158              		.loc 1 228 1 view .LVU45
 159 0052 03B0     		add	sp, sp, #12
 160              	.LCFI2:
 161              		.cfi_remember_state
 162              		.cfi_def_cfa_offset 12
 163              		@ sp needed
 164 0054 30BD     		pop	{r4, r5, pc}
 165              	.LVL9:
 166              	.L7:
 167              	.LCFI3:
 168              		.cfi_restore_state
 212:SynaptiX_FDK/lib/tinyusb/src/class/msc/msc_device.c ****     } else {
 169              		.loc 1 212 7 is_stmt 1 view .LVU46
 170 0056 94F82E10 		ldrb	r1, [r4, #46]	@ zero_extendqisi2
 171 005a 2846     		mov	r0, r5
 172 005c FFF7FEFF 		bl	usbd_edpt_stall
 173              	.LVL10:
 227:SynaptiX_FDK/lib/tinyusb/src/class/msc/msc_device.c **** }
 174              		.loc 1 227 10 is_stmt 0 view .LVU47
 175 0060 0120     		movs	r0, #1
 212:SynaptiX_FDK/lib/tinyusb/src/class/msc/msc_device.c ****     } else {
 176              		.loc 1 212 7 view .LVU48
 177 0062 F6E7     		b	.L3
 178              	.LVL11:
 179              	.L8:
 214:SynaptiX_FDK/lib/tinyusb/src/class/msc/msc_device.c ****     }
 180              		.loc 1 214 7 is_stmt 1 discriminator 1 view .LVU49
 214:SynaptiX_FDK/lib/tinyusb/src/class/msc/msc_device.c ****     }
 181              		.loc 1 214 7 discriminator 1 view .LVU50
 214:SynaptiX_FDK/lib/tinyusb/src/class/msc/msc_device.c ****     }
 182              		.loc 1 214 7 discriminator 1 view .LVU51
 214:SynaptiX_FDK/lib/tinyusb/src/class/msc/msc_device.c ****     }
 183              		.loc 1 214 7 discriminator 1 view .LVU52
 184              	.LBB141:
 214:SynaptiX_FDK/lib/tinyusb/src/class/msc/msc_device.c ****     }
 185              		.loc 1 214 7 discriminator 1 view .LVU53
 214:SynaptiX_FDK/lib/tinyusb/src/class/msc/msc_device.c ****     }
 186              		.loc 1 214 7 discriminator 1 view .LVU54
 187 0064 4FF0E023 		mov	r3, #-536813568
 188 0068 D3F8F03D 		ldr	r3, [r3, #3568]
 189 006c 13F0010F 		tst	r3, #1
 190 0070 EFD0     		beq	.L3
ARM GAS  C:\Users\LENOVO\AppData\Local\Temp\cc8CFzeV.s 			page 12


 214:SynaptiX_FDK/lib/tinyusb/src/class/msc/msc_device.c ****     }
 191              		.loc 1 214 7 discriminator 3 view .LVU55
 192              		.syntax unified
 193              	@ 214 "SynaptiX_FDK/lib/tinyusb/src/class/msc/msc_device.c" 1
 194 0072 00BE     		BKPT #0
 195              	
 196              	@ 0 "" 2
 197              		.thumb
 198              		.syntax unified
 199              	.LBE141:
 214:SynaptiX_FDK/lib/tinyusb/src/class/msc/msc_device.c ****     }
 200              		.loc 1 214 7 discriminator 5 view .LVU56
 214:SynaptiX_FDK/lib/tinyusb/src/class/msc/msc_device.c ****     }
 201              		.loc 1 214 7 discriminator 5 view .LVU57
 214:SynaptiX_FDK/lib/tinyusb/src/class/msc/msc_device.c ****     }
 202              		.loc 1 214 7 is_stmt 0 view .LVU58
 203 0074 EDE7     		b	.L3
 204              	.L10:
 205 0076 00BF     		.align	2
 206              	.L9:
 207 0078 00000000 		.word	_mscd_epbuf
 208              		.cfi_endproc
 209              	.LFE645:
 211              		.section	.text.rdwr10_validate_cmd,"ax",%progbits
 212              		.align	1
 213              		.syntax unified
 214              		.thumb
 215              		.thumb_func
 217              	rdwr10_validate_cmd:
 218              	.LVL12:
 219              	.LFB644:
 171:SynaptiX_FDK/lib/tinyusb/src/class/msc/msc_device.c ****   uint8_t status = MSC_CSW_STATUS_PASSED;
 220              		.loc 1 171 58 is_stmt 1 view -0
 221              		.cfi_startproc
 222              		@ args = 0, pretend = 0, frame = 0
 223              		@ frame_needed = 0, uses_anonymous_args = 0
 172:SynaptiX_FDK/lib/tinyusb/src/class/msc/msc_device.c ****   uint16_t const block_count = rdwr10_get_blockcount(cbw);
 224              		.loc 1 172 3 view .LVU60
 173:SynaptiX_FDK/lib/tinyusb/src/class/msc/msc_device.c **** 
 225              		.loc 1 173 3 view .LVU61
 226              	.LBB142:
 227              	.LBI142:
 157:SynaptiX_FDK/lib/tinyusb/src/class/msc/msc_device.c ****   uint16_t const block_count = tu_unaligned_read16(cbw->command + offsetof(scsi_write10_t, block_co
 228              		.loc 1 157 46 view .LVU62
 229              	.LBB143:
 158:SynaptiX_FDK/lib/tinyusb/src/class/msc/msc_device.c ****   return tu_ntohs(block_count);
 230              		.loc 1 158 3 view .LVU63
 231              	.LBB144:
 232              	.LBI144:
 233              		.file 2 "SynaptiX_FDK/lib/tinyusb/src/common/tusb_common.h"
   1:SynaptiX_FDK/lib/tinyusb/src/common/tusb_common.h **** /*
   2:SynaptiX_FDK/lib/tinyusb/src/common/tusb_common.h ****  * The MIT License (MIT)
   3:SynaptiX_FDK/lib/tinyusb/src/common/tusb_common.h ****  *
   4:SynaptiX_FDK/lib/tinyusb/src/common/tusb_common.h ****  * Copyright (c) 2019 Ha Thach (tinyusb.org)
   5:SynaptiX_FDK/lib/tinyusb/src/common/tusb_common.h ****  *
   6:SynaptiX_FDK/lib/tinyusb/src/common/tusb_common.h ****  * Permission is hereby granted, free of charge, to any person obtaining a copy
   7:SynaptiX_FDK/lib/tinyusb/src/common/tusb_common.h ****  * of this software and associated documentation files (the "Software"), to deal
ARM GAS  C:\Users\LENOVO\AppData\Local\Temp\cc8CFzeV.s 			page 13


   8:SynaptiX_FDK/lib/tinyusb/src/common/tusb_common.h ****  * in the Software without restriction, including without limitation the rights
   9:SynaptiX_FDK/lib/tinyusb/src/common/tusb_common.h ****  * to use, copy, modify, merge, publish, distribute, sublicense, and/or sell
  10:SynaptiX_FDK/lib/tinyusb/src/common/tusb_common.h ****  * copies of the Software, and to permit persons to whom the Software is
  11:SynaptiX_FDK/lib/tinyusb/src/common/tusb_common.h ****  * furnished to do so, subject to the following conditions:
  12:SynaptiX_FDK/lib/tinyusb/src/common/tusb_common.h ****  *
  13:SynaptiX_FDK/lib/tinyusb/src/common/tusb_common.h ****  * The above copyright notice and this permission notice shall be included in
  14:SynaptiX_FDK/lib/tinyusb/src/common/tusb_common.h ****  * all copies or substantial portions of the Software.
  15:SynaptiX_FDK/lib/tinyusb/src/common/tusb_common.h ****  *
  16:SynaptiX_FDK/lib/tinyusb/src/common/tusb_common.h ****  * THE SOFTWARE IS PROVIDED "AS IS", WITHOUT WARRANTY OF ANY KIND, EXPRESS OR
  17:SynaptiX_FDK/lib/tinyusb/src/common/tusb_common.h ****  * IMPLIED, INCLUDING BUT NOT LIMITED TO THE WARRANTIES OF MERCHANTABILITY,
  18:SynaptiX_FDK/lib/tinyusb/src/common/tusb_common.h ****  * FITNESS FOR A PARTICULAR PURPOSE AND NONINFRINGEMENT. IN NO EVENT SHALL THE
  19:SynaptiX_FDK/lib/tinyusb/src/common/tusb_common.h ****  * AUTHORS OR COPYRIGHT HOLDERS BE LIABLE FOR ANY CLAIM, DAMAGES OR OTHER
  20:SynaptiX_FDK/lib/tinyusb/src/common/tusb_common.h ****  * LIABILITY, WHETHER IN AN ACTION OF CONTRACT, TORT OR OTHERWISE, ARISING FROM,
  21:SynaptiX_FDK/lib/tinyusb/src/common/tusb_common.h ****  * OUT OF OR IN CONNECTION WITH THE SOFTWARE OR THE USE OR OTHER DEALINGS IN
  22:SynaptiX_FDK/lib/tinyusb/src/common/tusb_common.h ****  * THE SOFTWARE.
  23:SynaptiX_FDK/lib/tinyusb/src/common/tusb_common.h ****  *
  24:SynaptiX_FDK/lib/tinyusb/src/common/tusb_common.h ****  * This file is part of the TinyUSB stack.
  25:SynaptiX_FDK/lib/tinyusb/src/common/tusb_common.h ****  */
  26:SynaptiX_FDK/lib/tinyusb/src/common/tusb_common.h **** 
  27:SynaptiX_FDK/lib/tinyusb/src/common/tusb_common.h **** #ifndef TUSB_COMMON_H_
  28:SynaptiX_FDK/lib/tinyusb/src/common/tusb_common.h **** #define TUSB_COMMON_H_
  29:SynaptiX_FDK/lib/tinyusb/src/common/tusb_common.h **** 
  30:SynaptiX_FDK/lib/tinyusb/src/common/tusb_common.h **** #ifdef __cplusplus
  31:SynaptiX_FDK/lib/tinyusb/src/common/tusb_common.h ****  extern "C" {
  32:SynaptiX_FDK/lib/tinyusb/src/common/tusb_common.h **** #endif
  33:SynaptiX_FDK/lib/tinyusb/src/common/tusb_common.h **** 
  34:SynaptiX_FDK/lib/tinyusb/src/common/tusb_common.h **** //--------------------------------------------------------------------+
  35:SynaptiX_FDK/lib/tinyusb/src/common/tusb_common.h **** // Macros Helper
  36:SynaptiX_FDK/lib/tinyusb/src/common/tusb_common.h **** //--------------------------------------------------------------------+
  37:SynaptiX_FDK/lib/tinyusb/src/common/tusb_common.h **** #define TU_ARRAY_SIZE(_arr)           ( sizeof(_arr) / sizeof(_arr[0]) )
  38:SynaptiX_FDK/lib/tinyusb/src/common/tusb_common.h **** #define TU_FIELD_SIZE(_type, _field)  (sizeof(((_type *)0)->_field))
  39:SynaptiX_FDK/lib/tinyusb/src/common/tusb_common.h **** #define TU_MIN(_x, _y)                ( ( (_x) < (_y) ) ? (_x) : (_y) )
  40:SynaptiX_FDK/lib/tinyusb/src/common/tusb_common.h **** #define TU_MAX(_x, _y)                ( ( (_x) > (_y) ) ? (_x) : (_y) )
  41:SynaptiX_FDK/lib/tinyusb/src/common/tusb_common.h **** #define TU_DIV_CEIL(n, d)             (((n) + (d) - 1) / (d))
  42:SynaptiX_FDK/lib/tinyusb/src/common/tusb_common.h **** #define TU_DIV_ROUND_NEAREST(v, d)    (((v) + (d)/2) / (d) ) // round to nearest integer
  43:SynaptiX_FDK/lib/tinyusb/src/common/tusb_common.h **** 
  44:SynaptiX_FDK/lib/tinyusb/src/common/tusb_common.h **** #define TU_U16(_high, _low)           ((uint16_t) ((((uint16_t) (_high)) << 8) | ((uint16_t) (_low)
  45:SynaptiX_FDK/lib/tinyusb/src/common/tusb_common.h **** #define TU_U16_HIGH(_u16)             ((uint8_t) (((uint16_t) (_u16) >> 8) & 0x00ffu))
  46:SynaptiX_FDK/lib/tinyusb/src/common/tusb_common.h **** #define TU_U16_LOW(_u16)              ((uint8_t) ((uint16_t) (_u16) & 0x00ffu))
  47:SynaptiX_FDK/lib/tinyusb/src/common/tusb_common.h **** #define U16_TO_U8S_BE(_u16)           TU_U16_HIGH(_u16), TU_U16_LOW(_u16)
  48:SynaptiX_FDK/lib/tinyusb/src/common/tusb_common.h **** #define U16_TO_U8S_LE(_u16)           TU_U16_LOW(_u16), TU_U16_HIGH(_u16)
  49:SynaptiX_FDK/lib/tinyusb/src/common/tusb_common.h **** 
  50:SynaptiX_FDK/lib/tinyusb/src/common/tusb_common.h **** #define TU_U24(_high, _mid, _low)     ((uint32_t) ((((uint32_t) (_high)) << 16) | (((uint32_t) (_mi
  51:SynaptiX_FDK/lib/tinyusb/src/common/tusb_common.h **** #define TU_U24_HIGH(_u24)             ((uint8_t) (((uint32_t) (_u24) >> 16) & 0x0000ffu))
  52:SynaptiX_FDK/lib/tinyusb/src/common/tusb_common.h **** #define TU_U24_MID(_u24)              ((uint8_t) (((uint32_t) (_u24) >>  8) & 0x0000ffu))
  53:SynaptiX_FDK/lib/tinyusb/src/common/tusb_common.h **** #define TU_U24_LOW(_u24)              ((uint8_t) ((uint32_t) (_u24) & 0x0000ffu))
  54:SynaptiX_FDK/lib/tinyusb/src/common/tusb_common.h **** #define U24_TO_U8S_BE(_u24)           TU_U24_HIGH(_u24), TU_U24_MID(_u24), TU_U24_LOW(_u24)
  55:SynaptiX_FDK/lib/tinyusb/src/common/tusb_common.h **** #define U24_TO_U8S_LE(_u24)           TU_U24_LOW(_u24), TU_U24_MID(_u24), TU_U24_HIGH(_u24)
  56:SynaptiX_FDK/lib/tinyusb/src/common/tusb_common.h **** 
  57:SynaptiX_FDK/lib/tinyusb/src/common/tusb_common.h **** #define TU_U32_BYTE3(_u32)            ((uint8_t) ((((uint32_t) _u32) >> 24) & 0x000000ff)) // MSB
  58:SynaptiX_FDK/lib/tinyusb/src/common/tusb_common.h **** #define TU_U32_BYTE2(_u32)            ((uint8_t) ((((uint32_t) _u32) >> 16) & 0x000000ff))
  59:SynaptiX_FDK/lib/tinyusb/src/common/tusb_common.h **** #define TU_U32_BYTE1(_u32)            ((uint8_t) ((((uint32_t) _u32) >>  8) & 0x000000ff))
  60:SynaptiX_FDK/lib/tinyusb/src/common/tusb_common.h **** #define TU_U32_BYTE0(_u32)            ((uint8_t) (((uint32_t)  _u32)        & 0x000000ff)) // LSB
  61:SynaptiX_FDK/lib/tinyusb/src/common/tusb_common.h **** 
  62:SynaptiX_FDK/lib/tinyusb/src/common/tusb_common.h **** #define U32_TO_U8S_BE(_u32)           TU_U32_BYTE3(_u32), TU_U32_BYTE2(_u32), TU_U32_BYTE1(_u32), T
  63:SynaptiX_FDK/lib/tinyusb/src/common/tusb_common.h **** #define U32_TO_U8S_LE(_u32)           TU_U32_BYTE0(_u32), TU_U32_BYTE1(_u32), TU_U32_BYTE2(_u32), T
  64:SynaptiX_FDK/lib/tinyusb/src/common/tusb_common.h **** 
ARM GAS  C:\Users\LENOVO\AppData\Local\Temp\cc8CFzeV.s 			page 14


  65:SynaptiX_FDK/lib/tinyusb/src/common/tusb_common.h **** #define TU_BIT(n)                     (1UL << (n))
  66:SynaptiX_FDK/lib/tinyusb/src/common/tusb_common.h **** 
  67:SynaptiX_FDK/lib/tinyusb/src/common/tusb_common.h **** // Generate a mask with bit from high (31) to low (0) set, e.g TU_GENMASK(3, 0) = 0b1111
  68:SynaptiX_FDK/lib/tinyusb/src/common/tusb_common.h **** #define TU_GENMASK(h, l)              ( (UINT32_MAX << (l)) & (UINT32_MAX >> (31 - (h))) )
  69:SynaptiX_FDK/lib/tinyusb/src/common/tusb_common.h **** 
  70:SynaptiX_FDK/lib/tinyusb/src/common/tusb_common.h **** //--------------------------------------------------------------------+
  71:SynaptiX_FDK/lib/tinyusb/src/common/tusb_common.h **** // Includes
  72:SynaptiX_FDK/lib/tinyusb/src/common/tusb_common.h **** //--------------------------------------------------------------------+
  73:SynaptiX_FDK/lib/tinyusb/src/common/tusb_common.h **** 
  74:SynaptiX_FDK/lib/tinyusb/src/common/tusb_common.h **** // Standard Headers
  75:SynaptiX_FDK/lib/tinyusb/src/common/tusb_common.h **** #include <stdbool.h>
  76:SynaptiX_FDK/lib/tinyusb/src/common/tusb_common.h **** #include <stdint.h>
  77:SynaptiX_FDK/lib/tinyusb/src/common/tusb_common.h **** #include <inttypes.h>
  78:SynaptiX_FDK/lib/tinyusb/src/common/tusb_common.h **** #include <stddef.h>
  79:SynaptiX_FDK/lib/tinyusb/src/common/tusb_common.h **** #include <string.h>
  80:SynaptiX_FDK/lib/tinyusb/src/common/tusb_common.h **** 
  81:SynaptiX_FDK/lib/tinyusb/src/common/tusb_common.h **** // Tinyusb Common Headers
  82:SynaptiX_FDK/lib/tinyusb/src/common/tusb_common.h **** #include "tusb_option.h"
  83:SynaptiX_FDK/lib/tinyusb/src/common/tusb_common.h **** #include "tusb_compiler.h"
  84:SynaptiX_FDK/lib/tinyusb/src/common/tusb_common.h **** #include "tusb_verify.h"
  85:SynaptiX_FDK/lib/tinyusb/src/common/tusb_common.h **** #include "tusb_types.h"
  86:SynaptiX_FDK/lib/tinyusb/src/common/tusb_common.h **** #include "tusb_debug.h"
  87:SynaptiX_FDK/lib/tinyusb/src/common/tusb_common.h **** 
  88:SynaptiX_FDK/lib/tinyusb/src/common/tusb_common.h **** //--------------------------------------------------------------------+
  89:SynaptiX_FDK/lib/tinyusb/src/common/tusb_common.h **** // API implemented by application if needed
  90:SynaptiX_FDK/lib/tinyusb/src/common/tusb_common.h **** // TODO move to a more obvious place/file
  91:SynaptiX_FDK/lib/tinyusb/src/common/tusb_common.h **** //--------------------------------------------------------------------+
  92:SynaptiX_FDK/lib/tinyusb/src/common/tusb_common.h **** 
  93:SynaptiX_FDK/lib/tinyusb/src/common/tusb_common.h **** // Get current milliseconds, required by some port/configuration without RTOS
  94:SynaptiX_FDK/lib/tinyusb/src/common/tusb_common.h **** extern uint32_t tusb_time_millis_api(void);
  95:SynaptiX_FDK/lib/tinyusb/src/common/tusb_common.h **** 
  96:SynaptiX_FDK/lib/tinyusb/src/common/tusb_common.h **** // Delay in milliseconds, use tusb_time_millis_api() by default. required by some port/configuratio
  97:SynaptiX_FDK/lib/tinyusb/src/common/tusb_common.h **** extern void tusb_time_delay_ms_api(uint32_t ms);
  98:SynaptiX_FDK/lib/tinyusb/src/common/tusb_common.h **** 
  99:SynaptiX_FDK/lib/tinyusb/src/common/tusb_common.h **** // flush data cache
 100:SynaptiX_FDK/lib/tinyusb/src/common/tusb_common.h **** extern void tusb_app_dcache_flush(uintptr_t addr, uint32_t data_size);
 101:SynaptiX_FDK/lib/tinyusb/src/common/tusb_common.h **** 
 102:SynaptiX_FDK/lib/tinyusb/src/common/tusb_common.h **** // invalidate data cache
 103:SynaptiX_FDK/lib/tinyusb/src/common/tusb_common.h **** extern void tusb_app_dcache_invalidate(uintptr_t addr, uint32_t data_size);
 104:SynaptiX_FDK/lib/tinyusb/src/common/tusb_common.h **** 
 105:SynaptiX_FDK/lib/tinyusb/src/common/tusb_common.h **** // Optional physical <-> virtual address translation
 106:SynaptiX_FDK/lib/tinyusb/src/common/tusb_common.h **** extern void* tusb_app_virt_to_phys(void *virt_addr);
 107:SynaptiX_FDK/lib/tinyusb/src/common/tusb_common.h **** extern void* tusb_app_phys_to_virt(void *phys_addr);
 108:SynaptiX_FDK/lib/tinyusb/src/common/tusb_common.h **** 
 109:SynaptiX_FDK/lib/tinyusb/src/common/tusb_common.h **** //--------------------------------------------------------------------+
 110:SynaptiX_FDK/lib/tinyusb/src/common/tusb_common.h **** // Internal Inline Functions
 111:SynaptiX_FDK/lib/tinyusb/src/common/tusb_common.h **** //--------------------------------------------------------------------+
 112:SynaptiX_FDK/lib/tinyusb/src/common/tusb_common.h **** 
 113:SynaptiX_FDK/lib/tinyusb/src/common/tusb_common.h **** //------------- Mem -------------//
 114:SynaptiX_FDK/lib/tinyusb/src/common/tusb_common.h **** #define tu_memclr(buffer, size)  (void) memset((buffer), 0, (size))
 115:SynaptiX_FDK/lib/tinyusb/src/common/tusb_common.h **** #define tu_varclr(_var)          tu_memclr(_var, sizeof(*(_var)))
 116:SynaptiX_FDK/lib/tinyusb/src/common/tusb_common.h **** 
 117:SynaptiX_FDK/lib/tinyusb/src/common/tusb_common.h **** // This is a backport of memset_s from c11
 118:SynaptiX_FDK/lib/tinyusb/src/common/tusb_common.h **** TU_ATTR_ALWAYS_INLINE static inline int tu_memset_s(void *dest, size_t destsz, int ch, size_t count
 119:SynaptiX_FDK/lib/tinyusb/src/common/tusb_common.h ****   // Validate parameters
 120:SynaptiX_FDK/lib/tinyusb/src/common/tusb_common.h ****   if (dest == NULL) {
 121:SynaptiX_FDK/lib/tinyusb/src/common/tusb_common.h ****     return -1;
ARM GAS  C:\Users\LENOVO\AppData\Local\Temp\cc8CFzeV.s 			page 15


 122:SynaptiX_FDK/lib/tinyusb/src/common/tusb_common.h ****   }
 123:SynaptiX_FDK/lib/tinyusb/src/common/tusb_common.h **** 
 124:SynaptiX_FDK/lib/tinyusb/src/common/tusb_common.h ****   if (count == 0u) {
 125:SynaptiX_FDK/lib/tinyusb/src/common/tusb_common.h ****     return 0;
 126:SynaptiX_FDK/lib/tinyusb/src/common/tusb_common.h ****   }
 127:SynaptiX_FDK/lib/tinyusb/src/common/tusb_common.h **** 
 128:SynaptiX_FDK/lib/tinyusb/src/common/tusb_common.h ****   if (count > destsz) {
 129:SynaptiX_FDK/lib/tinyusb/src/common/tusb_common.h ****     return -1;
 130:SynaptiX_FDK/lib/tinyusb/src/common/tusb_common.h ****   }
 131:SynaptiX_FDK/lib/tinyusb/src/common/tusb_common.h **** 
 132:SynaptiX_FDK/lib/tinyusb/src/common/tusb_common.h ****   (void) memset(dest, ch, count);
 133:SynaptiX_FDK/lib/tinyusb/src/common/tusb_common.h ****   return 0;
 134:SynaptiX_FDK/lib/tinyusb/src/common/tusb_common.h **** }
 135:SynaptiX_FDK/lib/tinyusb/src/common/tusb_common.h **** 
 136:SynaptiX_FDK/lib/tinyusb/src/common/tusb_common.h **** // This is a backport of memcpy_s from c11
 137:SynaptiX_FDK/lib/tinyusb/src/common/tusb_common.h **** TU_ATTR_ALWAYS_INLINE static inline int tu_memcpy_s(void *dest, size_t destsz, const void *src, siz
 138:SynaptiX_FDK/lib/tinyusb/src/common/tusb_common.h ****   if (dest == NULL) {
 139:SynaptiX_FDK/lib/tinyusb/src/common/tusb_common.h ****     return -1;
 140:SynaptiX_FDK/lib/tinyusb/src/common/tusb_common.h ****   }
 141:SynaptiX_FDK/lib/tinyusb/src/common/tusb_common.h **** 
 142:SynaptiX_FDK/lib/tinyusb/src/common/tusb_common.h ****   if (count == 0u) {
 143:SynaptiX_FDK/lib/tinyusb/src/common/tusb_common.h ****     return 0;
 144:SynaptiX_FDK/lib/tinyusb/src/common/tusb_common.h ****   }
 145:SynaptiX_FDK/lib/tinyusb/src/common/tusb_common.h **** 
 146:SynaptiX_FDK/lib/tinyusb/src/common/tusb_common.h ****   if (src == NULL) {
 147:SynaptiX_FDK/lib/tinyusb/src/common/tusb_common.h ****     return -1;
 148:SynaptiX_FDK/lib/tinyusb/src/common/tusb_common.h ****   }
 149:SynaptiX_FDK/lib/tinyusb/src/common/tusb_common.h **** 
 150:SynaptiX_FDK/lib/tinyusb/src/common/tusb_common.h ****   if (count > destsz) {
 151:SynaptiX_FDK/lib/tinyusb/src/common/tusb_common.h ****     return -1;
 152:SynaptiX_FDK/lib/tinyusb/src/common/tusb_common.h ****   }
 153:SynaptiX_FDK/lib/tinyusb/src/common/tusb_common.h **** 
 154:SynaptiX_FDK/lib/tinyusb/src/common/tusb_common.h ****   (void) memcpy(dest, src, count);
 155:SynaptiX_FDK/lib/tinyusb/src/common/tusb_common.h ****   return 0;
 156:SynaptiX_FDK/lib/tinyusb/src/common/tusb_common.h **** }
 157:SynaptiX_FDK/lib/tinyusb/src/common/tusb_common.h **** 
 158:SynaptiX_FDK/lib/tinyusb/src/common/tusb_common.h **** TU_ATTR_ALWAYS_INLINE static inline bool tu_mem_is_zero(const void *buffer, size_t size) {
 159:SynaptiX_FDK/lib/tinyusb/src/common/tusb_common.h ****   const uint8_t* buf8 = (const uint8_t*) buffer;
 160:SynaptiX_FDK/lib/tinyusb/src/common/tusb_common.h ****   for (size_t i = 0; i < size; i++) {
 161:SynaptiX_FDK/lib/tinyusb/src/common/tusb_common.h ****     if (buf8[i] != 0) { return false; }
 162:SynaptiX_FDK/lib/tinyusb/src/common/tusb_common.h ****   }
 163:SynaptiX_FDK/lib/tinyusb/src/common/tusb_common.h ****   return true;
 164:SynaptiX_FDK/lib/tinyusb/src/common/tusb_common.h **** }
 165:SynaptiX_FDK/lib/tinyusb/src/common/tusb_common.h **** 
 166:SynaptiX_FDK/lib/tinyusb/src/common/tusb_common.h **** TU_ATTR_ALWAYS_INLINE static inline bool tu_mem_is_ff(const void *buffer, size_t size) {
 167:SynaptiX_FDK/lib/tinyusb/src/common/tusb_common.h ****   const uint8_t* buf8 = (const uint8_t*) buffer;
 168:SynaptiX_FDK/lib/tinyusb/src/common/tusb_common.h ****   for (size_t i = 0; i < size; i++) {
 169:SynaptiX_FDK/lib/tinyusb/src/common/tusb_common.h ****     if (buf8[i] != 0xff) { return false; }
 170:SynaptiX_FDK/lib/tinyusb/src/common/tusb_common.h ****   }
 171:SynaptiX_FDK/lib/tinyusb/src/common/tusb_common.h ****   return true;
 172:SynaptiX_FDK/lib/tinyusb/src/common/tusb_common.h **** }
 173:SynaptiX_FDK/lib/tinyusb/src/common/tusb_common.h **** 
 174:SynaptiX_FDK/lib/tinyusb/src/common/tusb_common.h **** 
 175:SynaptiX_FDK/lib/tinyusb/src/common/tusb_common.h **** //------------- Bytes -------------//
 176:SynaptiX_FDK/lib/tinyusb/src/common/tusb_common.h **** TU_ATTR_ALWAYS_INLINE static inline uint32_t tu_u32(uint8_t b3, uint8_t b2, uint8_t b1, uint8_t b0)
 177:SynaptiX_FDK/lib/tinyusb/src/common/tusb_common.h ****   return (((uint32_t)b3) << 24) | (((uint32_t)b2) << 16) | (((uint32_t)b1) << 8) | b0;
 178:SynaptiX_FDK/lib/tinyusb/src/common/tusb_common.h **** }
ARM GAS  C:\Users\LENOVO\AppData\Local\Temp\cc8CFzeV.s 			page 16


 179:SynaptiX_FDK/lib/tinyusb/src/common/tusb_common.h **** 
 180:SynaptiX_FDK/lib/tinyusb/src/common/tusb_common.h **** TU_ATTR_ALWAYS_INLINE static inline uint32_t tu_u32_from_u16(uint16_t high, uint16_t low) {
 181:SynaptiX_FDK/lib/tinyusb/src/common/tusb_common.h ****   return (((uint32_t)high) << 16) | low;
 182:SynaptiX_FDK/lib/tinyusb/src/common/tusb_common.h **** }
 183:SynaptiX_FDK/lib/tinyusb/src/common/tusb_common.h **** 
 184:SynaptiX_FDK/lib/tinyusb/src/common/tusb_common.h **** TU_ATTR_ALWAYS_INLINE static inline uint16_t tu_u16(uint8_t high, uint8_t low) {
 185:SynaptiX_FDK/lib/tinyusb/src/common/tusb_common.h ****   return (uint16_t)((((uint16_t)high) << 8) | low);
 186:SynaptiX_FDK/lib/tinyusb/src/common/tusb_common.h **** }
 187:SynaptiX_FDK/lib/tinyusb/src/common/tusb_common.h **** 
 188:SynaptiX_FDK/lib/tinyusb/src/common/tusb_common.h **** TU_ATTR_ALWAYS_INLINE static inline uint8_t tu_u32_byte3(uint32_t ui32) { return TU_U32_BYTE3(ui32)
 189:SynaptiX_FDK/lib/tinyusb/src/common/tusb_common.h **** TU_ATTR_ALWAYS_INLINE static inline uint8_t tu_u32_byte2(uint32_t ui32) { return TU_U32_BYTE2(ui32)
 190:SynaptiX_FDK/lib/tinyusb/src/common/tusb_common.h **** TU_ATTR_ALWAYS_INLINE static inline uint8_t tu_u32_byte1(uint32_t ui32) { return TU_U32_BYTE1(ui32)
 191:SynaptiX_FDK/lib/tinyusb/src/common/tusb_common.h **** TU_ATTR_ALWAYS_INLINE static inline uint8_t tu_u32_byte0(uint32_t ui32) { return TU_U32_BYTE0(ui32)
 192:SynaptiX_FDK/lib/tinyusb/src/common/tusb_common.h **** 
 193:SynaptiX_FDK/lib/tinyusb/src/common/tusb_common.h **** TU_ATTR_ALWAYS_INLINE static inline uint16_t tu_u32_high16(uint32_t ui32) { return (uint16_t) (ui32
 194:SynaptiX_FDK/lib/tinyusb/src/common/tusb_common.h **** TU_ATTR_ALWAYS_INLINE static inline uint16_t tu_u32_low16 (uint32_t ui32) { return (uint16_t) (ui32
 195:SynaptiX_FDK/lib/tinyusb/src/common/tusb_common.h **** 
 196:SynaptiX_FDK/lib/tinyusb/src/common/tusb_common.h **** TU_ATTR_ALWAYS_INLINE static inline uint8_t tu_u16_high(uint16_t ui16) { return TU_U16_HIGH(ui16); 
 197:SynaptiX_FDK/lib/tinyusb/src/common/tusb_common.h **** TU_ATTR_ALWAYS_INLINE static inline uint8_t tu_u16_low (uint16_t ui16) { return TU_U16_LOW(ui16); }
 198:SynaptiX_FDK/lib/tinyusb/src/common/tusb_common.h **** 
 199:SynaptiX_FDK/lib/tinyusb/src/common/tusb_common.h **** //------------- Bits -------------//
 200:SynaptiX_FDK/lib/tinyusb/src/common/tusb_common.h **** TU_ATTR_ALWAYS_INLINE static inline uint32_t tu_bit_set  (uint32_t value, uint8_t pos) { return val
 201:SynaptiX_FDK/lib/tinyusb/src/common/tusb_common.h **** TU_ATTR_ALWAYS_INLINE static inline uint32_t tu_bit_clear(uint32_t value, uint8_t pos) { return val
 202:SynaptiX_FDK/lib/tinyusb/src/common/tusb_common.h **** TU_ATTR_ALWAYS_INLINE static inline bool     tu_bit_test (uint32_t value, uint8_t pos) { return (va
 203:SynaptiX_FDK/lib/tinyusb/src/common/tusb_common.h **** 
 204:SynaptiX_FDK/lib/tinyusb/src/common/tusb_common.h **** //------------- Min -------------//
 205:SynaptiX_FDK/lib/tinyusb/src/common/tusb_common.h **** TU_ATTR_ALWAYS_INLINE static inline uint8_t  tu_min8  (uint8_t  x, uint8_t y ) { return (x < y) ? x
 206:SynaptiX_FDK/lib/tinyusb/src/common/tusb_common.h **** TU_ATTR_ALWAYS_INLINE static inline uint16_t tu_min16 (uint16_t x, uint16_t y) { return (x < y) ? x
 207:SynaptiX_FDK/lib/tinyusb/src/common/tusb_common.h **** TU_ATTR_ALWAYS_INLINE static inline uint32_t tu_min32 (uint32_t x, uint32_t y) { return (x < y) ? x
 208:SynaptiX_FDK/lib/tinyusb/src/common/tusb_common.h **** 
 209:SynaptiX_FDK/lib/tinyusb/src/common/tusb_common.h **** //------------- Max -------------//
 210:SynaptiX_FDK/lib/tinyusb/src/common/tusb_common.h **** TU_ATTR_ALWAYS_INLINE static inline uint8_t  tu_max8  (uint8_t  x, uint8_t y ) { return (x > y) ? x
 211:SynaptiX_FDK/lib/tinyusb/src/common/tusb_common.h **** TU_ATTR_ALWAYS_INLINE static inline uint16_t tu_max16 (uint16_t x, uint16_t y) { return (x > y) ? x
 212:SynaptiX_FDK/lib/tinyusb/src/common/tusb_common.h **** TU_ATTR_ALWAYS_INLINE static inline uint32_t tu_max32 (uint32_t x, uint32_t y) { return (x > y) ? x
 213:SynaptiX_FDK/lib/tinyusb/src/common/tusb_common.h **** 
 214:SynaptiX_FDK/lib/tinyusb/src/common/tusb_common.h **** //------------- Align -------------//
 215:SynaptiX_FDK/lib/tinyusb/src/common/tusb_common.h **** TU_ATTR_ALWAYS_INLINE static inline uint32_t tu_align(uint32_t value, uint32_t alignment) {
 216:SynaptiX_FDK/lib/tinyusb/src/common/tusb_common.h ****   return value & ((uint32_t) ~(alignment-1));
 217:SynaptiX_FDK/lib/tinyusb/src/common/tusb_common.h **** }
 218:SynaptiX_FDK/lib/tinyusb/src/common/tusb_common.h **** 
 219:SynaptiX_FDK/lib/tinyusb/src/common/tusb_common.h **** TU_ATTR_ALWAYS_INLINE static inline uint32_t tu_align4  (uint32_t value) { return (value & 0xFFFFFF
 220:SynaptiX_FDK/lib/tinyusb/src/common/tusb_common.h **** TU_ATTR_ALWAYS_INLINE static inline uint32_t tu_align8  (uint32_t value) { return (value & 0xFFFFFF
 221:SynaptiX_FDK/lib/tinyusb/src/common/tusb_common.h **** TU_ATTR_ALWAYS_INLINE static inline uint32_t tu_align16 (uint32_t value) { return (value & 0xFFFFFF
 222:SynaptiX_FDK/lib/tinyusb/src/common/tusb_common.h **** TU_ATTR_ALWAYS_INLINE static inline uint32_t tu_align32 (uint32_t value) { return (value & 0xFFFFFF
 223:SynaptiX_FDK/lib/tinyusb/src/common/tusb_common.h **** TU_ATTR_ALWAYS_INLINE static inline uint32_t tu_align4k (uint32_t value) { return (value & 0xFFFFF0
 224:SynaptiX_FDK/lib/tinyusb/src/common/tusb_common.h **** TU_ATTR_ALWAYS_INLINE static inline uint32_t tu_offset4k(uint32_t value) { return (value & 0xFFFUL)
 225:SynaptiX_FDK/lib/tinyusb/src/common/tusb_common.h **** 
 226:SynaptiX_FDK/lib/tinyusb/src/common/tusb_common.h **** TU_ATTR_ALWAYS_INLINE static inline bool tu_is_aligned32(uint32_t value) { return (value & 0x1FUL) 
 227:SynaptiX_FDK/lib/tinyusb/src/common/tusb_common.h **** TU_ATTR_ALWAYS_INLINE static inline bool tu_is_aligned64(uint64_t value) { return (value & 0x3FUL) 
 228:SynaptiX_FDK/lib/tinyusb/src/common/tusb_common.h **** 
 229:SynaptiX_FDK/lib/tinyusb/src/common/tusb_common.h **** //------------- Mathematics -------------//
 230:SynaptiX_FDK/lib/tinyusb/src/common/tusb_common.h **** TU_ATTR_ALWAYS_INLINE static inline uint32_t tu_div_ceil(uint32_t v, uint32_t d) { return TU_DIV_CE
 231:SynaptiX_FDK/lib/tinyusb/src/common/tusb_common.h **** TU_ATTR_ALWAYS_INLINE static inline uint32_t tu_div_round_nearest(uint32_t v, uint32_t d) { return 
 232:SynaptiX_FDK/lib/tinyusb/src/common/tusb_common.h **** 
 233:SynaptiX_FDK/lib/tinyusb/src/common/tusb_common.h **** TU_ATTR_ALWAYS_INLINE static inline uint32_t tu_round_up(uint32_t v, uint32_t f) { return tu_div_ce
 234:SynaptiX_FDK/lib/tinyusb/src/common/tusb_common.h **** 
 235:SynaptiX_FDK/lib/tinyusb/src/common/tusb_common.h **** // log2 of a value is its MSB's position
ARM GAS  C:\Users\LENOVO\AppData\Local\Temp\cc8CFzeV.s 			page 17


 236:SynaptiX_FDK/lib/tinyusb/src/common/tusb_common.h **** // TODO use clz TODO remove
 237:SynaptiX_FDK/lib/tinyusb/src/common/tusb_common.h **** TU_ATTR_ALWAYS_INLINE static inline uint8_t tu_log2(uint32_t value) {
 238:SynaptiX_FDK/lib/tinyusb/src/common/tusb_common.h ****   uint8_t result = 0;
 239:SynaptiX_FDK/lib/tinyusb/src/common/tusb_common.h ****   while ((value >>= 1u) != 0u) {
 240:SynaptiX_FDK/lib/tinyusb/src/common/tusb_common.h ****     result++;
 241:SynaptiX_FDK/lib/tinyusb/src/common/tusb_common.h ****   }
 242:SynaptiX_FDK/lib/tinyusb/src/common/tusb_common.h ****   return result;
 243:SynaptiX_FDK/lib/tinyusb/src/common/tusb_common.h **** }
 244:SynaptiX_FDK/lib/tinyusb/src/common/tusb_common.h **** 
 245:SynaptiX_FDK/lib/tinyusb/src/common/tusb_common.h **** //static inline uint8_t tu_log2(uint32_t value)
 246:SynaptiX_FDK/lib/tinyusb/src/common/tusb_common.h **** //{
 247:SynaptiX_FDK/lib/tinyusb/src/common/tusb_common.h **** //   return sizeof(uint32_t) * CHAR_BIT - __builtin_clz(x) - 1;
 248:SynaptiX_FDK/lib/tinyusb/src/common/tusb_common.h **** //}
 249:SynaptiX_FDK/lib/tinyusb/src/common/tusb_common.h **** 
 250:SynaptiX_FDK/lib/tinyusb/src/common/tusb_common.h **** TU_ATTR_ALWAYS_INLINE static inline bool tu_is_power_of_two(uint32_t value) {
 251:SynaptiX_FDK/lib/tinyusb/src/common/tusb_common.h ****    return (value != 0) && ((value & (value - 1)) == 0);
 252:SynaptiX_FDK/lib/tinyusb/src/common/tusb_common.h **** }
 253:SynaptiX_FDK/lib/tinyusb/src/common/tusb_common.h **** 
 254:SynaptiX_FDK/lib/tinyusb/src/common/tusb_common.h **** //------------- Unaligned Access -------------//
 255:SynaptiX_FDK/lib/tinyusb/src/common/tusb_common.h **** #if TUP_ARCH_STRICT_ALIGN
 256:SynaptiX_FDK/lib/tinyusb/src/common/tusb_common.h **** 
 257:SynaptiX_FDK/lib/tinyusb/src/common/tusb_common.h **** // Rely on compiler to generate correct code for unaligned access
 258:SynaptiX_FDK/lib/tinyusb/src/common/tusb_common.h **** typedef struct { uint16_t val; } TU_ATTR_PACKED tu_unaligned_uint16_t;
 259:SynaptiX_FDK/lib/tinyusb/src/common/tusb_common.h **** typedef struct { uint32_t val; } TU_ATTR_PACKED tu_unaligned_uint32_t;
 260:SynaptiX_FDK/lib/tinyusb/src/common/tusb_common.h **** 
 261:SynaptiX_FDK/lib/tinyusb/src/common/tusb_common.h **** TU_ATTR_ALWAYS_INLINE static inline uint32_t tu_unaligned_read32(const void *mem) {
 262:SynaptiX_FDK/lib/tinyusb/src/common/tusb_common.h ****   tu_unaligned_uint32_t const *ua32 = (tu_unaligned_uint32_t const *) mem;
 263:SynaptiX_FDK/lib/tinyusb/src/common/tusb_common.h ****   return ua32->val;
 264:SynaptiX_FDK/lib/tinyusb/src/common/tusb_common.h **** }
 265:SynaptiX_FDK/lib/tinyusb/src/common/tusb_common.h **** 
 266:SynaptiX_FDK/lib/tinyusb/src/common/tusb_common.h **** TU_ATTR_ALWAYS_INLINE static inline void tu_unaligned_write32(void *mem, uint32_t value) {
 267:SynaptiX_FDK/lib/tinyusb/src/common/tusb_common.h ****   tu_unaligned_uint32_t *ua32 = (tu_unaligned_uint32_t *) mem;
 268:SynaptiX_FDK/lib/tinyusb/src/common/tusb_common.h ****   ua32->val = value;
 269:SynaptiX_FDK/lib/tinyusb/src/common/tusb_common.h **** }
 270:SynaptiX_FDK/lib/tinyusb/src/common/tusb_common.h **** 
 271:SynaptiX_FDK/lib/tinyusb/src/common/tusb_common.h **** TU_ATTR_ALWAYS_INLINE static inline uint16_t tu_unaligned_read16(const void *mem) {
 272:SynaptiX_FDK/lib/tinyusb/src/common/tusb_common.h ****   tu_unaligned_uint16_t const *ua16 = (tu_unaligned_uint16_t const *) mem;
 273:SynaptiX_FDK/lib/tinyusb/src/common/tusb_common.h ****   return ua16->val;
 274:SynaptiX_FDK/lib/tinyusb/src/common/tusb_common.h **** }
 275:SynaptiX_FDK/lib/tinyusb/src/common/tusb_common.h **** 
 276:SynaptiX_FDK/lib/tinyusb/src/common/tusb_common.h **** TU_ATTR_ALWAYS_INLINE static inline void tu_unaligned_write16(void *mem, uint16_t value) {
 277:SynaptiX_FDK/lib/tinyusb/src/common/tusb_common.h ****   tu_unaligned_uint16_t *ua16 = (tu_unaligned_uint16_t *) mem;
 278:SynaptiX_FDK/lib/tinyusb/src/common/tusb_common.h ****   ua16->val = value;
 279:SynaptiX_FDK/lib/tinyusb/src/common/tusb_common.h **** }
 280:SynaptiX_FDK/lib/tinyusb/src/common/tusb_common.h **** 
 281:SynaptiX_FDK/lib/tinyusb/src/common/tusb_common.h **** #elif TUP_MCU_STRICT_ALIGN
 282:SynaptiX_FDK/lib/tinyusb/src/common/tusb_common.h **** 
 283:SynaptiX_FDK/lib/tinyusb/src/common/tusb_common.h **** // MCU such as LPC_IP3511 Highspeed cannot access unaligned memory on USB_RAM although it is ARM M4
 284:SynaptiX_FDK/lib/tinyusb/src/common/tusb_common.h **** // We have to manually pick up bytes since tu_unaligned_uint32_t will still generate unaligned code
 285:SynaptiX_FDK/lib/tinyusb/src/common/tusb_common.h **** // NOTE: volatile cast to memory to prevent compiler to optimize and generate unaligned code
 286:SynaptiX_FDK/lib/tinyusb/src/common/tusb_common.h **** // TODO Big Endian may need minor changes
 287:SynaptiX_FDK/lib/tinyusb/src/common/tusb_common.h **** TU_ATTR_ALWAYS_INLINE static inline uint32_t tu_unaligned_read32(const void* mem) {
 288:SynaptiX_FDK/lib/tinyusb/src/common/tusb_common.h ****   volatile uint8_t const* buf8 = (uint8_t const*) mem;
 289:SynaptiX_FDK/lib/tinyusb/src/common/tusb_common.h ****   return tu_u32(buf8[3], buf8[2], buf8[1], buf8[0]);
 290:SynaptiX_FDK/lib/tinyusb/src/common/tusb_common.h **** }
 291:SynaptiX_FDK/lib/tinyusb/src/common/tusb_common.h **** 
 292:SynaptiX_FDK/lib/tinyusb/src/common/tusb_common.h **** TU_ATTR_ALWAYS_INLINE static inline void tu_unaligned_write32(void* mem, uint32_t value) {
ARM GAS  C:\Users\LENOVO\AppData\Local\Temp\cc8CFzeV.s 			page 18


 293:SynaptiX_FDK/lib/tinyusb/src/common/tusb_common.h ****   volatile uint8_t* buf8 = (uint8_t*) mem;
 294:SynaptiX_FDK/lib/tinyusb/src/common/tusb_common.h ****   buf8[0] = tu_u32_byte0(value);
 295:SynaptiX_FDK/lib/tinyusb/src/common/tusb_common.h ****   buf8[1] = tu_u32_byte1(value);
 296:SynaptiX_FDK/lib/tinyusb/src/common/tusb_common.h ****   buf8[2] = tu_u32_byte2(value);
 297:SynaptiX_FDK/lib/tinyusb/src/common/tusb_common.h ****   buf8[3] = tu_u32_byte3(value);
 298:SynaptiX_FDK/lib/tinyusb/src/common/tusb_common.h **** }
 299:SynaptiX_FDK/lib/tinyusb/src/common/tusb_common.h **** 
 300:SynaptiX_FDK/lib/tinyusb/src/common/tusb_common.h **** TU_ATTR_ALWAYS_INLINE static inline uint16_t tu_unaligned_read16(const void* mem) {
 301:SynaptiX_FDK/lib/tinyusb/src/common/tusb_common.h ****   volatile uint8_t const* buf8 = (uint8_t const*) mem;
 302:SynaptiX_FDK/lib/tinyusb/src/common/tusb_common.h ****   return tu_u16(buf8[1], buf8[0]);
 303:SynaptiX_FDK/lib/tinyusb/src/common/tusb_common.h **** }
 304:SynaptiX_FDK/lib/tinyusb/src/common/tusb_common.h **** 
 305:SynaptiX_FDK/lib/tinyusb/src/common/tusb_common.h **** TU_ATTR_ALWAYS_INLINE static inline void tu_unaligned_write16(void* mem, uint16_t value) {
 306:SynaptiX_FDK/lib/tinyusb/src/common/tusb_common.h ****   volatile uint8_t* buf8 = (uint8_t*) mem;
 307:SynaptiX_FDK/lib/tinyusb/src/common/tusb_common.h ****   buf8[0] = tu_u16_low(value);
 308:SynaptiX_FDK/lib/tinyusb/src/common/tusb_common.h ****   buf8[1] = tu_u16_high(value);
 309:SynaptiX_FDK/lib/tinyusb/src/common/tusb_common.h **** }
 310:SynaptiX_FDK/lib/tinyusb/src/common/tusb_common.h **** 
 311:SynaptiX_FDK/lib/tinyusb/src/common/tusb_common.h **** #else
 312:SynaptiX_FDK/lib/tinyusb/src/common/tusb_common.h **** 
 313:SynaptiX_FDK/lib/tinyusb/src/common/tusb_common.h **** // MCU that could access unaligned memory natively
 314:SynaptiX_FDK/lib/tinyusb/src/common/tusb_common.h **** TU_ATTR_ALWAYS_INLINE static inline uint32_t tu_unaligned_read32(const void *mem) {
 315:SynaptiX_FDK/lib/tinyusb/src/common/tusb_common.h ****   return *((uint32_t const *) mem);
 316:SynaptiX_FDK/lib/tinyusb/src/common/tusb_common.h **** }
 317:SynaptiX_FDK/lib/tinyusb/src/common/tusb_common.h **** 
 318:SynaptiX_FDK/lib/tinyusb/src/common/tusb_common.h **** TU_ATTR_ALWAYS_INLINE static inline uint16_t tu_unaligned_read16(const void *mem) {
 234              		.loc 2 318 46 view .LVU64
 235              	.LBB145:
 319:SynaptiX_FDK/lib/tinyusb/src/common/tusb_common.h ****   return *((uint16_t const *) mem);
 236              		.loc 2 319 3 view .LVU65
 237              		.loc 2 319 10 is_stmt 0 view .LVU66
 238 0000 C28A     		ldrh	r2, [r0, #22]
 239              	.LVL13:
 240              		.loc 2 319 10 view .LVU67
 241              	.LBE145:
 242              	.LBE144:
 159:SynaptiX_FDK/lib/tinyusb/src/class/msc/msc_device.c **** }
 243              		.loc 1 159 3 is_stmt 1 view .LVU68
 159:SynaptiX_FDK/lib/tinyusb/src/class/msc/msc_device.c **** }
 244              		.loc 1 159 3 is_stmt 0 view .LVU69
 245              	.LBE143:
 246              	.LBE142:
 175:SynaptiX_FDK/lib/tinyusb/src/class/msc/msc_device.c ****     if (block_count > 0) {
 247              		.loc 1 175 3 is_stmt 1 view .LVU70
 175:SynaptiX_FDK/lib/tinyusb/src/class/msc/msc_device.c ****     if (block_count > 0) {
 248              		.loc 1 175 10 is_stmt 0 view .LVU71
 249 0002 8168     		ldr	r1, [r0, #8]	@ unaligned
 175:SynaptiX_FDK/lib/tinyusb/src/class/msc/msc_device.c ****     if (block_count > 0) {
 250              		.loc 1 175 6 view .LVU72
 251 0004 11B9     		cbnz	r1, .L12
 176:SynaptiX_FDK/lib/tinyusb/src/class/msc/msc_device.c ****       TU_LOG_DRV("  SCSI case 2 (Hn < Di) or case 3 (Hn < Do) \r\n");
 252              		.loc 1 176 5 is_stmt 1 view .LVU73
 176:SynaptiX_FDK/lib/tinyusb/src/class/msc/msc_device.c ****       TU_LOG_DRV("  SCSI case 2 (Hn < Di) or case 3 (Hn < Do) \r\n");
 253              		.loc 1 176 8 is_stmt 0 view .LVU74
 254 0006 1ABB     		cbnz	r2, .L16
 172:SynaptiX_FDK/lib/tinyusb/src/class/msc/msc_device.c ****   uint16_t const block_count = rdwr10_get_blockcount(cbw);
 255              		.loc 1 172 11 view .LVU75
ARM GAS  C:\Users\LENOVO\AppData\Local\Temp\cc8CFzeV.s 			page 19


 256 0008 0020     		movs	r0, #0
 257              	.LVL14:
 172:SynaptiX_FDK/lib/tinyusb/src/class/msc/msc_device.c ****   uint16_t const block_count = rdwr10_get_blockcount(cbw);
 258              		.loc 1 172 11 view .LVU76
 259 000a 7047     		bx	lr
 260              	.LVL15:
 261              	.L12:
 172:SynaptiX_FDK/lib/tinyusb/src/class/msc/msc_device.c ****   uint16_t const block_count = rdwr10_get_blockcount(cbw);
 262              		.loc 1 172 11 view .LVU77
 263 000c 53BA     		rev16	r3, r2
 264 000e 9BB2     		uxth	r3, r3
 183:SynaptiX_FDK/lib/tinyusb/src/class/msc/msc_device.c ****       TU_LOG_DRV("  SCSI case 10 (Ho <> Di)\r\n");
 265              		.loc 1 183 5 is_stmt 1 view .LVU78
 183:SynaptiX_FDK/lib/tinyusb/src/class/msc/msc_device.c ****       TU_LOG_DRV("  SCSI case 10 (Ho <> Di)\r\n");
 266              		.loc 1 183 41 is_stmt 0 view .LVU79
 267 0010 90F80FC0 		ldrb	ip, [r0, #15]	@ zero_extendqisi2
 183:SynaptiX_FDK/lib/tinyusb/src/class/msc/msc_device.c ****       TU_LOG_DRV("  SCSI case 10 (Ho <> Di)\r\n");
 268              		.loc 1 183 8 view .LVU80
 269 0014 BCF1280F 		cmp	ip, #40
 270 0018 07D0     		beq	.L33
 186:SynaptiX_FDK/lib/tinyusb/src/class/msc/msc_device.c ****       TU_LOG_DRV("  SCSI case 8 (Hi <> Do)\r\n");
 271              		.loc 1 186 12 is_stmt 1 view .LVU81
 186:SynaptiX_FDK/lib/tinyusb/src/class/msc/msc_device.c ****       TU_LOG_DRV("  SCSI case 8 (Hi <> Do)\r\n");
 272              		.loc 1 186 15 is_stmt 0 view .LVU82
 273 001a BCF12A0F 		cmp	ip, #42
 274 001e 20D0     		beq	.L34
 275              	.LVL16:
 276              	.L25:
 189:SynaptiX_FDK/lib/tinyusb/src/class/msc/msc_device.c ****       TU_LOG_DRV("  SCSI case 4 Hi > Dn (READ10) or case 9 Ho > Dn (WRITE10) \r\n");
 277              		.loc 1 189 12 is_stmt 1 view .LVU83
 189:SynaptiX_FDK/lib/tinyusb/src/class/msc/msc_device.c ****       TU_LOG_DRV("  SCSI case 4 Hi > Dn (READ10) or case 9 Ho > Dn (WRITE10) \r\n");
 278              		.loc 1 189 15 is_stmt 0 view .LVU84
 279 0020 22B3     		cbz	r2, .L27
 192:SynaptiX_FDK/lib/tinyusb/src/class/msc/msc_device.c ****       TU_LOG_DRV(" Computed block size = 0. SCSI case 7 Hi < Di (READ10) or case 13 Ho < Do (WRIT10
 280              		.loc 1 192 12 is_stmt 1 view .LVU85
 192:SynaptiX_FDK/lib/tinyusb/src/class/msc/msc_device.c ****       TU_LOG_DRV(" Computed block size = 0. SCSI case 7 Hi < Di (READ10) or case 13 Ho < Do (WRIT10
 281              		.loc 1 192 15 is_stmt 0 view .LVU86
 282 0022 9942     		cmp	r1, r3
 283 0024 24D3     		bcc	.L29
 172:SynaptiX_FDK/lib/tinyusb/src/class/msc/msc_device.c ****   uint16_t const block_count = rdwr10_get_blockcount(cbw);
 284              		.loc 1 172 11 view .LVU87
 285 0026 0020     		movs	r0, #0
 286 0028 7047     		bx	lr
 287              	.LVL17:
 288              	.L33:
 171:SynaptiX_FDK/lib/tinyusb/src/class/msc/msc_device.c ****   uint8_t status = MSC_CSW_STATUS_PASSED;
 289              		.loc 1 171 58 view .LVU88
 290 002a 00B5     		push	{lr}
 291              	.LCFI4:
 292              		.cfi_def_cfa_offset 4
 293              		.cfi_offset 14, -4
 183:SynaptiX_FDK/lib/tinyusb/src/class/msc/msc_device.c ****       TU_LOG_DRV("  SCSI case 10 (Ho <> Di)\r\n");
 294              		.loc 1 183 63 discriminator 1 view .LVU89
 295 002c 90F80CE0 		ldrb	lr, [r0, #12]	@ zero_extendqisi2
 183:SynaptiX_FDK/lib/tinyusb/src/class/msc/msc_device.c ****       TU_LOG_DRV("  SCSI case 10 (Ho <> Di)\r\n");
 296              		.loc 1 183 45 discriminator 1 view .LVU90
 297 0030 5FEADE1E 		lsrs	lr, lr, #7
ARM GAS  C:\Users\LENOVO\AppData\Local\Temp\cc8CFzeV.s 			page 20


 298 0034 0ED0     		beq	.L17
 186:SynaptiX_FDK/lib/tinyusb/src/class/msc/msc_device.c ****       TU_LOG_DRV("  SCSI case 8 (Hi <> Do)\r\n");
 299              		.loc 1 186 12 is_stmt 1 view .LVU91
 186:SynaptiX_FDK/lib/tinyusb/src/class/msc/msc_device.c ****       TU_LOG_DRV("  SCSI case 8 (Hi <> Do)\r\n");
 300              		.loc 1 186 15 is_stmt 0 view .LVU92
 301 0036 BCF12A0F 		cmp	ip, #42
 302 003a 04D0     		beq	.L35
 303              	.LVL18:
 304              	.L15:
 189:SynaptiX_FDK/lib/tinyusb/src/class/msc/msc_device.c ****       TU_LOG_DRV("  SCSI case 4 Hi > Dn (READ10) or case 9 Ho > Dn (WRITE10) \r\n");
 305              		.loc 1 189 12 is_stmt 1 view .LVU93
 189:SynaptiX_FDK/lib/tinyusb/src/class/msc/msc_device.c ****       TU_LOG_DRV("  SCSI case 4 Hi > Dn (READ10) or case 9 Ho > Dn (WRITE10) \r\n");
 306              		.loc 1 189 15 is_stmt 0 view .LVU94
 307 003c 62B1     		cbz	r2, .L19
 192:SynaptiX_FDK/lib/tinyusb/src/class/msc/msc_device.c ****       TU_LOG_DRV(" Computed block size = 0. SCSI case 7 Hi < Di (READ10) or case 13 Ho < Do (WRIT10
 308              		.loc 1 192 12 is_stmt 1 view .LVU95
 192:SynaptiX_FDK/lib/tinyusb/src/class/msc/msc_device.c ****       TU_LOG_DRV(" Computed block size = 0. SCSI case 7 Hi < Di (READ10) or case 13 Ho < Do (WRIT10
 309              		.loc 1 192 15 is_stmt 0 view .LVU96
 310 003e 9942     		cmp	r1, r3
 311 0040 0DD3     		bcc	.L20
 172:SynaptiX_FDK/lib/tinyusb/src/class/msc/msc_device.c ****   uint16_t const block_count = rdwr10_get_blockcount(cbw);
 312              		.loc 1 172 11 view .LVU97
 313 0042 0020     		movs	r0, #0
 314 0044 09E0     		b	.L13
 315              	.LVL19:
 316              	.L35:
 186:SynaptiX_FDK/lib/tinyusb/src/class/msc/msc_device.c ****       TU_LOG_DRV("  SCSI case 8 (Hi <> Do)\r\n");
 317              		.loc 1 186 70 discriminator 1 view .LVU98
 318 0046 007B     		ldrb	r0, [r0, #12]	@ zero_extendqisi2
 319              	.LVL20:
 186:SynaptiX_FDK/lib/tinyusb/src/class/msc/msc_device.c ****       TU_LOG_DRV("  SCSI case 8 (Hi <> Do)\r\n");
 320              		.loc 1 186 53 discriminator 1 view .LVU99
 321 0048 C009     		lsrs	r0, r0, #7
 322 004a F7D0     		beq	.L15
 188:SynaptiX_FDK/lib/tinyusb/src/class/msc/msc_device.c ****     } else if (0 == block_count) {
 323              		.loc 1 188 14 view .LVU100
 324 004c 0220     		movs	r0, #2
 325 004e 04E0     		b	.L13
 326              	.LVL21:
 327              	.L16:
 328              	.LCFI5:
 329              		.cfi_def_cfa_offset 0
 330              		.cfi_restore 14
 178:SynaptiX_FDK/lib/tinyusb/src/class/msc/msc_device.c ****     } else {
 331              		.loc 1 178 14 view .LVU101
 332 0050 0220     		movs	r0, #2
 333              	.LVL22:
 178:SynaptiX_FDK/lib/tinyusb/src/class/msc/msc_device.c ****     } else {
 334              		.loc 1 178 14 view .LVU102
 335 0052 7047     		bx	lr
 336              	.LVL23:
 337              	.L17:
 338              	.LCFI6:
 339              		.cfi_def_cfa_offset 4
 340              		.cfi_offset 14, -4
 185:SynaptiX_FDK/lib/tinyusb/src/class/msc/msc_device.c ****     } else if (SCSI_CMD_WRITE_10 == cbw->command[0] && is_data_in(cbw->dir)) {
 341              		.loc 1 185 14 view .LVU103
ARM GAS  C:\Users\LENOVO\AppData\Local\Temp\cc8CFzeV.s 			page 21


 342 0054 0220     		movs	r0, #2
 343              	.LVL24:
 185:SynaptiX_FDK/lib/tinyusb/src/class/msc/msc_device.c ****     } else if (SCSI_CMD_WRITE_10 == cbw->command[0] && is_data_in(cbw->dir)) {
 344              		.loc 1 185 14 view .LVU104
 345 0056 00E0     		b	.L13
 346              	.L19:
 191:SynaptiX_FDK/lib/tinyusb/src/class/msc/msc_device.c ****     } else if (cbw->total_bytes / block_count == 0) {
 347              		.loc 1 191 14 view .LVU105
 348 0058 0120     		movs	r0, #1
 349              	.L13:
 350              	.LVL25:
 197:SynaptiX_FDK/lib/tinyusb/src/class/msc/msc_device.c ****   }
 351              		.loc 1 197 5 is_stmt 1 view .LVU106
 200:SynaptiX_FDK/lib/tinyusb/src/class/msc/msc_device.c **** }
 352              		.loc 1 200 3 view .LVU107
 201:SynaptiX_FDK/lib/tinyusb/src/class/msc/msc_device.c **** 
 353              		.loc 1 201 1 is_stmt 0 view .LVU108
 354 005a 5DF804FB 		ldr	pc, [sp], #4
 355              	.LVL26:
 356              	.L20:
 194:SynaptiX_FDK/lib/tinyusb/src/class/msc/msc_device.c ****     } else {
 357              		.loc 1 194 14 view .LVU109
 358 005e 0220     		movs	r0, #2
 359 0060 FBE7     		b	.L13
 360              	.LVL27:
 361              	.L34:
 362              	.LCFI7:
 363              		.cfi_def_cfa_offset 0
 364              		.cfi_restore 14
 186:SynaptiX_FDK/lib/tinyusb/src/class/msc/msc_device.c ****       TU_LOG_DRV("  SCSI case 8 (Hi <> Do)\r\n");
 365              		.loc 1 186 70 discriminator 1 view .LVU110
 366 0062 007B     		ldrb	r0, [r0, #12]	@ zero_extendqisi2
 367              	.LVL28:
 186:SynaptiX_FDK/lib/tinyusb/src/class/msc/msc_device.c ****       TU_LOG_DRV("  SCSI case 8 (Hi <> Do)\r\n");
 368              		.loc 1 186 53 discriminator 1 view .LVU111
 369 0064 C009     		lsrs	r0, r0, #7
 370 0066 DBD0     		beq	.L25
 188:SynaptiX_FDK/lib/tinyusb/src/class/msc/msc_device.c ****     } else if (0 == block_count) {
 371              		.loc 1 188 14 view .LVU112
 372 0068 0220     		movs	r0, #2
 373 006a 7047     		bx	lr
 374              	.L27:
 191:SynaptiX_FDK/lib/tinyusb/src/class/msc/msc_device.c ****     } else if (cbw->total_bytes / block_count == 0) {
 375              		.loc 1 191 14 view .LVU113
 376 006c 0120     		movs	r0, #1
 377 006e 7047     		bx	lr
 378              	.L29:
 194:SynaptiX_FDK/lib/tinyusb/src/class/msc/msc_device.c ****     } else {
 379              		.loc 1 194 14 view .LVU114
 380 0070 0220     		movs	r0, #2
 381              	.LVL29:
 197:SynaptiX_FDK/lib/tinyusb/src/class/msc/msc_device.c ****   }
 382              		.loc 1 197 5 is_stmt 1 view .LVU115
 200:SynaptiX_FDK/lib/tinyusb/src/class/msc/msc_device.c **** }
 383              		.loc 1 200 3 view .LVU116
 201:SynaptiX_FDK/lib/tinyusb/src/class/msc/msc_device.c **** 
 384              		.loc 1 201 1 is_stmt 0 view .LVU117
ARM GAS  C:\Users\LENOVO\AppData\Local\Temp\cc8CFzeV.s 			page 22


 385 0072 7047     		bx	lr
 386              		.cfi_endproc
 387              	.LFE644:
 389              		.section	.text.tud_msc_inquiry_cb,"ax",%progbits
 390              		.align	1
 391              		.weak	tud_msc_inquiry_cb
 392              		.syntax unified
 393              		.thumb
 394              		.thumb_func
 396              	tud_msc_inquiry_cb:
 397              	.LVL30:
 398              	.LFB635:
  47:SynaptiX_FDK/lib/tinyusb/src/class/msc/msc_device.c ****   (void) lun; (void) vendor_id; (void) product_id; (void) product_rev;
 399              		.loc 1 47 121 is_stmt 1 view -0
 400              		.cfi_startproc
 401              		@ args = 0, pretend = 0, frame = 0
 402              		@ frame_needed = 0, uses_anonymous_args = 0
 403              		@ link register save eliminated.
  48:SynaptiX_FDK/lib/tinyusb/src/class/msc/msc_device.c **** }
 404              		.loc 1 48 3 view .LVU119
  48:SynaptiX_FDK/lib/tinyusb/src/class/msc/msc_device.c **** }
 405              		.loc 1 48 15 view .LVU120
  48:SynaptiX_FDK/lib/tinyusb/src/class/msc/msc_device.c **** }
 406              		.loc 1 48 33 view .LVU121
  48:SynaptiX_FDK/lib/tinyusb/src/class/msc/msc_device.c **** }
 407              		.loc 1 48 52 view .LVU122
  49:SynaptiX_FDK/lib/tinyusb/src/class/msc/msc_device.c **** TU_ATTR_WEAK uint32_t tud_msc_inquiry2_cb(uint8_t lun, scsi_inquiry_resp_t *inquiry_resp, uint32_t 
 408              		.loc 1 49 1 is_stmt 0 view .LVU123
 409 0000 7047     		bx	lr
 410              		.cfi_endproc
 411              	.LFE635:
 413              		.section	.text.tud_msc_inquiry2_cb,"ax",%progbits
 414              		.align	1
 415              		.weak	tud_msc_inquiry2_cb
 416              		.syntax unified
 417              		.thumb
 418              		.thumb_func
 420              	tud_msc_inquiry2_cb:
 421              	.LVL31:
 422              	.LFB636:
  50:SynaptiX_FDK/lib/tinyusb/src/class/msc/msc_device.c ****   (void) lun; (void) inquiry_resp; (void) bufsize;
 423              		.loc 1 50 109 is_stmt 1 view -0
 424              		.cfi_startproc
 425              		@ args = 0, pretend = 0, frame = 0
 426              		@ frame_needed = 0, uses_anonymous_args = 0
 427              		@ link register save eliminated.
  51:SynaptiX_FDK/lib/tinyusb/src/class/msc/msc_device.c ****   return 0;
 428              		.loc 1 51 3 view .LVU125
  51:SynaptiX_FDK/lib/tinyusb/src/class/msc/msc_device.c ****   return 0;
 429              		.loc 1 51 15 view .LVU126
  51:SynaptiX_FDK/lib/tinyusb/src/class/msc/msc_device.c ****   return 0;
 430              		.loc 1 51 36 view .LVU127
  52:SynaptiX_FDK/lib/tinyusb/src/class/msc/msc_device.c **** }
 431              		.loc 1 52 3 view .LVU128
  53:SynaptiX_FDK/lib/tinyusb/src/class/msc/msc_device.c **** 
 432              		.loc 1 53 1 is_stmt 0 view .LVU129
 433 0000 0020     		movs	r0, #0
ARM GAS  C:\Users\LENOVO\AppData\Local\Temp\cc8CFzeV.s 			page 23


 434              	.LVL32:
  53:SynaptiX_FDK/lib/tinyusb/src/class/msc/msc_device.c **** 
 435              		.loc 1 53 1 view .LVU130
 436 0002 7047     		bx	lr
 437              		.cfi_endproc
 438              	.LFE636:
 440              		.section	.text.tud_msc_read10_complete_cb,"ax",%progbits
 441              		.align	1
 442              		.weak	tud_msc_read10_complete_cb
 443              		.syntax unified
 444              		.thumb
 445              		.thumb_func
 447              	tud_msc_read10_complete_cb:
 448              	.LVL33:
 449              	.LFB646:
 233:SynaptiX_FDK/lib/tinyusb/src/class/msc/msc_device.c ****   (void) lun;
 450              		.loc 1 233 59 is_stmt 1 view -0
 451              		.cfi_startproc
 452              		@ args = 0, pretend = 0, frame = 0
 453              		@ frame_needed = 0, uses_anonymous_args = 0
 454              		@ link register save eliminated.
 234:SynaptiX_FDK/lib/tinyusb/src/class/msc/msc_device.c **** }
 455              		.loc 1 234 3 view .LVU132
 235:SynaptiX_FDK/lib/tinyusb/src/class/msc/msc_device.c **** 
 456              		.loc 1 235 1 is_stmt 0 view .LVU133
 457 0000 7047     		bx	lr
 458              		.cfi_endproc
 459              	.LFE646:
 461              		.section	.text.tud_msc_write10_complete_cb,"ax",%progbits
 462              		.align	1
 463              		.weak	tud_msc_write10_complete_cb
 464              		.syntax unified
 465              		.thumb
 466              		.thumb_func
 468              	tud_msc_write10_complete_cb:
 469              	.LVL34:
 470              	.LFB647:
 237:SynaptiX_FDK/lib/tinyusb/src/class/msc/msc_device.c ****   (void) lun;
 471              		.loc 1 237 60 is_stmt 1 view -0
 472              		.cfi_startproc
 473              		@ args = 0, pretend = 0, frame = 0
 474              		@ frame_needed = 0, uses_anonymous_args = 0
 475              		@ link register save eliminated.
 238:SynaptiX_FDK/lib/tinyusb/src/class/msc/msc_device.c **** }
 476              		.loc 1 238 3 view .LVU135
 239:SynaptiX_FDK/lib/tinyusb/src/class/msc/msc_device.c **** 
 477              		.loc 1 239 1 is_stmt 0 view .LVU136
 478 0000 7047     		bx	lr
 479              		.cfi_endproc
 480              	.LFE647:
 482              		.section	.text.tud_msc_scsi_complete_cb,"ax",%progbits
 483              		.align	1
 484              		.weak	tud_msc_scsi_complete_cb
 485              		.syntax unified
 486              		.thumb
 487              		.thumb_func
 489              	tud_msc_scsi_complete_cb:
ARM GAS  C:\Users\LENOVO\AppData\Local\Temp\cc8CFzeV.s 			page 24


 490              	.LVL35:
 491              	.LFB648:
 241:SynaptiX_FDK/lib/tinyusb/src/class/msc/msc_device.c ****   (void) lun;
 492              		.loc 1 241 85 is_stmt 1 view -0
 493              		.cfi_startproc
 494              		@ args = 0, pretend = 0, frame = 0
 495              		@ frame_needed = 0, uses_anonymous_args = 0
 496              		@ link register save eliminated.
 242:SynaptiX_FDK/lib/tinyusb/src/class/msc/msc_device.c ****   (void) scsi_cmd;
 497              		.loc 1 242 3 view .LVU138
 243:SynaptiX_FDK/lib/tinyusb/src/class/msc/msc_device.c **** }
 498              		.loc 1 243 3 view .LVU139
 244:SynaptiX_FDK/lib/tinyusb/src/class/msc/msc_device.c **** 
 499              		.loc 1 244 1 is_stmt 0 view .LVU140
 500 0000 7047     		bx	lr
 501              		.cfi_endproc
 502              	.LFE648:
 504              		.section	.text.tud_msc_get_maxlun_cb,"ax",%progbits
 505              		.align	1
 506              		.weak	tud_msc_get_maxlun_cb
 507              		.syntax unified
 508              		.thumb
 509              		.thumb_func
 511              	tud_msc_get_maxlun_cb:
 512              	.LFB649:
 246:SynaptiX_FDK/lib/tinyusb/src/class/msc/msc_device.c ****   return 1;
 513              		.loc 1 246 50 is_stmt 1 view -0
 514              		.cfi_startproc
 515              		@ args = 0, pretend = 0, frame = 0
 516              		@ frame_needed = 0, uses_anonymous_args = 0
 517              		@ link register save eliminated.
 247:SynaptiX_FDK/lib/tinyusb/src/class/msc/msc_device.c **** }
 518              		.loc 1 247 3 view .LVU142
 248:SynaptiX_FDK/lib/tinyusb/src/class/msc/msc_device.c **** 
 519              		.loc 1 248 1 is_stmt 0 view .LVU143
 520 0000 0120     		movs	r0, #1
 521 0002 7047     		bx	lr
 522              		.cfi_endproc
 523              	.LFE649:
 525              		.section	.text.tud_msc_start_stop_cb,"ax",%progbits
 526              		.align	1
 527              		.weak	tud_msc_start_stop_cb
 528              		.syntax unified
 529              		.thumb
 530              		.thumb_func
 532              	tud_msc_start_stop_cb:
 533              	.LVL36:
 534              	.LFB650:
 250:SynaptiX_FDK/lib/tinyusb/src/class/msc/msc_device.c ****   (void) lun;
 535              		.loc 1 250 108 is_stmt 1 view -0
 536              		.cfi_startproc
 537              		@ args = 0, pretend = 0, frame = 0
 538              		@ frame_needed = 0, uses_anonymous_args = 0
 539              		@ link register save eliminated.
 251:SynaptiX_FDK/lib/tinyusb/src/class/msc/msc_device.c ****   (void) power_condition;
 540              		.loc 1 251 3 view .LVU145
 252:SynaptiX_FDK/lib/tinyusb/src/class/msc/msc_device.c ****   (void) start;
ARM GAS  C:\Users\LENOVO\AppData\Local\Temp\cc8CFzeV.s 			page 25


 541              		.loc 1 252 3 view .LVU146
 253:SynaptiX_FDK/lib/tinyusb/src/class/msc/msc_device.c ****   (void) load_eject;
 542              		.loc 1 253 3 view .LVU147
 254:SynaptiX_FDK/lib/tinyusb/src/class/msc/msc_device.c ****   return true;
 543              		.loc 1 254 3 view .LVU148
 255:SynaptiX_FDK/lib/tinyusb/src/class/msc/msc_device.c **** }
 544              		.loc 1 255 3 view .LVU149
 256:SynaptiX_FDK/lib/tinyusb/src/class/msc/msc_device.c **** 
 545              		.loc 1 256 1 is_stmt 0 view .LVU150
 546 0000 0120     		movs	r0, #1
 547              	.LVL37:
 256:SynaptiX_FDK/lib/tinyusb/src/class/msc/msc_device.c **** 
 548              		.loc 1 256 1 view .LVU151
 549 0002 7047     		bx	lr
 550              		.cfi_endproc
 551              	.LFE650:
 553              		.section	.text.tud_msc_prevent_allow_medium_removal_cb,"ax",%progbits
 554              		.align	1
 555              		.weak	tud_msc_prevent_allow_medium_removal_cb
 556              		.syntax unified
 557              		.thumb
 558              		.thumb_func
 560              	tud_msc_prevent_allow_medium_removal_cb:
 561              	.LVL38:
 562              	.LFB651:
 258:SynaptiX_FDK/lib/tinyusb/src/class/msc/msc_device.c ****   (void) lun;
 563              		.loc 1 258 115 is_stmt 1 view -0
 564              		.cfi_startproc
 565              		@ args = 0, pretend = 0, frame = 0
 566              		@ frame_needed = 0, uses_anonymous_args = 0
 567              		@ link register save eliminated.
 259:SynaptiX_FDK/lib/tinyusb/src/class/msc/msc_device.c ****   (void) prohibit_removal;
 568              		.loc 1 259 3 view .LVU153
 260:SynaptiX_FDK/lib/tinyusb/src/class/msc/msc_device.c ****   (void) control;
 569              		.loc 1 260 3 view .LVU154
 261:SynaptiX_FDK/lib/tinyusb/src/class/msc/msc_device.c ****   return true;
 570              		.loc 1 261 3 view .LVU155
 262:SynaptiX_FDK/lib/tinyusb/src/class/msc/msc_device.c **** }
 571              		.loc 1 262 3 view .LVU156
 263:SynaptiX_FDK/lib/tinyusb/src/class/msc/msc_device.c **** 
 572              		.loc 1 263 1 is_stmt 0 view .LVU157
 573 0000 0120     		movs	r0, #1
 574              	.LVL39:
 263:SynaptiX_FDK/lib/tinyusb/src/class/msc/msc_device.c **** 
 575              		.loc 1 263 1 view .LVU158
 576 0002 7047     		bx	lr
 577              		.cfi_endproc
 578              	.LFE651:
 580              		.section	.text.tud_msc_request_sense_cb,"ax",%progbits
 581              		.align	1
 582              		.weak	tud_msc_request_sense_cb
 583              		.syntax unified
 584              		.thumb
 585              		.thumb_func
 587              	tud_msc_request_sense_cb:
 588              	.LVL40:
 589              	.LFB652:
ARM GAS  C:\Users\LENOVO\AppData\Local\Temp\cc8CFzeV.s 			page 26


 265:SynaptiX_FDK/lib/tinyusb/src/class/msc/msc_device.c ****   (void) lun;
 590              		.loc 1 265 92 is_stmt 1 view -0
 591              		.cfi_startproc
 592              		@ args = 0, pretend = 0, frame = 0
 593              		@ frame_needed = 0, uses_anonymous_args = 0
 594              		@ link register save eliminated.
 266:SynaptiX_FDK/lib/tinyusb/src/class/msc/msc_device.c ****   (void) buffer;
 595              		.loc 1 266 3 view .LVU160
 267:SynaptiX_FDK/lib/tinyusb/src/class/msc/msc_device.c ****   (void) bufsize;
 596              		.loc 1 267 3 view .LVU161
 268:SynaptiX_FDK/lib/tinyusb/src/class/msc/msc_device.c ****   return sizeof(scsi_sense_fixed_resp_t);
 597              		.loc 1 268 3 view .LVU162
 269:SynaptiX_FDK/lib/tinyusb/src/class/msc/msc_device.c **** }
 598              		.loc 1 269 3 view .LVU163
 270:SynaptiX_FDK/lib/tinyusb/src/class/msc/msc_device.c **** 
 599              		.loc 1 270 1 is_stmt 0 view .LVU164
 600 0000 1220     		movs	r0, #18
 601              	.LVL41:
 270:SynaptiX_FDK/lib/tinyusb/src/class/msc/msc_device.c **** 
 602              		.loc 1 270 1 view .LVU165
 603 0002 7047     		bx	lr
 604              		.cfi_endproc
 605              	.LFE652:
 607              		.section	.text.tud_msc_is_writable_cb,"ax",%progbits
 608              		.align	1
 609              		.weak	tud_msc_is_writable_cb
 610              		.syntax unified
 611              		.thumb
 612              		.thumb_func
 614              	tud_msc_is_writable_cb:
 615              	.LVL42:
 616              	.LFB653:
 272:SynaptiX_FDK/lib/tinyusb/src/class/msc/msc_device.c ****   (void) lun;
 617              		.loc 1 272 55 is_stmt 1 view -0
 618              		.cfi_startproc
 619              		@ args = 0, pretend = 0, frame = 0
 620              		@ frame_needed = 0, uses_anonymous_args = 0
 621              		@ link register save eliminated.
 273:SynaptiX_FDK/lib/tinyusb/src/class/msc/msc_device.c ****   return true;
 622              		.loc 1 273 3 view .LVU167
 274:SynaptiX_FDK/lib/tinyusb/src/class/msc/msc_device.c **** }
 623              		.loc 1 274 3 view .LVU168
 275:SynaptiX_FDK/lib/tinyusb/src/class/msc/msc_device.c **** 
 624              		.loc 1 275 1 is_stmt 0 view .LVU169
 625 0000 0120     		movs	r0, #1
 626              	.LVL43:
 275:SynaptiX_FDK/lib/tinyusb/src/class/msc/msc_device.c **** 
 627              		.loc 1 275 1 view .LVU170
 628 0002 7047     		bx	lr
 629              		.cfi_endproc
 630              	.LFE653:
 632              		.section	.text.tud_msc_set_sense,"ax",%progbits
 633              		.align	1
 634              		.global	tud_msc_set_sense
 635              		.syntax unified
 636              		.thumb
 637              		.thumb_func
ARM GAS  C:\Users\LENOVO\AppData\Local\Temp\cc8CFzeV.s 			page 27


 639              	tud_msc_set_sense:
 640              	.LVL44:
 641              	.LFB654:
 306:SynaptiX_FDK/lib/tinyusb/src/class/msc/msc_device.c ****   (void) lun;
 642              		.loc 1 306 109 is_stmt 1 view -0
 643              		.cfi_startproc
 644              		@ args = 0, pretend = 0, frame = 0
 645              		@ frame_needed = 0, uses_anonymous_args = 0
 646              		@ link register save eliminated.
 307:SynaptiX_FDK/lib/tinyusb/src/class/msc/msc_device.c ****   _mscd_itf.sense_key           = sense_key;
 647              		.loc 1 307 3 view .LVU172
 308:SynaptiX_FDK/lib/tinyusb/src/class/msc/msc_device.c ****   _mscd_itf.add_sense_code      = add_sense_code;
 648              		.loc 1 308 3 view .LVU173
 308:SynaptiX_FDK/lib/tinyusb/src/class/msc/msc_device.c ****   _mscd_itf.add_sense_code      = add_sense_code;
 649              		.loc 1 308 33 is_stmt 0 view .LVU174
 650 0000 0448     		ldr	r0, .L47
 651              	.LVL45:
 308:SynaptiX_FDK/lib/tinyusb/src/class/msc/msc_device.c ****   _mscd_itf.add_sense_code      = add_sense_code;
 652              		.loc 1 308 33 view .LVU175
 653 0002 80F83910 		strb	r1, [r0, #57]
 309:SynaptiX_FDK/lib/tinyusb/src/class/msc/msc_device.c ****   _mscd_itf.add_sense_qualifier = add_sense_qualifier;
 654              		.loc 1 309 3 is_stmt 1 view .LVU176
 309:SynaptiX_FDK/lib/tinyusb/src/class/msc/msc_device.c ****   _mscd_itf.add_sense_qualifier = add_sense_qualifier;
 655              		.loc 1 309 33 is_stmt 0 view .LVU177
 656 0006 80F83A20 		strb	r2, [r0, #58]
 310:SynaptiX_FDK/lib/tinyusb/src/class/msc/msc_device.c ****   return true;
 657              		.loc 1 310 3 is_stmt 1 view .LVU178
 310:SynaptiX_FDK/lib/tinyusb/src/class/msc/msc_device.c ****   return true;
 658              		.loc 1 310 33 is_stmt 0 view .LVU179
 659 000a 80F83B30 		strb	r3, [r0, #59]
 311:SynaptiX_FDK/lib/tinyusb/src/class/msc/msc_device.c **** }
 660              		.loc 1 311 3 is_stmt 1 view .LVU180
 312:SynaptiX_FDK/lib/tinyusb/src/class/msc/msc_device.c **** 
 661              		.loc 1 312 1 is_stmt 0 view .LVU181
 662 000e 0120     		movs	r0, #1
 663 0010 7047     		bx	lr
 664              	.L48:
 665 0012 00BF     		.align	2
 666              	.L47:
 667 0014 00000000 		.word	_mscd_itf
 668              		.cfi_endproc
 669              	.LFE654:
 671              		.section	.text.fail_scsi_op,"ax",%progbits
 672              		.align	1
 673              		.syntax unified
 674              		.thumb
 675              		.thumb_func
 677              	fail_scsi_op:
 678              	.LVL46:
 679              	.LFB640:
 127:SynaptiX_FDK/lib/tinyusb/src/class/msc/msc_device.c ****   msc_cbw_t const * p_cbw = &p_msc->cbw;
 680              		.loc 1 127 67 is_stmt 1 view -0
 681              		.cfi_startproc
 682              		@ args = 0, pretend = 0, frame = 0
 683              		@ frame_needed = 0, uses_anonymous_args = 0
 127:SynaptiX_FDK/lib/tinyusb/src/class/msc/msc_device.c ****   msc_cbw_t const * p_cbw = &p_msc->cbw;
 684              		.loc 1 127 67 is_stmt 0 view .LVU183
ARM GAS  C:\Users\LENOVO\AppData\Local\Temp\cc8CFzeV.s 			page 28


 685 0000 38B5     		push	{r3, r4, r5, lr}
 686              	.LCFI8:
 687              		.cfi_def_cfa_offset 16
 688              		.cfi_offset 3, -16
 689              		.cfi_offset 4, -12
 690              		.cfi_offset 5, -8
 691              		.cfi_offset 14, -4
 692 0002 0446     		mov	r4, r0
 128:SynaptiX_FDK/lib/tinyusb/src/class/msc/msc_device.c ****   msc_csw_t       * p_csw = &p_msc->csw;
 693              		.loc 1 128 3 is_stmt 1 view .LVU184
 694              	.LVL47:
 129:SynaptiX_FDK/lib/tinyusb/src/class/msc/msc_device.c ****   uint8_t rhport = p_msc->rhport;
 695              		.loc 1 129 3 view .LVU185
 130:SynaptiX_FDK/lib/tinyusb/src/class/msc/msc_device.c **** 
 696              		.loc 1 130 3 view .LVU186
 130:SynaptiX_FDK/lib/tinyusb/src/class/msc/msc_device.c **** 
 697              		.loc 1 130 11 is_stmt 0 view .LVU187
 698 0004 C57F     		ldrb	r5, [r0, #31]	@ zero_extendqisi2
 699              	.LVL48:
 132:SynaptiX_FDK/lib/tinyusb/src/class/msc/msc_device.c ****   p_csw->data_residue = p_msc->cbw.total_bytes - p_msc->xferred_len;
 700              		.loc 1 132 3 is_stmt 1 view .LVU188
 132:SynaptiX_FDK/lib/tinyusb/src/class/msc/msc_device.c ****   p_csw->data_residue = p_msc->cbw.total_bytes - p_msc->xferred_len;
 701              		.loc 1 132 23 is_stmt 0 view .LVU189
 702 0006 80F82C10 		strb	r1, [r0, #44]
 133:SynaptiX_FDK/lib/tinyusb/src/class/msc/msc_device.c ****   p_msc->stage        = MSC_STAGE_STATUS;
 703              		.loc 1 133 3 is_stmt 1 view .LVU190
 133:SynaptiX_FDK/lib/tinyusb/src/class/msc/msc_device.c ****   p_msc->stage        = MSC_STAGE_STATUS;
 704              		.loc 1 133 35 is_stmt 0 view .LVU191
 705 000a 8368     		ldr	r3, [r0, #8]
 133:SynaptiX_FDK/lib/tinyusb/src/class/msc/msc_device.c ****   p_msc->stage        = MSC_STAGE_STATUS;
 706              		.loc 1 133 55 view .LVU192
 707 000c 426B     		ldr	r2, [r0, #52]
 133:SynaptiX_FDK/lib/tinyusb/src/class/msc/msc_device.c ****   p_msc->stage        = MSC_STAGE_STATUS;
 708              		.loc 1 133 48 view .LVU193
 709 000e 9B1A     		subs	r3, r3, r2
 133:SynaptiX_FDK/lib/tinyusb/src/class/msc/msc_device.c ****   p_msc->stage        = MSC_STAGE_STATUS;
 710              		.loc 1 133 23 view .LVU194
 711 0010 8362     		str	r3, [r0, #40]	@ unaligned
 134:SynaptiX_FDK/lib/tinyusb/src/class/msc/msc_device.c **** 
 712              		.loc 1 134 3 is_stmt 1 view .LVU195
 134:SynaptiX_FDK/lib/tinyusb/src/class/msc/msc_device.c **** 
 713              		.loc 1 134 23 is_stmt 0 view .LVU196
 714 0012 0223     		movs	r3, #2
 715 0014 80F83830 		strb	r3, [r0, #56]
 137:SynaptiX_FDK/lib/tinyusb/src/class/msc/msc_device.c ****     (void) tud_msc_set_sense(p_cbw->lun, SCSI_SENSE_ILLEGAL_REQUEST, 0x20, 0x00);
 716              		.loc 1 137 3 is_stmt 1 view .LVU197
 137:SynaptiX_FDK/lib/tinyusb/src/class/msc/msc_device.c ****     (void) tud_msc_set_sense(p_cbw->lun, SCSI_SENSE_ILLEGAL_REQUEST, 0x20, 0x00);
 717              		.loc 1 137 12 is_stmt 0 view .LVU198
 718 0018 90F83930 		ldrb	r3, [r0, #57]	@ zero_extendqisi2
 137:SynaptiX_FDK/lib/tinyusb/src/class/msc/msc_device.c ****     (void) tud_msc_set_sense(p_cbw->lun, SCSI_SENSE_ILLEGAL_REQUEST, 0x20, 0x00);
 719              		.loc 1 137 6 view .LVU199
 720 001c 63B1     		cbz	r3, .L54
 721              	.LVL49:
 722              	.L50:
 142:SynaptiX_FDK/lib/tinyusb/src/class/msc/msc_device.c ****     if (is_data_in(p_cbw->dir)) {
 723              		.loc 1 142 3 is_stmt 1 view .LVU200
 142:SynaptiX_FDK/lib/tinyusb/src/class/msc/msc_device.c ****     if (is_data_in(p_cbw->dir)) {
ARM GAS  C:\Users\LENOVO\AppData\Local\Temp\cc8CFzeV.s 			page 29


 724              		.loc 1 142 12 is_stmt 0 view .LVU201
 725 001e A368     		ldr	r3, [r4, #8]	@ unaligned
 142:SynaptiX_FDK/lib/tinyusb/src/class/msc/msc_device.c ****     if (is_data_in(p_cbw->dir)) {
 726              		.loc 1 142 6 view .LVU202
 727 0020 4BB1     		cbz	r3, .L49
 142:SynaptiX_FDK/lib/tinyusb/src/class/msc/msc_device.c ****     if (is_data_in(p_cbw->dir)) {
 728              		.loc 1 142 34 discriminator 1 view .LVU203
 729 0022 A36A     		ldr	r3, [r4, #40]	@ unaligned
 142:SynaptiX_FDK/lib/tinyusb/src/class/msc/msc_device.c ****     if (is_data_in(p_cbw->dir)) {
 730              		.loc 1 142 26 discriminator 1 view .LVU204
 731 0024 3BB1     		cbz	r3, .L49
 143:SynaptiX_FDK/lib/tinyusb/src/class/msc/msc_device.c ****       usbd_edpt_stall(rhport, p_msc->ep_in);
 732              		.loc 1 143 5 is_stmt 1 view .LVU205
 143:SynaptiX_FDK/lib/tinyusb/src/class/msc/msc_device.c ****       usbd_edpt_stall(rhport, p_msc->ep_in);
 733              		.loc 1 143 25 is_stmt 0 view .LVU206
 734 0026 237B     		ldrb	r3, [r4, #12]	@ zero_extendqisi2
 143:SynaptiX_FDK/lib/tinyusb/src/class/msc/msc_device.c ****       usbd_edpt_stall(rhport, p_msc->ep_in);
 735              		.loc 1 143 8 discriminator 1 view .LVU207
 736 0028 DB09     		lsrs	r3, r3, #7
 737 002a 0BD0     		beq	.L52
 144:SynaptiX_FDK/lib/tinyusb/src/class/msc/msc_device.c ****     } else {
 738              		.loc 1 144 7 is_stmt 1 view .LVU208
 739 002c 94F82E10 		ldrb	r1, [r4, #46]	@ zero_extendqisi2
 740 0030 2846     		mov	r0, r5
 741 0032 FFF7FEFF 		bl	usbd_edpt_stall
 742              	.LVL50:
 743              	.L49:
 149:SynaptiX_FDK/lib/tinyusb/src/class/msc/msc_device.c **** 
 744              		.loc 1 149 1 is_stmt 0 view .LVU209
 745 0036 38BD     		pop	{r3, r4, r5, pc}
 746              	.LVL51:
 747              	.L54:
 138:SynaptiX_FDK/lib/tinyusb/src/class/msc/msc_device.c ****   }
 748              		.loc 1 138 5 is_stmt 1 view .LVU210
 138:SynaptiX_FDK/lib/tinyusb/src/class/msc/msc_device.c ****   }
 749              		.loc 1 138 12 is_stmt 0 view .LVU211
 750 0038 2022     		movs	r2, #32
 751 003a 0521     		movs	r1, #5
 752              	.LVL52:
 138:SynaptiX_FDK/lib/tinyusb/src/class/msc/msc_device.c ****   }
 753              		.loc 1 138 12 view .LVU212
 754 003c 407B     		ldrb	r0, [r0, #13]	@ zero_extendqisi2
 755              	.LVL53:
 138:SynaptiX_FDK/lib/tinyusb/src/class/msc/msc_device.c ****   }
 756              		.loc 1 138 12 view .LVU213
 757 003e FFF7FEFF 		bl	tud_msc_set_sense
 758              	.LVL54:
 138:SynaptiX_FDK/lib/tinyusb/src/class/msc/msc_device.c ****   }
 759              		.loc 1 138 12 view .LVU214
 760 0042 ECE7     		b	.L50
 761              	.L52:
 146:SynaptiX_FDK/lib/tinyusb/src/class/msc/msc_device.c ****     }
 762              		.loc 1 146 7 is_stmt 1 view .LVU215
 763 0044 94F82F10 		ldrb	r1, [r4, #47]	@ zero_extendqisi2
 764 0048 2846     		mov	r0, r5
 765 004a FFF7FEFF 		bl	usbd_edpt_stall
 766              	.LVL55:
ARM GAS  C:\Users\LENOVO\AppData\Local\Temp\cc8CFzeV.s 			page 30


 149:SynaptiX_FDK/lib/tinyusb/src/class/msc/msc_device.c **** 
 767              		.loc 1 149 1 is_stmt 0 view .LVU216
 768 004e F2E7     		b	.L49
 769              		.cfi_endproc
 770              	.LFE640:
 772              		.section	.text.proc_read_io_data,"ax",%progbits
 773              		.align	1
 774              		.syntax unified
 775              		.thumb
 776              		.thumb_func
 778              	proc_read_io_data:
 779              	.LVL56:
 780              	.LFB667:
 400:SynaptiX_FDK/lib/tinyusb/src/class/msc/msc_device.c **** 
 401:SynaptiX_FDK/lib/tinyusb/src/class/msc/msc_device.c **** // Invoked when a control transfer occurred on an interface of this class
 402:SynaptiX_FDK/lib/tinyusb/src/class/msc/msc_device.c **** // Driver response accordingly to the request and the transfer stage (setup/data/ack)
 403:SynaptiX_FDK/lib/tinyusb/src/class/msc/msc_device.c **** // return false to stall control endpoint (e.g unsupported request)
 404:SynaptiX_FDK/lib/tinyusb/src/class/msc/msc_device.c **** bool mscd_control_xfer_cb(uint8_t rhport, uint8_t stage, tusb_control_request_t const * request) {
 405:SynaptiX_FDK/lib/tinyusb/src/class/msc/msc_device.c ****   if (stage != CONTROL_STAGE_SETUP) {
 406:SynaptiX_FDK/lib/tinyusb/src/class/msc/msc_device.c ****     return true; // nothing to do with DATA & ACK stage
 407:SynaptiX_FDK/lib/tinyusb/src/class/msc/msc_device.c ****   }
 408:SynaptiX_FDK/lib/tinyusb/src/class/msc/msc_device.c **** 
 409:SynaptiX_FDK/lib/tinyusb/src/class/msc/msc_device.c ****   mscd_interface_t* p_msc = &_mscd_itf;
 410:SynaptiX_FDK/lib/tinyusb/src/class/msc/msc_device.c **** 
 411:SynaptiX_FDK/lib/tinyusb/src/class/msc/msc_device.c ****   // Clear Endpoint Feature (stall) for recovery
 412:SynaptiX_FDK/lib/tinyusb/src/class/msc/msc_device.c ****   if ( TUSB_REQ_TYPE_STANDARD     == request->bmRequestType_bit.type      &&
 413:SynaptiX_FDK/lib/tinyusb/src/class/msc/msc_device.c ****        TUSB_REQ_RCPT_ENDPOINT     == request->bmRequestType_bit.recipient &&
 414:SynaptiX_FDK/lib/tinyusb/src/class/msc/msc_device.c ****        TUSB_REQ_CLEAR_FEATURE     == request->bRequest                    &&
 415:SynaptiX_FDK/lib/tinyusb/src/class/msc/msc_device.c ****        TUSB_REQ_FEATURE_EDPT_HALT == request->wValue ) {
 416:SynaptiX_FDK/lib/tinyusb/src/class/msc/msc_device.c ****     uint8_t const ep_addr = tu_u16_low(request->wIndex);
 417:SynaptiX_FDK/lib/tinyusb/src/class/msc/msc_device.c **** 
 418:SynaptiX_FDK/lib/tinyusb/src/class/msc/msc_device.c ****     if (p_msc->stage == MSC_STAGE_NEED_RESET) {
 419:SynaptiX_FDK/lib/tinyusb/src/class/msc/msc_device.c ****       // reset recovery is required to recover from this stage
 420:SynaptiX_FDK/lib/tinyusb/src/class/msc/msc_device.c ****       // Clear Stall request cannot resolve this -> continue to stall endpoint
 421:SynaptiX_FDK/lib/tinyusb/src/class/msc/msc_device.c ****       usbd_edpt_stall(rhport, ep_addr);
 422:SynaptiX_FDK/lib/tinyusb/src/class/msc/msc_device.c ****     } else {
 423:SynaptiX_FDK/lib/tinyusb/src/class/msc/msc_device.c ****       if (ep_addr == p_msc->ep_in) {
 424:SynaptiX_FDK/lib/tinyusb/src/class/msc/msc_device.c ****         if (p_msc->stage == MSC_STAGE_STATUS) {
 425:SynaptiX_FDK/lib/tinyusb/src/class/msc/msc_device.c ****           // resume sending SCSI status if we are in this stage previously before stalled
 426:SynaptiX_FDK/lib/tinyusb/src/class/msc/msc_device.c ****           TU_ASSERT(send_csw(p_msc));
 427:SynaptiX_FDK/lib/tinyusb/src/class/msc/msc_device.c ****         }
 428:SynaptiX_FDK/lib/tinyusb/src/class/msc/msc_device.c ****       } else if (ep_addr == p_msc->ep_out) {
 429:SynaptiX_FDK/lib/tinyusb/src/class/msc/msc_device.c ****         if (p_msc->stage == MSC_STAGE_CMD) {
 430:SynaptiX_FDK/lib/tinyusb/src/class/msc/msc_device.c ****           // part of reset recovery (probably due to invalid CBW) -> prepare for new command
 431:SynaptiX_FDK/lib/tinyusb/src/class/msc/msc_device.c ****           // Note: skip if already queued previously
 432:SynaptiX_FDK/lib/tinyusb/src/class/msc/msc_device.c ****           if (usbd_edpt_ready(rhport, p_msc->ep_out)) {
 433:SynaptiX_FDK/lib/tinyusb/src/class/msc/msc_device.c ****             TU_ASSERT(prepare_cbw(p_msc));
 434:SynaptiX_FDK/lib/tinyusb/src/class/msc/msc_device.c ****           }
 435:SynaptiX_FDK/lib/tinyusb/src/class/msc/msc_device.c ****         }
 436:SynaptiX_FDK/lib/tinyusb/src/class/msc/msc_device.c ****       } else {
 437:SynaptiX_FDK/lib/tinyusb/src/class/msc/msc_device.c ****         // nothing to do
 438:SynaptiX_FDK/lib/tinyusb/src/class/msc/msc_device.c ****       }
 439:SynaptiX_FDK/lib/tinyusb/src/class/msc/msc_device.c ****     }
 440:SynaptiX_FDK/lib/tinyusb/src/class/msc/msc_device.c **** 
 441:SynaptiX_FDK/lib/tinyusb/src/class/msc/msc_device.c ****     return true;
 442:SynaptiX_FDK/lib/tinyusb/src/class/msc/msc_device.c ****   }
 443:SynaptiX_FDK/lib/tinyusb/src/class/msc/msc_device.c **** 
ARM GAS  C:\Users\LENOVO\AppData\Local\Temp\cc8CFzeV.s 			page 31


 444:SynaptiX_FDK/lib/tinyusb/src/class/msc/msc_device.c ****   // From this point only handle class request only
 445:SynaptiX_FDK/lib/tinyusb/src/class/msc/msc_device.c ****   TU_VERIFY(request->bmRequestType_bit.type == TUSB_REQ_TYPE_CLASS);
 446:SynaptiX_FDK/lib/tinyusb/src/class/msc/msc_device.c **** 
 447:SynaptiX_FDK/lib/tinyusb/src/class/msc/msc_device.c ****   switch ( request->bRequest ) {
 448:SynaptiX_FDK/lib/tinyusb/src/class/msc/msc_device.c ****     case MSC_REQ_RESET:
 449:SynaptiX_FDK/lib/tinyusb/src/class/msc/msc_device.c ****       TU_LOG_DRV("  MSC BOT Reset\r\n");
 450:SynaptiX_FDK/lib/tinyusb/src/class/msc/msc_device.c ****       TU_VERIFY(request->wValue == 0 && request->wLength == 0);
 451:SynaptiX_FDK/lib/tinyusb/src/class/msc/msc_device.c ****       proc_bot_reset(p_msc); // driver state reset
 452:SynaptiX_FDK/lib/tinyusb/src/class/msc/msc_device.c ****       tud_control_status(rhport, request);
 453:SynaptiX_FDK/lib/tinyusb/src/class/msc/msc_device.c ****     break;
 454:SynaptiX_FDK/lib/tinyusb/src/class/msc/msc_device.c **** 
 455:SynaptiX_FDK/lib/tinyusb/src/class/msc/msc_device.c ****     case MSC_REQ_GET_MAX_LUN: {
 456:SynaptiX_FDK/lib/tinyusb/src/class/msc/msc_device.c ****       TU_LOG_DRV("  MSC Get Max Lun\r\n");
 457:SynaptiX_FDK/lib/tinyusb/src/class/msc/msc_device.c ****       TU_VERIFY(request->wValue == 0 && request->wLength == 1);
 458:SynaptiX_FDK/lib/tinyusb/src/class/msc/msc_device.c **** 
 459:SynaptiX_FDK/lib/tinyusb/src/class/msc/msc_device.c ****       uint8_t maxlun = tud_msc_get_maxlun_cb();
 460:SynaptiX_FDK/lib/tinyusb/src/class/msc/msc_device.c ****       TU_VERIFY(maxlun != 0);
 461:SynaptiX_FDK/lib/tinyusb/src/class/msc/msc_device.c ****       maxlun--; // MAX LUN is minus 1 by specs
 462:SynaptiX_FDK/lib/tinyusb/src/class/msc/msc_device.c ****       tud_control_xfer(rhport, request, &maxlun, 1);
 463:SynaptiX_FDK/lib/tinyusb/src/class/msc/msc_device.c ****       break;
 464:SynaptiX_FDK/lib/tinyusb/src/class/msc/msc_device.c ****     }
 465:SynaptiX_FDK/lib/tinyusb/src/class/msc/msc_device.c **** 
 466:SynaptiX_FDK/lib/tinyusb/src/class/msc/msc_device.c ****     default: return false; // stall unsupported request
 467:SynaptiX_FDK/lib/tinyusb/src/class/msc/msc_device.c ****   }
 468:SynaptiX_FDK/lib/tinyusb/src/class/msc/msc_device.c **** 
 469:SynaptiX_FDK/lib/tinyusb/src/class/msc/msc_device.c ****   return true;
 470:SynaptiX_FDK/lib/tinyusb/src/class/msc/msc_device.c **** }
 471:SynaptiX_FDK/lib/tinyusb/src/class/msc/msc_device.c **** 
 472:SynaptiX_FDK/lib/tinyusb/src/class/msc/msc_device.c **** bool mscd_xfer_cb(uint8_t rhport, uint8_t ep_addr, xfer_result_t event, uint32_t xferred_bytes) {
 473:SynaptiX_FDK/lib/tinyusb/src/class/msc/msc_device.c ****   (void) event;
 474:SynaptiX_FDK/lib/tinyusb/src/class/msc/msc_device.c **** 
 475:SynaptiX_FDK/lib/tinyusb/src/class/msc/msc_device.c ****   mscd_interface_t* p_msc = &_mscd_itf;
 476:SynaptiX_FDK/lib/tinyusb/src/class/msc/msc_device.c ****   msc_cbw_t * p_cbw = &p_msc->cbw;
 477:SynaptiX_FDK/lib/tinyusb/src/class/msc/msc_device.c ****   msc_csw_t * p_csw = &p_msc->csw;
 478:SynaptiX_FDK/lib/tinyusb/src/class/msc/msc_device.c **** 
 479:SynaptiX_FDK/lib/tinyusb/src/class/msc/msc_device.c ****   switch (p_msc->stage) {
 480:SynaptiX_FDK/lib/tinyusb/src/class/msc/msc_device.c ****     case MSC_STAGE_CMD: {
 481:SynaptiX_FDK/lib/tinyusb/src/class/msc/msc_device.c ****       //------------- new CBW received -------------//
 482:SynaptiX_FDK/lib/tinyusb/src/class/msc/msc_device.c ****       // Complete IN while waiting for CMD is usually Status of previous SCSI op, ignore it
 483:SynaptiX_FDK/lib/tinyusb/src/class/msc/msc_device.c ****       if (ep_addr != p_msc->ep_out) {
 484:SynaptiX_FDK/lib/tinyusb/src/class/msc/msc_device.c ****         return true;
 485:SynaptiX_FDK/lib/tinyusb/src/class/msc/msc_device.c ****       }
 486:SynaptiX_FDK/lib/tinyusb/src/class/msc/msc_device.c **** 
 487:SynaptiX_FDK/lib/tinyusb/src/class/msc/msc_device.c ****       const uint32_t signature = tu_le32toh(tu_unaligned_read32(_mscd_epbuf.buf));
 488:SynaptiX_FDK/lib/tinyusb/src/class/msc/msc_device.c **** 
 489:SynaptiX_FDK/lib/tinyusb/src/class/msc/msc_device.c ****       if (!(xferred_bytes == sizeof(msc_cbw_t) && signature == MSC_CBW_SIGNATURE)) {
 490:SynaptiX_FDK/lib/tinyusb/src/class/msc/msc_device.c ****         // BOT 6.6.1 If CBW is not valid stall both endpoints until reset recovery
 491:SynaptiX_FDK/lib/tinyusb/src/class/msc/msc_device.c ****         TU_LOG_DRV("  SCSI CBW is not valid\r\n");
 492:SynaptiX_FDK/lib/tinyusb/src/class/msc/msc_device.c ****         p_msc->stage = MSC_STAGE_NEED_RESET;
 493:SynaptiX_FDK/lib/tinyusb/src/class/msc/msc_device.c ****         usbd_edpt_stall(rhport, p_msc->ep_in);
 494:SynaptiX_FDK/lib/tinyusb/src/class/msc/msc_device.c ****         usbd_edpt_stall(rhport, p_msc->ep_out);
 495:SynaptiX_FDK/lib/tinyusb/src/class/msc/msc_device.c ****         return false;
 496:SynaptiX_FDK/lib/tinyusb/src/class/msc/msc_device.c ****       }
 497:SynaptiX_FDK/lib/tinyusb/src/class/msc/msc_device.c **** 
 498:SynaptiX_FDK/lib/tinyusb/src/class/msc/msc_device.c ****       memcpy(p_cbw, _mscd_epbuf.buf, sizeof(msc_cbw_t));
 499:SynaptiX_FDK/lib/tinyusb/src/class/msc/msc_device.c **** 
 500:SynaptiX_FDK/lib/tinyusb/src/class/msc/msc_device.c ****       TU_LOG_DRV("  SCSI Command [Lun%u]: %s\r\n", p_cbw->lun, tu_lookup_find(&_msc_scsi_cmd_table,
ARM GAS  C:\Users\LENOVO\AppData\Local\Temp\cc8CFzeV.s 			page 32


 501:SynaptiX_FDK/lib/tinyusb/src/class/msc/msc_device.c ****       // TU_LOG_MEM(CFG_TUD_MSC_LOG_LEVEL, p_cbw, xferred_bytes, 2);
 502:SynaptiX_FDK/lib/tinyusb/src/class/msc/msc_device.c **** 
 503:SynaptiX_FDK/lib/tinyusb/src/class/msc/msc_device.c ****       p_csw->signature    = MSC_CSW_SIGNATURE;
 504:SynaptiX_FDK/lib/tinyusb/src/class/msc/msc_device.c ****       p_csw->tag          = p_cbw->tag;
 505:SynaptiX_FDK/lib/tinyusb/src/class/msc/msc_device.c ****       p_csw->data_residue = 0;
 506:SynaptiX_FDK/lib/tinyusb/src/class/msc/msc_device.c ****       p_csw->status       = MSC_CSW_STATUS_PASSED;
 507:SynaptiX_FDK/lib/tinyusb/src/class/msc/msc_device.c **** 
 508:SynaptiX_FDK/lib/tinyusb/src/class/msc/msc_device.c ****       /*------------- Parse command and prepare DATA -------------*/
 509:SynaptiX_FDK/lib/tinyusb/src/class/msc/msc_device.c ****       p_msc->stage = MSC_STAGE_DATA;
 510:SynaptiX_FDK/lib/tinyusb/src/class/msc/msc_device.c ****       p_msc->total_len = p_cbw->total_bytes;
 511:SynaptiX_FDK/lib/tinyusb/src/class/msc/msc_device.c ****       p_msc->xferred_len = 0;
 512:SynaptiX_FDK/lib/tinyusb/src/class/msc/msc_device.c **** 
 513:SynaptiX_FDK/lib/tinyusb/src/class/msc/msc_device.c ****       // Read10 or Write10
 514:SynaptiX_FDK/lib/tinyusb/src/class/msc/msc_device.c ****       if ((SCSI_CMD_READ_10 == p_cbw->command[0]) || (SCSI_CMD_WRITE_10 == p_cbw->command[0])) {
 515:SynaptiX_FDK/lib/tinyusb/src/class/msc/msc_device.c ****         uint8_t const status = rdwr10_validate_cmd(p_cbw);
 516:SynaptiX_FDK/lib/tinyusb/src/class/msc/msc_device.c **** 
 517:SynaptiX_FDK/lib/tinyusb/src/class/msc/msc_device.c ****         if (status != MSC_CSW_STATUS_PASSED) {
 518:SynaptiX_FDK/lib/tinyusb/src/class/msc/msc_device.c ****           fail_scsi_op(p_msc, status);
 519:SynaptiX_FDK/lib/tinyusb/src/class/msc/msc_device.c ****         } else if (p_cbw->total_bytes > 0) {
 520:SynaptiX_FDK/lib/tinyusb/src/class/msc/msc_device.c ****           if (SCSI_CMD_READ_10 == p_cbw->command[0]) {
 521:SynaptiX_FDK/lib/tinyusb/src/class/msc/msc_device.c ****             proc_read10_cmd(p_msc);
 522:SynaptiX_FDK/lib/tinyusb/src/class/msc/msc_device.c ****           } else {
 523:SynaptiX_FDK/lib/tinyusb/src/class/msc/msc_device.c ****             proc_write10_cmd(p_msc);
 524:SynaptiX_FDK/lib/tinyusb/src/class/msc/msc_device.c ****           }
 525:SynaptiX_FDK/lib/tinyusb/src/class/msc/msc_device.c ****         } else {
 526:SynaptiX_FDK/lib/tinyusb/src/class/msc/msc_device.c ****           // no data transfer, only exist in complaint test suite
 527:SynaptiX_FDK/lib/tinyusb/src/class/msc/msc_device.c ****           p_msc->stage = MSC_STAGE_STATUS;
 528:SynaptiX_FDK/lib/tinyusb/src/class/msc/msc_device.c ****         }
 529:SynaptiX_FDK/lib/tinyusb/src/class/msc/msc_device.c ****       } else {
 530:SynaptiX_FDK/lib/tinyusb/src/class/msc/msc_device.c ****         // For other SCSI commands
 531:SynaptiX_FDK/lib/tinyusb/src/class/msc/msc_device.c ****         // 1. OUT : queue transfer (invoke app callback after done)
 532:SynaptiX_FDK/lib/tinyusb/src/class/msc/msc_device.c ****         // 2. IN & Zero: Process if is built-in, else Invoke app callback. Skip DATA if zero length
 533:SynaptiX_FDK/lib/tinyusb/src/class/msc/msc_device.c ****         if ((p_cbw->total_bytes > 0) && !is_data_in(p_cbw->dir)) {
 534:SynaptiX_FDK/lib/tinyusb/src/class/msc/msc_device.c ****           if (p_cbw->total_bytes > CFG_TUD_MSC_EP_BUFSIZE) {
 535:SynaptiX_FDK/lib/tinyusb/src/class/msc/msc_device.c ****             TU_LOG_DRV("  SCSI reject non READ10/WRITE10 with large data\r\n");
 536:SynaptiX_FDK/lib/tinyusb/src/class/msc/msc_device.c ****             fail_scsi_op(p_msc, MSC_CSW_STATUS_FAILED);
 537:SynaptiX_FDK/lib/tinyusb/src/class/msc/msc_device.c ****           } else {
 538:SynaptiX_FDK/lib/tinyusb/src/class/msc/msc_device.c ****             // Didn't check for case 9 (Ho > Dn), which requires examining scsi command first
 539:SynaptiX_FDK/lib/tinyusb/src/class/msc/msc_device.c ****             // but it is OK to just receive data then responded with failed status
 540:SynaptiX_FDK/lib/tinyusb/src/class/msc/msc_device.c ****             TU_ASSERT(usbd_edpt_xfer(rhport, p_msc->ep_out, _mscd_epbuf.buf, (uint16_t) p_msc->tota
 541:SynaptiX_FDK/lib/tinyusb/src/class/msc/msc_device.c ****           }
 542:SynaptiX_FDK/lib/tinyusb/src/class/msc/msc_device.c ****         } else {
 543:SynaptiX_FDK/lib/tinyusb/src/class/msc/msc_device.c ****           // First process if it is a built-in commands
 544:SynaptiX_FDK/lib/tinyusb/src/class/msc/msc_device.c ****           int32_t resplen = proc_builtin_scsi(p_cbw->lun, p_cbw->command, _mscd_epbuf.buf, CFG_TUD_
 545:SynaptiX_FDK/lib/tinyusb/src/class/msc/msc_device.c **** 
 546:SynaptiX_FDK/lib/tinyusb/src/class/msc/msc_device.c ****           // Invoke user callback if not built-in
 547:SynaptiX_FDK/lib/tinyusb/src/class/msc/msc_device.c ****           if ((resplen < 0) && (p_msc->sense_key == 0)) {
 548:SynaptiX_FDK/lib/tinyusb/src/class/msc/msc_device.c ****             resplen = tud_msc_scsi_cb(p_cbw->lun, p_cbw->command, _mscd_epbuf.buf, (uint16_t)p_msc-
 549:SynaptiX_FDK/lib/tinyusb/src/class/msc/msc_device.c ****           }
 550:SynaptiX_FDK/lib/tinyusb/src/class/msc/msc_device.c **** 
 551:SynaptiX_FDK/lib/tinyusb/src/class/msc/msc_device.c ****           if (resplen < 0) {
 552:SynaptiX_FDK/lib/tinyusb/src/class/msc/msc_device.c ****             // unsupported command
 553:SynaptiX_FDK/lib/tinyusb/src/class/msc/msc_device.c ****             TU_LOG_DRV("  SCSI unsupported or failed command\r\n");
 554:SynaptiX_FDK/lib/tinyusb/src/class/msc/msc_device.c ****             fail_scsi_op(p_msc, MSC_CSW_STATUS_FAILED);
 555:SynaptiX_FDK/lib/tinyusb/src/class/msc/msc_device.c ****           } else if (resplen == 0) {
 556:SynaptiX_FDK/lib/tinyusb/src/class/msc/msc_device.c ****             if (p_cbw->total_bytes > 0) {
 557:SynaptiX_FDK/lib/tinyusb/src/class/msc/msc_device.c ****               // 6.7 The 13 Cases: case 4 (Hi > Dn)
ARM GAS  C:\Users\LENOVO\AppData\Local\Temp\cc8CFzeV.s 			page 33


 558:SynaptiX_FDK/lib/tinyusb/src/class/msc/msc_device.c ****               // TU_LOG_DRV("  SCSI case 4 (Hi > Dn): %lu\r\n", p_cbw->total_bytes);
 559:SynaptiX_FDK/lib/tinyusb/src/class/msc/msc_device.c ****               fail_scsi_op(p_msc, MSC_CSW_STATUS_FAILED);
 560:SynaptiX_FDK/lib/tinyusb/src/class/msc/msc_device.c ****             } else {
 561:SynaptiX_FDK/lib/tinyusb/src/class/msc/msc_device.c ****               // case 1 Hn = Dn: all good
 562:SynaptiX_FDK/lib/tinyusb/src/class/msc/msc_device.c ****               p_msc->stage = MSC_STAGE_STATUS;
 563:SynaptiX_FDK/lib/tinyusb/src/class/msc/msc_device.c ****             }
 564:SynaptiX_FDK/lib/tinyusb/src/class/msc/msc_device.c ****           } else {
 565:SynaptiX_FDK/lib/tinyusb/src/class/msc/msc_device.c ****             if (p_cbw->total_bytes == 0) {
 566:SynaptiX_FDK/lib/tinyusb/src/class/msc/msc_device.c ****               // 6.7 The 13 Cases: case 2 (Hn < Di)
 567:SynaptiX_FDK/lib/tinyusb/src/class/msc/msc_device.c ****               // TU_LOG_DRV("  SCSI case 2 (Hn < Di): %lu\r\n", p_cbw->total_bytes);
 568:SynaptiX_FDK/lib/tinyusb/src/class/msc/msc_device.c ****               fail_scsi_op(p_msc, MSC_CSW_STATUS_FAILED);
 569:SynaptiX_FDK/lib/tinyusb/src/class/msc/msc_device.c ****             } else {
 570:SynaptiX_FDK/lib/tinyusb/src/class/msc/msc_device.c ****               // cannot return more than host expect
 571:SynaptiX_FDK/lib/tinyusb/src/class/msc/msc_device.c ****               p_msc->total_len = tu_min32((uint32_t)resplen, p_cbw->total_bytes);
 572:SynaptiX_FDK/lib/tinyusb/src/class/msc/msc_device.c ****               TU_ASSERT(usbd_edpt_xfer(rhport, p_msc->ep_in, _mscd_epbuf.buf, (uint16_t) p_msc->tot
 573:SynaptiX_FDK/lib/tinyusb/src/class/msc/msc_device.c ****             }
 574:SynaptiX_FDK/lib/tinyusb/src/class/msc/msc_device.c ****           }
 575:SynaptiX_FDK/lib/tinyusb/src/class/msc/msc_device.c ****         }
 576:SynaptiX_FDK/lib/tinyusb/src/class/msc/msc_device.c ****       }
 577:SynaptiX_FDK/lib/tinyusb/src/class/msc/msc_device.c ****       break;
 578:SynaptiX_FDK/lib/tinyusb/src/class/msc/msc_device.c ****     }
 579:SynaptiX_FDK/lib/tinyusb/src/class/msc/msc_device.c **** 
 580:SynaptiX_FDK/lib/tinyusb/src/class/msc/msc_device.c ****     case MSC_STAGE_DATA:
 581:SynaptiX_FDK/lib/tinyusb/src/class/msc/msc_device.c ****       TU_LOG_DRV("  SCSI Data [Lun%u]\r\n", p_cbw->lun);
 582:SynaptiX_FDK/lib/tinyusb/src/class/msc/msc_device.c ****       TU_ASSERT(xferred_bytes <= CFG_TUD_MSC_EP_BUFSIZE); // sanity check to avoid buffer overflow
 583:SynaptiX_FDK/lib/tinyusb/src/class/msc/msc_device.c ****       // TU_LOG_MEM(CFG_TUD_MSC_LOG_LEVEL, _mscd_epbuf.buf, xferred_bytes, 2);
 584:SynaptiX_FDK/lib/tinyusb/src/class/msc/msc_device.c **** 
 585:SynaptiX_FDK/lib/tinyusb/src/class/msc/msc_device.c ****       if (SCSI_CMD_READ_10 == p_cbw->command[0]) {
 586:SynaptiX_FDK/lib/tinyusb/src/class/msc/msc_device.c ****         p_msc->xferred_len += xferred_bytes;
 587:SynaptiX_FDK/lib/tinyusb/src/class/msc/msc_device.c **** 
 588:SynaptiX_FDK/lib/tinyusb/src/class/msc/msc_device.c ****         if ( p_msc->xferred_len >= p_msc->total_len ) {
 589:SynaptiX_FDK/lib/tinyusb/src/class/msc/msc_device.c ****           // Data Stage is complete
 590:SynaptiX_FDK/lib/tinyusb/src/class/msc/msc_device.c ****           p_msc->stage = MSC_STAGE_STATUS;
 591:SynaptiX_FDK/lib/tinyusb/src/class/msc/msc_device.c ****         }else {
 592:SynaptiX_FDK/lib/tinyusb/src/class/msc/msc_device.c ****           proc_read10_cmd(p_msc);
 593:SynaptiX_FDK/lib/tinyusb/src/class/msc/msc_device.c ****         }
 594:SynaptiX_FDK/lib/tinyusb/src/class/msc/msc_device.c ****       } else if (SCSI_CMD_WRITE_10 == p_cbw->command[0]) {
 595:SynaptiX_FDK/lib/tinyusb/src/class/msc/msc_device.c ****         proc_write10_host_data(p_msc, xferred_bytes);
 596:SynaptiX_FDK/lib/tinyusb/src/class/msc/msc_device.c ****       } else {
 597:SynaptiX_FDK/lib/tinyusb/src/class/msc/msc_device.c ****         p_msc->xferred_len += xferred_bytes;
 598:SynaptiX_FDK/lib/tinyusb/src/class/msc/msc_device.c **** 
 599:SynaptiX_FDK/lib/tinyusb/src/class/msc/msc_device.c ****         // OUT transfer, invoke callback if needed
 600:SynaptiX_FDK/lib/tinyusb/src/class/msc/msc_device.c ****         if ( !is_data_in(p_cbw->dir) ) {
 601:SynaptiX_FDK/lib/tinyusb/src/class/msc/msc_device.c ****           int32_t cb_result = tud_msc_scsi_cb(p_cbw->lun, p_cbw->command, _mscd_epbuf.buf, (uint16_
 602:SynaptiX_FDK/lib/tinyusb/src/class/msc/msc_device.c **** 
 603:SynaptiX_FDK/lib/tinyusb/src/class/msc/msc_device.c ****           if ( cb_result < 0 ) {
 604:SynaptiX_FDK/lib/tinyusb/src/class/msc/msc_device.c ****             // unsupported command
 605:SynaptiX_FDK/lib/tinyusb/src/class/msc/msc_device.c ****             TU_LOG_DRV("  SCSI unsupported command\r\n");
 606:SynaptiX_FDK/lib/tinyusb/src/class/msc/msc_device.c ****             fail_scsi_op(p_msc, MSC_CSW_STATUS_FAILED);
 607:SynaptiX_FDK/lib/tinyusb/src/class/msc/msc_device.c ****           }else {
 608:SynaptiX_FDK/lib/tinyusb/src/class/msc/msc_device.c ****             // TODO haven't implement this scenario any further yet
 609:SynaptiX_FDK/lib/tinyusb/src/class/msc/msc_device.c ****           }
 610:SynaptiX_FDK/lib/tinyusb/src/class/msc/msc_device.c ****         }
 611:SynaptiX_FDK/lib/tinyusb/src/class/msc/msc_device.c **** 
 612:SynaptiX_FDK/lib/tinyusb/src/class/msc/msc_device.c ****         if ( p_msc->xferred_len >= p_msc->total_len ) {
 613:SynaptiX_FDK/lib/tinyusb/src/class/msc/msc_device.c ****           // Data Stage is complete
 614:SynaptiX_FDK/lib/tinyusb/src/class/msc/msc_device.c ****           p_msc->stage = MSC_STAGE_STATUS;
ARM GAS  C:\Users\LENOVO\AppData\Local\Temp\cc8CFzeV.s 			page 34


 615:SynaptiX_FDK/lib/tinyusb/src/class/msc/msc_device.c ****         } else {
 616:SynaptiX_FDK/lib/tinyusb/src/class/msc/msc_device.c ****           // This scenario with command that take more than one transfer is already rejected at Com
 617:SynaptiX_FDK/lib/tinyusb/src/class/msc/msc_device.c ****           TU_BREAKPOINT();
 618:SynaptiX_FDK/lib/tinyusb/src/class/msc/msc_device.c ****         }
 619:SynaptiX_FDK/lib/tinyusb/src/class/msc/msc_device.c ****       }
 620:SynaptiX_FDK/lib/tinyusb/src/class/msc/msc_device.c ****     break;
 621:SynaptiX_FDK/lib/tinyusb/src/class/msc/msc_device.c **** 
 622:SynaptiX_FDK/lib/tinyusb/src/class/msc/msc_device.c ****     case MSC_STAGE_STATUS:
 623:SynaptiX_FDK/lib/tinyusb/src/class/msc/msc_device.c ****       // processed immediately after this switch, supposedly to be empty
 624:SynaptiX_FDK/lib/tinyusb/src/class/msc/msc_device.c ****     break;
 625:SynaptiX_FDK/lib/tinyusb/src/class/msc/msc_device.c **** 
 626:SynaptiX_FDK/lib/tinyusb/src/class/msc/msc_device.c ****     case MSC_STAGE_STATUS_SENT:
 627:SynaptiX_FDK/lib/tinyusb/src/class/msc/msc_device.c ****       // Status phase is complete
 628:SynaptiX_FDK/lib/tinyusb/src/class/msc/msc_device.c ****       if ((ep_addr == p_msc->ep_in) && (xferred_bytes == sizeof(msc_csw_t))) {
 629:SynaptiX_FDK/lib/tinyusb/src/class/msc/msc_device.c ****         TU_LOG_DRV("  SCSI Status [Lun%u] = %u\r\n", p_cbw->lun, p_csw->status);
 630:SynaptiX_FDK/lib/tinyusb/src/class/msc/msc_device.c ****         // TU_LOG_MEM(CFG_TUD_MSC_LOG_LEVEL, p_csw, xferred_bytes, 2);
 631:SynaptiX_FDK/lib/tinyusb/src/class/msc/msc_device.c **** 
 632:SynaptiX_FDK/lib/tinyusb/src/class/msc/msc_device.c ****         // Invoke complete callback if defined
 633:SynaptiX_FDK/lib/tinyusb/src/class/msc/msc_device.c ****         // Note: There is racing issue with samd51 + qspi flash testing with arduino
 634:SynaptiX_FDK/lib/tinyusb/src/class/msc/msc_device.c ****         // if complete_cb() is invoked after queuing the status.
 635:SynaptiX_FDK/lib/tinyusb/src/class/msc/msc_device.c ****         switch (p_cbw->command[0]) {
 636:SynaptiX_FDK/lib/tinyusb/src/class/msc/msc_device.c ****           case SCSI_CMD_READ_10:
 637:SynaptiX_FDK/lib/tinyusb/src/class/msc/msc_device.c ****             tud_msc_read10_complete_cb(p_cbw->lun);
 638:SynaptiX_FDK/lib/tinyusb/src/class/msc/msc_device.c ****             break;
 639:SynaptiX_FDK/lib/tinyusb/src/class/msc/msc_device.c **** 
 640:SynaptiX_FDK/lib/tinyusb/src/class/msc/msc_device.c ****           case SCSI_CMD_WRITE_10:
 641:SynaptiX_FDK/lib/tinyusb/src/class/msc/msc_device.c ****             tud_msc_write10_complete_cb(p_cbw->lun);
 642:SynaptiX_FDK/lib/tinyusb/src/class/msc/msc_device.c ****             break;
 643:SynaptiX_FDK/lib/tinyusb/src/class/msc/msc_device.c **** 
 644:SynaptiX_FDK/lib/tinyusb/src/class/msc/msc_device.c ****           default:
 645:SynaptiX_FDK/lib/tinyusb/src/class/msc/msc_device.c ****             tud_msc_scsi_complete_cb(p_cbw->lun, p_cbw->command);
 646:SynaptiX_FDK/lib/tinyusb/src/class/msc/msc_device.c ****             break;
 647:SynaptiX_FDK/lib/tinyusb/src/class/msc/msc_device.c ****         }
 648:SynaptiX_FDK/lib/tinyusb/src/class/msc/msc_device.c **** 
 649:SynaptiX_FDK/lib/tinyusb/src/class/msc/msc_device.c ****         if (!usbd_edpt_stalled(rhport, p_msc->ep_out)) {
 650:SynaptiX_FDK/lib/tinyusb/src/class/msc/msc_device.c ****           TU_ASSERT(prepare_cbw(p_msc));
 651:SynaptiX_FDK/lib/tinyusb/src/class/msc/msc_device.c ****         } else {
 652:SynaptiX_FDK/lib/tinyusb/src/class/msc/msc_device.c ****           p_msc->stage = MSC_STAGE_CMD;
 653:SynaptiX_FDK/lib/tinyusb/src/class/msc/msc_device.c ****         }
 654:SynaptiX_FDK/lib/tinyusb/src/class/msc/msc_device.c ****       } else {
 655:SynaptiX_FDK/lib/tinyusb/src/class/msc/msc_device.c ****         // Any xfer ended here is considered unknown error, ignore it
 656:SynaptiX_FDK/lib/tinyusb/src/class/msc/msc_device.c ****         TU_LOG1("  Warning expect SCSI Status but received unknown data\r\n");
 657:SynaptiX_FDK/lib/tinyusb/src/class/msc/msc_device.c ****       }
 658:SynaptiX_FDK/lib/tinyusb/src/class/msc/msc_device.c ****       break;
 659:SynaptiX_FDK/lib/tinyusb/src/class/msc/msc_device.c **** 
 660:SynaptiX_FDK/lib/tinyusb/src/class/msc/msc_device.c ****     default: break; // nothing to do
 661:SynaptiX_FDK/lib/tinyusb/src/class/msc/msc_device.c ****   }
 662:SynaptiX_FDK/lib/tinyusb/src/class/msc/msc_device.c **** 
 663:SynaptiX_FDK/lib/tinyusb/src/class/msc/msc_device.c ****   if (p_msc->stage == MSC_STAGE_STATUS) {
 664:SynaptiX_FDK/lib/tinyusb/src/class/msc/msc_device.c ****     TU_ASSERT(proc_stage_status(p_msc));
 665:SynaptiX_FDK/lib/tinyusb/src/class/msc/msc_device.c ****   }
 666:SynaptiX_FDK/lib/tinyusb/src/class/msc/msc_device.c **** 
 667:SynaptiX_FDK/lib/tinyusb/src/class/msc/msc_device.c ****   return true;
 668:SynaptiX_FDK/lib/tinyusb/src/class/msc/msc_device.c **** }
 669:SynaptiX_FDK/lib/tinyusb/src/class/msc/msc_device.c **** 
 670:SynaptiX_FDK/lib/tinyusb/src/class/msc/msc_device.c **** /*------------------------------------------------------------------*/
 671:SynaptiX_FDK/lib/tinyusb/src/class/msc/msc_device.c **** /* SCSI Command Process
ARM GAS  C:\Users\LENOVO\AppData\Local\Temp\cc8CFzeV.s 			page 35


 672:SynaptiX_FDK/lib/tinyusb/src/class/msc/msc_device.c ****  *------------------------------------------------------------------*/
 673:SynaptiX_FDK/lib/tinyusb/src/class/msc/msc_device.c **** 
 674:SynaptiX_FDK/lib/tinyusb/src/class/msc/msc_device.c **** // return response's length (copied to buffer). Negative if it is not an built-in command or indica
 675:SynaptiX_FDK/lib/tinyusb/src/class/msc/msc_device.c **** // In case of a failed status, sense key must be set for reason of failure
 676:SynaptiX_FDK/lib/tinyusb/src/class/msc/msc_device.c **** static int32_t proc_builtin_scsi(uint8_t lun, uint8_t const scsi_cmd[16], uint8_t* buffer, uint32_t
 677:SynaptiX_FDK/lib/tinyusb/src/class/msc/msc_device.c ****   (void)bufsize; // TODO refractor later
 678:SynaptiX_FDK/lib/tinyusb/src/class/msc/msc_device.c ****   int32_t resplen;
 679:SynaptiX_FDK/lib/tinyusb/src/class/msc/msc_device.c **** 
 680:SynaptiX_FDK/lib/tinyusb/src/class/msc/msc_device.c ****   mscd_interface_t* p_msc = &_mscd_itf;
 681:SynaptiX_FDK/lib/tinyusb/src/class/msc/msc_device.c **** 
 682:SynaptiX_FDK/lib/tinyusb/src/class/msc/msc_device.c ****   switch (scsi_cmd[0]) {
 683:SynaptiX_FDK/lib/tinyusb/src/class/msc/msc_device.c ****     case SCSI_CMD_TEST_UNIT_READY:
 684:SynaptiX_FDK/lib/tinyusb/src/class/msc/msc_device.c ****       resplen = 0;
 685:SynaptiX_FDK/lib/tinyusb/src/class/msc/msc_device.c ****       if (!tud_msc_test_unit_ready_cb(lun)) {
 686:SynaptiX_FDK/lib/tinyusb/src/class/msc/msc_device.c ****         // Failed status response
 687:SynaptiX_FDK/lib/tinyusb/src/class/msc/msc_device.c ****         resplen = -1;
 688:SynaptiX_FDK/lib/tinyusb/src/class/msc/msc_device.c **** 
 689:SynaptiX_FDK/lib/tinyusb/src/class/msc/msc_device.c ****         // set default sense if not set by callback
 690:SynaptiX_FDK/lib/tinyusb/src/class/msc/msc_device.c ****         if (p_msc->sense_key == 0) {
 691:SynaptiX_FDK/lib/tinyusb/src/class/msc/msc_device.c ****           set_sense_medium_not_present(lun);
 692:SynaptiX_FDK/lib/tinyusb/src/class/msc/msc_device.c ****         }
 693:SynaptiX_FDK/lib/tinyusb/src/class/msc/msc_device.c ****       }
 694:SynaptiX_FDK/lib/tinyusb/src/class/msc/msc_device.c ****       break;
 695:SynaptiX_FDK/lib/tinyusb/src/class/msc/msc_device.c **** 
 696:SynaptiX_FDK/lib/tinyusb/src/class/msc/msc_device.c ****     case SCSI_CMD_START_STOP_UNIT: {
 697:SynaptiX_FDK/lib/tinyusb/src/class/msc/msc_device.c ****       resplen = 0;
 698:SynaptiX_FDK/lib/tinyusb/src/class/msc/msc_device.c ****       scsi_start_stop_unit_t const* start_stop = (scsi_start_stop_unit_t const*)scsi_cmd;
 699:SynaptiX_FDK/lib/tinyusb/src/class/msc/msc_device.c ****       if (!tud_msc_start_stop_cb(lun, start_stop->power_condition, start_stop->start, start_stop->l
 700:SynaptiX_FDK/lib/tinyusb/src/class/msc/msc_device.c ****         // Failed status response
 701:SynaptiX_FDK/lib/tinyusb/src/class/msc/msc_device.c ****         resplen = -1;
 702:SynaptiX_FDK/lib/tinyusb/src/class/msc/msc_device.c **** 
 703:SynaptiX_FDK/lib/tinyusb/src/class/msc/msc_device.c ****         // set default sense if not set by callback
 704:SynaptiX_FDK/lib/tinyusb/src/class/msc/msc_device.c ****         if (p_msc->sense_key == 0) {
 705:SynaptiX_FDK/lib/tinyusb/src/class/msc/msc_device.c ****           set_sense_medium_not_present(lun);
 706:SynaptiX_FDK/lib/tinyusb/src/class/msc/msc_device.c ****         }
 707:SynaptiX_FDK/lib/tinyusb/src/class/msc/msc_device.c ****       }
 708:SynaptiX_FDK/lib/tinyusb/src/class/msc/msc_device.c ****       break;
 709:SynaptiX_FDK/lib/tinyusb/src/class/msc/msc_device.c ****     }
 710:SynaptiX_FDK/lib/tinyusb/src/class/msc/msc_device.c **** 
 711:SynaptiX_FDK/lib/tinyusb/src/class/msc/msc_device.c ****     case SCSI_CMD_PREVENT_ALLOW_MEDIUM_REMOVAL: {
 712:SynaptiX_FDK/lib/tinyusb/src/class/msc/msc_device.c ****       resplen = 0;
 713:SynaptiX_FDK/lib/tinyusb/src/class/msc/msc_device.c ****       scsi_prevent_allow_medium_removal_t const* prevent_allow = (scsi_prevent_allow_medium_removal
 714:SynaptiX_FDK/lib/tinyusb/src/class/msc/msc_device.c ****       if (!tud_msc_prevent_allow_medium_removal_cb(lun, prevent_allow->prohibit_removal, prevent_al
 715:SynaptiX_FDK/lib/tinyusb/src/class/msc/msc_device.c ****         // Failed status response
 716:SynaptiX_FDK/lib/tinyusb/src/class/msc/msc_device.c ****         resplen = -1;
 717:SynaptiX_FDK/lib/tinyusb/src/class/msc/msc_device.c **** 
 718:SynaptiX_FDK/lib/tinyusb/src/class/msc/msc_device.c ****         // set default sense if not set by callback
 719:SynaptiX_FDK/lib/tinyusb/src/class/msc/msc_device.c ****         if (p_msc->sense_key == 0) {
 720:SynaptiX_FDK/lib/tinyusb/src/class/msc/msc_device.c ****           set_sense_medium_not_present(lun);
 721:SynaptiX_FDK/lib/tinyusb/src/class/msc/msc_device.c ****         }
 722:SynaptiX_FDK/lib/tinyusb/src/class/msc/msc_device.c ****       }
 723:SynaptiX_FDK/lib/tinyusb/src/class/msc/msc_device.c ****       break;
 724:SynaptiX_FDK/lib/tinyusb/src/class/msc/msc_device.c ****     }
 725:SynaptiX_FDK/lib/tinyusb/src/class/msc/msc_device.c **** 
 726:SynaptiX_FDK/lib/tinyusb/src/class/msc/msc_device.c ****     case SCSI_CMD_READ_CAPACITY_10: {
 727:SynaptiX_FDK/lib/tinyusb/src/class/msc/msc_device.c ****       uint32_t block_count;
 728:SynaptiX_FDK/lib/tinyusb/src/class/msc/msc_device.c ****       uint32_t block_size;
ARM GAS  C:\Users\LENOVO\AppData\Local\Temp\cc8CFzeV.s 			page 36


 729:SynaptiX_FDK/lib/tinyusb/src/class/msc/msc_device.c ****       uint16_t block_size_u16;
 730:SynaptiX_FDK/lib/tinyusb/src/class/msc/msc_device.c **** 
 731:SynaptiX_FDK/lib/tinyusb/src/class/msc/msc_device.c ****       tud_msc_capacity_cb(lun, &block_count, &block_size_u16);
 732:SynaptiX_FDK/lib/tinyusb/src/class/msc/msc_device.c ****       block_size = (uint32_t)block_size_u16;
 733:SynaptiX_FDK/lib/tinyusb/src/class/msc/msc_device.c **** 
 734:SynaptiX_FDK/lib/tinyusb/src/class/msc/msc_device.c ****       // Invalid block size/count from callback, possibly unit is not ready
 735:SynaptiX_FDK/lib/tinyusb/src/class/msc/msc_device.c ****       // stall this request, set sense key to NOT READY
 736:SynaptiX_FDK/lib/tinyusb/src/class/msc/msc_device.c ****       if (block_count == 0 || block_size == 0) {
 737:SynaptiX_FDK/lib/tinyusb/src/class/msc/msc_device.c ****         resplen = -1;
 738:SynaptiX_FDK/lib/tinyusb/src/class/msc/msc_device.c **** 
 739:SynaptiX_FDK/lib/tinyusb/src/class/msc/msc_device.c ****         // set default sense if not set by callback
 740:SynaptiX_FDK/lib/tinyusb/src/class/msc/msc_device.c ****         if (p_msc->sense_key == 0) {
 741:SynaptiX_FDK/lib/tinyusb/src/class/msc/msc_device.c ****           set_sense_medium_not_present(lun);
 742:SynaptiX_FDK/lib/tinyusb/src/class/msc/msc_device.c ****         }
 743:SynaptiX_FDK/lib/tinyusb/src/class/msc/msc_device.c ****       } else {
 744:SynaptiX_FDK/lib/tinyusb/src/class/msc/msc_device.c ****         scsi_read_capacity10_resp_t read_capa10;
 745:SynaptiX_FDK/lib/tinyusb/src/class/msc/msc_device.c **** 
 746:SynaptiX_FDK/lib/tinyusb/src/class/msc/msc_device.c ****         read_capa10.last_lba = tu_htonl(block_count-1);
 747:SynaptiX_FDK/lib/tinyusb/src/class/msc/msc_device.c ****         read_capa10.block_size = tu_htonl(block_size);
 748:SynaptiX_FDK/lib/tinyusb/src/class/msc/msc_device.c **** 
 749:SynaptiX_FDK/lib/tinyusb/src/class/msc/msc_device.c ****         resplen = sizeof(read_capa10);
 750:SynaptiX_FDK/lib/tinyusb/src/class/msc/msc_device.c ****         TU_VERIFY(0 == tu_memcpy_s(buffer, bufsize, &read_capa10, (size_t) resplen));
 751:SynaptiX_FDK/lib/tinyusb/src/class/msc/msc_device.c ****       }
 752:SynaptiX_FDK/lib/tinyusb/src/class/msc/msc_device.c ****       break;
 753:SynaptiX_FDK/lib/tinyusb/src/class/msc/msc_device.c ****     }
 754:SynaptiX_FDK/lib/tinyusb/src/class/msc/msc_device.c **** 
 755:SynaptiX_FDK/lib/tinyusb/src/class/msc/msc_device.c ****     case SCSI_CMD_READ_FORMAT_CAPACITY: {
 756:SynaptiX_FDK/lib/tinyusb/src/class/msc/msc_device.c ****       scsi_read_format_capacity_data_t read_fmt_capa = {
 757:SynaptiX_FDK/lib/tinyusb/src/class/msc/msc_device.c ****         .list_length = 8,
 758:SynaptiX_FDK/lib/tinyusb/src/class/msc/msc_device.c ****         .block_num = 0,
 759:SynaptiX_FDK/lib/tinyusb/src/class/msc/msc_device.c ****         .descriptor_type = 2, // formatted media
 760:SynaptiX_FDK/lib/tinyusb/src/class/msc/msc_device.c ****         .block_size_u16 = 0
 761:SynaptiX_FDK/lib/tinyusb/src/class/msc/msc_device.c ****       };
 762:SynaptiX_FDK/lib/tinyusb/src/class/msc/msc_device.c **** 
 763:SynaptiX_FDK/lib/tinyusb/src/class/msc/msc_device.c ****       uint32_t block_count;
 764:SynaptiX_FDK/lib/tinyusb/src/class/msc/msc_device.c ****       uint16_t block_size;
 765:SynaptiX_FDK/lib/tinyusb/src/class/msc/msc_device.c **** 
 766:SynaptiX_FDK/lib/tinyusb/src/class/msc/msc_device.c ****       tud_msc_capacity_cb(lun, &block_count, &block_size);
 767:SynaptiX_FDK/lib/tinyusb/src/class/msc/msc_device.c **** 
 768:SynaptiX_FDK/lib/tinyusb/src/class/msc/msc_device.c ****       // Invalid block size/count from callback, possibly unit is not ready
 769:SynaptiX_FDK/lib/tinyusb/src/class/msc/msc_device.c ****       // stall this request, set sense key to NOT READY
 770:SynaptiX_FDK/lib/tinyusb/src/class/msc/msc_device.c ****       if (block_count == 0 || block_size == 0) {
 771:SynaptiX_FDK/lib/tinyusb/src/class/msc/msc_device.c ****         resplen = -1;
 772:SynaptiX_FDK/lib/tinyusb/src/class/msc/msc_device.c **** 
 773:SynaptiX_FDK/lib/tinyusb/src/class/msc/msc_device.c ****         // set default sense if not set by callback
 774:SynaptiX_FDK/lib/tinyusb/src/class/msc/msc_device.c ****         if (p_msc->sense_key == 0) {
 775:SynaptiX_FDK/lib/tinyusb/src/class/msc/msc_device.c ****           set_sense_medium_not_present(lun);
 776:SynaptiX_FDK/lib/tinyusb/src/class/msc/msc_device.c ****         }
 777:SynaptiX_FDK/lib/tinyusb/src/class/msc/msc_device.c ****       } else {
 778:SynaptiX_FDK/lib/tinyusb/src/class/msc/msc_device.c ****         read_fmt_capa.block_num = tu_htonl(block_count);
 779:SynaptiX_FDK/lib/tinyusb/src/class/msc/msc_device.c ****         read_fmt_capa.block_size_u16 = tu_htons(block_size);
 780:SynaptiX_FDK/lib/tinyusb/src/class/msc/msc_device.c **** 
 781:SynaptiX_FDK/lib/tinyusb/src/class/msc/msc_device.c ****         resplen = sizeof(read_fmt_capa);
 782:SynaptiX_FDK/lib/tinyusb/src/class/msc/msc_device.c ****         TU_VERIFY(0 == tu_memcpy_s(buffer, bufsize, &read_fmt_capa, (size_t) resplen));
 783:SynaptiX_FDK/lib/tinyusb/src/class/msc/msc_device.c ****       }
 784:SynaptiX_FDK/lib/tinyusb/src/class/msc/msc_device.c ****       break;
 785:SynaptiX_FDK/lib/tinyusb/src/class/msc/msc_device.c ****     }
ARM GAS  C:\Users\LENOVO\AppData\Local\Temp\cc8CFzeV.s 			page 37


 786:SynaptiX_FDK/lib/tinyusb/src/class/msc/msc_device.c **** 
 787:SynaptiX_FDK/lib/tinyusb/src/class/msc/msc_device.c ****     case SCSI_CMD_INQUIRY: {
 788:SynaptiX_FDK/lib/tinyusb/src/class/msc/msc_device.c ****       scsi_inquiry_resp_t *inquiry_rsp = (scsi_inquiry_resp_t *) buffer;
 789:SynaptiX_FDK/lib/tinyusb/src/class/msc/msc_device.c ****       tu_memclr(inquiry_rsp, sizeof(scsi_inquiry_resp_t));
 790:SynaptiX_FDK/lib/tinyusb/src/class/msc/msc_device.c ****       inquiry_rsp->is_removable = 1;
 791:SynaptiX_FDK/lib/tinyusb/src/class/msc/msc_device.c ****       inquiry_rsp->version = 2;
 792:SynaptiX_FDK/lib/tinyusb/src/class/msc/msc_device.c ****       inquiry_rsp->response_data_format = 2;
 793:SynaptiX_FDK/lib/tinyusb/src/class/msc/msc_device.c ****       inquiry_rsp->additional_length = sizeof(scsi_inquiry_resp_t) - 5;
 794:SynaptiX_FDK/lib/tinyusb/src/class/msc/msc_device.c **** 
 795:SynaptiX_FDK/lib/tinyusb/src/class/msc/msc_device.c ****       resplen = (int32_t) tud_msc_inquiry2_cb(lun, inquiry_rsp, bufsize);
 796:SynaptiX_FDK/lib/tinyusb/src/class/msc/msc_device.c ****       if (resplen == 0) {
 797:SynaptiX_FDK/lib/tinyusb/src/class/msc/msc_device.c ****         // stub callback with no response, use v1 callback
 798:SynaptiX_FDK/lib/tinyusb/src/class/msc/msc_device.c ****         tud_msc_inquiry_cb(lun, inquiry_rsp->vendor_id, inquiry_rsp->product_id, inquiry_rsp->produ
 799:SynaptiX_FDK/lib/tinyusb/src/class/msc/msc_device.c ****         resplen = sizeof(scsi_inquiry_resp_t);
 800:SynaptiX_FDK/lib/tinyusb/src/class/msc/msc_device.c ****       }
 801:SynaptiX_FDK/lib/tinyusb/src/class/msc/msc_device.c ****       break;
 802:SynaptiX_FDK/lib/tinyusb/src/class/msc/msc_device.c ****     }
 803:SynaptiX_FDK/lib/tinyusb/src/class/msc/msc_device.c **** 
 804:SynaptiX_FDK/lib/tinyusb/src/class/msc/msc_device.c ****     case SCSI_CMD_MODE_SENSE_6: {
 805:SynaptiX_FDK/lib/tinyusb/src/class/msc/msc_device.c ****       scsi_mode_sense6_resp_t mode_resp = {
 806:SynaptiX_FDK/lib/tinyusb/src/class/msc/msc_device.c ****         .data_len = 3,
 807:SynaptiX_FDK/lib/tinyusb/src/class/msc/msc_device.c ****         .medium_type = 0,
 808:SynaptiX_FDK/lib/tinyusb/src/class/msc/msc_device.c ****         .write_protected = false,
 809:SynaptiX_FDK/lib/tinyusb/src/class/msc/msc_device.c ****         .reserved = 0,
 810:SynaptiX_FDK/lib/tinyusb/src/class/msc/msc_device.c ****         .block_descriptor_len = 0 // no block descriptor are included
 811:SynaptiX_FDK/lib/tinyusb/src/class/msc/msc_device.c ****       };
 812:SynaptiX_FDK/lib/tinyusb/src/class/msc/msc_device.c **** 
 813:SynaptiX_FDK/lib/tinyusb/src/class/msc/msc_device.c ****       bool writable = tud_msc_is_writable_cb(lun);
 814:SynaptiX_FDK/lib/tinyusb/src/class/msc/msc_device.c **** 
 815:SynaptiX_FDK/lib/tinyusb/src/class/msc/msc_device.c ****       mode_resp.write_protected = !writable;
 816:SynaptiX_FDK/lib/tinyusb/src/class/msc/msc_device.c **** 
 817:SynaptiX_FDK/lib/tinyusb/src/class/msc/msc_device.c ****       resplen = sizeof(mode_resp);
 818:SynaptiX_FDK/lib/tinyusb/src/class/msc/msc_device.c ****       TU_VERIFY(0 == tu_memcpy_s(buffer, bufsize, &mode_resp, (size_t) resplen));
 819:SynaptiX_FDK/lib/tinyusb/src/class/msc/msc_device.c ****       break;
 820:SynaptiX_FDK/lib/tinyusb/src/class/msc/msc_device.c ****     }
 821:SynaptiX_FDK/lib/tinyusb/src/class/msc/msc_device.c **** 
 822:SynaptiX_FDK/lib/tinyusb/src/class/msc/msc_device.c ****     case SCSI_CMD_REQUEST_SENSE: {
 823:SynaptiX_FDK/lib/tinyusb/src/class/msc/msc_device.c ****       scsi_sense_fixed_resp_t sense_rsp = {
 824:SynaptiX_FDK/lib/tinyusb/src/class/msc/msc_device.c ****         .response_code = 0x70, // current, fixed format
 825:SynaptiX_FDK/lib/tinyusb/src/class/msc/msc_device.c ****         .valid = 1
 826:SynaptiX_FDK/lib/tinyusb/src/class/msc/msc_device.c ****       };
 827:SynaptiX_FDK/lib/tinyusb/src/class/msc/msc_device.c **** 
 828:SynaptiX_FDK/lib/tinyusb/src/class/msc/msc_device.c ****       sense_rsp.add_sense_len = sizeof(scsi_sense_fixed_resp_t) - 8;
 829:SynaptiX_FDK/lib/tinyusb/src/class/msc/msc_device.c ****       sense_rsp.sense_key = (uint8_t)(p_msc->sense_key & 0x0F);
 830:SynaptiX_FDK/lib/tinyusb/src/class/msc/msc_device.c ****       sense_rsp.add_sense_code = p_msc->add_sense_code;
 831:SynaptiX_FDK/lib/tinyusb/src/class/msc/msc_device.c ****       sense_rsp.add_sense_qualifier = p_msc->add_sense_qualifier;
 832:SynaptiX_FDK/lib/tinyusb/src/class/msc/msc_device.c **** 
 833:SynaptiX_FDK/lib/tinyusb/src/class/msc/msc_device.c ****       resplen = sizeof(sense_rsp);
 834:SynaptiX_FDK/lib/tinyusb/src/class/msc/msc_device.c ****       TU_VERIFY(0 == tu_memcpy_s(buffer, bufsize, &sense_rsp, (size_t) resplen));
 835:SynaptiX_FDK/lib/tinyusb/src/class/msc/msc_device.c **** 
 836:SynaptiX_FDK/lib/tinyusb/src/class/msc/msc_device.c ****       // request sense callback could overwrite the sense data
 837:SynaptiX_FDK/lib/tinyusb/src/class/msc/msc_device.c ****       resplen = tud_msc_request_sense_cb(lun, buffer, (uint16_t)bufsize);
 838:SynaptiX_FDK/lib/tinyusb/src/class/msc/msc_device.c **** 
 839:SynaptiX_FDK/lib/tinyusb/src/class/msc/msc_device.c ****       // Clear sense data after copy
 840:SynaptiX_FDK/lib/tinyusb/src/class/msc/msc_device.c ****       (void) tud_msc_set_sense(lun, 0, 0, 0);
 841:SynaptiX_FDK/lib/tinyusb/src/class/msc/msc_device.c ****       break;
 842:SynaptiX_FDK/lib/tinyusb/src/class/msc/msc_device.c ****     }
ARM GAS  C:\Users\LENOVO\AppData\Local\Temp\cc8CFzeV.s 			page 38


 843:SynaptiX_FDK/lib/tinyusb/src/class/msc/msc_device.c **** 
 844:SynaptiX_FDK/lib/tinyusb/src/class/msc/msc_device.c ****     default: resplen = -1;
 845:SynaptiX_FDK/lib/tinyusb/src/class/msc/msc_device.c ****       break;
 846:SynaptiX_FDK/lib/tinyusb/src/class/msc/msc_device.c ****   }
 847:SynaptiX_FDK/lib/tinyusb/src/class/msc/msc_device.c **** 
 848:SynaptiX_FDK/lib/tinyusb/src/class/msc/msc_device.c ****   return resplen;
 849:SynaptiX_FDK/lib/tinyusb/src/class/msc/msc_device.c **** }
 850:SynaptiX_FDK/lib/tinyusb/src/class/msc/msc_device.c **** 
 851:SynaptiX_FDK/lib/tinyusb/src/class/msc/msc_device.c **** static void proc_read10_cmd(mscd_interface_t* p_msc) {
 852:SynaptiX_FDK/lib/tinyusb/src/class/msc/msc_device.c ****   msc_cbw_t const* p_cbw = &p_msc->cbw;
 853:SynaptiX_FDK/lib/tinyusb/src/class/msc/msc_device.c ****   uint16_t const block_sz = rdwr10_get_blocksize(p_cbw); // already verified non-zero
 854:SynaptiX_FDK/lib/tinyusb/src/class/msc/msc_device.c ****   TU_VERIFY(block_sz != 0, );
 855:SynaptiX_FDK/lib/tinyusb/src/class/msc/msc_device.c ****   // Adjust lba & offset with transferred bytes
 856:SynaptiX_FDK/lib/tinyusb/src/class/msc/msc_device.c ****   uint32_t const lba = rdwr10_get_lba(p_cbw->command) + (p_msc->xferred_len / block_sz);
 857:SynaptiX_FDK/lib/tinyusb/src/class/msc/msc_device.c ****   uint32_t const offset = p_msc->xferred_len % block_sz;
 858:SynaptiX_FDK/lib/tinyusb/src/class/msc/msc_device.c **** 
 859:SynaptiX_FDK/lib/tinyusb/src/class/msc/msc_device.c ****   // remaining bytes capped at class buffer
 860:SynaptiX_FDK/lib/tinyusb/src/class/msc/msc_device.c ****   int32_t nbytes = (int32_t)tu_min32(CFG_TUD_MSC_EP_BUFSIZE, p_cbw->total_bytes - p_msc->xferred_le
 861:SynaptiX_FDK/lib/tinyusb/src/class/msc/msc_device.c **** 
 862:SynaptiX_FDK/lib/tinyusb/src/class/msc/msc_device.c ****   p_msc->pending_io = true;
 863:SynaptiX_FDK/lib/tinyusb/src/class/msc/msc_device.c ****   nbytes = tud_msc_read10_cb(p_cbw->lun, lba, offset, _mscd_epbuf.buf, (uint32_t)nbytes);
 864:SynaptiX_FDK/lib/tinyusb/src/class/msc/msc_device.c ****   if (nbytes != TUD_MSC_RET_ASYNC) {
 865:SynaptiX_FDK/lib/tinyusb/src/class/msc/msc_device.c ****     p_msc->pending_io = false;
 866:SynaptiX_FDK/lib/tinyusb/src/class/msc/msc_device.c ****     proc_read_io_data(p_msc, nbytes);
 867:SynaptiX_FDK/lib/tinyusb/src/class/msc/msc_device.c ****   }
 868:SynaptiX_FDK/lib/tinyusb/src/class/msc/msc_device.c **** }
 869:SynaptiX_FDK/lib/tinyusb/src/class/msc/msc_device.c **** 
 870:SynaptiX_FDK/lib/tinyusb/src/class/msc/msc_device.c **** static void proc_read_io_data(mscd_interface_t* p_msc, int32_t nbytes) {
 781              		.loc 1 870 72 is_stmt 1 view -0
 782              		.cfi_startproc
 783              		@ args = 0, pretend = 0, frame = 16
 784              		@ frame_needed = 0, uses_anonymous_args = 0
 785              		.loc 1 870 72 is_stmt 0 view .LVU218
 786 0000 10B5     		push	{r4, lr}
 787              	.LCFI9:
 788              		.cfi_def_cfa_offset 8
 789              		.cfi_offset 4, -8
 790              		.cfi_offset 14, -4
 791 0002 86B0     		sub	sp, sp, #24
 792              	.LCFI10:
 793              		.cfi_def_cfa_offset 32
 794 0004 0446     		mov	r4, r0
 871:SynaptiX_FDK/lib/tinyusb/src/class/msc/msc_device.c ****   const uint8_t rhport = p_msc->rhport;
 795              		.loc 1 871 3 is_stmt 1 view .LVU219
 796              		.loc 1 871 17 is_stmt 0 view .LVU220
 797 0006 C07F     		ldrb	r0, [r0, #31]	@ zero_extendqisi2
 798              	.LVL57:
 872:SynaptiX_FDK/lib/tinyusb/src/class/msc/msc_device.c ****   if (nbytes > 0) {
 799              		.loc 1 872 3 is_stmt 1 view .LVU221
 800              		.loc 1 872 6 is_stmt 0 view .LVU222
 801 0008 0029     		cmp	r1, #0
 802              		.loc 1 872 6 view .LVU223
 803 000a 14DC     		bgt	.L62
 873:SynaptiX_FDK/lib/tinyusb/src/class/msc/msc_device.c ****     TU_ASSERT(usbd_edpt_xfer(rhport, p_msc->ep_in, _mscd_epbuf.buf, (uint16_t) nbytes, false),);
 874:SynaptiX_FDK/lib/tinyusb/src/class/msc/msc_device.c ****   } else {
 875:SynaptiX_FDK/lib/tinyusb/src/class/msc/msc_device.c ****     // nbytes is status
 876:SynaptiX_FDK/lib/tinyusb/src/class/msc/msc_device.c ****     switch (nbytes) {
ARM GAS  C:\Users\LENOVO\AppData\Local\Temp\cc8CFzeV.s 			page 39


 804              		.loc 1 876 5 is_stmt 1 view .LVU224
 805 000c B1F1FF3F 		cmp	r1, #-1
 806 0010 25D0     		beq	.L59
 807 0012 C9B9     		cbnz	r1, .L55
 877:SynaptiX_FDK/lib/tinyusb/src/class/msc/msc_device.c ****       case TUD_MSC_RET_ERROR:
 878:SynaptiX_FDK/lib/tinyusb/src/class/msc/msc_device.c ****         // error -> endpoint is stalled & status in CSW set to failed
 879:SynaptiX_FDK/lib/tinyusb/src/class/msc/msc_device.c ****         TU_LOG_DRV("  IO read() failed\r\n");
 880:SynaptiX_FDK/lib/tinyusb/src/class/msc/msc_device.c ****         set_sense_medium_not_present(p_msc->cbw.lun);
 881:SynaptiX_FDK/lib/tinyusb/src/class/msc/msc_device.c ****         fail_scsi_op(p_msc, MSC_CSW_STATUS_FAILED);
 882:SynaptiX_FDK/lib/tinyusb/src/class/msc/msc_device.c ****         break;
 883:SynaptiX_FDK/lib/tinyusb/src/class/msc/msc_device.c **** 
 884:SynaptiX_FDK/lib/tinyusb/src/class/msc/msc_device.c ****       case TUD_MSC_RET_BUSY:
 885:SynaptiX_FDK/lib/tinyusb/src/class/msc/msc_device.c ****         // not ready yet -> fake a transfer complete so that this driver callback will fire again
 886:SynaptiX_FDK/lib/tinyusb/src/class/msc/msc_device.c ****         dcd_event_xfer_complete(rhport, p_msc->ep_in, 0, XFER_RESULT_SUCCESS, false);
 808              		.loc 1 886 9 view .LVU225
 809 0014 94F82E30 		ldrb	r3, [r4, #46]	@ zero_extendqisi2
 810              	.LVL58:
 811              	.LBB146:
 812              	.LBI146:
 813              		.file 3 "SynaptiX_FDK/lib/tinyusb/src/device/dcd.h"
   1:SynaptiX_FDK/lib/tinyusb/src/device/dcd.h **** /*
   2:SynaptiX_FDK/lib/tinyusb/src/device/dcd.h ****  * The MIT License (MIT)
   3:SynaptiX_FDK/lib/tinyusb/src/device/dcd.h ****  *
   4:SynaptiX_FDK/lib/tinyusb/src/device/dcd.h ****  * Copyright (c) 2019 Ha Thach (tinyusb.org)
   5:SynaptiX_FDK/lib/tinyusb/src/device/dcd.h ****  *
   6:SynaptiX_FDK/lib/tinyusb/src/device/dcd.h ****  * Permission is hereby granted, free of charge, to any person obtaining a copy
   7:SynaptiX_FDK/lib/tinyusb/src/device/dcd.h ****  * of this software and associated documentation files (the "Software"), to deal
   8:SynaptiX_FDK/lib/tinyusb/src/device/dcd.h ****  * in the Software without restriction, including without limitation the rights
   9:SynaptiX_FDK/lib/tinyusb/src/device/dcd.h ****  * to use, copy, modify, merge, publish, distribute, sublicense, and/or sell
  10:SynaptiX_FDK/lib/tinyusb/src/device/dcd.h ****  * copies of the Software, and to permit persons to whom the Software is
  11:SynaptiX_FDK/lib/tinyusb/src/device/dcd.h ****  * furnished to do so, subject to the following conditions:
  12:SynaptiX_FDK/lib/tinyusb/src/device/dcd.h ****  *
  13:SynaptiX_FDK/lib/tinyusb/src/device/dcd.h ****  * The above copyright notice and this permission notice shall be included in
  14:SynaptiX_FDK/lib/tinyusb/src/device/dcd.h ****  * all copies or substantial portions of the Software.
  15:SynaptiX_FDK/lib/tinyusb/src/device/dcd.h ****  *
  16:SynaptiX_FDK/lib/tinyusb/src/device/dcd.h ****  * THE SOFTWARE IS PROVIDED "AS IS", WITHOUT WARRANTY OF ANY KIND, EXPRESS OR
  17:SynaptiX_FDK/lib/tinyusb/src/device/dcd.h ****  * IMPLIED, INCLUDING BUT NOT LIMITED TO THE WARRANTIES OF MERCHANTABILITY,
  18:SynaptiX_FDK/lib/tinyusb/src/device/dcd.h ****  * FITNESS FOR A PARTICULAR PURPOSE AND NONINFRINGEMENT. IN NO EVENT SHALL THE
  19:SynaptiX_FDK/lib/tinyusb/src/device/dcd.h ****  * AUTHORS OR COPYRIGHT HOLDERS BE LIABLE FOR ANY CLAIM, DAMAGES OR OTHER
  20:SynaptiX_FDK/lib/tinyusb/src/device/dcd.h ****  * LIABILITY, WHETHER IN AN ACTION OF CONTRACT, TORT OR OTHERWISE, ARISING FROM,
  21:SynaptiX_FDK/lib/tinyusb/src/device/dcd.h ****  * OUT OF OR IN CONNECTION WITH THE SOFTWARE OR THE USE OR OTHER DEALINGS IN
  22:SynaptiX_FDK/lib/tinyusb/src/device/dcd.h ****  * THE SOFTWARE.
  23:SynaptiX_FDK/lib/tinyusb/src/device/dcd.h ****  *
  24:SynaptiX_FDK/lib/tinyusb/src/device/dcd.h ****  * This file is part of the TinyUSB stack.
  25:SynaptiX_FDK/lib/tinyusb/src/device/dcd.h ****  */
  26:SynaptiX_FDK/lib/tinyusb/src/device/dcd.h **** 
  27:SynaptiX_FDK/lib/tinyusb/src/device/dcd.h **** #ifndef TUSB_DCD_H_
  28:SynaptiX_FDK/lib/tinyusb/src/device/dcd.h **** #define TUSB_DCD_H_
  29:SynaptiX_FDK/lib/tinyusb/src/device/dcd.h **** 
  30:SynaptiX_FDK/lib/tinyusb/src/device/dcd.h **** #include "common/tusb_common.h"
  31:SynaptiX_FDK/lib/tinyusb/src/device/dcd.h **** #include "osal/osal.h"
  32:SynaptiX_FDK/lib/tinyusb/src/device/dcd.h **** #include "common/tusb_fifo.h"
  33:SynaptiX_FDK/lib/tinyusb/src/device/dcd.h **** 
  34:SynaptiX_FDK/lib/tinyusb/src/device/dcd.h **** #ifdef __cplusplus
  35:SynaptiX_FDK/lib/tinyusb/src/device/dcd.h ****  extern "C" {
  36:SynaptiX_FDK/lib/tinyusb/src/device/dcd.h **** #endif
  37:SynaptiX_FDK/lib/tinyusb/src/device/dcd.h **** 
ARM GAS  C:\Users\LENOVO\AppData\Local\Temp\cc8CFzeV.s 			page 40


  38:SynaptiX_FDK/lib/tinyusb/src/device/dcd.h **** //--------------------------------------------------------------------+
  39:SynaptiX_FDK/lib/tinyusb/src/device/dcd.h **** // MACRO CONSTANT TYPEDEF PROTYPES
  40:SynaptiX_FDK/lib/tinyusb/src/device/dcd.h **** //--------------------------------------------------------------------+
  41:SynaptiX_FDK/lib/tinyusb/src/device/dcd.h **** 
  42:SynaptiX_FDK/lib/tinyusb/src/device/dcd.h **** typedef enum {
  43:SynaptiX_FDK/lib/tinyusb/src/device/dcd.h ****   DCD_EVENT_INVALID = 0,    // 0
  44:SynaptiX_FDK/lib/tinyusb/src/device/dcd.h ****   DCD_EVENT_BUS_RESET,      // 1
  45:SynaptiX_FDK/lib/tinyusb/src/device/dcd.h ****   DCD_EVENT_UNPLUGGED,      // 2
  46:SynaptiX_FDK/lib/tinyusb/src/device/dcd.h ****   DCD_EVENT_SOF,            // 3
  47:SynaptiX_FDK/lib/tinyusb/src/device/dcd.h ****   DCD_EVENT_SUSPEND,        // 4 TODO LPM Sleep L1 support
  48:SynaptiX_FDK/lib/tinyusb/src/device/dcd.h ****   DCD_EVENT_RESUME,         // 5
  49:SynaptiX_FDK/lib/tinyusb/src/device/dcd.h ****   DCD_EVENT_SETUP_RECEIVED, // 6
  50:SynaptiX_FDK/lib/tinyusb/src/device/dcd.h ****   DCD_EVENT_XFER_COMPLETE,  // 7
  51:SynaptiX_FDK/lib/tinyusb/src/device/dcd.h ****   USBD_EVENT_FUNC_CALL,     // 8 Not an DCD event, just a convenient way to defer ISR function
  52:SynaptiX_FDK/lib/tinyusb/src/device/dcd.h ****   DCD_EVENT_COUNT
  53:SynaptiX_FDK/lib/tinyusb/src/device/dcd.h **** } dcd_eventid_t;
  54:SynaptiX_FDK/lib/tinyusb/src/device/dcd.h **** 
  55:SynaptiX_FDK/lib/tinyusb/src/device/dcd.h **** typedef struct TU_ATTR_ALIGNED(4) {
  56:SynaptiX_FDK/lib/tinyusb/src/device/dcd.h ****   uint8_t rhport;
  57:SynaptiX_FDK/lib/tinyusb/src/device/dcd.h ****   uint8_t event_id;
  58:SynaptiX_FDK/lib/tinyusb/src/device/dcd.h **** 
  59:SynaptiX_FDK/lib/tinyusb/src/device/dcd.h ****   union {
  60:SynaptiX_FDK/lib/tinyusb/src/device/dcd.h ****     // BUS RESET
  61:SynaptiX_FDK/lib/tinyusb/src/device/dcd.h ****     struct {
  62:SynaptiX_FDK/lib/tinyusb/src/device/dcd.h ****       tusb_speed_t speed;
  63:SynaptiX_FDK/lib/tinyusb/src/device/dcd.h ****     } bus_reset;
  64:SynaptiX_FDK/lib/tinyusb/src/device/dcd.h **** 
  65:SynaptiX_FDK/lib/tinyusb/src/device/dcd.h ****     // SOF
  66:SynaptiX_FDK/lib/tinyusb/src/device/dcd.h ****     struct {
  67:SynaptiX_FDK/lib/tinyusb/src/device/dcd.h ****       uint32_t frame_count;
  68:SynaptiX_FDK/lib/tinyusb/src/device/dcd.h ****     }sof;
  69:SynaptiX_FDK/lib/tinyusb/src/device/dcd.h **** 
  70:SynaptiX_FDK/lib/tinyusb/src/device/dcd.h ****     // SETUP_RECEIVED
  71:SynaptiX_FDK/lib/tinyusb/src/device/dcd.h ****     tusb_control_request_t setup_received;
  72:SynaptiX_FDK/lib/tinyusb/src/device/dcd.h **** 
  73:SynaptiX_FDK/lib/tinyusb/src/device/dcd.h ****     // XFER_COMPLETE
  74:SynaptiX_FDK/lib/tinyusb/src/device/dcd.h ****     struct {
  75:SynaptiX_FDK/lib/tinyusb/src/device/dcd.h ****       uint8_t  ep_addr;
  76:SynaptiX_FDK/lib/tinyusb/src/device/dcd.h ****       uint8_t  result;
  77:SynaptiX_FDK/lib/tinyusb/src/device/dcd.h ****       uint32_t len;
  78:SynaptiX_FDK/lib/tinyusb/src/device/dcd.h ****     }xfer_complete;
  79:SynaptiX_FDK/lib/tinyusb/src/device/dcd.h **** 
  80:SynaptiX_FDK/lib/tinyusb/src/device/dcd.h ****     // FUNC_CALL
  81:SynaptiX_FDK/lib/tinyusb/src/device/dcd.h ****     struct {
  82:SynaptiX_FDK/lib/tinyusb/src/device/dcd.h ****       void (*func) (void* param);
  83:SynaptiX_FDK/lib/tinyusb/src/device/dcd.h ****       void* param;
  84:SynaptiX_FDK/lib/tinyusb/src/device/dcd.h ****     }func_call;
  85:SynaptiX_FDK/lib/tinyusb/src/device/dcd.h ****   };
  86:SynaptiX_FDK/lib/tinyusb/src/device/dcd.h **** } dcd_event_t;
  87:SynaptiX_FDK/lib/tinyusb/src/device/dcd.h **** 
  88:SynaptiX_FDK/lib/tinyusb/src/device/dcd.h **** //TU_VERIFY_STATIC(sizeof(dcd_event_t) <= 12, "size is not correct");
  89:SynaptiX_FDK/lib/tinyusb/src/device/dcd.h **** 
  90:SynaptiX_FDK/lib/tinyusb/src/device/dcd.h **** //--------------------------------------------------------------------+
  91:SynaptiX_FDK/lib/tinyusb/src/device/dcd.h **** // Memory API
  92:SynaptiX_FDK/lib/tinyusb/src/device/dcd.h **** //--------------------------------------------------------------------+
  93:SynaptiX_FDK/lib/tinyusb/src/device/dcd.h **** 
  94:SynaptiX_FDK/lib/tinyusb/src/device/dcd.h **** // clean/flush data cache: write cache -> memory.
ARM GAS  C:\Users\LENOVO\AppData\Local\Temp\cc8CFzeV.s 			page 41


  95:SynaptiX_FDK/lib/tinyusb/src/device/dcd.h **** // Required before an DMA TX transfer to make sure data is in memory
  96:SynaptiX_FDK/lib/tinyusb/src/device/dcd.h **** bool dcd_dcache_clean(const void* addr, uint32_t data_size);
  97:SynaptiX_FDK/lib/tinyusb/src/device/dcd.h **** 
  98:SynaptiX_FDK/lib/tinyusb/src/device/dcd.h **** // invalidate data cache: mark cache as invalid, next read will read from memory
  99:SynaptiX_FDK/lib/tinyusb/src/device/dcd.h **** // Required BOTH before and after an DMA RX transfer
 100:SynaptiX_FDK/lib/tinyusb/src/device/dcd.h **** bool dcd_dcache_invalidate(const void* addr, uint32_t data_size);
 101:SynaptiX_FDK/lib/tinyusb/src/device/dcd.h **** 
 102:SynaptiX_FDK/lib/tinyusb/src/device/dcd.h **** // clean and invalidate data cache
 103:SynaptiX_FDK/lib/tinyusb/src/device/dcd.h **** // Required before an DMA transfer where memory is both read/write by DMA
 104:SynaptiX_FDK/lib/tinyusb/src/device/dcd.h **** bool dcd_dcache_clean_invalidate(const void* addr, uint32_t data_size);
 105:SynaptiX_FDK/lib/tinyusb/src/device/dcd.h **** 
 106:SynaptiX_FDK/lib/tinyusb/src/device/dcd.h **** //--------------------------------------------------------------------+
 107:SynaptiX_FDK/lib/tinyusb/src/device/dcd.h **** // Controller API
 108:SynaptiX_FDK/lib/tinyusb/src/device/dcd.h **** //--------------------------------------------------------------------+
 109:SynaptiX_FDK/lib/tinyusb/src/device/dcd.h **** 
 110:SynaptiX_FDK/lib/tinyusb/src/device/dcd.h **** // optional dcd configuration, called by tud_configure()
 111:SynaptiX_FDK/lib/tinyusb/src/device/dcd.h **** bool dcd_configure(uint8_t rhport, uint32_t cfg_id, const void* cfg_param);
 112:SynaptiX_FDK/lib/tinyusb/src/device/dcd.h **** 
 113:SynaptiX_FDK/lib/tinyusb/src/device/dcd.h **** // Initialize controller to device mode
 114:SynaptiX_FDK/lib/tinyusb/src/device/dcd.h **** bool dcd_init(uint8_t rhport, const tusb_rhport_init_t* rh_init);
 115:SynaptiX_FDK/lib/tinyusb/src/device/dcd.h **** 
 116:SynaptiX_FDK/lib/tinyusb/src/device/dcd.h **** // Deinitialize controller, unset device mode.
 117:SynaptiX_FDK/lib/tinyusb/src/device/dcd.h **** bool dcd_deinit(uint8_t rhport);
 118:SynaptiX_FDK/lib/tinyusb/src/device/dcd.h **** 
 119:SynaptiX_FDK/lib/tinyusb/src/device/dcd.h **** // Interrupt Handler
 120:SynaptiX_FDK/lib/tinyusb/src/device/dcd.h **** void dcd_int_handler(uint8_t rhport);
 121:SynaptiX_FDK/lib/tinyusb/src/device/dcd.h **** 
 122:SynaptiX_FDK/lib/tinyusb/src/device/dcd.h **** // Enable device interrupt
 123:SynaptiX_FDK/lib/tinyusb/src/device/dcd.h **** void dcd_int_enable (uint8_t rhport);
 124:SynaptiX_FDK/lib/tinyusb/src/device/dcd.h **** 
 125:SynaptiX_FDK/lib/tinyusb/src/device/dcd.h **** // Disable device interrupt
 126:SynaptiX_FDK/lib/tinyusb/src/device/dcd.h **** void dcd_int_disable(uint8_t rhport);
 127:SynaptiX_FDK/lib/tinyusb/src/device/dcd.h **** 
 128:SynaptiX_FDK/lib/tinyusb/src/device/dcd.h **** // Receive Set Address request, mcu port must also include status IN response
 129:SynaptiX_FDK/lib/tinyusb/src/device/dcd.h **** void dcd_set_address(uint8_t rhport, uint8_t dev_addr);
 130:SynaptiX_FDK/lib/tinyusb/src/device/dcd.h **** 
 131:SynaptiX_FDK/lib/tinyusb/src/device/dcd.h **** // Wake up host
 132:SynaptiX_FDK/lib/tinyusb/src/device/dcd.h **** void dcd_remote_wakeup(uint8_t rhport);
 133:SynaptiX_FDK/lib/tinyusb/src/device/dcd.h **** 
 134:SynaptiX_FDK/lib/tinyusb/src/device/dcd.h **** // Connect by enabling internal pull-up resistor on D+/D-
 135:SynaptiX_FDK/lib/tinyusb/src/device/dcd.h **** void dcd_connect(uint8_t rhport);
 136:SynaptiX_FDK/lib/tinyusb/src/device/dcd.h **** 
 137:SynaptiX_FDK/lib/tinyusb/src/device/dcd.h **** // Disconnect by disabling internal pull-up resistor on D+/D-
 138:SynaptiX_FDK/lib/tinyusb/src/device/dcd.h **** void dcd_disconnect(uint8_t rhport);
 139:SynaptiX_FDK/lib/tinyusb/src/device/dcd.h **** 
 140:SynaptiX_FDK/lib/tinyusb/src/device/dcd.h **** // Enable/Disable Start-of-frame interrupt. Default is disabled
 141:SynaptiX_FDK/lib/tinyusb/src/device/dcd.h **** void dcd_sof_enable(uint8_t rhport, bool en);
 142:SynaptiX_FDK/lib/tinyusb/src/device/dcd.h **** 
 143:SynaptiX_FDK/lib/tinyusb/src/device/dcd.h **** #if CFG_TUD_TEST_MODE
 144:SynaptiX_FDK/lib/tinyusb/src/device/dcd.h **** // Put device into a test mode (needs power cycle to quit)
 145:SynaptiX_FDK/lib/tinyusb/src/device/dcd.h **** void dcd_enter_test_mode(uint8_t rhport, tusb_feature_test_mode_t test_selector);
 146:SynaptiX_FDK/lib/tinyusb/src/device/dcd.h **** #endif
 147:SynaptiX_FDK/lib/tinyusb/src/device/dcd.h **** //--------------------------------------------------------------------+
 148:SynaptiX_FDK/lib/tinyusb/src/device/dcd.h **** // Endpoint API
 149:SynaptiX_FDK/lib/tinyusb/src/device/dcd.h **** //--------------------------------------------------------------------+
 150:SynaptiX_FDK/lib/tinyusb/src/device/dcd.h **** 
 151:SynaptiX_FDK/lib/tinyusb/src/device/dcd.h **** // Invoked when a control transfer's status stage is complete.
ARM GAS  C:\Users\LENOVO\AppData\Local\Temp\cc8CFzeV.s 			page 42


 152:SynaptiX_FDK/lib/tinyusb/src/device/dcd.h **** // May help DCD to prepare for next control transfer, this API is optional.
 153:SynaptiX_FDK/lib/tinyusb/src/device/dcd.h **** void dcd_edpt0_status_complete(uint8_t rhport, tusb_control_request_t const * request);
 154:SynaptiX_FDK/lib/tinyusb/src/device/dcd.h **** 
 155:SynaptiX_FDK/lib/tinyusb/src/device/dcd.h **** // Configure endpoint's registers according to descriptor
 156:SynaptiX_FDK/lib/tinyusb/src/device/dcd.h **** bool dcd_edpt_open            (uint8_t rhport, tusb_desc_endpoint_t const * desc_ep);
 157:SynaptiX_FDK/lib/tinyusb/src/device/dcd.h **** 
 158:SynaptiX_FDK/lib/tinyusb/src/device/dcd.h **** // Close all non-control endpoints, cancel all pending transfers if any.
 159:SynaptiX_FDK/lib/tinyusb/src/device/dcd.h **** // Invoked when switching from a non-zero Configuration by SET_CONFIGURE therefore
 160:SynaptiX_FDK/lib/tinyusb/src/device/dcd.h **** // required for multiple configuration support.
 161:SynaptiX_FDK/lib/tinyusb/src/device/dcd.h **** void dcd_edpt_close_all       (uint8_t rhport);
 162:SynaptiX_FDK/lib/tinyusb/src/device/dcd.h **** 
 163:SynaptiX_FDK/lib/tinyusb/src/device/dcd.h **** // Submit a transfer, When complete dcd_event_xfer_complete() is invoked to notify the stack
 164:SynaptiX_FDK/lib/tinyusb/src/device/dcd.h **** bool dcd_edpt_xfer            (uint8_t rhport, uint8_t ep_addr, uint8_t * buffer, uint16_t total_by
 165:SynaptiX_FDK/lib/tinyusb/src/device/dcd.h **** 
 166:SynaptiX_FDK/lib/tinyusb/src/device/dcd.h **** // Submit an transfer using fifo, When complete dcd_event_xfer_complete() is invoked to notify the 
 167:SynaptiX_FDK/lib/tinyusb/src/device/dcd.h **** // This API is optional, may be useful for register-based for transferring data.
 168:SynaptiX_FDK/lib/tinyusb/src/device/dcd.h **** bool dcd_edpt_xfer_fifo       (uint8_t rhport, uint8_t ep_addr, tu_fifo_t * ff, uint16_t total_byte
 169:SynaptiX_FDK/lib/tinyusb/src/device/dcd.h **** 
 170:SynaptiX_FDK/lib/tinyusb/src/device/dcd.h **** // Stall endpoint, any queuing transfer should be removed from endpoint
 171:SynaptiX_FDK/lib/tinyusb/src/device/dcd.h **** void dcd_edpt_stall           (uint8_t rhport, uint8_t ep_addr);
 172:SynaptiX_FDK/lib/tinyusb/src/device/dcd.h **** 
 173:SynaptiX_FDK/lib/tinyusb/src/device/dcd.h **** // clear stall, data toggle is also reset to DATA0
 174:SynaptiX_FDK/lib/tinyusb/src/device/dcd.h **** // This API never calls with control endpoints, since it is auto cleared when receiving setup packe
 175:SynaptiX_FDK/lib/tinyusb/src/device/dcd.h **** void dcd_edpt_clear_stall     (uint8_t rhport, uint8_t ep_addr);
 176:SynaptiX_FDK/lib/tinyusb/src/device/dcd.h **** 
 177:SynaptiX_FDK/lib/tinyusb/src/device/dcd.h **** #ifdef TUP_DCD_EDPT_CLOSE_API
 178:SynaptiX_FDK/lib/tinyusb/src/device/dcd.h **** // Close an endpoint.
 179:SynaptiX_FDK/lib/tinyusb/src/device/dcd.h **** void dcd_edpt_close(uint8_t rhport, uint8_t ep_addr);
 180:SynaptiX_FDK/lib/tinyusb/src/device/dcd.h **** 
 181:SynaptiX_FDK/lib/tinyusb/src/device/dcd.h **** #else
 182:SynaptiX_FDK/lib/tinyusb/src/device/dcd.h **** 
 183:SynaptiX_FDK/lib/tinyusb/src/device/dcd.h **** // Allocate packet buffer used by ISO endpoints
 184:SynaptiX_FDK/lib/tinyusb/src/device/dcd.h **** // Some MCU need manual packet buffer allocation, we allocate the largest size to avoid clustering
 185:SynaptiX_FDK/lib/tinyusb/src/device/dcd.h **** bool dcd_edpt_iso_alloc(uint8_t rhport, uint8_t ep_addr, uint16_t largest_packet_size);
 186:SynaptiX_FDK/lib/tinyusb/src/device/dcd.h **** 
 187:SynaptiX_FDK/lib/tinyusb/src/device/dcd.h **** // Configure and enable an ISO endpoint according to descriptor
 188:SynaptiX_FDK/lib/tinyusb/src/device/dcd.h **** bool dcd_edpt_iso_activate(uint8_t rhport, tusb_desc_endpoint_t const * desc_ep);
 189:SynaptiX_FDK/lib/tinyusb/src/device/dcd.h **** 
 190:SynaptiX_FDK/lib/tinyusb/src/device/dcd.h **** #endif
 191:SynaptiX_FDK/lib/tinyusb/src/device/dcd.h **** 
 192:SynaptiX_FDK/lib/tinyusb/src/device/dcd.h **** //--------------------------------------------------------------------+
 193:SynaptiX_FDK/lib/tinyusb/src/device/dcd.h **** // Event API (implemented by stack)
 194:SynaptiX_FDK/lib/tinyusb/src/device/dcd.h **** //--------------------------------------------------------------------+
 195:SynaptiX_FDK/lib/tinyusb/src/device/dcd.h **** 
 196:SynaptiX_FDK/lib/tinyusb/src/device/dcd.h **** // Called by DCD to notify device stack
 197:SynaptiX_FDK/lib/tinyusb/src/device/dcd.h **** extern void dcd_event_handler(dcd_event_t const * event, bool in_isr);
 198:SynaptiX_FDK/lib/tinyusb/src/device/dcd.h **** 
 199:SynaptiX_FDK/lib/tinyusb/src/device/dcd.h **** // helper to send bus signal event
 200:SynaptiX_FDK/lib/tinyusb/src/device/dcd.h **** TU_ATTR_ALWAYS_INLINE static inline void dcd_event_bus_signal (uint8_t rhport, dcd_eventid_t eid, b
 201:SynaptiX_FDK/lib/tinyusb/src/device/dcd.h ****   dcd_event_t event;
 202:SynaptiX_FDK/lib/tinyusb/src/device/dcd.h ****   event.rhport = rhport;
 203:SynaptiX_FDK/lib/tinyusb/src/device/dcd.h ****   event.event_id = eid;
 204:SynaptiX_FDK/lib/tinyusb/src/device/dcd.h ****   dcd_event_handler(&event, in_isr);
 205:SynaptiX_FDK/lib/tinyusb/src/device/dcd.h **** }
 206:SynaptiX_FDK/lib/tinyusb/src/device/dcd.h **** 
 207:SynaptiX_FDK/lib/tinyusb/src/device/dcd.h **** // helper to send bus reset event
 208:SynaptiX_FDK/lib/tinyusb/src/device/dcd.h **** TU_ATTR_ALWAYS_INLINE static inline  void dcd_event_bus_reset (uint8_t rhport, tusb_speed_t speed, 
ARM GAS  C:\Users\LENOVO\AppData\Local\Temp\cc8CFzeV.s 			page 43


 209:SynaptiX_FDK/lib/tinyusb/src/device/dcd.h ****   dcd_event_t event;
 210:SynaptiX_FDK/lib/tinyusb/src/device/dcd.h ****   event.rhport = rhport;
 211:SynaptiX_FDK/lib/tinyusb/src/device/dcd.h ****   event.event_id = DCD_EVENT_BUS_RESET;
 212:SynaptiX_FDK/lib/tinyusb/src/device/dcd.h ****   event.bus_reset.speed = speed;
 213:SynaptiX_FDK/lib/tinyusb/src/device/dcd.h ****   dcd_event_handler(&event, in_isr);
 214:SynaptiX_FDK/lib/tinyusb/src/device/dcd.h **** }
 215:SynaptiX_FDK/lib/tinyusb/src/device/dcd.h **** 
 216:SynaptiX_FDK/lib/tinyusb/src/device/dcd.h **** // helper to send setup received
 217:SynaptiX_FDK/lib/tinyusb/src/device/dcd.h **** TU_ATTR_ALWAYS_INLINE static inline void dcd_event_setup_received(uint8_t rhport, uint8_t const * s
 218:SynaptiX_FDK/lib/tinyusb/src/device/dcd.h ****   dcd_event_t event;
 219:SynaptiX_FDK/lib/tinyusb/src/device/dcd.h ****   event.rhport = rhport;
 220:SynaptiX_FDK/lib/tinyusb/src/device/dcd.h ****   event.event_id = DCD_EVENT_SETUP_RECEIVED;
 221:SynaptiX_FDK/lib/tinyusb/src/device/dcd.h ****   (void) memcpy(&event.setup_received, setup, sizeof(tusb_control_request_t));
 222:SynaptiX_FDK/lib/tinyusb/src/device/dcd.h ****   dcd_event_handler(&event, in_isr);
 223:SynaptiX_FDK/lib/tinyusb/src/device/dcd.h **** }
 224:SynaptiX_FDK/lib/tinyusb/src/device/dcd.h **** 
 225:SynaptiX_FDK/lib/tinyusb/src/device/dcd.h **** // helper to send transfer complete event
 226:SynaptiX_FDK/lib/tinyusb/src/device/dcd.h **** TU_ATTR_ALWAYS_INLINE static inline void dcd_event_xfer_complete (uint8_t rhport, uint8_t ep_addr, 
 814              		.loc 3 226 42 view .LVU226
 815              	.LBB147:
 227:SynaptiX_FDK/lib/tinyusb/src/device/dcd.h ****   dcd_event_t event;
 816              		.loc 3 227 3 view .LVU227
 228:SynaptiX_FDK/lib/tinyusb/src/device/dcd.h ****   event.rhport = rhport;
 817              		.loc 3 228 3 view .LVU228
 818              		.loc 3 228 16 is_stmt 0 view .LVU229
 819 0018 8DF80C00 		strb	r0, [sp, #12]
 229:SynaptiX_FDK/lib/tinyusb/src/device/dcd.h ****   event.event_id = DCD_EVENT_XFER_COMPLETE;
 820              		.loc 3 229 3 is_stmt 1 view .LVU230
 821              		.loc 3 229 18 is_stmt 0 view .LVU231
 822 001c 0722     		movs	r2, #7
 823 001e 8DF80D20 		strb	r2, [sp, #13]
 230:SynaptiX_FDK/lib/tinyusb/src/device/dcd.h ****   event.xfer_complete.ep_addr = ep_addr;
 824              		.loc 3 230 3 is_stmt 1 view .LVU232
 825              		.loc 3 230 31 is_stmt 0 view .LVU233
 826 0022 8DF81030 		strb	r3, [sp, #16]
 231:SynaptiX_FDK/lib/tinyusb/src/device/dcd.h ****   event.xfer_complete.len     = xferred_bytes;
 827              		.loc 3 231 3 is_stmt 1 view .LVU234
 828              		.loc 3 231 31 is_stmt 0 view .LVU235
 829 0026 0021     		movs	r1, #0
 830              	.LVL59:
 831              		.loc 3 231 31 view .LVU236
 832 0028 0591     		str	r1, [sp, #20]
 232:SynaptiX_FDK/lib/tinyusb/src/device/dcd.h ****   event.xfer_complete.result  = result;
 833              		.loc 3 232 3 is_stmt 1 view .LVU237
 834              		.loc 3 232 31 is_stmt 0 view .LVU238
 835 002a 8DF81110 		strb	r1, [sp, #17]
 233:SynaptiX_FDK/lib/tinyusb/src/device/dcd.h ****   dcd_event_handler(&event, in_isr);
 836              		.loc 3 233 3 is_stmt 1 view .LVU239
 837 002e 03A8     		add	r0, sp, #12
 838              	.LVL60:
 839              		.loc 3 233 3 is_stmt 0 view .LVU240
 840 0030 FFF7FEFF 		bl	dcd_event_handler
 841              	.LVL61:
 842              		.loc 3 233 3 view .LVU241
 843              	.LBE147:
 844              	.LBE146:
 887:SynaptiX_FDK/lib/tinyusb/src/class/msc/msc_device.c ****         break;
ARM GAS  C:\Users\LENOVO\AppData\Local\Temp\cc8CFzeV.s 			page 44


 845              		.loc 1 887 9 is_stmt 1 view .LVU242
 846              	.LBB149:
 847              	.LBB148:
 234:SynaptiX_FDK/lib/tinyusb/src/device/dcd.h **** }
 848              		.loc 3 234 1 is_stmt 0 view .LVU243
 849 0034 08E0     		b	.L55
 850              	.LVL62:
 851              	.L62:
 852              		.loc 3 234 1 view .LVU244
 853              	.LBE148:
 854              	.LBE149:
 873:SynaptiX_FDK/lib/tinyusb/src/class/msc/msc_device.c ****   } else {
 855              		.loc 1 873 5 is_stmt 1 view .LVU245
 873:SynaptiX_FDK/lib/tinyusb/src/class/msc/msc_device.c ****   } else {
 856              		.loc 1 873 5 view .LVU246
 857 0036 0023     		movs	r3, #0
 858 0038 0093     		str	r3, [sp]
 859 003a 8BB2     		uxth	r3, r1
 860 003c 0D4A     		ldr	r2, .L64
 861 003e 94F82E10 		ldrb	r1, [r4, #46]	@ zero_extendqisi2
 862              	.LVL63:
 873:SynaptiX_FDK/lib/tinyusb/src/class/msc/msc_device.c ****   } else {
 863              		.loc 1 873 5 is_stmt 0 view .LVU247
 864 0042 FFF7FEFF 		bl	usbd_edpt_xfer
 865              	.LVL64:
 873:SynaptiX_FDK/lib/tinyusb/src/class/msc/msc_device.c ****   } else {
 866              		.loc 1 873 5 discriminator 1 view .LVU248
 867 0046 08B1     		cbz	r0, .L63
 868              	.L55:
 888:SynaptiX_FDK/lib/tinyusb/src/class/msc/msc_device.c **** 
 889:SynaptiX_FDK/lib/tinyusb/src/class/msc/msc_device.c ****       default: break; // nothing to do
 890:SynaptiX_FDK/lib/tinyusb/src/class/msc/msc_device.c ****     }
 891:SynaptiX_FDK/lib/tinyusb/src/class/msc/msc_device.c ****   }
 892:SynaptiX_FDK/lib/tinyusb/src/class/msc/msc_device.c **** }
 869              		.loc 1 892 1 view .LVU249
 870 0048 06B0     		add	sp, sp, #24
 871              	.LCFI11:
 872              		.cfi_remember_state
 873              		.cfi_def_cfa_offset 8
 874              		@ sp needed
 875 004a 10BD     		pop	{r4, pc}
 876              	.LVL65:
 877              	.L63:
 878              	.LCFI12:
 879              		.cfi_restore_state
 873:SynaptiX_FDK/lib/tinyusb/src/class/msc/msc_device.c ****   } else {
 880              		.loc 1 873 5 is_stmt 1 discriminator 1 view .LVU250
 873:SynaptiX_FDK/lib/tinyusb/src/class/msc/msc_device.c ****   } else {
 881              		.loc 1 873 5 discriminator 1 view .LVU251
 873:SynaptiX_FDK/lib/tinyusb/src/class/msc/msc_device.c ****   } else {
 882              		.loc 1 873 5 discriminator 1 view .LVU252
 873:SynaptiX_FDK/lib/tinyusb/src/class/msc/msc_device.c ****   } else {
 883              		.loc 1 873 5 discriminator 1 view .LVU253
 884              	.LBB150:
 873:SynaptiX_FDK/lib/tinyusb/src/class/msc/msc_device.c ****   } else {
 885              		.loc 1 873 5 discriminator 1 view .LVU254
 873:SynaptiX_FDK/lib/tinyusb/src/class/msc/msc_device.c ****   } else {
ARM GAS  C:\Users\LENOVO\AppData\Local\Temp\cc8CFzeV.s 			page 45


 886              		.loc 1 873 5 discriminator 1 view .LVU255
 887 004c 4FF0E023 		mov	r3, #-536813568
 888 0050 D3F8F03D 		ldr	r3, [r3, #3568]
 889 0054 13F0010F 		tst	r3, #1
 890 0058 F6D0     		beq	.L55
 873:SynaptiX_FDK/lib/tinyusb/src/class/msc/msc_device.c ****   } else {
 891              		.loc 1 873 5 discriminator 3 view .LVU256
 892              		.syntax unified
 893              	@ 873 "SynaptiX_FDK/lib/tinyusb/src/class/msc/msc_device.c" 1
 894 005a 00BE     		BKPT #0
 895              	
 896              	@ 0 "" 2
 897              		.thumb
 898              		.syntax unified
 899              	.LBE150:
 873:SynaptiX_FDK/lib/tinyusb/src/class/msc/msc_device.c ****   } else {
 900              		.loc 1 873 5 discriminator 5 view .LVU257
 873:SynaptiX_FDK/lib/tinyusb/src/class/msc/msc_device.c ****   } else {
 901              		.loc 1 873 5 discriminator 5 view .LVU258
 873:SynaptiX_FDK/lib/tinyusb/src/class/msc/msc_device.c ****   } else {
 902              		.loc 1 873 5 is_stmt 0 view .LVU259
 903 005c F4E7     		b	.L55
 904              	.LVL66:
 905              	.L59:
 879:SynaptiX_FDK/lib/tinyusb/src/class/msc/msc_device.c ****         set_sense_medium_not_present(p_msc->cbw.lun);
 906              		.loc 1 879 45 is_stmt 1 view .LVU260
 880:SynaptiX_FDK/lib/tinyusb/src/class/msc/msc_device.c ****         fail_scsi_op(p_msc, MSC_CSW_STATUS_FAILED);
 907              		.loc 1 880 9 view .LVU261
 908              	.LBB151:
 909              	.LBI151:
 314:SynaptiX_FDK/lib/tinyusb/src/class/msc/msc_device.c ****   // default sense is NOT READY, MEDIUM NOT PRESENT
 910              		.loc 1 314 42 view .LVU262
 911              	.LBB152:
 316:SynaptiX_FDK/lib/tinyusb/src/class/msc/msc_device.c **** }
 912              		.loc 1 316 3 view .LVU263
 316:SynaptiX_FDK/lib/tinyusb/src/class/msc/msc_device.c **** }
 913              		.loc 1 316 10 is_stmt 0 view .LVU264
 914 005e 0023     		movs	r3, #0
 915 0060 3A22     		movs	r2, #58
 916 0062 0221     		movs	r1, #2
 917              	.LVL67:
 316:SynaptiX_FDK/lib/tinyusb/src/class/msc/msc_device.c **** }
 918              		.loc 1 316 10 view .LVU265
 919 0064 607B     		ldrb	r0, [r4, #13]	@ zero_extendqisi2
 920              	.LVL68:
 316:SynaptiX_FDK/lib/tinyusb/src/class/msc/msc_device.c **** }
 921              		.loc 1 316 10 view .LVU266
 922 0066 FFF7FEFF 		bl	tud_msc_set_sense
 923              	.LVL69:
 316:SynaptiX_FDK/lib/tinyusb/src/class/msc/msc_device.c **** }
 924              		.loc 1 316 10 view .LVU267
 925              	.LBE152:
 926              	.LBE151:
 881:SynaptiX_FDK/lib/tinyusb/src/class/msc/msc_device.c ****         break;
 927              		.loc 1 881 9 is_stmt 1 view .LVU268
 928 006a 0121     		movs	r1, #1
 929 006c 2046     		mov	r0, r4
ARM GAS  C:\Users\LENOVO\AppData\Local\Temp\cc8CFzeV.s 			page 46


 930 006e FFF7FEFF 		bl	fail_scsi_op
 931              	.LVL70:
 882:SynaptiX_FDK/lib/tinyusb/src/class/msc/msc_device.c **** 
 932              		.loc 1 882 9 view .LVU269
 933 0072 E9E7     		b	.L55
 934              	.L65:
 935              		.align	2
 936              	.L64:
 937 0074 00000000 		.word	_mscd_epbuf
 938              		.cfi_endproc
 939              	.LFE667:
 941              		.section	.text.proc_read10_cmd,"ax",%progbits
 942              		.align	1
 943              		.syntax unified
 944              		.thumb
 945              		.thumb_func
 947              	proc_read10_cmd:
 948              	.LVL71:
 949              	.LFB666:
 851:SynaptiX_FDK/lib/tinyusb/src/class/msc/msc_device.c ****   msc_cbw_t const* p_cbw = &p_msc->cbw;
 950              		.loc 1 851 54 view -0
 951              		.cfi_startproc
 952              		@ args = 0, pretend = 0, frame = 0
 953              		@ frame_needed = 0, uses_anonymous_args = 0
 852:SynaptiX_FDK/lib/tinyusb/src/class/msc/msc_device.c ****   uint16_t const block_sz = rdwr10_get_blocksize(p_cbw); // already verified non-zero
 954              		.loc 1 852 3 view .LVU271
 853:SynaptiX_FDK/lib/tinyusb/src/class/msc/msc_device.c ****   TU_VERIFY(block_sz != 0, );
 955              		.loc 1 853 3 view .LVU272
 956              	.LBB153:
 957              	.LBI153:
 162:SynaptiX_FDK/lib/tinyusb/src/class/msc/msc_device.c ****   // first extract block count in the command
 958              		.loc 1 162 46 view .LVU273
 959              	.LBB154:
 164:SynaptiX_FDK/lib/tinyusb/src/class/msc/msc_device.c ****   if (block_count == 0) {
 960              		.loc 1 164 3 view .LVU274
 961              	.LBB155:
 962              	.LBI155:
 157:SynaptiX_FDK/lib/tinyusb/src/class/msc/msc_device.c ****   uint16_t const block_count = tu_unaligned_read16(cbw->command + offsetof(scsi_write10_t, block_co
 963              		.loc 1 157 46 view .LVU275
 964              	.LBB156:
 158:SynaptiX_FDK/lib/tinyusb/src/class/msc/msc_device.c ****   return tu_ntohs(block_count);
 965              		.loc 1 158 3 view .LVU276
 966              	.LBB157:
 967              	.LBI157:
 318:SynaptiX_FDK/lib/tinyusb/src/common/tusb_common.h ****   return *((uint16_t const *) mem);
 968              		.loc 2 318 46 view .LVU277
 969              	.LBB158:
 970              		.loc 2 319 3 view .LVU278
 971              		.loc 2 319 10 is_stmt 0 view .LVU279
 972 0000 C38A     		ldrh	r3, [r0, #22]
 973              	.LVL72:
 974              		.loc 2 319 10 view .LVU280
 975              	.LBE158:
 976              	.LBE157:
 159:SynaptiX_FDK/lib/tinyusb/src/class/msc/msc_device.c **** }
 977              		.loc 1 159 3 is_stmt 1 view .LVU281
 159:SynaptiX_FDK/lib/tinyusb/src/class/msc/msc_device.c **** }
ARM GAS  C:\Users\LENOVO\AppData\Local\Temp\cc8CFzeV.s 			page 47


 978              		.loc 1 159 3 is_stmt 0 view .LVU282
 979              	.LBE156:
 980              	.LBE155:
 165:SynaptiX_FDK/lib/tinyusb/src/class/msc/msc_device.c ****     return 0; // invalid block count
 981              		.loc 1 165 3 is_stmt 1 view .LVU283
 165:SynaptiX_FDK/lib/tinyusb/src/class/msc/msc_device.c ****     return 0; // invalid block count
 982              		.loc 1 165 6 is_stmt 0 view .LVU284
 983 0002 63B3     		cbz	r3, .L69
 984              	.LBE154:
 985              	.LBE153:
 851:SynaptiX_FDK/lib/tinyusb/src/class/msc/msc_device.c ****   msc_cbw_t const* p_cbw = &p_msc->cbw;
 986              		.loc 1 851 54 view .LVU285
 987 0004 10B5     		push	{r4, lr}
 988              	.LCFI13:
 989              		.cfi_def_cfa_offset 8
 990              		.cfi_offset 4, -8
 991              		.cfi_offset 14, -4
 992 0006 82B0     		sub	sp, sp, #8
 993              	.LCFI14:
 994              		.cfi_def_cfa_offset 16
 995 0008 0446     		mov	r4, r0
 996 000a 5ABA     		rev16	r2, r3
 997              	.LVL73:
 851:SynaptiX_FDK/lib/tinyusb/src/class/msc/msc_device.c ****   msc_cbw_t const* p_cbw = &p_msc->cbw;
 998              		.loc 1 851 54 view .LVU286
 999 000c 92B2     		uxth	r2, r2
 1000              	.LBB160:
 1001              	.LBB159:
 168:SynaptiX_FDK/lib/tinyusb/src/class/msc/msc_device.c **** }
 1002              		.loc 1 168 3 is_stmt 1 view .LVU287
 168:SynaptiX_FDK/lib/tinyusb/src/class/msc/msc_device.c **** }
 1003              		.loc 1 168 25 is_stmt 0 view .LVU288
 1004 000e 8368     		ldr	r3, [r0, #8]	@ unaligned
 1005              	.LVL74:
 168:SynaptiX_FDK/lib/tinyusb/src/class/msc/msc_device.c **** }
 1006              		.loc 1 168 39 view .LVU289
 1007 0010 B3FBF2F2 		udiv	r2, r3, r2
 1008              	.LVL75:
 168:SynaptiX_FDK/lib/tinyusb/src/class/msc/msc_device.c **** }
 1009              		.loc 1 168 10 view .LVU290
 1010 0014 92B2     		uxth	r2, r2
 1011              	.LVL76:
 168:SynaptiX_FDK/lib/tinyusb/src/class/msc/msc_device.c **** }
 1012              		.loc 1 168 10 view .LVU291
 1013              	.LBE159:
 1014              	.LBE160:
 854:SynaptiX_FDK/lib/tinyusb/src/class/msc/msc_device.c ****   // Adjust lba & offset with transferred bytes
 1015              		.loc 1 854 3 is_stmt 1 view .LVU292
 854:SynaptiX_FDK/lib/tinyusb/src/class/msc/msc_device.c ****   // Adjust lba & offset with transferred bytes
 1016              		.loc 1 854 3 view .LVU293
 1017 0016 0AB9     		cbnz	r2, .L72
 1018              	.LVL77:
 1019              	.L66:
 868:SynaptiX_FDK/lib/tinyusb/src/class/msc/msc_device.c **** 
 1020              		.loc 1 868 1 is_stmt 0 view .LVU294
 1021 0018 02B0     		add	sp, sp, #8
 1022              	.LCFI15:
ARM GAS  C:\Users\LENOVO\AppData\Local\Temp\cc8CFzeV.s 			page 48


 1023              		.cfi_remember_state
 1024              		.cfi_def_cfa_offset 8
 1025              		@ sp needed
 1026 001a 10BD     		pop	{r4, pc}
 1027              	.LVL78:
 1028              	.L72:
 1029              	.LCFI16:
 1030              		.cfi_restore_state
 854:SynaptiX_FDK/lib/tinyusb/src/class/msc/msc_device.c ****   // Adjust lba & offset with transferred bytes
 1031              		.loc 1 854 3 is_stmt 1 discriminator 2 view .LVU295
 856:SynaptiX_FDK/lib/tinyusb/src/class/msc/msc_device.c ****   uint32_t const offset = p_msc->xferred_len % block_sz;
 1032              		.loc 1 856 3 view .LVU296
 1033              	.LBB161:
 1034              	.LBI161:
 151:SynaptiX_FDK/lib/tinyusb/src/class/msc/msc_device.c ****   // use offsetof to avoid pointer to the odd/unaligned address
 1035              		.loc 1 151 46 view .LVU297
 1036              	.LBB162:
 153:SynaptiX_FDK/lib/tinyusb/src/class/msc/msc_device.c ****   return tu_ntohl(lba); // lba is in Big Endian
 1037              		.loc 1 153 3 view .LVU298
 1038              	.LBB163:
 1039              	.LBI163:
 314:SynaptiX_FDK/lib/tinyusb/src/common/tusb_common.h ****   return *((uint32_t const *) mem);
 1040              		.loc 2 314 46 view .LVU299
 1041              	.LBB164:
 315:SynaptiX_FDK/lib/tinyusb/src/common/tusb_common.h **** }
 1042              		.loc 2 315 3 view .LVU300
 315:SynaptiX_FDK/lib/tinyusb/src/common/tusb_common.h **** }
 1043              		.loc 2 315 10 is_stmt 0 view .LVU301
 1044 001c D0F81110 		ldr	r1, [r0, #17]
 1045              	.LVL79:
 315:SynaptiX_FDK/lib/tinyusb/src/common/tusb_common.h **** }
 1046              		.loc 2 315 10 view .LVU302
 1047              	.LBE164:
 1048              	.LBE163:
 154:SynaptiX_FDK/lib/tinyusb/src/class/msc/msc_device.c **** }
 1049              		.loc 1 154 3 is_stmt 1 view .LVU303
 154:SynaptiX_FDK/lib/tinyusb/src/class/msc/msc_device.c **** }
 1050              		.loc 1 154 10 is_stmt 0 view .LVU304
 1051 0020 09BA     		rev	r1, r1
 1052              	.LVL80:
 154:SynaptiX_FDK/lib/tinyusb/src/class/msc/msc_device.c **** }
 1053              		.loc 1 154 10 view .LVU305
 1054              	.LBE162:
 1055              	.LBE161:
 856:SynaptiX_FDK/lib/tinyusb/src/class/msc/msc_device.c ****   uint32_t const offset = p_msc->xferred_len % block_sz;
 1056              		.loc 1 856 63 discriminator 1 view .LVU306
 1057 0022 406B     		ldr	r0, [r0, #52]
 1058              	.LVL81:
 856:SynaptiX_FDK/lib/tinyusb/src/class/msc/msc_device.c ****   uint32_t const offset = p_msc->xferred_len % block_sz;
 1059              		.loc 1 856 77 discriminator 1 view .LVU307
 1060 0024 B0FBF2FC 		udiv	ip, r0, r2
 1061              	.LVL82:
 857:SynaptiX_FDK/lib/tinyusb/src/class/msc/msc_device.c **** 
 1062              		.loc 1 857 3 is_stmt 1 view .LVU308
 860:SynaptiX_FDK/lib/tinyusb/src/class/msc/msc_device.c **** 
 1063              		.loc 1 860 3 view .LVU309
 860:SynaptiX_FDK/lib/tinyusb/src/class/msc/msc_device.c **** 
ARM GAS  C:\Users\LENOVO\AppData\Local\Temp\cc8CFzeV.s 			page 49


 1064              		.loc 1 860 29 is_stmt 0 view .LVU310
 1065 0028 1B1A     		subs	r3, r3, r0
 1066              	.LVL83:
 1067              	.LBB165:
 1068              	.LBI165:
 207:SynaptiX_FDK/lib/tinyusb/src/common/tusb_common.h **** 
 1069              		.loc 2 207 46 is_stmt 1 view .LVU311
 1070              	.LBB166:
 207:SynaptiX_FDK/lib/tinyusb/src/common/tusb_common.h **** 
 1071              		.loc 2 207 82 view .LVU312
 207:SynaptiX_FDK/lib/tinyusb/src/common/tusb_common.h **** 
 1072              		.loc 2 207 101 is_stmt 0 view .LVU313
 1073 002a 402B     		cmp	r3, #64
 1074 002c 28BF     		it	cs
 1075 002e 4023     		movcs	r3, #64
 1076              	.LVL84:
 207:SynaptiX_FDK/lib/tinyusb/src/common/tusb_common.h **** 
 1077              		.loc 2 207 101 view .LVU314
 1078              	.LBE166:
 1079              	.LBE165:
 862:SynaptiX_FDK/lib/tinyusb/src/class/msc/msc_device.c ****   nbytes = tud_msc_read10_cb(p_cbw->lun, lba, offset, _mscd_epbuf.buf, (uint32_t)nbytes);
 1080              		.loc 1 862 3 is_stmt 1 view .LVU315
 862:SynaptiX_FDK/lib/tinyusb/src/class/msc/msc_device.c ****   nbytes = tud_msc_read10_cb(p_cbw->lun, lba, offset, _mscd_epbuf.buf, (uint32_t)nbytes);
 1081              		.loc 1 862 21 is_stmt 0 view .LVU316
 1082 0030 4FF0010E 		mov	lr, #1
 1083 0034 84F83CE0 		strb	lr, [r4, #60]
 863:SynaptiX_FDK/lib/tinyusb/src/class/msc/msc_device.c ****   if (nbytes != TUD_MSC_RET_ASYNC) {
 1084              		.loc 1 863 3 is_stmt 1 view .LVU317
 863:SynaptiX_FDK/lib/tinyusb/src/class/msc/msc_device.c ****   if (nbytes != TUD_MSC_RET_ASYNC) {
 1085              		.loc 1 863 12 is_stmt 0 view .LVU318
 1086 0038 0093     		str	r3, [sp]
 1087              	.LVL85:
 863:SynaptiX_FDK/lib/tinyusb/src/class/msc/msc_device.c ****   if (nbytes != TUD_MSC_RET_ASYNC) {
 1088              		.loc 1 863 12 view .LVU319
 1089 003a 094B     		ldr	r3, .L73
 1090              	.LVL86:
 863:SynaptiX_FDK/lib/tinyusb/src/class/msc/msc_device.c ****   if (nbytes != TUD_MSC_RET_ASYNC) {
 1091              		.loc 1 863 12 view .LVU320
 1092 003c 02FB1C02 		mls	r2, r2, ip, r0
 1093              	.LVL87:
 863:SynaptiX_FDK/lib/tinyusb/src/class/msc/msc_device.c ****   if (nbytes != TUD_MSC_RET_ASYNC) {
 1094              		.loc 1 863 12 view .LVU321
 1095 0040 6144     		add	r1, r1, ip
 1096              	.LVL88:
 863:SynaptiX_FDK/lib/tinyusb/src/class/msc/msc_device.c ****   if (nbytes != TUD_MSC_RET_ASYNC) {
 1097              		.loc 1 863 12 view .LVU322
 1098 0042 607B     		ldrb	r0, [r4, #13]	@ zero_extendqisi2
 1099 0044 FFF7FEFF 		bl	tud_msc_read10_cb
 1100              	.LVL89:
 864:SynaptiX_FDK/lib/tinyusb/src/class/msc/msc_device.c ****     p_msc->pending_io = false;
 1101              		.loc 1 864 3 is_stmt 1 view .LVU323
 864:SynaptiX_FDK/lib/tinyusb/src/class/msc/msc_device.c ****     p_msc->pending_io = false;
 1102              		.loc 1 864 6 is_stmt 0 view .LVU324
 1103 0048 10F1020F 		cmn	r0, #2
 1104 004c E4D0     		beq	.L66
 865:SynaptiX_FDK/lib/tinyusb/src/class/msc/msc_device.c ****     proc_read_io_data(p_msc, nbytes);
 1105              		.loc 1 865 5 is_stmt 1 view .LVU325
ARM GAS  C:\Users\LENOVO\AppData\Local\Temp\cc8CFzeV.s 			page 50


 865:SynaptiX_FDK/lib/tinyusb/src/class/msc/msc_device.c ****     proc_read_io_data(p_msc, nbytes);
 1106              		.loc 1 865 23 is_stmt 0 view .LVU326
 1107 004e 0023     		movs	r3, #0
 1108 0050 84F83C30 		strb	r3, [r4, #60]
 866:SynaptiX_FDK/lib/tinyusb/src/class/msc/msc_device.c ****   }
 1109              		.loc 1 866 5 is_stmt 1 view .LVU327
 1110 0054 0146     		mov	r1, r0
 1111 0056 2046     		mov	r0, r4
 1112              	.LVL90:
 866:SynaptiX_FDK/lib/tinyusb/src/class/msc/msc_device.c ****   }
 1113              		.loc 1 866 5 is_stmt 0 view .LVU328
 1114 0058 FFF7FEFF 		bl	proc_read_io_data
 1115              	.LVL91:
 866:SynaptiX_FDK/lib/tinyusb/src/class/msc/msc_device.c ****   }
 1116              		.loc 1 866 5 view .LVU329
 1117 005c DCE7     		b	.L66
 1118              	.LVL92:
 1119              	.L69:
 1120              	.LCFI17:
 1121              		.cfi_def_cfa_offset 0
 1122              		.cfi_restore 4
 1123              		.cfi_restore 14
 866:SynaptiX_FDK/lib/tinyusb/src/class/msc/msc_device.c ****   }
 1124              		.loc 1 866 5 view .LVU330
 1125 005e 7047     		bx	lr
 1126              	.L74:
 1127              		.align	2
 1128              	.L73:
 1129 0060 00000000 		.word	_mscd_epbuf
 1130              		.cfi_endproc
 1131              	.LFE666:
 1133              		.section	.text.proc_write10_cmd,"ax",%progbits
 1134              		.align	1
 1135              		.syntax unified
 1136              		.thumb
 1137              		.thumb_func
 1139              	proc_write10_cmd:
 1140              	.LVL93:
 1141              	.LFB668:
 893:SynaptiX_FDK/lib/tinyusb/src/class/msc/msc_device.c **** 
 894:SynaptiX_FDK/lib/tinyusb/src/class/msc/msc_device.c **** static void proc_write10_cmd(mscd_interface_t* p_msc) {
 1142              		.loc 1 894 55 is_stmt 1 view -0
 1143              		.cfi_startproc
 1144              		@ args = 0, pretend = 0, frame = 0
 1145              		@ frame_needed = 0, uses_anonymous_args = 0
 1146              		.loc 1 894 55 is_stmt 0 view .LVU332
 1147 0000 10B5     		push	{r4, lr}
 1148              	.LCFI18:
 1149              		.cfi_def_cfa_offset 8
 1150              		.cfi_offset 4, -8
 1151              		.cfi_offset 14, -4
 1152 0002 82B0     		sub	sp, sp, #8
 1153              	.LCFI19:
 1154              		.cfi_def_cfa_offset 16
 1155 0004 0446     		mov	r4, r0
 895:SynaptiX_FDK/lib/tinyusb/src/class/msc/msc_device.c ****   msc_cbw_t const* p_cbw = &p_msc->cbw;
 1156              		.loc 1 895 3 is_stmt 1 view .LVU333
ARM GAS  C:\Users\LENOVO\AppData\Local\Temp\cc8CFzeV.s 			page 51


 1157              	.LVL94:
 896:SynaptiX_FDK/lib/tinyusb/src/class/msc/msc_device.c ****   const bool writable = tud_msc_is_writable_cb(p_cbw->lun);
 1158              		.loc 1 896 3 view .LVU334
 1159              		.loc 1 896 25 is_stmt 0 view .LVU335
 1160 0006 407B     		ldrb	r0, [r0, #13]	@ zero_extendqisi2
 1161              	.LVL95:
 1162              		.loc 1 896 25 view .LVU336
 1163 0008 FFF7FEFF 		bl	tud_msc_is_writable_cb
 1164              	.LVL96:
 897:SynaptiX_FDK/lib/tinyusb/src/class/msc/msc_device.c **** 
 898:SynaptiX_FDK/lib/tinyusb/src/class/msc/msc_device.c ****   if (!writable) {
 1165              		.loc 1 898 3 is_stmt 1 view .LVU337
 1166              		.loc 1 898 6 is_stmt 0 view .LVU338
 1167 000c 88B1     		cbz	r0, .L80
 899:SynaptiX_FDK/lib/tinyusb/src/class/msc/msc_device.c ****     // Not writable, complete this SCSI op with error
 900:SynaptiX_FDK/lib/tinyusb/src/class/msc/msc_device.c ****     // Sense = Write protected
 901:SynaptiX_FDK/lib/tinyusb/src/class/msc/msc_device.c ****     (void) tud_msc_set_sense(p_cbw->lun, SCSI_SENSE_DATA_PROTECT, 0x27, 0x00);
 902:SynaptiX_FDK/lib/tinyusb/src/class/msc/msc_device.c ****     fail_scsi_op(p_msc, MSC_CSW_STATUS_FAILED);
 903:SynaptiX_FDK/lib/tinyusb/src/class/msc/msc_device.c ****     return;
 904:SynaptiX_FDK/lib/tinyusb/src/class/msc/msc_device.c ****   }
 905:SynaptiX_FDK/lib/tinyusb/src/class/msc/msc_device.c **** 
 906:SynaptiX_FDK/lib/tinyusb/src/class/msc/msc_device.c ****   // remaining bytes capped at class buffer
 907:SynaptiX_FDK/lib/tinyusb/src/class/msc/msc_device.c ****   uint16_t nbytes = (uint16_t)tu_min32(CFG_TUD_MSC_EP_BUFSIZE, p_cbw->total_bytes - p_msc->xferred_
 1168              		.loc 1 907 3 is_stmt 1 view .LVU339
 1169              		.loc 1 907 69 is_stmt 0 view .LVU340
 1170 000e A368     		ldr	r3, [r4, #8]	@ unaligned
 1171              		.loc 1 907 90 view .LVU341
 1172 0010 626B     		ldr	r2, [r4, #52]
 1173              		.loc 1 907 31 view .LVU342
 1174 0012 9B1A     		subs	r3, r3, r2
 1175              	.LVL97:
 1176              	.LBB167:
 1177              	.LBI167:
 207:SynaptiX_FDK/lib/tinyusb/src/common/tusb_common.h **** 
 1178              		.loc 2 207 46 is_stmt 1 view .LVU343
 1179              	.LBB168:
 207:SynaptiX_FDK/lib/tinyusb/src/common/tusb_common.h **** 
 1180              		.loc 2 207 82 view .LVU344
 207:SynaptiX_FDK/lib/tinyusb/src/common/tusb_common.h **** 
 1181              		.loc 2 207 101 is_stmt 0 view .LVU345
 1182 0014 402B     		cmp	r3, #64
 1183 0016 28BF     		it	cs
 1184 0018 4023     		movcs	r3, #64
 1185              	.LVL98:
 207:SynaptiX_FDK/lib/tinyusb/src/common/tusb_common.h **** 
 1186              		.loc 2 207 101 view .LVU346
 1187              	.LBE168:
 1188              	.LBE167:
 908:SynaptiX_FDK/lib/tinyusb/src/class/msc/msc_device.c ****   // Write10 callback will be called later when usb transfer complete
 909:SynaptiX_FDK/lib/tinyusb/src/class/msc/msc_device.c ****   TU_ASSERT(usbd_edpt_xfer(p_msc->rhport, p_msc->ep_out, _mscd_epbuf.buf, nbytes, false),);
 1189              		.loc 1 909 3 is_stmt 1 view .LVU347
 1190              		.loc 1 909 3 view .LVU348
 1191 001a 0022     		movs	r2, #0
 1192 001c 0092     		str	r2, [sp]
 1193 001e 9BB2     		uxth	r3, r3
 1194              		.loc 1 909 3 is_stmt 0 view .LVU349
 1195 0020 0E4A     		ldr	r2, .L82
ARM GAS  C:\Users\LENOVO\AppData\Local\Temp\cc8CFzeV.s 			page 52


 1196 0022 94F82F10 		ldrb	r1, [r4, #47]	@ zero_extendqisi2
 1197 0026 E07F     		ldrb	r0, [r4, #31]	@ zero_extendqisi2
 1198              	.LVL99:
 1199              		.loc 1 909 3 view .LVU350
 1200 0028 FFF7FEFF 		bl	usbd_edpt_xfer
 1201              	.LVL100:
 1202              		.loc 1 909 3 discriminator 1 view .LVU351
 1203 002c 60B1     		cbz	r0, .L81
 1204              	.LVL101:
 1205              	.L75:
 910:SynaptiX_FDK/lib/tinyusb/src/class/msc/msc_device.c **** }
 1206              		.loc 1 910 1 view .LVU352
 1207 002e 02B0     		add	sp, sp, #8
 1208              	.LCFI20:
 1209              		.cfi_remember_state
 1210              		.cfi_def_cfa_offset 8
 1211              		@ sp needed
 1212 0030 10BD     		pop	{r4, pc}
 1213              	.LVL102:
 1214              	.L80:
 1215              	.LCFI21:
 1216              		.cfi_restore_state
 901:SynaptiX_FDK/lib/tinyusb/src/class/msc/msc_device.c ****     fail_scsi_op(p_msc, MSC_CSW_STATUS_FAILED);
 1217              		.loc 1 901 5 is_stmt 1 view .LVU353
 901:SynaptiX_FDK/lib/tinyusb/src/class/msc/msc_device.c ****     fail_scsi_op(p_msc, MSC_CSW_STATUS_FAILED);
 1218              		.loc 1 901 12 is_stmt 0 view .LVU354
 1219 0032 0023     		movs	r3, #0
 1220 0034 2722     		movs	r2, #39
 1221 0036 0721     		movs	r1, #7
 1222 0038 607B     		ldrb	r0, [r4, #13]	@ zero_extendqisi2
 1223              	.LVL103:
 901:SynaptiX_FDK/lib/tinyusb/src/class/msc/msc_device.c ****     fail_scsi_op(p_msc, MSC_CSW_STATUS_FAILED);
 1224              		.loc 1 901 12 view .LVU355
 1225 003a FFF7FEFF 		bl	tud_msc_set_sense
 1226              	.LVL104:
 902:SynaptiX_FDK/lib/tinyusb/src/class/msc/msc_device.c ****     return;
 1227              		.loc 1 902 5 is_stmt 1 view .LVU356
 1228 003e 0121     		movs	r1, #1
 1229 0040 2046     		mov	r0, r4
 1230 0042 FFF7FEFF 		bl	fail_scsi_op
 1231              	.LVL105:
 903:SynaptiX_FDK/lib/tinyusb/src/class/msc/msc_device.c ****   }
 1232              		.loc 1 903 5 view .LVU357
 1233 0046 F2E7     		b	.L75
 1234              	.LVL106:
 1235              	.L81:
 909:SynaptiX_FDK/lib/tinyusb/src/class/msc/msc_device.c **** }
 1236              		.loc 1 909 3 discriminator 1 view .LVU358
 909:SynaptiX_FDK/lib/tinyusb/src/class/msc/msc_device.c **** }
 1237              		.loc 1 909 3 discriminator 1 view .LVU359
 909:SynaptiX_FDK/lib/tinyusb/src/class/msc/msc_device.c **** }
 1238              		.loc 1 909 3 discriminator 1 view .LVU360
 909:SynaptiX_FDK/lib/tinyusb/src/class/msc/msc_device.c **** }
 1239              		.loc 1 909 3 discriminator 1 view .LVU361
 1240              	.LBB169:
 909:SynaptiX_FDK/lib/tinyusb/src/class/msc/msc_device.c **** }
 1241              		.loc 1 909 3 discriminator 1 view .LVU362
ARM GAS  C:\Users\LENOVO\AppData\Local\Temp\cc8CFzeV.s 			page 53


 909:SynaptiX_FDK/lib/tinyusb/src/class/msc/msc_device.c **** }
 1242              		.loc 1 909 3 discriminator 1 view .LVU363
 1243 0048 4FF0E023 		mov	r3, #-536813568
 1244 004c D3F8F03D 		ldr	r3, [r3, #3568]
 1245 0050 13F0010F 		tst	r3, #1
 1246 0054 EBD0     		beq	.L75
 909:SynaptiX_FDK/lib/tinyusb/src/class/msc/msc_device.c **** }
 1247              		.loc 1 909 3 discriminator 3 view .LVU364
 1248              		.syntax unified
 1249              	@ 909 "SynaptiX_FDK/lib/tinyusb/src/class/msc/msc_device.c" 1
 1250 0056 00BE     		BKPT #0
 1251              	
 1252              	@ 0 "" 2
 1253              		.thumb
 1254              		.syntax unified
 1255              	.LBE169:
 909:SynaptiX_FDK/lib/tinyusb/src/class/msc/msc_device.c **** }
 1256              		.loc 1 909 3 discriminator 5 view .LVU365
 909:SynaptiX_FDK/lib/tinyusb/src/class/msc/msc_device.c **** }
 1257              		.loc 1 909 3 discriminator 5 view .LVU366
 909:SynaptiX_FDK/lib/tinyusb/src/class/msc/msc_device.c **** }
 1258              		.loc 1 909 3 discriminator 6 view .LVU367
 909:SynaptiX_FDK/lib/tinyusb/src/class/msc/msc_device.c **** }
 1259              		.loc 1 909 3 is_stmt 0 view .LVU368
 1260 0058 E9E7     		b	.L75
 1261              	.L83:
 1262 005a 00BF     		.align	2
 1263              	.L82:
 1264 005c 00000000 		.word	_mscd_epbuf
 1265              		.cfi_endproc
 1266              	.LFE668:
 1268              		.section	.text.proc_write_io_data,"ax",%progbits
 1269              		.align	1
 1270              		.syntax unified
 1271              		.thumb
 1272              		.thumb_func
 1274              	proc_write_io_data:
 1275              	.LVL107:
 1276              	.LFB670:
 911:SynaptiX_FDK/lib/tinyusb/src/class/msc/msc_device.c **** 
 912:SynaptiX_FDK/lib/tinyusb/src/class/msc/msc_device.c **** // process new data arrived from WRITE10
 913:SynaptiX_FDK/lib/tinyusb/src/class/msc/msc_device.c **** static void proc_write10_host_data(mscd_interface_t* p_msc, uint32_t xferred_bytes) {
 914:SynaptiX_FDK/lib/tinyusb/src/class/msc/msc_device.c ****   msc_cbw_t const* p_cbw = &p_msc->cbw;
 915:SynaptiX_FDK/lib/tinyusb/src/class/msc/msc_device.c ****   uint16_t const block_sz = rdwr10_get_blocksize(p_cbw); // already verified non-zero
 916:SynaptiX_FDK/lib/tinyusb/src/class/msc/msc_device.c ****   TU_VERIFY(block_sz != 0, );
 917:SynaptiX_FDK/lib/tinyusb/src/class/msc/msc_device.c **** 
 918:SynaptiX_FDK/lib/tinyusb/src/class/msc/msc_device.c ****   // Adjust lba & offset with transferred bytes
 919:SynaptiX_FDK/lib/tinyusb/src/class/msc/msc_device.c ****   uint32_t const lba = rdwr10_get_lba(p_cbw->command) + (p_msc->xferred_len / block_sz);
 920:SynaptiX_FDK/lib/tinyusb/src/class/msc/msc_device.c ****   uint32_t const offset = p_msc->xferred_len % block_sz;
 921:SynaptiX_FDK/lib/tinyusb/src/class/msc/msc_device.c **** 
 922:SynaptiX_FDK/lib/tinyusb/src/class/msc/msc_device.c ****   p_msc->pending_io = true;
 923:SynaptiX_FDK/lib/tinyusb/src/class/msc/msc_device.c ****   int32_t nbytes =  tud_msc_write10_cb(p_cbw->lun, lba, offset, _mscd_epbuf.buf, xferred_bytes);
 924:SynaptiX_FDK/lib/tinyusb/src/class/msc/msc_device.c ****   if (nbytes != TUD_MSC_RET_ASYNC) {
 925:SynaptiX_FDK/lib/tinyusb/src/class/msc/msc_device.c ****     p_msc->pending_io = false;
 926:SynaptiX_FDK/lib/tinyusb/src/class/msc/msc_device.c ****     proc_write_io_data(p_msc, xferred_bytes, nbytes);
 927:SynaptiX_FDK/lib/tinyusb/src/class/msc/msc_device.c ****   }
 928:SynaptiX_FDK/lib/tinyusb/src/class/msc/msc_device.c **** }
ARM GAS  C:\Users\LENOVO\AppData\Local\Temp\cc8CFzeV.s 			page 54


 929:SynaptiX_FDK/lib/tinyusb/src/class/msc/msc_device.c **** 
 930:SynaptiX_FDK/lib/tinyusb/src/class/msc/msc_device.c **** static void proc_write_io_data(mscd_interface_t* p_msc, uint32_t xferred_bytes, int32_t nbytes) {
 1277              		.loc 1 930 97 is_stmt 1 view -0
 1278              		.cfi_startproc
 1279              		@ args = 0, pretend = 0, frame = 16
 1280              		@ frame_needed = 0, uses_anonymous_args = 0
 1281              		.loc 1 930 97 is_stmt 0 view .LVU370
 1282 0000 30B5     		push	{r4, r5, lr}
 1283              	.LCFI22:
 1284              		.cfi_def_cfa_offset 12
 1285              		.cfi_offset 4, -12
 1286              		.cfi_offset 5, -8
 1287              		.cfi_offset 14, -4
 1288 0002 85B0     		sub	sp, sp, #20
 1289              	.LCFI23:
 1290              		.cfi_def_cfa_offset 32
 1291 0004 0446     		mov	r4, r0
 931:SynaptiX_FDK/lib/tinyusb/src/class/msc/msc_device.c ****   if (nbytes < 0) {
 1292              		.loc 1 931 3 is_stmt 1 view .LVU371
 1293              		.loc 1 931 6 is_stmt 0 view .LVU372
 1294 0006 131E     		subs	r3, r2, #0
 1295 0008 16DB     		blt	.L91
 932:SynaptiX_FDK/lib/tinyusb/src/class/msc/msc_device.c ****     // nbytes is status
 933:SynaptiX_FDK/lib/tinyusb/src/class/msc/msc_device.c ****     switch (nbytes) {
 934:SynaptiX_FDK/lib/tinyusb/src/class/msc/msc_device.c ****       case TUD_MSC_RET_ERROR:
 935:SynaptiX_FDK/lib/tinyusb/src/class/msc/msc_device.c ****         // IO error -> failed this scsi op
 936:SynaptiX_FDK/lib/tinyusb/src/class/msc/msc_device.c ****         TU_LOG_DRV("  IO write() failed\r\n");
 937:SynaptiX_FDK/lib/tinyusb/src/class/msc/msc_device.c ****         set_sense_medium_not_present(p_msc->cbw.lun);
 938:SynaptiX_FDK/lib/tinyusb/src/class/msc/msc_device.c ****         fail_scsi_op(p_msc, MSC_CSW_STATUS_FAILED);
 939:SynaptiX_FDK/lib/tinyusb/src/class/msc/msc_device.c ****         break;
 940:SynaptiX_FDK/lib/tinyusb/src/class/msc/msc_device.c **** 
 941:SynaptiX_FDK/lib/tinyusb/src/class/msc/msc_device.c ****       default: break; // nothing to do
 942:SynaptiX_FDK/lib/tinyusb/src/class/msc/msc_device.c ****     }
 943:SynaptiX_FDK/lib/tinyusb/src/class/msc/msc_device.c ****   } else {
 944:SynaptiX_FDK/lib/tinyusb/src/class/msc/msc_device.c ****     if ((uint32_t)nbytes < xferred_bytes) {
 1296              		.loc 1 944 5 is_stmt 1 view .LVU373
 1297              		.loc 1 944 8 is_stmt 0 view .LVU374
 1298 000a 8B42     		cmp	r3, r1
 1299 000c 2AD2     		bcs	.L87
 1300              	.LBB170:
 945:SynaptiX_FDK/lib/tinyusb/src/class/msc/msc_device.c ****       // Application consume less than what we got including TUD_MSC_RET_BUSY (0)
 946:SynaptiX_FDK/lib/tinyusb/src/class/msc/msc_device.c ****       const uint32_t left_over = xferred_bytes - (uint32_t)nbytes;
 1301              		.loc 1 946 7 is_stmt 1 view .LVU375
 1302              		.loc 1 946 22 is_stmt 0 view .LVU376
 1303 000e CD1A     		subs	r5, r1, r3
 1304              	.LVL108:
 947:SynaptiX_FDK/lib/tinyusb/src/class/msc/msc_device.c ****       if (nbytes > 0) {
 1305              		.loc 1 947 7 is_stmt 1 view .LVU377
 1306              		.loc 1 947 10 is_stmt 0 view .LVU378
 1307 0010 002B     		cmp	r3, #0
 1308 0012 21DC     		bgt	.L92
 1309              	.LVL109:
 1310              	.L88:
 948:SynaptiX_FDK/lib/tinyusb/src/class/msc/msc_device.c ****         memmove(_mscd_epbuf.buf, _mscd_epbuf.buf + nbytes, left_over);
 949:SynaptiX_FDK/lib/tinyusb/src/class/msc/msc_device.c ****       }
 950:SynaptiX_FDK/lib/tinyusb/src/class/msc/msc_device.c **** 
 951:SynaptiX_FDK/lib/tinyusb/src/class/msc/msc_device.c ****       // fake a transfer complete with adjusted parameters --> callback will be invoked with adjust
ARM GAS  C:\Users\LENOVO\AppData\Local\Temp\cc8CFzeV.s 			page 55


 952:SynaptiX_FDK/lib/tinyusb/src/class/msc/msc_device.c ****       dcd_event_xfer_complete(p_msc->rhport, p_msc->ep_out, left_over, XFER_RESULT_SUCCESS, false);
 1311              		.loc 1 952 7 is_stmt 1 view .LVU379
 1312 0014 E27F     		ldrb	r2, [r4, #31]	@ zero_extendqisi2
 1313 0016 94F82F30 		ldrb	r3, [r4, #47]	@ zero_extendqisi2
 1314              	.LVL110:
 1315              	.LBB171:
 1316              	.LBI171:
 226:SynaptiX_FDK/lib/tinyusb/src/device/dcd.h ****   dcd_event_t event;
 1317              		.loc 3 226 42 view .LVU380
 1318              	.LBB172:
 227:SynaptiX_FDK/lib/tinyusb/src/device/dcd.h ****   event.rhport = rhport;
 1319              		.loc 3 227 3 view .LVU381
 228:SynaptiX_FDK/lib/tinyusb/src/device/dcd.h ****   event.event_id = DCD_EVENT_XFER_COMPLETE;
 1320              		.loc 3 228 3 view .LVU382
 228:SynaptiX_FDK/lib/tinyusb/src/device/dcd.h ****   event.event_id = DCD_EVENT_XFER_COMPLETE;
 1321              		.loc 3 228 16 is_stmt 0 view .LVU383
 1322 001a 8DF80420 		strb	r2, [sp, #4]
 229:SynaptiX_FDK/lib/tinyusb/src/device/dcd.h ****   event.xfer_complete.ep_addr = ep_addr;
 1323              		.loc 3 229 3 is_stmt 1 view .LVU384
 229:SynaptiX_FDK/lib/tinyusb/src/device/dcd.h ****   event.xfer_complete.ep_addr = ep_addr;
 1324              		.loc 3 229 18 is_stmt 0 view .LVU385
 1325 001e 0722     		movs	r2, #7
 1326              	.LVL111:
 229:SynaptiX_FDK/lib/tinyusb/src/device/dcd.h ****   event.xfer_complete.ep_addr = ep_addr;
 1327              		.loc 3 229 18 view .LVU386
 1328 0020 8DF80520 		strb	r2, [sp, #5]
 230:SynaptiX_FDK/lib/tinyusb/src/device/dcd.h ****   event.xfer_complete.len     = xferred_bytes;
 1329              		.loc 3 230 3 is_stmt 1 view .LVU387
 230:SynaptiX_FDK/lib/tinyusb/src/device/dcd.h ****   event.xfer_complete.len     = xferred_bytes;
 1330              		.loc 3 230 31 is_stmt 0 view .LVU388
 1331 0024 8DF80830 		strb	r3, [sp, #8]
 231:SynaptiX_FDK/lib/tinyusb/src/device/dcd.h ****   event.xfer_complete.result  = result;
 1332              		.loc 3 231 3 is_stmt 1 view .LVU389
 231:SynaptiX_FDK/lib/tinyusb/src/device/dcd.h ****   event.xfer_complete.result  = result;
 1333              		.loc 3 231 31 is_stmt 0 view .LVU390
 1334 0028 0395     		str	r5, [sp, #12]
 232:SynaptiX_FDK/lib/tinyusb/src/device/dcd.h ****   dcd_event_handler(&event, in_isr);
 1335              		.loc 3 232 3 is_stmt 1 view .LVU391
 232:SynaptiX_FDK/lib/tinyusb/src/device/dcd.h ****   dcd_event_handler(&event, in_isr);
 1336              		.loc 3 232 31 is_stmt 0 view .LVU392
 1337 002a 0021     		movs	r1, #0
 1338 002c 8DF80910 		strb	r1, [sp, #9]
 233:SynaptiX_FDK/lib/tinyusb/src/device/dcd.h **** }
 1339              		.loc 3 233 3 is_stmt 1 view .LVU393
 1340 0030 01A8     		add	r0, sp, #4
 1341              	.LVL112:
 233:SynaptiX_FDK/lib/tinyusb/src/device/dcd.h **** }
 1342              		.loc 3 233 3 is_stmt 0 view .LVU394
 1343 0032 FFF7FEFF 		bl	dcd_event_handler
 1344              	.LVL113:
 1345              		.loc 3 234 1 view .LVU395
 1346 0036 02E0     		b	.L84
 1347              	.LVL114:
 1348              	.L91:
 1349              		.loc 3 234 1 view .LVU396
 1350              	.LBE172:
 1351              	.LBE171:
ARM GAS  C:\Users\LENOVO\AppData\Local\Temp\cc8CFzeV.s 			page 56


 1352              	.LBE170:
 933:SynaptiX_FDK/lib/tinyusb/src/class/msc/msc_device.c ****       case TUD_MSC_RET_ERROR:
 1353              		.loc 1 933 5 is_stmt 1 view .LVU397
 1354 0038 B3F1FF3F 		cmp	r3, #-1
 1355 003c 01D0     		beq	.L93
 1356              	.LVL115:
 1357              	.L84:
 953:SynaptiX_FDK/lib/tinyusb/src/class/msc/msc_device.c ****     } else {
 954:SynaptiX_FDK/lib/tinyusb/src/class/msc/msc_device.c ****       // Application consume all bytes in our buffer
 955:SynaptiX_FDK/lib/tinyusb/src/class/msc/msc_device.c ****       p_msc->xferred_len += xferred_bytes;
 956:SynaptiX_FDK/lib/tinyusb/src/class/msc/msc_device.c **** 
 957:SynaptiX_FDK/lib/tinyusb/src/class/msc/msc_device.c ****       if (p_msc->xferred_len >= p_msc->total_len) {
 958:SynaptiX_FDK/lib/tinyusb/src/class/msc/msc_device.c ****         // Data Stage is complete
 959:SynaptiX_FDK/lib/tinyusb/src/class/msc/msc_device.c ****         p_msc->stage = MSC_STAGE_STATUS;
 960:SynaptiX_FDK/lib/tinyusb/src/class/msc/msc_device.c ****       } else {
 961:SynaptiX_FDK/lib/tinyusb/src/class/msc/msc_device.c ****         // prepare to receive more data from host
 962:SynaptiX_FDK/lib/tinyusb/src/class/msc/msc_device.c ****         proc_write10_cmd(p_msc);
 963:SynaptiX_FDK/lib/tinyusb/src/class/msc/msc_device.c ****       }
 964:SynaptiX_FDK/lib/tinyusb/src/class/msc/msc_device.c ****     }
 965:SynaptiX_FDK/lib/tinyusb/src/class/msc/msc_device.c ****   }
 966:SynaptiX_FDK/lib/tinyusb/src/class/msc/msc_device.c **** }
 1358              		.loc 1 966 1 is_stmt 0 view .LVU398
 1359 003e 05B0     		add	sp, sp, #20
 1360              	.LCFI24:
 1361              		.cfi_remember_state
 1362              		.cfi_def_cfa_offset 12
 1363              		@ sp needed
 1364 0040 30BD     		pop	{r4, r5, pc}
 1365              	.LVL116:
 1366              	.L93:
 1367              	.LCFI25:
 1368              		.cfi_restore_state
 936:SynaptiX_FDK/lib/tinyusb/src/class/msc/msc_device.c ****         set_sense_medium_not_present(p_msc->cbw.lun);
 1369              		.loc 1 936 46 is_stmt 1 view .LVU399
 937:SynaptiX_FDK/lib/tinyusb/src/class/msc/msc_device.c ****         fail_scsi_op(p_msc, MSC_CSW_STATUS_FAILED);
 1370              		.loc 1 937 9 view .LVU400
 1371              	.LBB173:
 1372              	.LBI173:
 314:SynaptiX_FDK/lib/tinyusb/src/class/msc/msc_device.c ****   // default sense is NOT READY, MEDIUM NOT PRESENT
 1373              		.loc 1 314 42 view .LVU401
 1374              	.LBB174:
 316:SynaptiX_FDK/lib/tinyusb/src/class/msc/msc_device.c **** }
 1375              		.loc 1 316 3 view .LVU402
 316:SynaptiX_FDK/lib/tinyusb/src/class/msc/msc_device.c **** }
 1376              		.loc 1 316 10 is_stmt 0 view .LVU403
 1377 0042 0023     		movs	r3, #0
 1378 0044 3A22     		movs	r2, #58
 1379              	.LVL117:
 316:SynaptiX_FDK/lib/tinyusb/src/class/msc/msc_device.c **** }
 1380              		.loc 1 316 10 view .LVU404
 1381 0046 0221     		movs	r1, #2
 1382              	.LVL118:
 316:SynaptiX_FDK/lib/tinyusb/src/class/msc/msc_device.c **** }
 1383              		.loc 1 316 10 view .LVU405
 1384 0048 407B     		ldrb	r0, [r0, #13]	@ zero_extendqisi2
 1385              	.LVL119:
 316:SynaptiX_FDK/lib/tinyusb/src/class/msc/msc_device.c **** }
ARM GAS  C:\Users\LENOVO\AppData\Local\Temp\cc8CFzeV.s 			page 57


 1386              		.loc 1 316 10 view .LVU406
 1387 004a FFF7FEFF 		bl	tud_msc_set_sense
 1388              	.LVL120:
 316:SynaptiX_FDK/lib/tinyusb/src/class/msc/msc_device.c **** }
 1389              		.loc 1 316 10 view .LVU407
 1390              	.LBE174:
 1391              	.LBE173:
 938:SynaptiX_FDK/lib/tinyusb/src/class/msc/msc_device.c ****         break;
 1392              		.loc 1 938 9 is_stmt 1 view .LVU408
 1393 004e 0121     		movs	r1, #1
 1394 0050 2046     		mov	r0, r4
 1395 0052 FFF7FEFF 		bl	fail_scsi_op
 1396              	.LVL121:
 939:SynaptiX_FDK/lib/tinyusb/src/class/msc/msc_device.c **** 
 1397              		.loc 1 939 9 view .LVU409
 1398 0056 F2E7     		b	.L84
 1399              	.LVL122:
 1400              	.L92:
 1401              	.LBB175:
 948:SynaptiX_FDK/lib/tinyusb/src/class/msc/msc_device.c ****       }
 1402              		.loc 1 948 9 view .LVU410
 1403 0058 0948     		ldr	r0, .L94
 1404              	.LVL123:
 948:SynaptiX_FDK/lib/tinyusb/src/class/msc/msc_device.c ****       }
 1405              		.loc 1 948 9 is_stmt 0 view .LVU411
 1406 005a 2A46     		mov	r2, r5
 1407              	.LVL124:
 948:SynaptiX_FDK/lib/tinyusb/src/class/msc/msc_device.c ****       }
 1408              		.loc 1 948 9 view .LVU412
 1409 005c C118     		adds	r1, r0, r3
 1410              	.LVL125:
 948:SynaptiX_FDK/lib/tinyusb/src/class/msc/msc_device.c ****       }
 1411              		.loc 1 948 9 view .LVU413
 1412 005e FFF7FEFF 		bl	memmove
 1413              	.LVL126:
 948:SynaptiX_FDK/lib/tinyusb/src/class/msc/msc_device.c ****       }
 1414              		.loc 1 948 9 view .LVU414
 1415 0062 D7E7     		b	.L88
 1416              	.LVL127:
 1417              	.L87:
 948:SynaptiX_FDK/lib/tinyusb/src/class/msc/msc_device.c ****       }
 1418              		.loc 1 948 9 view .LVU415
 1419              	.LBE175:
 955:SynaptiX_FDK/lib/tinyusb/src/class/msc/msc_device.c **** 
 1420              		.loc 1 955 7 is_stmt 1 view .LVU416
 955:SynaptiX_FDK/lib/tinyusb/src/class/msc/msc_device.c **** 
 1421              		.loc 1 955 12 is_stmt 0 view .LVU417
 1422 0064 436B     		ldr	r3, [r0, #52]
 955:SynaptiX_FDK/lib/tinyusb/src/class/msc/msc_device.c **** 
 1423              		.loc 1 955 26 view .LVU418
 1424 0066 0B44     		add	r3, r3, r1
 1425 0068 4363     		str	r3, [r0, #52]
 957:SynaptiX_FDK/lib/tinyusb/src/class/msc/msc_device.c ****         // Data Stage is complete
 1426              		.loc 1 957 7 is_stmt 1 view .LVU419
 957:SynaptiX_FDK/lib/tinyusb/src/class/msc/msc_device.c ****         // Data Stage is complete
 1427              		.loc 1 957 38 is_stmt 0 view .LVU420
 1428 006a 026B     		ldr	r2, [r0, #48]
ARM GAS  C:\Users\LENOVO\AppData\Local\Temp\cc8CFzeV.s 			page 58


 1429              	.LVL128:
 957:SynaptiX_FDK/lib/tinyusb/src/class/msc/msc_device.c ****         // Data Stage is complete
 1430              		.loc 1 957 10 view .LVU421
 1431 006c 9342     		cmp	r3, r2
 1432 006e 03D3     		bcc	.L89
 959:SynaptiX_FDK/lib/tinyusb/src/class/msc/msc_device.c ****       } else {
 1433              		.loc 1 959 9 is_stmt 1 view .LVU422
 959:SynaptiX_FDK/lib/tinyusb/src/class/msc/msc_device.c ****       } else {
 1434              		.loc 1 959 22 is_stmt 0 view .LVU423
 1435 0070 0223     		movs	r3, #2
 1436 0072 80F83830 		strb	r3, [r0, #56]
 1437 0076 E2E7     		b	.L84
 1438              	.L89:
 962:SynaptiX_FDK/lib/tinyusb/src/class/msc/msc_device.c ****       }
 1439              		.loc 1 962 9 is_stmt 1 view .LVU424
 1440 0078 FFF7FEFF 		bl	proc_write10_cmd
 1441              	.LVL129:
 1442              		.loc 1 966 1 is_stmt 0 view .LVU425
 1443 007c DFE7     		b	.L84
 1444              	.L95:
 1445 007e 00BF     		.align	2
 1446              	.L94:
 1447 0080 00000000 		.word	_mscd_epbuf
 1448              		.cfi_endproc
 1449              	.LFE670:
 1451              		.section	.text.proc_async_io_done,"ax",%progbits
 1452              		.align	1
 1453              		.syntax unified
 1454              		.thumb
 1455              		.thumb_func
 1457              	proc_async_io_done:
 1458              	.LVL130:
 1459              	.LFB656:
 319:SynaptiX_FDK/lib/tinyusb/src/class/msc/msc_device.c ****   mscd_interface_t *p_msc = &_mscd_itf;
 1460              		.loc 1 319 48 is_stmt 1 view -0
 1461              		.cfi_startproc
 1462              		@ args = 0, pretend = 0, frame = 0
 1463              		@ frame_needed = 0, uses_anonymous_args = 0
 319:SynaptiX_FDK/lib/tinyusb/src/class/msc/msc_device.c ****   mscd_interface_t *p_msc = &_mscd_itf;
 1464              		.loc 1 319 48 is_stmt 0 view .LVU427
 1465 0000 08B5     		push	{r3, lr}
 1466              	.LCFI26:
 1467              		.cfi_def_cfa_offset 8
 1468              		.cfi_offset 3, -8
 1469              		.cfi_offset 14, -4
 320:SynaptiX_FDK/lib/tinyusb/src/class/msc/msc_device.c ****   TU_VERIFY(p_msc->pending_io, );
 1470              		.loc 1 320 3 is_stmt 1 view .LVU428
 1471              	.LVL131:
 321:SynaptiX_FDK/lib/tinyusb/src/class/msc/msc_device.c ****   const int32_t nbytes = (int32_t) (intptr_t) bytes_io;
 1472              		.loc 1 321 3 view .LVU429
 321:SynaptiX_FDK/lib/tinyusb/src/class/msc/msc_device.c ****   const int32_t nbytes = (int32_t) (intptr_t) bytes_io;
 1473              		.loc 1 321 3 view .LVU430
 1474 0002 104B     		ldr	r3, .L103
 1475 0004 93F83C30 		ldrb	r3, [r3, #60]	@ zero_extendqisi2
 1476 0008 BBB1     		cbz	r3, .L96
 321:SynaptiX_FDK/lib/tinyusb/src/class/msc/msc_device.c ****   const int32_t nbytes = (int32_t) (intptr_t) bytes_io;
 1477              		.loc 1 321 3 discriminator 2 view .LVU431
ARM GAS  C:\Users\LENOVO\AppData\Local\Temp\cc8CFzeV.s 			page 59


 322:SynaptiX_FDK/lib/tinyusb/src/class/msc/msc_device.c ****   const uint8_t cmd = p_msc->cbw.command[0];
 1478              		.loc 1 322 3 view .LVU432
 1479              	.LVL132:
 323:SynaptiX_FDK/lib/tinyusb/src/class/msc/msc_device.c **** 
 1480              		.loc 1 323 3 view .LVU433
 323:SynaptiX_FDK/lib/tinyusb/src/class/msc/msc_device.c **** 
 1481              		.loc 1 323 17 is_stmt 0 view .LVU434
 1482 000a 0E4B     		ldr	r3, .L103
 1483 000c DA7B     		ldrb	r2, [r3, #15]	@ zero_extendqisi2
 1484              	.LVL133:
 325:SynaptiX_FDK/lib/tinyusb/src/class/msc/msc_device.c ****   switch (cmd) {
 1485              		.loc 1 325 3 is_stmt 1 view .LVU435
 325:SynaptiX_FDK/lib/tinyusb/src/class/msc/msc_device.c ****   switch (cmd) {
 1486              		.loc 1 325 21 is_stmt 0 view .LVU436
 1487 000e 0021     		movs	r1, #0
 1488 0010 83F83C10 		strb	r1, [r3, #60]
 326:SynaptiX_FDK/lib/tinyusb/src/class/msc/msc_device.c ****     case SCSI_CMD_READ_10:
 1489              		.loc 1 326 3 is_stmt 1 view .LVU437
 1490 0014 282A     		cmp	r2, #40
 1491 0016 07D0     		beq	.L98
 1492 0018 2A2A     		cmp	r2, #42
 1493 001a 09D1     		bne	.L100
 332:SynaptiX_FDK/lib/tinyusb/src/class/msc/msc_device.c ****       break;
 1494              		.loc 1 332 7 view .LVU438
 1495 001c 0246     		mov	r2, r0
 1496              	.LVL134:
 332:SynaptiX_FDK/lib/tinyusb/src/class/msc/msc_device.c ****       break;
 1497              		.loc 1 332 7 is_stmt 0 view .LVU439
 1498 001e 0146     		mov	r1, r0
 1499 0020 0848     		ldr	r0, .L103
 1500              	.LVL135:
 332:SynaptiX_FDK/lib/tinyusb/src/class/msc/msc_device.c ****       break;
 1501              		.loc 1 332 7 view .LVU440
 1502 0022 FFF7FEFF 		bl	proc_write_io_data
 1503              	.LVL136:
 333:SynaptiX_FDK/lib/tinyusb/src/class/msc/msc_device.c **** 
 1504              		.loc 1 333 7 is_stmt 1 view .LVU441
 1505 0026 03E0     		b	.L100
 1506              	.LVL137:
 1507              	.L98:
 328:SynaptiX_FDK/lib/tinyusb/src/class/msc/msc_device.c ****       break;
 1508              		.loc 1 328 7 view .LVU442
 1509 0028 0146     		mov	r1, r0
 1510 002a 0648     		ldr	r0, .L103
 1511              	.LVL138:
 328:SynaptiX_FDK/lib/tinyusb/src/class/msc/msc_device.c ****       break;
 1512              		.loc 1 328 7 is_stmt 0 view .LVU443
 1513 002c FFF7FEFF 		bl	proc_read_io_data
 1514              	.LVL139:
 329:SynaptiX_FDK/lib/tinyusb/src/class/msc/msc_device.c **** 
 1515              		.loc 1 329 7 is_stmt 1 view .LVU444
 1516              	.L100:
 339:SynaptiX_FDK/lib/tinyusb/src/class/msc/msc_device.c ****     proc_stage_status(p_msc);
 1517              		.loc 1 339 3 view .LVU445
 339:SynaptiX_FDK/lib/tinyusb/src/class/msc/msc_device.c ****     proc_stage_status(p_msc);
 1518              		.loc 1 339 12 is_stmt 0 view .LVU446
 1519 0030 044B     		ldr	r3, .L103
ARM GAS  C:\Users\LENOVO\AppData\Local\Temp\cc8CFzeV.s 			page 60


 1520 0032 93F83830 		ldrb	r3, [r3, #56]	@ zero_extendqisi2
 339:SynaptiX_FDK/lib/tinyusb/src/class/msc/msc_device.c ****     proc_stage_status(p_msc);
 1521              		.loc 1 339 6 view .LVU447
 1522 0036 022B     		cmp	r3, #2
 1523 0038 00D0     		beq	.L102
 1524              	.LVL140:
 1525              	.L96:
 342:SynaptiX_FDK/lib/tinyusb/src/class/msc/msc_device.c **** 
 1526              		.loc 1 342 1 view .LVU448
 1527 003a 08BD     		pop	{r3, pc}
 1528              	.LVL141:
 1529              	.L102:
 340:SynaptiX_FDK/lib/tinyusb/src/class/msc/msc_device.c ****   }
 1530              		.loc 1 340 5 is_stmt 1 view .LVU449
 1531 003c 0148     		ldr	r0, .L103
 1532 003e FFF7FEFF 		bl	proc_stage_status
 1533              	.LVL142:
 1534 0042 FAE7     		b	.L96
 1535              	.L104:
 1536              		.align	2
 1537              	.L103:
 1538 0044 00000000 		.word	_mscd_itf
 1539              		.cfi_endproc
 1540              	.LFE656:
 1542              		.section	.text.proc_write10_host_data,"ax",%progbits
 1543              		.align	1
 1544              		.syntax unified
 1545              		.thumb
 1546              		.thumb_func
 1548              	proc_write10_host_data:
 1549              	.LVL143:
 1550              	.LFB669:
 913:SynaptiX_FDK/lib/tinyusb/src/class/msc/msc_device.c ****   msc_cbw_t const* p_cbw = &p_msc->cbw;
 1551              		.loc 1 913 85 view -0
 1552              		.cfi_startproc
 1553              		@ args = 0, pretend = 0, frame = 0
 1554              		@ frame_needed = 0, uses_anonymous_args = 0
 914:SynaptiX_FDK/lib/tinyusb/src/class/msc/msc_device.c ****   uint16_t const block_sz = rdwr10_get_blocksize(p_cbw); // already verified non-zero
 1555              		.loc 1 914 3 view .LVU451
 915:SynaptiX_FDK/lib/tinyusb/src/class/msc/msc_device.c ****   TU_VERIFY(block_sz != 0, );
 1556              		.loc 1 915 3 view .LVU452
 1557              	.LBB176:
 1558              	.LBI176:
 162:SynaptiX_FDK/lib/tinyusb/src/class/msc/msc_device.c ****   // first extract block count in the command
 1559              		.loc 1 162 46 view .LVU453
 1560              	.LBB177:
 164:SynaptiX_FDK/lib/tinyusb/src/class/msc/msc_device.c ****   if (block_count == 0) {
 1561              		.loc 1 164 3 view .LVU454
 1562              	.LBB178:
 1563              	.LBI178:
 157:SynaptiX_FDK/lib/tinyusb/src/class/msc/msc_device.c ****   uint16_t const block_count = tu_unaligned_read16(cbw->command + offsetof(scsi_write10_t, block_co
 1564              		.loc 1 157 46 view .LVU455
 1565              	.LBB179:
 158:SynaptiX_FDK/lib/tinyusb/src/class/msc/msc_device.c ****   return tu_ntohs(block_count);
 1566              		.loc 1 158 3 view .LVU456
 1567              	.LBB180:
 1568              	.LBI180:
ARM GAS  C:\Users\LENOVO\AppData\Local\Temp\cc8CFzeV.s 			page 61


 318:SynaptiX_FDK/lib/tinyusb/src/common/tusb_common.h ****   return *((uint16_t const *) mem);
 1569              		.loc 2 318 46 view .LVU457
 1570              	.LBB181:
 1571              		.loc 2 319 3 view .LVU458
 1572              		.loc 2 319 10 is_stmt 0 view .LVU459
 1573 0000 C28A     		ldrh	r2, [r0, #22]
 1574              	.LVL144:
 1575              		.loc 2 319 10 view .LVU460
 1576              	.LBE181:
 1577              	.LBE180:
 159:SynaptiX_FDK/lib/tinyusb/src/class/msc/msc_device.c **** }
 1578              		.loc 1 159 3 is_stmt 1 view .LVU461
 159:SynaptiX_FDK/lib/tinyusb/src/class/msc/msc_device.c **** }
 1579              		.loc 1 159 3 is_stmt 0 view .LVU462
 1580              	.LBE179:
 1581              	.LBE178:
 165:SynaptiX_FDK/lib/tinyusb/src/class/msc/msc_device.c ****     return 0; // invalid block count
 1582              		.loc 1 165 3 is_stmt 1 view .LVU463
 165:SynaptiX_FDK/lib/tinyusb/src/class/msc/msc_device.c ****     return 0; // invalid block count
 1583              		.loc 1 165 6 is_stmt 0 view .LVU464
 1584 0002 4AB3     		cbz	r2, .L108
 1585              	.LBE177:
 1586              	.LBE176:
 913:SynaptiX_FDK/lib/tinyusb/src/class/msc/msc_device.c ****   msc_cbw_t const* p_cbw = &p_msc->cbw;
 1587              		.loc 1 913 85 view .LVU465
 1588 0004 70B5     		push	{r4, r5, r6, lr}
 1589              	.LCFI27:
 1590              		.cfi_def_cfa_offset 16
 1591              		.cfi_offset 4, -16
 1592              		.cfi_offset 5, -12
 1593              		.cfi_offset 6, -8
 1594              		.cfi_offset 14, -4
 1595 0006 82B0     		sub	sp, sp, #8
 1596              	.LCFI28:
 1597              		.cfi_def_cfa_offset 24
 1598 0008 0446     		mov	r4, r0
 1599 000a 0D46     		mov	r5, r1
 1600 000c 53BA     		rev16	r3, r2
 1601              	.LVL145:
 913:SynaptiX_FDK/lib/tinyusb/src/class/msc/msc_device.c ****   msc_cbw_t const* p_cbw = &p_msc->cbw;
 1602              		.loc 1 913 85 view .LVU466
 1603 000e 9BB2     		uxth	r3, r3
 1604              	.LBB183:
 1605              	.LBB182:
 168:SynaptiX_FDK/lib/tinyusb/src/class/msc/msc_device.c **** }
 1606              		.loc 1 168 3 is_stmt 1 view .LVU467
 168:SynaptiX_FDK/lib/tinyusb/src/class/msc/msc_device.c **** }
 1607              		.loc 1 168 25 is_stmt 0 view .LVU468
 1608 0010 8268     		ldr	r2, [r0, #8]	@ unaligned
 1609              	.LVL146:
 168:SynaptiX_FDK/lib/tinyusb/src/class/msc/msc_device.c **** }
 1610              		.loc 1 168 39 view .LVU469
 1611 0012 B2FBF3F2 		udiv	r2, r2, r3
 168:SynaptiX_FDK/lib/tinyusb/src/class/msc/msc_device.c **** }
 1612              		.loc 1 168 10 view .LVU470
 1613 0016 92B2     		uxth	r2, r2
 1614              	.LVL147:
ARM GAS  C:\Users\LENOVO\AppData\Local\Temp\cc8CFzeV.s 			page 62


 168:SynaptiX_FDK/lib/tinyusb/src/class/msc/msc_device.c **** }
 1615              		.loc 1 168 10 view .LVU471
 1616              	.LBE182:
 1617              	.LBE183:
 916:SynaptiX_FDK/lib/tinyusb/src/class/msc/msc_device.c **** 
