ARM GAS  C:\Users\LENOVO\AppData\Local\Temp\ccllKXt3.s 			page 1


   1              		.cpu cortex-m33
   2              		.arch armv8-m.main
   3              		.fpu fpv5-sp-d16
   4              		.arch_extension dsp
   5              		.eabi_attribute 27, 1
   6              		.eabi_attribute 28, 1
   7              		.eabi_attribute 20, 1
   8              		.eabi_attribute 21, 1
   9              		.eabi_attribute 23, 3
  10              		.eabi_attribute 24, 1
  11              		.eabi_attribute 25, 1
  12              		.eabi_attribute 26, 1
  13              		.eabi_attribute 30, 1
  14              		.eabi_attribute 34, 1
  15              		.eabi_attribute 18, 4
  16              		.file	"stm32h5xx_it.c"
  17              		.text
  18              	.Ltext0:
  19              		.cfi_sections	.debug_frame
  20              		.file 1 "Core/Src/stm32h5xx_it.c"
  21              		.section	.text.NMI_Handler,"ax",%progbits
  22              		.align	1
  23              		.global	NMI_Handler
  24              		.syntax unified
  25              		.thumb
  26              		.thumb_func
  28              	NMI_Handler:
  29              	.LFB496:
   1:Core/Src/stm32h5xx_it.c **** /* USER CODE BEGIN Header */
   2:Core/Src/stm32h5xx_it.c **** /**
   3:Core/Src/stm32h5xx_it.c ****   ******************************************************************************
   4:Core/Src/stm32h5xx_it.c ****   * @file    stm32h5xx_it.c
   5:Core/Src/stm32h5xx_it.c ****   * @brief   Interrupt Service Routines.
   6:Core/Src/stm32h5xx_it.c ****   ******************************************************************************
   7:Core/Src/stm32h5xx_it.c ****   * @attention
   8:Core/Src/stm32h5xx_it.c ****   *
   9:Core/Src/stm32h5xx_it.c ****   * Copyright (c) 2026 STMicroelectronics.
  10:Core/Src/stm32h5xx_it.c ****   * All rights reserved.
  11:Core/Src/stm32h5xx_it.c ****   *
  12:Core/Src/stm32h5xx_it.c ****   * This software is licensed under terms that can be found in the LICENSE file
  13:Core/Src/stm32h5xx_it.c ****   * in the root directory of this software component.
  14:Core/Src/stm32h5xx_it.c ****   * If no LICENSE file comes with this software, it is provided AS-IS.
  15:Core/Src/stm32h5xx_it.c ****   *
  16:Core/Src/stm32h5xx_it.c ****   ******************************************************************************
  17:Core/Src/stm32h5xx_it.c ****   */
  18:Core/Src/stm32h5xx_it.c **** /* USER CODE END Header */
  19:Core/Src/stm32h5xx_it.c **** 
  20:Core/Src/stm32h5xx_it.c **** /* Includes ------------------------------------------------------------------*/
  21:Core/Src/stm32h5xx_it.c **** #include "main.h"
  22:Core/Src/stm32h5xx_it.c **** #include "stm32h5xx_it.h"
  23:Core/Src/stm32h5xx_it.c **** /* Private includes ----------------------------------------------------------*/
  24:Core/Src/stm32h5xx_it.c **** /* USER CODE BEGIN Includes */
  25:Core/Src/stm32h5xx_it.c **** /* USER CODE END Includes */
  26:Core/Src/stm32h5xx_it.c **** 
  27:Core/Src/stm32h5xx_it.c **** /* Private typedef -----------------------------------------------------------*/
  28:Core/Src/stm32h5xx_it.c **** /* USER CODE BEGIN TD */
  29:Core/Src/stm32h5xx_it.c **** 
ARM GAS  C:\Users\LENOVO\AppData\Local\Temp\ccllKXt3.s 			page 2


  30:Core/Src/stm32h5xx_it.c **** /* USER CODE END TD */
  31:Core/Src/stm32h5xx_it.c **** 
  32:Core/Src/stm32h5xx_it.c **** /* Private define ------------------------------------------------------------*/
  33:Core/Src/stm32h5xx_it.c **** /* USER CODE BEGIN PD */
  34:Core/Src/stm32h5xx_it.c **** 
  35:Core/Src/stm32h5xx_it.c **** /* USER CODE END PD */
  36:Core/Src/stm32h5xx_it.c **** 
  37:Core/Src/stm32h5xx_it.c **** /* Private macro -------------------------------------------------------------*/
  38:Core/Src/stm32h5xx_it.c **** /* USER CODE BEGIN PM */
  39:Core/Src/stm32h5xx_it.c **** 
  40:Core/Src/stm32h5xx_it.c **** /* USER CODE END PM */
  41:Core/Src/stm32h5xx_it.c **** 
  42:Core/Src/stm32h5xx_it.c **** /* Private variables ---------------------------------------------------------*/
  43:Core/Src/stm32h5xx_it.c **** /* USER CODE BEGIN PV */
  44:Core/Src/stm32h5xx_it.c **** 
  45:Core/Src/stm32h5xx_it.c **** /* USER CODE END PV */
  46:Core/Src/stm32h5xx_it.c **** 
  47:Core/Src/stm32h5xx_it.c **** /* Private function prototypes -----------------------------------------------*/
  48:Core/Src/stm32h5xx_it.c **** /* USER CODE BEGIN PFP */
  49:Core/Src/stm32h5xx_it.c **** 
  50:Core/Src/stm32h5xx_it.c **** /* USER CODE END PFP */
  51:Core/Src/stm32h5xx_it.c **** 
  52:Core/Src/stm32h5xx_it.c **** /* Private user code ---------------------------------------------------------*/
  53:Core/Src/stm32h5xx_it.c **** /* USER CODE BEGIN 0 */
  54:Core/Src/stm32h5xx_it.c **** 
  55:Core/Src/stm32h5xx_it.c **** /* USER CODE END 0 */
  56:Core/Src/stm32h5xx_it.c **** 
  57:Core/Src/stm32h5xx_it.c **** /* External variables --------------------------------------------------------*/
  58:Core/Src/stm32h5xx_it.c **** extern I2C_HandleTypeDef hi2c1;
  59:Core/Src/stm32h5xx_it.c **** extern LPTIM_HandleTypeDef hlptim1;
  60:Core/Src/stm32h5xx_it.c **** extern RTC_HandleTypeDef hrtc;
  61:Core/Src/stm32h5xx_it.c **** extern SPI_HandleTypeDef hspi1;
  62:Core/Src/stm32h5xx_it.c **** extern TIM_HandleTypeDef htim1;
  63:Core/Src/stm32h5xx_it.c **** extern TIM_HandleTypeDef htim2;
  64:Core/Src/stm32h5xx_it.c **** extern TIM_HandleTypeDef htim3;
  65:Core/Src/stm32h5xx_it.c **** extern UART_HandleTypeDef huart1;
  66:Core/Src/stm32h5xx_it.c **** extern UART_HandleTypeDef huart2;
  67:Core/Src/stm32h5xx_it.c **** extern UART_HandleTypeDef huart3;
  68:Core/Src/stm32h5xx_it.c **** /* USER CODE BEGIN EV */
  69:Core/Src/stm32h5xx_it.c **** 
  70:Core/Src/stm32h5xx_it.c **** /* USER CODE END EV */
  71:Core/Src/stm32h5xx_it.c **** 
  72:Core/Src/stm32h5xx_it.c **** /******************************************************************************/
  73:Core/Src/stm32h5xx_it.c **** /*           Cortex Processor Interruption and Exception Handlers          */
  74:Core/Src/stm32h5xx_it.c **** /******************************************************************************/
  75:Core/Src/stm32h5xx_it.c **** /**
  76:Core/Src/stm32h5xx_it.c ****   * @brief This function handles Non maskable interrupt.
  77:Core/Src/stm32h5xx_it.c ****   */
  78:Core/Src/stm32h5xx_it.c **** void NMI_Handler(void)
  79:Core/Src/stm32h5xx_it.c **** {
  30              		.loc 1 79 1 view -0
  31              		.cfi_startproc
  32              		@ Volatile: function does not return.
  33              		@ args = 0, pretend = 0, frame = 0
  34              		@ frame_needed = 0, uses_anonymous_args = 0
  35              		@ link register save eliminated.
  36              	.L2:
ARM GAS  C:\Users\LENOVO\AppData\Local\Temp\ccllKXt3.s 			page 3


  80:Core/Src/stm32h5xx_it.c ****   /* USER CODE BEGIN NonMaskableInt_IRQn 0 */
  81:Core/Src/stm32h5xx_it.c **** 
  82:Core/Src/stm32h5xx_it.c ****   /* USER CODE END NonMaskableInt_IRQn 0 */
  83:Core/Src/stm32h5xx_it.c ****   /* USER CODE BEGIN NonMaskableInt_IRQn 1 */
  84:Core/Src/stm32h5xx_it.c ****    while (1)
  37              		.loc 1 84 4 view .LVU1
  85:Core/Src/stm32h5xx_it.c ****   {
  86:Core/Src/stm32h5xx_it.c ****   }
  38              		.loc 1 86 3 view .LVU2
  84:Core/Src/stm32h5xx_it.c ****   {
  39              		.loc 1 84 10 view .LVU3
  40 0000 FEE7     		b	.L2
  41              		.cfi_endproc
  42              	.LFE496:
  44              		.section	.text.HardFault_Handler,"ax",%progbits
  45              		.align	1
  46              		.global	HardFault_Handler
  47              		.syntax unified
  48              		.thumb
  49              		.thumb_func
  51              	HardFault_Handler:
  52              	.LFB497:
  87:Core/Src/stm32h5xx_it.c ****   /* USER CODE END NonMaskableInt_IRQn 1 */
  88:Core/Src/stm32h5xx_it.c **** }
  89:Core/Src/stm32h5xx_it.c **** 
  90:Core/Src/stm32h5xx_it.c **** /**
  91:Core/Src/stm32h5xx_it.c ****   * @brief This function handles Hard fault interrupt.
  92:Core/Src/stm32h5xx_it.c ****   */
  93:Core/Src/stm32h5xx_it.c **** void HardFault_Handler(void)
  94:Core/Src/stm32h5xx_it.c **** {
  53              		.loc 1 94 1 view -0
  54              		.cfi_startproc
  55              		@ Volatile: function does not return.
  56              		@ args = 0, pretend = 0, frame = 0
  57              		@ frame_needed = 0, uses_anonymous_args = 0
  58              		@ link register save eliminated.
  59              	.L4:
  95:Core/Src/stm32h5xx_it.c ****   /* USER CODE BEGIN HardFault_IRQn 0 */
  96:Core/Src/stm32h5xx_it.c **** 
  97:Core/Src/stm32h5xx_it.c ****   /* USER CODE END HardFault_IRQn 0 */
  98:Core/Src/stm32h5xx_it.c ****   while (1)
  60              		.loc 1 98 3 view .LVU5
  99:Core/Src/stm32h5xx_it.c ****   {
 100:Core/Src/stm32h5xx_it.c ****     /* USER CODE BEGIN W1_HardFault_IRQn 0 */
 101:Core/Src/stm32h5xx_it.c ****     /* USER CODE END W1_HardFault_IRQn 0 */
 102:Core/Src/stm32h5xx_it.c ****   }
  61              		.loc 1 102 3 view .LVU6
  98:Core/Src/stm32h5xx_it.c ****   {
  62              		.loc 1 98 9 view .LVU7
  63 0000 FEE7     		b	.L4
  64              		.cfi_endproc
  65              	.LFE497:
  67              		.section	.text.MemManage_Handler,"ax",%progbits
  68              		.align	1
  69              		.global	MemManage_Handler
  70              		.syntax unified
  71              		.thumb
ARM GAS  C:\Users\LENOVO\AppData\Local\Temp\ccllKXt3.s 			page 4


  72              		.thumb_func
  74              	MemManage_Handler:
  75              	.LFB498:
 103:Core/Src/stm32h5xx_it.c **** }
 104:Core/Src/stm32h5xx_it.c **** 
 105:Core/Src/stm32h5xx_it.c **** /**
 106:Core/Src/stm32h5xx_it.c ****   * @brief This function handles Memory management fault.
 107:Core/Src/stm32h5xx_it.c ****   */
 108:Core/Src/stm32h5xx_it.c **** void MemManage_Handler(void)
 109:Core/Src/stm32h5xx_it.c **** {
  76              		.loc 1 109 1 view -0
  77              		.cfi_startproc
  78              		@ Volatile: function does not return.
  79              		@ args = 0, pretend = 0, frame = 0
  80              		@ frame_needed = 0, uses_anonymous_args = 0
  81              		@ link register save eliminated.
  82              	.L6:
 110:Core/Src/stm32h5xx_it.c ****   /* USER CODE BEGIN MemoryManagement_IRQn 0 */
 111:Core/Src/stm32h5xx_it.c **** 
 112:Core/Src/stm32h5xx_it.c ****   /* USER CODE END MemoryManagement_IRQn 0 */
 113:Core/Src/stm32h5xx_it.c ****   while (1)
  83              		.loc 1 113 3 view .LVU9
 114:Core/Src/stm32h5xx_it.c ****   {
 115:Core/Src/stm32h5xx_it.c ****     /* USER CODE BEGIN W1_MemoryManagement_IRQn 0 */
 116:Core/Src/stm32h5xx_it.c ****     /* USER CODE END W1_MemoryManagement_IRQn 0 */
 117:Core/Src/stm32h5xx_it.c ****   }
  84              		.loc 1 117 3 view .LVU10
 113:Core/Src/stm32h5xx_it.c ****   {
  85              		.loc 1 113 9 view .LVU11
  86 0000 FEE7     		b	.L6
  87              		.cfi_endproc
  88              	.LFE498:
  90              		.section	.text.BusFault_Handler,"ax",%progbits
  91              		.align	1
  92              		.global	BusFault_Handler
  93              		.syntax unified
  94              		.thumb
  95              		.thumb_func
  97              	BusFault_Handler:
  98              	.LFB499:
 118:Core/Src/stm32h5xx_it.c **** }
 119:Core/Src/stm32h5xx_it.c **** 
 120:Core/Src/stm32h5xx_it.c **** /**
 121:Core/Src/stm32h5xx_it.c ****   * @brief This function handles Pre-fetch fault, memory access fault.
 122:Core/Src/stm32h5xx_it.c ****   */
 123:Core/Src/stm32h5xx_it.c **** void BusFault_Handler(void)
 124:Core/Src/stm32h5xx_it.c **** {
  99              		.loc 1 124 1 view -0
 100              		.cfi_startproc
 101              		@ Volatile: function does not return.
 102              		@ args = 0, pretend = 0, frame = 0
 103              		@ frame_needed = 0, uses_anonymous_args = 0
 104              		@ link register save eliminated.
 105              	.L8:
 125:Core/Src/stm32h5xx_it.c ****   /* USER CODE BEGIN BusFault_IRQn 0 */
 126:Core/Src/stm32h5xx_it.c **** 
 127:Core/Src/stm32h5xx_it.c ****   /* USER CODE END BusFault_IRQn 0 */
ARM GAS  C:\Users\LENOVO\AppData\Local\Temp\ccllKXt3.s 			page 5


 128:Core/Src/stm32h5xx_it.c ****   while (1)
 106              		.loc 1 128 3 view .LVU13
 129:Core/Src/stm32h5xx_it.c ****   {
 130:Core/Src/stm32h5xx_it.c ****     /* USER CODE BEGIN W1_BusFault_IRQn 0 */
 131:Core/Src/stm32h5xx_it.c ****     /* USER CODE END W1_BusFault_IRQn 0 */
 132:Core/Src/stm32h5xx_it.c ****   }
 107              		.loc 1 132 3 view .LVU14
 128:Core/Src/stm32h5xx_it.c ****   {
 108              		.loc 1 128 9 view .LVU15
 109 0000 FEE7     		b	.L8
 110              		.cfi_endproc
 111              	.LFE499:
 113              		.section	.text.UsageFault_Handler,"ax",%progbits
 114              		.align	1
 115              		.global	UsageFault_Handler
 116              		.syntax unified
 117              		.thumb
 118              		.thumb_func
 120              	UsageFault_Handler:
 121              	.LFB500:
 133:Core/Src/stm32h5xx_it.c **** }
 134:Core/Src/stm32h5xx_it.c **** 
 135:Core/Src/stm32h5xx_it.c **** /**
 136:Core/Src/stm32h5xx_it.c ****   * @brief This function handles Undefined instruction or illegal state.
 137:Core/Src/stm32h5xx_it.c ****   */
 138:Core/Src/stm32h5xx_it.c **** void UsageFault_Handler(void)
 139:Core/Src/stm32h5xx_it.c **** {
 122              		.loc 1 139 1 view -0
 123              		.cfi_startproc
 124              		@ Volatile: function does not return.
 125              		@ args = 0, pretend = 0, frame = 0
 126              		@ frame_needed = 0, uses_anonymous_args = 0
 127              		@ link register save eliminated.
 128              	.L10:
 140:Core/Src/stm32h5xx_it.c ****   /* USER CODE BEGIN UsageFault_IRQn 0 */
 141:Core/Src/stm32h5xx_it.c **** 
 142:Core/Src/stm32h5xx_it.c ****   /* USER CODE END UsageFault_IRQn 0 */
 143:Core/Src/stm32h5xx_it.c ****   while (1)
 129              		.loc 1 143 3 view .LVU17
 144:Core/Src/stm32h5xx_it.c ****   {
 145:Core/Src/stm32h5xx_it.c ****     /* USER CODE BEGIN W1_UsageFault_IRQn 0 */
 146:Core/Src/stm32h5xx_it.c ****     /* USER CODE END W1_UsageFault_IRQn 0 */
 147:Core/Src/stm32h5xx_it.c ****   }
 130              		.loc 1 147 3 view .LVU18
 143:Core/Src/stm32h5xx_it.c ****   {
 131              		.loc 1 143 9 view .LVU19
 132 0000 FEE7     		b	.L10
 133              		.cfi_endproc
 134              	.LFE500:
 136              		.section	.text.SVC_Handler,"ax",%progbits
 137              		.align	1
 138              		.global	SVC_Handler
 139              		.syntax unified
 140              		.thumb
 141              		.thumb_func
 143              	SVC_Handler:
 144              	.LFB501:
ARM GAS  C:\Users\LENOVO\AppData\Local\Temp\ccllKXt3.s 			page 6


 148:Core/Src/stm32h5xx_it.c **** }
 149:Core/Src/stm32h5xx_it.c **** 
 150:Core/Src/stm32h5xx_it.c **** /**
 151:Core/Src/stm32h5xx_it.c ****   * @brief This function handles System service call via SWI instruction.
 152:Core/Src/stm32h5xx_it.c ****   */
 153:Core/Src/stm32h5xx_it.c **** void SVC_Handler(void)
 154:Core/Src/stm32h5xx_it.c **** {
 145              		.loc 1 154 1 view -0
 146              		.cfi_startproc
 147              		@ args = 0, pretend = 0, frame = 0
 148              		@ frame_needed = 0, uses_anonymous_args = 0
 149              		@ link register save eliminated.
 155:Core/Src/stm32h5xx_it.c ****   /* USER CODE BEGIN SVCall_IRQn 0 */
 156:Core/Src/stm32h5xx_it.c **** 
 157:Core/Src/stm32h5xx_it.c ****   /* USER CODE END SVCall_IRQn 0 */
 158:Core/Src/stm32h5xx_it.c ****   /* USER CODE BEGIN SVCall_IRQn 1 */
 159:Core/Src/stm32h5xx_it.c **** 
 160:Core/Src/stm32h5xx_it.c ****   /* USER CODE END SVCall_IRQn 1 */
 161:Core/Src/stm32h5xx_it.c **** }
 150              		.loc 1 161 1 view .LVU21
 151 0000 7047     		bx	lr
 152              		.cfi_endproc
 153              	.LFE501:
 155              		.section	.text.DebugMon_Handler,"ax",%progbits
 156              		.align	1
 157              		.global	DebugMon_Handler
 158              		.syntax unified
 159              		.thumb
 160              		.thumb_func
 162              	DebugMon_Handler:
 163              	.LFB502:
 162:Core/Src/stm32h5xx_it.c **** 
 163:Core/Src/stm32h5xx_it.c **** /**
 164:Core/Src/stm32h5xx_it.c ****   * @brief This function handles Debug monitor.
 165:Core/Src/stm32h5xx_it.c ****   */
 166:Core/Src/stm32h5xx_it.c **** void DebugMon_Handler(void)
 167:Core/Src/stm32h5xx_it.c **** {
 164              		.loc 1 167 1 view -0
 165              		.cfi_startproc
 166              		@ args = 0, pretend = 0, frame = 0
 167              		@ frame_needed = 0, uses_anonymous_args = 0
 168              		@ link register save eliminated.
 168:Core/Src/stm32h5xx_it.c ****   /* USER CODE BEGIN DebugMonitor_IRQn 0 */
 169:Core/Src/stm32h5xx_it.c **** 
 170:Core/Src/stm32h5xx_it.c ****   /* USER CODE END DebugMonitor_IRQn 0 */
 171:Core/Src/stm32h5xx_it.c ****   /* USER CODE BEGIN DebugMonitor_IRQn 1 */
 172:Core/Src/stm32h5xx_it.c **** 
 173:Core/Src/stm32h5xx_it.c ****   /* USER CODE END DebugMonitor_IRQn 1 */
 174:Core/Src/stm32h5xx_it.c **** }
 169              		.loc 1 174 1 view .LVU23
 170 0000 7047     		bx	lr
 171              		.cfi_endproc
 172              	.LFE502:
 174              		.section	.text.PendSV_Handler,"ax",%progbits
 175              		.align	1
 176              		.global	PendSV_Handler
 177              		.syntax unified
ARM GAS  C:\Users\LENOVO\AppData\Local\Temp\ccllKXt3.s 			page 7


 178              		.thumb
 179              		.thumb_func
 181              	PendSV_Handler:
 182              	.LFB503:
 175:Core/Src/stm32h5xx_it.c **** 
 176:Core/Src/stm32h5xx_it.c **** /**
 177:Core/Src/stm32h5xx_it.c ****   * @brief This function handles Pendable request for system service.
 178:Core/Src/stm32h5xx_it.c ****   */
 179:Core/Src/stm32h5xx_it.c **** void PendSV_Handler(void)
 180:Core/Src/stm32h5xx_it.c **** {
 183              		.loc 1 180 1 view -0
 184              		.cfi_startproc
 185              		@ args = 0, pretend = 0, frame = 0
 186              		@ frame_needed = 0, uses_anonymous_args = 0
 187              		@ link register save eliminated.
 181:Core/Src/stm32h5xx_it.c ****   /* USER CODE BEGIN PendSV_IRQn 0 */
 182:Core/Src/stm32h5xx_it.c **** 
 183:Core/Src/stm32h5xx_it.c ****   /* USER CODE END PendSV_IRQn 0 */
 184:Core/Src/stm32h5xx_it.c ****   /* USER CODE BEGIN PendSV_IRQn 1 */
 185:Core/Src/stm32h5xx_it.c **** 
 186:Core/Src/stm32h5xx_it.c ****   /* USER CODE END PendSV_IRQn 1 */
 187:Core/Src/stm32h5xx_it.c **** }
 188              		.loc 1 187 1 view .LVU25
 189 0000 7047     		bx	lr
 190              		.cfi_endproc
 191              	.LFE503:
 193              		.section	.text.SysTick_Handler,"ax",%progbits
 194              		.align	1
 195              		.global	SysTick_Handler
 196              		.syntax unified
 197              		.thumb
 198              		.thumb_func
 200              	SysTick_Handler:
 201              	.LFB504:
 188:Core/Src/stm32h5xx_it.c **** 
 189:Core/Src/stm32h5xx_it.c **** /**
 190:Core/Src/stm32h5xx_it.c ****   * @brief This function handles System tick timer.
 191:Core/Src/stm32h5xx_it.c ****   */
 192:Core/Src/stm32h5xx_it.c **** void SysTick_Handler(void)
 193:Core/Src/stm32h5xx_it.c **** {
 202              		.loc 1 193 1 view -0
 203              		.cfi_startproc
 204              		@ args = 0, pretend = 0, frame = 0
 205              		@ frame_needed = 0, uses_anonymous_args = 0
 206 0000 08B5     		push	{r3, lr}
 207              	.LCFI0:
 208              		.cfi_def_cfa_offset 8
 209              		.cfi_offset 3, -8
 210              		.cfi_offset 14, -4
 194:Core/Src/stm32h5xx_it.c ****   /* USER CODE BEGIN SysTick_IRQn 0 */
 195:Core/Src/stm32h5xx_it.c **** 
 196:Core/Src/stm32h5xx_it.c ****   /* USER CODE END SysTick_IRQn 0 */
 197:Core/Src/stm32h5xx_it.c ****   HAL_IncTick();
 211              		.loc 1 197 3 view .LVU27
 212 0002 FFF7FEFF 		bl	HAL_IncTick
 213              	.LVL0:
 198:Core/Src/stm32h5xx_it.c ****   /* USER CODE BEGIN SysTick_IRQn 1 */
ARM GAS  C:\Users\LENOVO\AppData\Local\Temp\ccllKXt3.s 			page 8


 199:Core/Src/stm32h5xx_it.c **** 
 200:Core/Src/stm32h5xx_it.c ****   /* USER CODE END SysTick_IRQn 1 */
 201:Core/Src/stm32h5xx_it.c **** }
 214              		.loc 1 201 1 is_stmt 0 view .LVU28
 215 0006 08BD     		pop	{r3, pc}
 216              		.cfi_endproc
 217              	.LFE504:
 219              		.section	.text.RTC_IRQHandler,"ax",%progbits
 220              		.align	1
 221              		.global	RTC_IRQHandler
 222              		.syntax unified
 223              		.thumb
 224              		.thumb_func
 226              	RTC_IRQHandler:
 227              	.LFB505:
 202:Core/Src/stm32h5xx_it.c **** 
 203:Core/Src/stm32h5xx_it.c **** /******************************************************************************/
 204:Core/Src/stm32h5xx_it.c **** /* STM32H5xx Peripheral Interrupt Handlers                                    */
 205:Core/Src/stm32h5xx_it.c **** /* Add here the Interrupt Handlers for the used peripherals.                  */
 206:Core/Src/stm32h5xx_it.c **** /* For the available peripheral interrupt handler names,                      */
 207:Core/Src/stm32h5xx_it.c **** /* please refer to the startup file (startup_stm32h5xx.s).                    */
 208:Core/Src/stm32h5xx_it.c **** /******************************************************************************/
 209:Core/Src/stm32h5xx_it.c **** 
 210:Core/Src/stm32h5xx_it.c **** /**
 211:Core/Src/stm32h5xx_it.c ****   * @brief This function handles RTC non-secure interrupt.
 212:Core/Src/stm32h5xx_it.c ****   */
 213:Core/Src/stm32h5xx_it.c **** void RTC_IRQHandler(void)
 214:Core/Src/stm32h5xx_it.c **** {
 228              		.loc 1 214 1 is_stmt 1 view -0
 229              		.cfi_startproc
 230              		@ args = 0, pretend = 0, frame = 0
 231              		@ frame_needed = 0, uses_anonymous_args = 0
 232 0000 08B5     		push	{r3, lr}
 233              	.LCFI1:
 234              		.cfi_def_cfa_offset 8
 235              		.cfi_offset 3, -8
 236              		.cfi_offset 14, -4
 215:Core/Src/stm32h5xx_it.c ****   /* USER CODE BEGIN RTC_IRQn 0 */
 216:Core/Src/stm32h5xx_it.c **** 
 217:Core/Src/stm32h5xx_it.c ****   /* USER CODE END RTC_IRQn 0 */
 218:Core/Src/stm32h5xx_it.c ****   HAL_RTCEx_WakeUpTimerIRQHandler(&hrtc);
 237              		.loc 1 218 3 view .LVU30
 238 0002 0248     		ldr	r0, .L18
 239 0004 FFF7FEFF 		bl	HAL_RTCEx_WakeUpTimerIRQHandler
 240              	.LVL1:
 219:Core/Src/stm32h5xx_it.c ****   /* USER CODE BEGIN RTC_IRQn 1 */
 220:Core/Src/stm32h5xx_it.c **** 
 221:Core/Src/stm32h5xx_it.c ****   /* USER CODE END RTC_IRQn 1 */
 222:Core/Src/stm32h5xx_it.c **** }
 241              		.loc 1 222 1 is_stmt 0 view .LVU31
 242 0008 08BD     		pop	{r3, pc}
 243              	.L19:
 244 000a 00BF     		.align	2
 245              	.L18:
 246 000c 00000000 		.word	hrtc
 247              		.cfi_endproc
 248              	.LFE505:
ARM GAS  C:\Users\LENOVO\AppData\Local\Temp\ccllKXt3.s 			page 9


 250              		.section	.text.EXTI1_IRQHandler,"ax",%progbits
 251              		.align	1
 252              		.global	EXTI1_IRQHandler
 253              		.syntax unified
 254              		.thumb
 255              		.thumb_func
 257              	EXTI1_IRQHandler:
 258              	.LFB506:
 223:Core/Src/stm32h5xx_it.c **** 
 224:Core/Src/stm32h5xx_it.c **** /**
 225:Core/Src/stm32h5xx_it.c ****   * @brief This function handles EXTI Line1 interrupt.
 226:Core/Src/stm32h5xx_it.c ****   */
 227:Core/Src/stm32h5xx_it.c **** void EXTI1_IRQHandler(void)
 228:Core/Src/stm32h5xx_it.c **** {
 259              		.loc 1 228 1 is_stmt 1 view -0
 260              		.cfi_startproc
 261              		@ args = 0, pretend = 0, frame = 0
 262              		@ frame_needed = 0, uses_anonymous_args = 0
 263 0000 08B5     		push	{r3, lr}
 264              	.LCFI2:
 265              		.cfi_def_cfa_offset 8
 266              		.cfi_offset 3, -8
 267              		.cfi_offset 14, -4
 229:Core/Src/stm32h5xx_it.c ****   /* USER CODE BEGIN EXTI1_IRQn 0 */
 230:Core/Src/stm32h5xx_it.c **** 
 231:Core/Src/stm32h5xx_it.c ****   /* USER CODE END EXTI1_IRQn 0 */
 232:Core/Src/stm32h5xx_it.c ****   HAL_GPIO_EXTI_IRQHandler(GPIO_PIN_1);
 268              		.loc 1 232 3 view .LVU33
 269 0002 0220     		movs	r0, #2
 270 0004 FFF7FEFF 		bl	HAL_GPIO_EXTI_IRQHandler
 271              	.LVL2:
 233:Core/Src/stm32h5xx_it.c ****   /* USER CODE BEGIN EXTI1_IRQn 1 */
 234:Core/Src/stm32h5xx_it.c **** 
 235:Core/Src/stm32h5xx_it.c ****   /* USER CODE END EXTI1_IRQn 1 */
 236:Core/Src/stm32h5xx_it.c **** }
 272              		.loc 1 236 1 is_stmt 0 view .LVU34
 273 0008 08BD     		pop	{r3, pc}
 274              		.cfi_endproc
 275              	.LFE506:
 277              		.section	.text.TIM1_BRK_IRQHandler,"ax",%progbits
 278              		.align	1
 279              		.global	TIM1_BRK_IRQHandler
 280              		.syntax unified
 281              		.thumb
 282              		.thumb_func
 284              	TIM1_BRK_IRQHandler:
 285              	.LFB507:
 237:Core/Src/stm32h5xx_it.c **** 
 238:Core/Src/stm32h5xx_it.c **** /**
 239:Core/Src/stm32h5xx_it.c ****   * @brief This function handles TIM1 Break interrupt.
 240:Core/Src/stm32h5xx_it.c ****   */
 241:Core/Src/stm32h5xx_it.c **** void TIM1_BRK_IRQHandler(void)
 242:Core/Src/stm32h5xx_it.c **** {
 286              		.loc 1 242 1 is_stmt 1 view -0
 287              		.cfi_startproc
 288              		@ args = 0, pretend = 0, frame = 0
 289              		@ frame_needed = 0, uses_anonymous_args = 0
ARM GAS  C:\Users\LENOVO\AppData\Local\Temp\ccllKXt3.s 			page 10


 290 0000 08B5     		push	{r3, lr}
 291              	.LCFI3:
 292              		.cfi_def_cfa_offset 8
 293              		.cfi_offset 3, -8
 294              		.cfi_offset 14, -4
 243:Core/Src/stm32h5xx_it.c ****   /* USER CODE BEGIN TIM1_BRK_IRQn 0 */
 244:Core/Src/stm32h5xx_it.c **** 
 245:Core/Src/stm32h5xx_it.c ****   /* USER CODE END TIM1_BRK_IRQn 0 */
 246:Core/Src/stm32h5xx_it.c ****   HAL_TIM_IRQHandler(&htim1);
 295              		.loc 1 246 3 view .LVU36
 296 0002 0248     		ldr	r0, .L24
 297 0004 FFF7FEFF 		bl	HAL_TIM_IRQHandler
 298              	.LVL3:
 247:Core/Src/stm32h5xx_it.c ****   /* USER CODE BEGIN TIM1_BRK_IRQn 1 */
 248:Core/Src/stm32h5xx_it.c **** 
 249:Core/Src/stm32h5xx_it.c ****   /* USER CODE END TIM1_BRK_IRQn 1 */
 250:Core/Src/stm32h5xx_it.c **** }
 299              		.loc 1 250 1 is_stmt 0 view .LVU37
 300 0008 08BD     		pop	{r3, pc}
 301              	.L25:
 302 000a 00BF     		.align	2
 303              	.L24:
 304 000c 00000000 		.word	htim1
 305              		.cfi_endproc
 306              	.LFE507:
 308              		.section	.text.TIM1_UP_IRQHandler,"ax",%progbits
 309              		.align	1
 310              		.global	TIM1_UP_IRQHandler
 311              		.syntax unified
 312              		.thumb
 313              		.thumb_func
 315              	TIM1_UP_IRQHandler:
 316              	.LFB508:
 251:Core/Src/stm32h5xx_it.c **** 
 252:Core/Src/stm32h5xx_it.c **** /**
 253:Core/Src/stm32h5xx_it.c ****   * @brief This function handles TIM1 Update interrupt.
 254:Core/Src/stm32h5xx_it.c ****   */
 255:Core/Src/stm32h5xx_it.c **** void TIM1_UP_IRQHandler(void)
 256:Core/Src/stm32h5xx_it.c **** {
 317              		.loc 1 256 1 is_stmt 1 view -0
 318              		.cfi_startproc
 319              		@ args = 0, pretend = 0, frame = 0
 320              		@ frame_needed = 0, uses_anonymous_args = 0
 321 0000 08B5     		push	{r3, lr}
 322              	.LCFI4:
 323              		.cfi_def_cfa_offset 8
 324              		.cfi_offset 3, -8
 325              		.cfi_offset 14, -4
 257:Core/Src/stm32h5xx_it.c ****   /* USER CODE BEGIN TIM1_UP_IRQn 0 */
 258:Core/Src/stm32h5xx_it.c **** 
 259:Core/Src/stm32h5xx_it.c ****   /* USER CODE END TIM1_UP_IRQn 0 */
 260:Core/Src/stm32h5xx_it.c ****   HAL_TIM_IRQHandler(&htim1);
 326              		.loc 1 260 3 view .LVU39
 327 0002 0248     		ldr	r0, .L28
 328 0004 FFF7FEFF 		bl	HAL_TIM_IRQHandler
 329              	.LVL4:
 261:Core/Src/stm32h5xx_it.c ****   /* USER CODE BEGIN TIM1_UP_IRQn 1 */
ARM GAS  C:\Users\LENOVO\AppData\Local\Temp\ccllKXt3.s 			page 11


 262:Core/Src/stm32h5xx_it.c **** 
 263:Core/Src/stm32h5xx_it.c ****   /* USER CODE END TIM1_UP_IRQn 1 */
 264:Core/Src/stm32h5xx_it.c **** }
 330              		.loc 1 264 1 is_stmt 0 view .LVU40
 331 0008 08BD     		pop	{r3, pc}
 332              	.L29:
 333 000a 00BF     		.align	2
 334              	.L28:
 335 000c 00000000 		.word	htim1
 336              		.cfi_endproc
 337              	.LFE508:
 339              		.section	.text.TIM1_TRG_COM_IRQHandler,"ax",%progbits
 340              		.align	1
 341              		.global	TIM1_TRG_COM_IRQHandler
 342              		.syntax unified
 343              		.thumb
 344              		.thumb_func
 346              	TIM1_TRG_COM_IRQHandler:
 347              	.LFB509:
 265:Core/Src/stm32h5xx_it.c **** 
 266:Core/Src/stm32h5xx_it.c **** /**
 267:Core/Src/stm32h5xx_it.c ****   * @brief This function handles TIM1 Trigger and Commutation interrupts.
 268:Core/Src/stm32h5xx_it.c ****   */
 269:Core/Src/stm32h5xx_it.c **** void TIM1_TRG_COM_IRQHandler(void)
 270:Core/Src/stm32h5xx_it.c **** {
 348              		.loc 1 270 1 is_stmt 1 view -0
 349              		.cfi_startproc
 350              		@ args = 0, pretend = 0, frame = 0
 351              		@ frame_needed = 0, uses_anonymous_args = 0
 352 0000 08B5     		push	{r3, lr}
 353              	.LCFI5:
 354              		.cfi_def_cfa_offset 8
 355              		.cfi_offset 3, -8
 356              		.cfi_offset 14, -4
 271:Core/Src/stm32h5xx_it.c ****   /* USER CODE BEGIN TIM1_TRG_COM_IRQn 0 */
 272:Core/Src/stm32h5xx_it.c **** 
 273:Core/Src/stm32h5xx_it.c ****   /* USER CODE END TIM1_TRG_COM_IRQn 0 */
 274:Core/Src/stm32h5xx_it.c ****   HAL_TIM_IRQHandler(&htim1);
 357              		.loc 1 274 3 view .LVU42
 358 0002 0248     		ldr	r0, .L32
 359 0004 FFF7FEFF 		bl	HAL_TIM_IRQHandler
 360              	.LVL5:
 275:Core/Src/stm32h5xx_it.c ****   /* USER CODE BEGIN TIM1_TRG_COM_IRQn 1 */
 276:Core/Src/stm32h5xx_it.c **** 
 277:Core/Src/stm32h5xx_it.c ****   /* USER CODE END TIM1_TRG_COM_IRQn 1 */
 278:Core/Src/stm32h5xx_it.c **** }
 361              		.loc 1 278 1 is_stmt 0 view .LVU43
 362 0008 08BD     		pop	{r3, pc}
 363              	.L33:
 364 000a 00BF     		.align	2
 365              	.L32:
 366 000c 00000000 		.word	htim1
 367              		.cfi_endproc
 368              	.LFE509:
 370              		.section	.text.TIM1_CC_IRQHandler,"ax",%progbits
 371              		.align	1
 372              		.global	TIM1_CC_IRQHandler
ARM GAS  C:\Users\LENOVO\AppData\Local\Temp\ccllKXt3.s 			page 12


 373              		.syntax unified
 374              		.thumb
 375              		.thumb_func
 377              	TIM1_CC_IRQHandler:
 378              	.LFB510:
 279:Core/Src/stm32h5xx_it.c **** 
 280:Core/Src/stm32h5xx_it.c **** /**
 281:Core/Src/stm32h5xx_it.c ****   * @brief This function handles TIM1 Capture Compare interrupt.
 282:Core/Src/stm32h5xx_it.c ****   */
 283:Core/Src/stm32h5xx_it.c **** void TIM1_CC_IRQHandler(void)
 284:Core/Src/stm32h5xx_it.c **** {
 379              		.loc 1 284 1 is_stmt 1 view -0
 380              		.cfi_startproc
 381              		@ args = 0, pretend = 0, frame = 0
 382              		@ frame_needed = 0, uses_anonymous_args = 0
 383 0000 08B5     		push	{r3, lr}
 384              	.LCFI6:
 385              		.cfi_def_cfa_offset 8
 386              		.cfi_offset 3, -8
 387              		.cfi_offset 14, -4
 285:Core/Src/stm32h5xx_it.c ****   /* USER CODE BEGIN TIM1_CC_IRQn 0 */
 286:Core/Src/stm32h5xx_it.c **** 
 287:Core/Src/stm32h5xx_it.c ****   /* USER CODE END TIM1_CC_IRQn 0 */
 288:Core/Src/stm32h5xx_it.c ****   HAL_TIM_IRQHandler(&htim1);
 388              		.loc 1 288 3 view .LVU45
 389 0002 0248     		ldr	r0, .L36
 390 0004 FFF7FEFF 		bl	HAL_TIM_IRQHandler
 391              	.LVL6:
 289:Core/Src/stm32h5xx_it.c ****   /* USER CODE BEGIN TIM1_CC_IRQn 1 */
 290:Core/Src/stm32h5xx_it.c **** 
 291:Core/Src/stm32h5xx_it.c ****   /* USER CODE END TIM1_CC_IRQn 1 */
 292:Core/Src/stm32h5xx_it.c **** }
 392              		.loc 1 292 1 is_stmt 0 view .LVU46
 393 0008 08BD     		pop	{r3, pc}
 394              	.L37:
 395 000a 00BF     		.align	2
 396              	.L36:
 397 000c 00000000 		.word	htim1
 398              		.cfi_endproc
 399              	.LFE510:
 401              		.section	.text.TIM2_IRQHandler,"ax",%progbits
 402              		.align	1
 403              		.global	TIM2_IRQHandler
 404              		.syntax unified
 405              		.thumb
 406              		.thumb_func
 408              	TIM2_IRQHandler:
 409              	.LFB511:
 293:Core/Src/stm32h5xx_it.c **** 
 294:Core/Src/stm32h5xx_it.c **** /**
 295:Core/Src/stm32h5xx_it.c ****   * @brief This function handles TIM2 global interrupt.
 296:Core/Src/stm32h5xx_it.c ****   */
 297:Core/Src/stm32h5xx_it.c **** void TIM2_IRQHandler(void)
 298:Core/Src/stm32h5xx_it.c **** {
 410              		.loc 1 298 1 is_stmt 1 view -0
 411              		.cfi_startproc
 412              		@ args = 0, pretend = 0, frame = 0
ARM GAS  C:\Users\LENOVO\AppData\Local\Temp\ccllKXt3.s 			page 13


 413              		@ frame_needed = 0, uses_anonymous_args = 0
 414 0000 08B5     		push	{r3, lr}
 415              	.LCFI7:
 416              		.cfi_def_cfa_offset 8
 417              		.cfi_offset 3, -8
 418              		.cfi_offset 14, -4
 299:Core/Src/stm32h5xx_it.c ****   /* USER CODE BEGIN TIM2_IRQn 0 */
 300:Core/Src/stm32h5xx_it.c **** 
 301:Core/Src/stm32h5xx_it.c ****   /* USER CODE END TIM2_IRQn 0 */
 302:Core/Src/stm32h5xx_it.c ****   HAL_TIM_IRQHandler(&htim2);
 419              		.loc 1 302 3 view .LVU48
 420 0002 0248     		ldr	r0, .L40
 421 0004 FFF7FEFF 		bl	HAL_TIM_IRQHandler
 422              	.LVL7:
 303:Core/Src/stm32h5xx_it.c ****   /* USER CODE BEGIN TIM2_IRQn 1 */
 304:Core/Src/stm32h5xx_it.c **** 
 305:Core/Src/stm32h5xx_it.c ****   /* USER CODE END TIM2_IRQn 1 */
 306:Core/Src/stm32h5xx_it.c **** }
 423              		.loc 1 306 1 is_stmt 0 view .LVU49
 424 0008 08BD     		pop	{r3, pc}
 425              	.L41:
 426 000a 00BF     		.align	2
 427              	.L40:
 428 000c 00000000 		.word	htim2
 429              		.cfi_endproc
 430              	.LFE511:
 432              		.section	.text.TIM3_IRQHandler,"ax",%progbits
 433              		.align	1
 434              		.global	TIM3_IRQHandler
 435              		.syntax unified
 436              		.thumb
 437              		.thumb_func
 439              	TIM3_IRQHandler:
 440              	.LFB512:
 307:Core/Src/stm32h5xx_it.c **** 
 308:Core/Src/stm32h5xx_it.c **** /**
 309:Core/Src/stm32h5xx_it.c ****   * @brief This function handles TIM3 global interrupt.
 310:Core/Src/stm32h5xx_it.c ****   */
 311:Core/Src/stm32h5xx_it.c **** void TIM3_IRQHandler(void)
 312:Core/Src/stm32h5xx_it.c **** {
 441              		.loc 1 312 1 is_stmt 1 view -0
 442              		.cfi_startproc
 443              		@ args = 0, pretend = 0, frame = 0
 444              		@ frame_needed = 0, uses_anonymous_args = 0
 445 0000 08B5     		push	{r3, lr}
 446              	.LCFI8:
 447              		.cfi_def_cfa_offset 8
 448              		.cfi_offset 3, -8
 449              		.cfi_offset 14, -4
 313:Core/Src/stm32h5xx_it.c ****   /* USER CODE BEGIN TIM3_IRQn 0 */
 314:Core/Src/stm32h5xx_it.c **** 
 315:Core/Src/stm32h5xx_it.c ****   /* USER CODE END TIM3_IRQn 0 */
 316:Core/Src/stm32h5xx_it.c ****   HAL_TIM_IRQHandler(&htim3);
 450              		.loc 1 316 3 view .LVU51
 451 0002 0248     		ldr	r0, .L44
 452 0004 FFF7FEFF 		bl	HAL_TIM_IRQHandler
 453              	.LVL8:
ARM GAS  C:\Users\LENOVO\AppData\Local\Temp\ccllKXt3.s 			page 14


 317:Core/Src/stm32h5xx_it.c ****   /* USER CODE BEGIN TIM3_IRQn 1 */
 318:Core/Src/stm32h5xx_it.c **** 
 319:Core/Src/stm32h5xx_it.c ****   /* USER CODE END TIM3_IRQn 1 */
 320:Core/Src/stm32h5xx_it.c **** }
 454              		.loc 1 320 1 is_stmt 0 view .LVU52
 455 0008 08BD     		pop	{r3, pc}
 456              	.L45:
 457 000a 00BF     		.align	2
 458              	.L44:
 459 000c 00000000 		.word	htim3
 460              		.cfi_endproc
 461              	.LFE512:
 463              		.section	.text.I2C1_EV_IRQHandler,"ax",%progbits
 464              		.align	1
 465              		.global	I2C1_EV_IRQHandler
 466              		.syntax unified
 467              		.thumb
 468              		.thumb_func
 470              	I2C1_EV_IRQHandler:
 471              	.LFB513:
 321:Core/Src/stm32h5xx_it.c **** 
 322:Core/Src/stm32h5xx_it.c **** /**
 323:Core/Src/stm32h5xx_it.c ****   * @brief This function handles I2C1 Event interrupt.
 324:Core/Src/stm32h5xx_it.c ****   */
 325:Core/Src/stm32h5xx_it.c **** void I2C1_EV_IRQHandler(void)
 326:Core/Src/stm32h5xx_it.c **** {
 472              		.loc 1 326 1 is_stmt 1 view -0
 473              		.cfi_startproc
 474              		@ args = 0, pretend = 0, frame = 0
 475              		@ frame_needed = 0, uses_anonymous_args = 0
 476 0000 08B5     		push	{r3, lr}
 477              	.LCFI9:
 478              		.cfi_def_cfa_offset 8
 479              		.cfi_offset 3, -8
 480              		.cfi_offset 14, -4
 327:Core/Src/stm32h5xx_it.c ****   /* USER CODE BEGIN I2C1_EV_IRQn 0 */
 328:Core/Src/stm32h5xx_it.c **** 
 329:Core/Src/stm32h5xx_it.c ****   /* USER CODE END I2C1_EV_IRQn 0 */
 330:Core/Src/stm32h5xx_it.c ****   HAL_I2C_EV_IRQHandler(&hi2c1);
 481              		.loc 1 330 3 view .LVU54
 482 0002 0248     		ldr	r0, .L48
 483 0004 FFF7FEFF 		bl	HAL_I2C_EV_IRQHandler
 484              	.LVL9:
 331:Core/Src/stm32h5xx_it.c ****   /* USER CODE BEGIN I2C1_EV_IRQn 1 */
 332:Core/Src/stm32h5xx_it.c **** 
 333:Core/Src/stm32h5xx_it.c ****   /* USER CODE END I2C1_EV_IRQn 1 */
 334:Core/Src/stm32h5xx_it.c **** }
 485              		.loc 1 334 1 is_stmt 0 view .LVU55
 486 0008 08BD     		pop	{r3, pc}
 487              	.L49:
 488 000a 00BF     		.align	2
 489              	.L48:
 490 000c 00000000 		.word	hi2c1
 491              		.cfi_endproc
 492              	.LFE513:
 494              		.section	.text.I2C1_ER_IRQHandler,"ax",%progbits
 495              		.align	1
ARM GAS  C:\Users\LENOVO\AppData\Local\Temp\ccllKXt3.s 			page 15


 496              		.global	I2C1_ER_IRQHandler
 497              		.syntax unified
 498              		.thumb
 499              		.thumb_func
 501              	I2C1_ER_IRQHandler:
 502              	.LFB514:
 335:Core/Src/stm32h5xx_it.c **** 
 336:Core/Src/stm32h5xx_it.c **** /**
 337:Core/Src/stm32h5xx_it.c ****   * @brief This function handles I2C1 Error interrupt.
 338:Core/Src/stm32h5xx_it.c ****   */
 339:Core/Src/stm32h5xx_it.c **** void I2C1_ER_IRQHandler(void)
 340:Core/Src/stm32h5xx_it.c **** {
 503              		.loc 1 340 1 is_stmt 1 view -0
 504              		.cfi_startproc
 505              		@ args = 0, pretend = 0, frame = 0
 506              		@ frame_needed = 0, uses_anonymous_args = 0
 507 0000 08B5     		push	{r3, lr}
 508              	.LCFI10:
 509              		.cfi_def_cfa_offset 8
 510              		.cfi_offset 3, -8
 511              		.cfi_offset 14, -4
 341:Core/Src/stm32h5xx_it.c ****   /* USER CODE BEGIN I2C1_ER_IRQn 0 */
 342:Core/Src/stm32h5xx_it.c **** 
 343:Core/Src/stm32h5xx_it.c ****   /* USER CODE END I2C1_ER_IRQn 0 */
 344:Core/Src/stm32h5xx_it.c ****   HAL_I2C_ER_IRQHandler(&hi2c1);
 512              		.loc 1 344 3 view .LVU57
 513 0002 0248     		ldr	r0, .L52
 514 0004 FFF7FEFF 		bl	HAL_I2C_ER_IRQHandler
 515              	.LVL10:
 345:Core/Src/stm32h5xx_it.c ****   /* USER CODE BEGIN I2C1_ER_IRQn 1 */
 346:Core/Src/stm32h5xx_it.c **** 
 347:Core/Src/stm32h5xx_it.c ****   /* USER CODE END I2C1_ER_IRQn 1 */
 348:Core/Src/stm32h5xx_it.c **** }
 516              		.loc 1 348 1 is_stmt 0 view .LVU58
 517 0008 08BD     		pop	{r3, pc}
 518              	.L53:
 519 000a 00BF     		.align	2
 520              	.L52:
 521 000c 00000000 		.word	hi2c1
 522              		.cfi_endproc
 523              	.LFE514:
 525              		.section	.text.SPI1_IRQHandler,"ax",%progbits
 526              		.align	1
 527              		.global	SPI1_IRQHandler
 528              		.syntax unified
 529              		.thumb
 530              		.thumb_func
 532              	SPI1_IRQHandler:
 533              	.LFB515:
 349:Core/Src/stm32h5xx_it.c **** 
 350:Core/Src/stm32h5xx_it.c **** /**
 351:Core/Src/stm32h5xx_it.c ****   * @brief This function handles SPI1 global interrupt.
 352:Core/Src/stm32h5xx_it.c ****   */
 353:Core/Src/stm32h5xx_it.c **** void SPI1_IRQHandler(void)
 354:Core/Src/stm32h5xx_it.c **** {
 534              		.loc 1 354 1 is_stmt 1 view -0
 535              		.cfi_startproc
ARM GAS  C:\Users\LENOVO\AppData\Local\Temp\ccllKXt3.s 			page 16


 536              		@ args = 0, pretend = 0, frame = 0
 537              		@ frame_needed = 0, uses_anonymous_args = 0
 538 0000 08B5     		push	{r3, lr}
 539              	.LCFI11:
 540              		.cfi_def_cfa_offset 8
 541              		.cfi_offset 3, -8
 542              		.cfi_offset 14, -4
 355:Core/Src/stm32h5xx_it.c ****   /* USER CODE BEGIN SPI1_IRQn 0 */
 356:Core/Src/stm32h5xx_it.c **** 
 357:Core/Src/stm32h5xx_it.c ****   /* USER CODE END SPI1_IRQn 0 */
 358:Core/Src/stm32h5xx_it.c ****   HAL_SPI_IRQHandler(&hspi1);
 543              		.loc 1 358 3 view .LVU60
 544 0002 0248     		ldr	r0, .L56
 545 0004 FFF7FEFF 		bl	HAL_SPI_IRQHandler
 546              	.LVL11:
 359:Core/Src/stm32h5xx_it.c ****   /* USER CODE BEGIN SPI1_IRQn 1 */
 360:Core/Src/stm32h5xx_it.c **** 
 361:Core/Src/stm32h5xx_it.c ****   /* USER CODE END SPI1_IRQn 1 */
 362:Core/Src/stm32h5xx_it.c **** }
 547              		.loc 1 362 1 is_stmt 0 view .LVU61
 548 0008 08BD     		pop	{r3, pc}
 549              	.L57:
 550 000a 00BF     		.align	2
 551              	.L56:
 552 000c 00000000 		.word	hspi1
 553              		.cfi_endproc
 554              	.LFE515:
 556              		.section	.text.USART1_IRQHandler,"ax",%progbits
 557              		.align	1
 558              		.global	USART1_IRQHandler
 559              		.syntax unified
 560              		.thumb
 561              		.thumb_func
 563              	USART1_IRQHandler:
 564              	.LFB516:
 363:Core/Src/stm32h5xx_it.c **** 
 364:Core/Src/stm32h5xx_it.c **** /**
 365:Core/Src/stm32h5xx_it.c ****   * @brief This function handles USART1 global interrupt.
 366:Core/Src/stm32h5xx_it.c ****   */
 367:Core/Src/stm32h5xx_it.c **** void USART1_IRQHandler(void)
 368:Core/Src/stm32h5xx_it.c **** {
 565              		.loc 1 368 1 is_stmt 1 view -0
 566              		.cfi_startproc
 567              		@ args = 0, pretend = 0, frame = 0
 568              		@ frame_needed = 0, uses_anonymous_args = 0
 569 0000 08B5     		push	{r3, lr}
 570              	.LCFI12:
 571              		.cfi_def_cfa_offset 8
 572              		.cfi_offset 3, -8
 573              		.cfi_offset 14, -4
 369:Core/Src/stm32h5xx_it.c ****   /* USER CODE BEGIN USART1_IRQn 0 */
 370:Core/Src/stm32h5xx_it.c **** 
 371:Core/Src/stm32h5xx_it.c ****   /* USER CODE END USART1_IRQn 0 */
 372:Core/Src/stm32h5xx_it.c ****   HAL_UART_IRQHandler(&huart1);
 574              		.loc 1 372 3 view .LVU63
 575 0002 0248     		ldr	r0, .L60
 576 0004 FFF7FEFF 		bl	HAL_UART_IRQHandler
ARM GAS  C:\Users\LENOVO\AppData\Local\Temp\ccllKXt3.s 			page 17


 577              	.LVL12:
 373:Core/Src/stm32h5xx_it.c ****   /* USER CODE BEGIN USART1_IRQn 1 */
 374:Core/Src/stm32h5xx_it.c **** 
 375:Core/Src/stm32h5xx_it.c ****   /* USER CODE END USART1_IRQn 1 */
 376:Core/Src/stm32h5xx_it.c **** }
 578              		.loc 1 376 1 is_stmt 0 view .LVU64
 579 0008 08BD     		pop	{r3, pc}
 580              	.L61:
 581 000a 00BF     		.align	2
 582              	.L60:
 583 000c 00000000 		.word	huart1
 584              		.cfi_endproc
 585              	.LFE516:
 587              		.section	.text.USART2_IRQHandler,"ax",%progbits
 588              		.align	1
 589              		.global	USART2_IRQHandler
 590              		.syntax unified
 591              		.thumb
 592              		.thumb_func
 594              	USART2_IRQHandler:
 595              	.LFB517:
 377:Core/Src/stm32h5xx_it.c **** 
 378:Core/Src/stm32h5xx_it.c **** /**
 379:Core/Src/stm32h5xx_it.c ****   * @brief This function handles USART2 global interrupt.
 380:Core/Src/stm32h5xx_it.c ****   */
 381:Core/Src/stm32h5xx_it.c **** void USART2_IRQHandler(void)
 382:Core/Src/stm32h5xx_it.c **** {
 596              		.loc 1 382 1 is_stmt 1 view -0
 597              		.cfi_startproc
 598              		@ args = 0, pretend = 0, frame = 0
 599              		@ frame_needed = 0, uses_anonymous_args = 0
 600 0000 08B5     		push	{r3, lr}
 601              	.LCFI13:
 602              		.cfi_def_cfa_offset 8
 603              		.cfi_offset 3, -8
 604              		.cfi_offset 14, -4
 383:Core/Src/stm32h5xx_it.c ****   /* USER CODE BEGIN USART2_IRQn 0 */
 384:Core/Src/stm32h5xx_it.c **** 
 385:Core/Src/stm32h5xx_it.c ****   /* USER CODE END USART2_IRQn 0 */
 386:Core/Src/stm32h5xx_it.c ****   HAL_UART_IRQHandler(&huart2);
 605              		.loc 1 386 3 view .LVU66
 606 0002 0248     		ldr	r0, .L64
 607 0004 FFF7FEFF 		bl	HAL_UART_IRQHandler
 608              	.LVL13:
 387:Core/Src/stm32h5xx_it.c ****   /* USER CODE BEGIN USART2_IRQn 1 */
 388:Core/Src/stm32h5xx_it.c **** 
 389:Core/Src/stm32h5xx_it.c ****   /* USER CODE END USART2_IRQn 1 */
 390:Core/Src/stm32h5xx_it.c **** }
 609              		.loc 1 390 1 is_stmt 0 view .LVU67
 610 0008 08BD     		pop	{r3, pc}
 611              	.L65:
 612 000a 00BF     		.align	2
 613              	.L64:
 614 000c 00000000 		.word	huart2
 615              		.cfi_endproc
 616              	.LFE517:
 618              		.section	.text.USART3_IRQHandler,"ax",%progbits
ARM GAS  C:\Users\LENOVO\AppData\Local\Temp\ccllKXt3.s 			page 18


 619              		.align	1
 620              		.global	USART3_IRQHandler
 621              		.syntax unified
 622              		.thumb
 623              		.thumb_func
 625              	USART3_IRQHandler:
 626              	.LFB518:
 391:Core/Src/stm32h5xx_it.c **** 
 392:Core/Src/stm32h5xx_it.c **** /**
 393:Core/Src/stm32h5xx_it.c ****   * @brief This function handles USART3 global interrupt.
 394:Core/Src/stm32h5xx_it.c ****   */
 395:Core/Src/stm32h5xx_it.c **** void USART3_IRQHandler(void)
 396:Core/Src/stm32h5xx_it.c **** {
 627              		.loc 1 396 1 is_stmt 1 view -0
 628              		.cfi_startproc
 629              		@ args = 0, pretend = 0, frame = 0
 630              		@ frame_needed = 0, uses_anonymous_args = 0
 631 0000 08B5     		push	{r3, lr}
 632              	.LCFI14:
 633              		.cfi_def_cfa_offset 8
 634              		.cfi_offset 3, -8
 635              		.cfi_offset 14, -4
 397:Core/Src/stm32h5xx_it.c ****   /* USER CODE BEGIN USART3_IRQn 0 */
 398:Core/Src/stm32h5xx_it.c **** 
 399:Core/Src/stm32h5xx_it.c ****   /* USER CODE END USART3_IRQn 0 */
 400:Core/Src/stm32h5xx_it.c ****   HAL_UART_IRQHandler(&huart3);
 636              		.loc 1 400 3 view .LVU69
 637 0002 0248     		ldr	r0, .L68
 638 0004 FFF7FEFF 		bl	HAL_UART_IRQHandler
 639              	.LVL14:
 401:Core/Src/stm32h5xx_it.c ****   /* USER CODE BEGIN USART3_IRQn 1 */
 402:Core/Src/stm32h5xx_it.c **** 
 403:Core/Src/stm32h5xx_it.c ****   /* USER CODE END USART3_IRQn 1 */
 404:Core/Src/stm32h5xx_it.c **** }
 640              		.loc 1 404 1 is_stmt 0 view .LVU70
 641 0008 08BD     		pop	{r3, pc}
 642              	.L69:
 643 000a 00BF     		.align	2
 644              	.L68:
 645 000c 00000000 		.word	huart3
 646              		.cfi_endproc
 647              	.LFE518:
 649              		.section	.text.LPTIM1_IRQHandler,"ax",%progbits
 650              		.align	1
 651              		.global	LPTIM1_IRQHandler
 652              		.syntax unified
 653              		.thumb
 654              		.thumb_func
 656              	LPTIM1_IRQHandler:
 657              	.LFB519:
 405:Core/Src/stm32h5xx_it.c **** 
 406:Core/Src/stm32h5xx_it.c **** /**
 407:Core/Src/stm32h5xx_it.c ****   * @brief This function handles LPTIM1 global interrupt.
 408:Core/Src/stm32h5xx_it.c ****   */
 409:Core/Src/stm32h5xx_it.c **** void LPTIM1_IRQHandler(void)
 410:Core/Src/stm32h5xx_it.c **** {
 658              		.loc 1 410 1 is_stmt 1 view -0
ARM GAS  C:\Users\LENOVO\AppData\Local\Temp\ccllKXt3.s 			page 19


 659              		.cfi_startproc
 660              		@ args = 0, pretend = 0, frame = 0
 661              		@ frame_needed = 0, uses_anonymous_args = 0
 662 0000 08B5     		push	{r3, lr}
 663              	.LCFI15:
 664              		.cfi_def_cfa_offset 8
 665              		.cfi_offset 3, -8
 666              		.cfi_offset 14, -4
 411:Core/Src/stm32h5xx_it.c ****   /* USER CODE BEGIN LPTIM1_IRQn 0 */
 412:Core/Src/stm32h5xx_it.c **** 
 413:Core/Src/stm32h5xx_it.c ****   /* USER CODE END LPTIM1_IRQn 0 */
 414:Core/Src/stm32h5xx_it.c ****   HAL_LPTIM_IRQHandler(&hlptim1);
 667              		.loc 1 414 3 view .LVU72
 668 0002 0248     		ldr	r0, .L72
 669 0004 FFF7FEFF 		bl	HAL_LPTIM_IRQHandler
 670              	.LVL15:
 415:Core/Src/stm32h5xx_it.c ****   /* USER CODE BEGIN LPTIM1_IRQn 1 */
 416:Core/Src/stm32h5xx_it.c **** 
 417:Core/Src/stm32h5xx_it.c ****   /* USER CODE END LPTIM1_IRQn 1 */
 418:Core/Src/stm32h5xx_it.c **** }
 671              		.loc 1 418 1 is_stmt 0 view .LVU73
 672 0008 08BD     		pop	{r3, pc}
 673              	.L73:
 674 000a 00BF     		.align	2
 675              	.L72:
 676 000c 00000000 		.word	hlptim1
 677              		.cfi_endproc
 678              	.LFE519:
 680              		.text
 681              	.Letext0:
 682              		.file 2 "C:\\ST\\STM32CubeCLT_1.20.0\\GNU-tools-for-STM32\\bin/../lib/gcc/arm-none-eabi/13.3.1/../
 683              		.file 3 "C:\\ST\\STM32CubeCLT_1.20.0\\GNU-tools-for-STM32\\bin/../lib/gcc/arm-none-eabi/13.3.1/../
 684              		.file 4 "Drivers/CMSIS/Device/ST/STM32H5xx/Include/stm32h563xx.h"
 685              		.file 5 "Drivers/STM32H5xx_HAL_Driver/Inc/stm32h5xx_hal_def.h"
 686              		.file 6 "Drivers/STM32H5xx_HAL_Driver/Inc/stm32h5xx_hal_dma.h"
 687              		.file 7 "Drivers/STM32H5xx_HAL_Driver/Inc/stm32h5xx_hal_dma_ex.h"
 688              		.file 8 "Drivers/STM32H5xx_HAL_Driver/Inc/stm32h5xx_hal_i2c.h"
 689              		.file 9 "Drivers/STM32H5xx_HAL_Driver/Inc/stm32h5xx_ll_lptim.h"
 690              		.file 10 "Drivers/STM32H5xx_HAL_Driver/Inc/stm32h5xx_hal_lptim.h"
 691              		.file 11 "Drivers/STM32H5xx_HAL_Driver/Inc/stm32h5xx_hal_rtc.h"
 692              		.file 12 "Drivers/STM32H5xx_HAL_Driver/Inc/stm32h5xx_hal_spi.h"
 693              		.file 13 "Drivers/STM32H5xx_HAL_Driver/Inc/stm32h5xx_hal_tim.h"
 694              		.file 14 "Drivers/STM32H5xx_HAL_Driver/Inc/stm32h5xx_hal_uart.h"
 695              		.file 15 "Drivers/STM32H5xx_HAL_Driver/Inc/stm32h5xx_hal_gpio.h"
 696              		.file 16 "Drivers/STM32H5xx_HAL_Driver/Inc/stm32h5xx_hal_rtc_ex.h"
 697              		.file 17 "Drivers/STM32H5xx_HAL_Driver/Inc/stm32h5xx_hal.h"
ARM GAS  C:\Users\LENOVO\AppData\Local\Temp\ccllKXt3.s 			page 20


DEFINED SYMBOLS
                            *ABS*:00000000 stm32h5xx_it.c
C:\Users\LENOVO\AppData\Local\Temp\ccllKXt3.s:22     .text.NMI_Handler:00000000 $t
C:\Users\LENOVO\AppData\Local\Temp\ccllKXt3.s:28     .text.NMI_Handler:00000000 NMI_Handler
C:\Users\LENOVO\AppData\Local\Temp\ccllKXt3.s:45     .text.HardFault_Handler:00000000 $t
C:\Users\LENOVO\AppData\Local\Temp\ccllKXt3.s:51     .text.HardFault_Handler:00000000 HardFault_Handler
C:\Users\LENOVO\AppData\Local\Temp\ccllKXt3.s:68     .text.MemManage_Handler:00000000 $t
C:\Users\LENOVO\AppData\Local\Temp\ccllKXt3.s:74     .text.MemManage_Handler:00000000 MemManage_Handler
C:\Users\LENOVO\AppData\Local\Temp\ccllKXt3.s:91     .text.BusFault_Handler:00000000 $t
C:\Users\LENOVO\AppData\Local\Temp\ccllKXt3.s:97     .text.BusFault_Handler:00000000 BusFault_Handler
C:\Users\LENOVO\AppData\Local\Temp\ccllKXt3.s:114    .text.UsageFault_Handler:00000000 $t
C:\Users\LENOVO\AppData\Local\Temp\ccllKXt3.s:120    .text.UsageFault_Handler:00000000 UsageFault_Handler
C:\Users\LENOVO\AppData\Local\Temp\ccllKXt3.s:137    .text.SVC_Handler:00000000 $t
C:\Users\LENOVO\AppData\Local\Temp\ccllKXt3.s:143    .text.SVC_Handler:00000000 SVC_Handler
C:\Users\LENOVO\AppData\Local\Temp\ccllKXt3.s:156    .text.DebugMon_Handler:00000000 $t
C:\Users\LENOVO\AppData\Local\Temp\ccllKXt3.s:162    .text.DebugMon_Handler:00000000 DebugMon_Handler
C:\Users\LENOVO\AppData\Local\Temp\ccllKXt3.s:175    .text.PendSV_Handler:00000000 $t
C:\Users\LENOVO\AppData\Local\Temp\ccllKXt3.s:181    .text.PendSV_Handler:00000000 PendSV_Handler
C:\Users\LENOVO\AppData\Local\Temp\ccllKXt3.s:194    .text.SysTick_Handler:00000000 $t
C:\Users\LENOVO\AppData\Local\Temp\ccllKXt3.s:200    .text.SysTick_Handler:00000000 SysTick_Handler
C:\Users\LENOVO\AppData\Local\Temp\ccllKXt3.s:220    .text.RTC_IRQHandler:00000000 $t
C:\Users\LENOVO\AppData\Local\Temp\ccllKXt3.s:226    .text.RTC_IRQHandler:00000000 RTC_IRQHandler
C:\Users\LENOVO\AppData\Local\Temp\ccllKXt3.s:246    .text.RTC_IRQHandler:0000000c $d
C:\Users\LENOVO\AppData\Local\Temp\ccllKXt3.s:251    .text.EXTI1_IRQHandler:00000000 $t
C:\Users\LENOVO\AppData\Local\Temp\ccllKXt3.s:257    .text.EXTI1_IRQHandler:00000000 EXTI1_IRQHandler
C:\Users\LENOVO\AppData\Local\Temp\ccllKXt3.s:278    .text.TIM1_BRK_IRQHandler:00000000 $t
C:\Users\LENOVO\AppData\Local\Temp\ccllKXt3.s:284    .text.TIM1_BRK_IRQHandler:00000000 TIM1_BRK_IRQHandler
C:\Users\LENOVO\AppData\Local\Temp\ccllKXt3.s:304    .text.TIM1_BRK_IRQHandler:0000000c $d
C:\Users\LENOVO\AppData\Local\Temp\ccllKXt3.s:309    .text.TIM1_UP_IRQHandler:00000000 $t
C:\Users\LENOVO\AppData\Local\Temp\ccllKXt3.s:315    .text.TIM1_UP_IRQHandler:00000000 TIM1_UP_IRQHandler
C:\Users\LENOVO\AppData\Local\Temp\ccllKXt3.s:335    .text.TIM1_UP_IRQHandler:0000000c $d
C:\Users\LENOVO\AppData\Local\Temp\ccllKXt3.s:340    .text.TIM1_TRG_COM_IRQHandler:00000000 $t
C:\Users\LENOVO\AppData\Local\Temp\ccllKXt3.s:346    .text.TIM1_TRG_COM_IRQHandler:00000000 TIM1_TRG_COM_IRQHandler
C:\Users\LENOVO\AppData\Local\Temp\ccllKXt3.s:366    .text.TIM1_TRG_COM_IRQHandler:0000000c $d
C:\Users\LENOVO\AppData\Local\Temp\ccllKXt3.s:371    .text.TIM1_CC_IRQHandler:00000000 $t
C:\Users\LENOVO\AppData\Local\Temp\ccllKXt3.s:377    .text.TIM1_CC_IRQHandler:00000000 TIM1_CC_IRQHandler
C:\Users\LENOVO\AppData\Local\Temp\ccllKXt3.s:397    .text.TIM1_CC_IRQHandler:0000000c $d
C:\Users\LENOVO\AppData\Local\Temp\ccllKXt3.s:402    .text.TIM2_IRQHandler:00000000 $t
C:\Users\LENOVO\AppData\Local\Temp\ccllKXt3.s:408    .text.TIM2_IRQHandler:00000000 TIM2_IRQHandler
C:\Users\LENOVO\AppData\Local\Temp\ccllKXt3.s:428    .text.TIM2_IRQHandler:0000000c $d
C:\Users\LENOVO\AppData\Local\Temp\ccllKXt3.s:433    .text.TIM3_IRQHandler:00000000 $t
C:\Users\LENOVO\AppData\Local\Temp\ccllKXt3.s:439    .text.TIM3_IRQHandler:00000000 TIM3_IRQHandler
C:\Users\LENOVO\AppData\Local\Temp\ccllKXt3.s:459    .text.TIM3_IRQHandler:0000000c $d
C:\Users\LENOVO\AppData\Local\Temp\ccllKXt3.s:464    .text.I2C1_EV_IRQHandler:00000000 $t
C:\Users\LENOVO\AppData\Local\Temp\ccllKXt3.s:470    .text.I2C1_EV_IRQHandler:00000000 I2C1_EV_IRQHandler
C:\Users\LENOVO\AppData\Local\Temp\ccllKXt3.s:490    .text.I2C1_EV_IRQHandler:0000000c $d
C:\Users\LENOVO\AppData\Local\Temp\ccllKXt3.s:495    .text.I2C1_ER_IRQHandler:00000000 $t
C:\Users\LENOVO\AppData\Local\Temp\ccllKXt3.s:501    .text.I2C1_ER_IRQHandler:00000000 I2C1_ER_IRQHandler
C:\Users\LENOVO\AppData\Local\Temp\ccllKXt3.s:521    .text.I2C1_ER_IRQHandler:0000000c $d
C:\Users\LENOVO\AppData\Local\Temp\ccllKXt3.s:526    .text.SPI1_IRQHandler:00000000 $t
C:\Users\LENOVO\AppData\Local\Temp\ccllKXt3.s:532    .text.SPI1_IRQHandler:00000000 SPI1_IRQHandler
C:\Users\LENOVO\AppData\Local\Temp\ccllKXt3.s:552    .text.SPI1_IRQHandler:0000000c $d
C:\Users\LENOVO\AppData\Local\Temp\ccllKXt3.s:557    .text.USART1_IRQHandler:00000000 $t
C:\Users\LENOVO\AppData\Local\Temp\ccllKXt3.s:563    .text.USART1_IRQHandler:00000000 USART1_IRQHandler
C:\Users\LENOVO\AppData\Local\Temp\ccllKXt3.s:583    .text.USART1_IRQHandler:0000000c $d
C:\Users\LENOVO\AppData\Local\Temp\ccllKXt3.s:588    .text.USART2_IRQHandler:00000000 $t
C:\Users\LENOVO\AppData\Local\Temp\ccllKXt3.s:594    .text.USART2_IRQHandler:00000000 USART2_IRQHandler
ARM GAS  C:\Users\LENOVO\AppData\Local\Temp\ccllKXt3.s 			page 21


C:\Users\LENOVO\AppData\Local\Temp\ccllKXt3.s:614    .text.USART2_IRQHandler:0000000c $d
C:\Users\LENOVO\AppData\Local\Temp\ccllKXt3.s:619    .text.USART3_IRQHandler:00000000 $t
C:\Users\LENOVO\AppData\Local\Temp\ccllKXt3.s:625    .text.USART3_IRQHandler:00000000 USART3_IRQHandler
C:\Users\LENOVO\AppData\Local\Temp\ccllKXt3.s:645    .text.USART3_IRQHandler:0000000c $d
C:\Users\LENOVO\AppData\Local\Temp\ccllKXt3.s:650    .text.LPTIM1_IRQHandler:00000000 $t
C:\Users\LENOVO\AppData\Local\Temp\ccllKXt3.s:656    .text.LPTIM1_IRQHandler:00000000 LPTIM1_IRQHandler
C:\Users\LENOVO\AppData\Local\Temp\ccllKXt3.s:676    .text.LPTIM1_IRQHandler:0000000c $d

UNDEFINED SYMBOLS
HAL_IncTick
HAL_RTCEx_WakeUpTimerIRQHandler
hrtc
HAL_GPIO_EXTI_IRQHandler
HAL_TIM_IRQHandler
htim1
htim2
htim3
HAL_I2C_EV_IRQHandler
hi2c1
HAL_I2C_ER_IRQHandler
HAL_SPI_IRQHandler
hspi1
HAL_UART_IRQHandler
huart1
huart2
huart3
HAL_LPTIM_IRQHandler
hlptim1
