ARM GAS  C:\Users\LENOVO\AppData\Local\Temp\cczkehOP.s 			page 1


   1              		.cpu cortex-m33
   2              		.arch armv8-m.main
   3              		.fpu fpv5-sp-d16
   4              		.arch_extension dsp
   5              		.eabi_attribute 27, 1
   6              		.eabi_attribute 28, 1
   7              		.eabi_attribute 20, 1
   8              		.eabi_attribute 21, 1
   9              		.eabi_attribute 23, 3
  10              		.eabi_attribute 24, 1
  11              		.eabi_attribute 25, 1
  12              		.eabi_attribute 26, 1
  13              		.eabi_attribute 30, 1
  14              		.eabi_attribute 34, 1
  15              		.eabi_attribute 18, 4
  16              		.file	"stm32h5xx_it.c"
  17              		.text
  18              	.Ltext0:
  19              		.cfi_sections	.debug_frame
  20              		.file 1 "Core/Src/stm32h5xx_it.c"
  21              		.section	.text.NMI_Handler,"ax",%progbits
  22              		.align	1
  23              		.global	NMI_Handler
  24              		.syntax unified
  25              		.thumb
  26              		.thumb_func
  28              	NMI_Handler:
  29              	.LFB496:
   1:Core/Src/stm32h5xx_it.c **** /* USER CODE BEGIN Header */
   2:Core/Src/stm32h5xx_it.c **** /**
   3:Core/Src/stm32h5xx_it.c ****   ******************************************************************************
   4:Core/Src/stm32h5xx_it.c ****   * @file    stm32h5xx_it.c
   5:Core/Src/stm32h5xx_it.c ****   * @brief   Interrupt Service Routines.
   6:Core/Src/stm32h5xx_it.c ****   ******************************************************************************
   7:Core/Src/stm32h5xx_it.c ****   * @attention
   8:Core/Src/stm32h5xx_it.c ****   *
   9:Core/Src/stm32h5xx_it.c ****   * Copyright (c) 2026 STMicroelectronics.
  10:Core/Src/stm32h5xx_it.c ****   * All rights reserved.
  11:Core/Src/stm32h5xx_it.c ****   *
  12:Core/Src/stm32h5xx_it.c ****   * This software is licensed under terms that can be found in the LICENSE file
  13:Core/Src/stm32h5xx_it.c ****   * in the root directory of this software component.
  14:Core/Src/stm32h5xx_it.c ****   * If no LICENSE file comes with this software, it is provided AS-IS.
  15:Core/Src/stm32h5xx_it.c ****   *
  16:Core/Src/stm32h5xx_it.c ****   ******************************************************************************
  17:Core/Src/stm32h5xx_it.c ****   */
  18:Core/Src/stm32h5xx_it.c **** /* USER CODE END Header */
  19:Core/Src/stm32h5xx_it.c **** 
  20:Core/Src/stm32h5xx_it.c **** /* Includes ------------------------------------------------------------------*/
  21:Core/Src/stm32h5xx_it.c **** #include "main.h"
  22:Core/Src/stm32h5xx_it.c **** #include "stm32h5xx_it.h"
  23:Core/Src/stm32h5xx_it.c **** #include "logger.h" // DEBUG: needed for log_error in HardFault_LogAndHang (hang investigation)
  24:Core/Src/stm32h5xx_it.c **** /* Private includes ----------------------------------------------------------*/
  25:Core/Src/stm32h5xx_it.c **** /* USER CODE BEGIN Includes */
  26:Core/Src/stm32h5xx_it.c **** /* USER CODE END Includes */
  27:Core/Src/stm32h5xx_it.c **** 
  28:Core/Src/stm32h5xx_it.c **** /* Private typedef -----------------------------------------------------------*/
  29:Core/Src/stm32h5xx_it.c **** /* USER CODE BEGIN TD */
ARM GAS  C:\Users\LENOVO\AppData\Local\Temp\cczkehOP.s 			page 2


  30:Core/Src/stm32h5xx_it.c **** 
  31:Core/Src/stm32h5xx_it.c **** /* USER CODE END TD */
  32:Core/Src/stm32h5xx_it.c **** 
  33:Core/Src/stm32h5xx_it.c **** /* Private define ------------------------------------------------------------*/
  34:Core/Src/stm32h5xx_it.c **** /* USER CODE BEGIN PD */
  35:Core/Src/stm32h5xx_it.c **** 
  36:Core/Src/stm32h5xx_it.c **** /* USER CODE END PD */
  37:Core/Src/stm32h5xx_it.c **** 
  38:Core/Src/stm32h5xx_it.c **** /* Private macro -------------------------------------------------------------*/
  39:Core/Src/stm32h5xx_it.c **** /* USER CODE BEGIN PM */
  40:Core/Src/stm32h5xx_it.c **** 
  41:Core/Src/stm32h5xx_it.c **** /* USER CODE END PM */
  42:Core/Src/stm32h5xx_it.c **** 
  43:Core/Src/stm32h5xx_it.c **** /* Private variables ---------------------------------------------------------*/
  44:Core/Src/stm32h5xx_it.c **** /* USER CODE BEGIN PV */
  45:Core/Src/stm32h5xx_it.c **** 
  46:Core/Src/stm32h5xx_it.c **** /* USER CODE END PV */
  47:Core/Src/stm32h5xx_it.c **** 
  48:Core/Src/stm32h5xx_it.c **** /* Private function prototypes -----------------------------------------------*/
  49:Core/Src/stm32h5xx_it.c **** /* USER CODE BEGIN PFP */
  50:Core/Src/stm32h5xx_it.c **** 
  51:Core/Src/stm32h5xx_it.c **** /* USER CODE END PFP */
  52:Core/Src/stm32h5xx_it.c **** 
  53:Core/Src/stm32h5xx_it.c **** /* Private user code ---------------------------------------------------------*/
  54:Core/Src/stm32h5xx_it.c **** /* USER CODE BEGIN 0 */
  55:Core/Src/stm32h5xx_it.c **** 
  56:Core/Src/stm32h5xx_it.c **** /* USER CODE END 0 */
  57:Core/Src/stm32h5xx_it.c **** 
  58:Core/Src/stm32h5xx_it.c **** /* External variables --------------------------------------------------------*/
  59:Core/Src/stm32h5xx_it.c **** extern I2C_HandleTypeDef hi2c1;
  60:Core/Src/stm32h5xx_it.c **** extern LPTIM_HandleTypeDef hlptim1;
  61:Core/Src/stm32h5xx_it.c **** extern RTC_HandleTypeDef hrtc;
  62:Core/Src/stm32h5xx_it.c **** extern SPI_HandleTypeDef hspi1;
  63:Core/Src/stm32h5xx_it.c **** extern TIM_HandleTypeDef htim1;
  64:Core/Src/stm32h5xx_it.c **** extern TIM_HandleTypeDef htim2;
  65:Core/Src/stm32h5xx_it.c **** extern TIM_HandleTypeDef htim3;
  66:Core/Src/stm32h5xx_it.c **** extern UART_HandleTypeDef huart1;
  67:Core/Src/stm32h5xx_it.c **** extern UART_HandleTypeDef huart2;
  68:Core/Src/stm32h5xx_it.c **** extern UART_HandleTypeDef huart3;
  69:Core/Src/stm32h5xx_it.c **** /* USER CODE BEGIN EV */
  70:Core/Src/stm32h5xx_it.c **** 
  71:Core/Src/stm32h5xx_it.c **** /* USER CODE END EV */
  72:Core/Src/stm32h5xx_it.c **** 
  73:Core/Src/stm32h5xx_it.c **** /******************************************************************************/
  74:Core/Src/stm32h5xx_it.c **** /*           Cortex Processor Interruption and Exception Handlers          */
  75:Core/Src/stm32h5xx_it.c **** /******************************************************************************/
  76:Core/Src/stm32h5xx_it.c **** /**
  77:Core/Src/stm32h5xx_it.c ****   * @brief This function handles Non maskable interrupt.
  78:Core/Src/stm32h5xx_it.c ****   */
  79:Core/Src/stm32h5xx_it.c **** void NMI_Handler(void)
  80:Core/Src/stm32h5xx_it.c **** {
  30              		.loc 1 80 1 view -0
  31              		.cfi_startproc
  32              		@ Volatile: function does not return.
  33              		@ args = 0, pretend = 0, frame = 0
  34              		@ frame_needed = 0, uses_anonymous_args = 0
  35              		@ link register save eliminated.
ARM GAS  C:\Users\LENOVO\AppData\Local\Temp\cczkehOP.s 			page 3


  36              	.L2:
  81:Core/Src/stm32h5xx_it.c ****   /* USER CODE BEGIN NonMaskableInt_IRQn 0 */
  82:Core/Src/stm32h5xx_it.c **** 
  83:Core/Src/stm32h5xx_it.c ****   /* USER CODE END NonMaskableInt_IRQn 0 */
  84:Core/Src/stm32h5xx_it.c ****   /* USER CODE BEGIN NonMaskableInt_IRQn 1 */
  85:Core/Src/stm32h5xx_it.c ****    while (1)
  37              		.loc 1 85 4 view .LVU1
  86:Core/Src/stm32h5xx_it.c ****   {
  87:Core/Src/stm32h5xx_it.c ****   }
  38              		.loc 1 87 3 view .LVU2
  85:Core/Src/stm32h5xx_it.c ****   {
  39              		.loc 1 85 10 view .LVU3
  40 0000 FEE7     		b	.L2
  41              		.cfi_endproc
  42              	.LFE496:
  44              		.section	.rodata.HardFault_LogAndHang.str1.4,"aMS",%progbits,1
  45              		.align	2
  46              	.LC0:
  47 0000 48617264 		.ascii	"HardFault! pc=0x%08lX lr=0x%08lX psr=0x%08lX\000"
  47      4661756C 
  47      74212070 
  47      633D3078 
  47      2530386C 
  48 002d 000000   		.align	2
  49              	.LC1:
  50 0030 4641554C 		.ascii	"FAULT\000"
  50      5400
  51 0036 0000     		.align	2
  52              	.LC2:
  53 0038 20207230 		.ascii	"  r0=0x%08lX r1=0x%08lX r2=0x%08lX r3=0x%08lX r12=0"
  53      3D307825 
  53      30386C58 
  53      2072313D 
  53      30782530 
  54 006b 78253038 		.ascii	"x%08lX\000"
  54      6C5800
  55 0072 0000     		.align	2
  56              	.LC3:
  57 0074 20204346 		.ascii	"  CFSR=0x%08lX HFSR=0x%08lX MMFAR=0x%08lX BFAR=0x%0"
  57      53523D30 
  57      78253038 
  57      6C582048 
  57      4653523D 
  58 00a7 386C5800 		.ascii	"8lX\000"
  59              		.section	.text.HardFault_LogAndHang,"ax",%progbits
  60              		.align	1
  61              		.global	HardFault_LogAndHang
  62              		.syntax unified
  63              		.thumb
  64              		.thumb_func
  66              	HardFault_LogAndHang:
  67              	.LVL0:
  68              	.LFB497:
  88:Core/Src/stm32h5xx_it.c ****   /* USER CODE END NonMaskableInt_IRQn 1 */
  89:Core/Src/stm32h5xx_it.c **** }
  90:Core/Src/stm32h5xx_it.c **** 
  91:Core/Src/stm32h5xx_it.c **** /**
ARM GAS  C:\Users\LENOVO\AppData\Local\Temp\cczkehOP.s 			page 4


  92:Core/Src/stm32h5xx_it.c ****   * @brief This function handles Hard fault interrupt.
  93:Core/Src/stm32h5xx_it.c ****   */
  94:Core/Src/stm32h5xx_it.c **** // DEBUG: added for the "app hangs after bootloader jump" investigation.
  95:Core/Src/stm32h5xx_it.c **** // Handler was previously empty (just while(1)), so a real CPU fault (bad jump,
  96:Core/Src/stm32h5xx_it.c **** // invalid memory access, etc.) would look identical to any other kind of silent
  97:Core/Src/stm32h5xx_it.c **** // hang -- no way to tell them apart from the UART log alone.
  98:Core/Src/stm32h5xx_it.c **** //
  99:Core/Src/stm32h5xx_it.c **** // This C function does the actual logging. It must be called with the MSP value
 100:Core/Src/stm32h5xx_it.c **** // exactly as it was at exception entry, read by the naked asm trampoline below
 101:Core/Src/stm32h5xx_it.c **** // BEFORE any C function prologue gets a chance to touch the stack (reading MSP
 102:Core/Src/stm32h5xx_it.c **** // from inside a normal C function is not reliably safe for this reason).
 103:Core/Src/stm32h5xx_it.c **** void HardFault_LogAndHang(uint32_t msp_at_entry)
 104:Core/Src/stm32h5xx_it.c **** {
  69              		.loc 1 104 1 view -0
  70              		.cfi_startproc
  71              		@ args = 0, pretend = 0, frame = 8
  72              		@ frame_needed = 0, uses_anonymous_args = 0
  73              		.loc 1 104 1 is_stmt 0 view .LVU5
  74 0000 2DE9F04F 		push	{r4, r5, r6, r7, r8, r9, r10, fp, lr}
  75              	.LCFI0:
  76              		.cfi_def_cfa_offset 36
  77              		.cfi_offset 4, -36
  78              		.cfi_offset 5, -32
  79              		.cfi_offset 6, -28
  80              		.cfi_offset 7, -24
  81              		.cfi_offset 8, -20
  82              		.cfi_offset 9, -16
  83              		.cfi_offset 10, -12
  84              		.cfi_offset 11, -8
  85              		.cfi_offset 14, -4
  86 0004 87B0     		sub	sp, sp, #28
  87              	.LCFI1:
  88              		.cfi_def_cfa_offset 64
 105:Core/Src/stm32h5xx_it.c ****     // Exception stack frame layout pushed automatically by the CPU: r0,r1,r2,r3,r12,lr,pc,psr
 106:Core/Src/stm32h5xx_it.c ****     uint32_t *stacked = (uint32_t*)msp_at_entry;
  89              		.loc 1 106 5 is_stmt 1 view .LVU6
  90              	.LVL1:
 107:Core/Src/stm32h5xx_it.c ****     uint32_t stacked_r0  = stacked[0];
  91              		.loc 1 107 5 view .LVU7
  92              		.loc 1 107 14 is_stmt 0 view .LVU8
  93 0006 0368     		ldr	r3, [r0]
  94 0008 0493     		str	r3, [sp, #16]
  95              	.LVL2:
 108:Core/Src/stm32h5xx_it.c ****     uint32_t stacked_r1  = stacked[1];
  96              		.loc 1 108 5 is_stmt 1 view .LVU9
  97              		.loc 1 108 14 is_stmt 0 view .LVU10
  98 000a D0F80480 		ldr	r8, [r0, #4]
  99              	.LVL3:
 109:Core/Src/stm32h5xx_it.c ****     uint32_t stacked_r2  = stacked[2];
 100              		.loc 1 109 5 is_stmt 1 view .LVU11
 101              		.loc 1 109 14 is_stmt 0 view .LVU12
 102 000e D0F80890 		ldr	r9, [r0, #8]
 103              	.LVL4:
 110:Core/Src/stm32h5xx_it.c ****     uint32_t stacked_r3  = stacked[3];
 104              		.loc 1 110 5 is_stmt 1 view .LVU13
 105              		.loc 1 110 14 is_stmt 0 view .LVU14
 106 0012 D0F80CA0 		ldr	r10, [r0, #12]
ARM GAS  C:\Users\LENOVO\AppData\Local\Temp\cczkehOP.s 			page 5


 107              	.LVL5:
 111:Core/Src/stm32h5xx_it.c ****     uint32_t stacked_r12 = stacked[4];
 108              		.loc 1 111 5 is_stmt 1 view .LVU15
 109              		.loc 1 111 14 is_stmt 0 view .LVU16
 110 0016 D0F810B0 		ldr	fp, [r0, #16]
 111              	.LVL6:
 112:Core/Src/stm32h5xx_it.c ****     uint32_t stacked_lr  = stacked[5];
 112              		.loc 1 112 5 is_stmt 1 view .LVU17
 113              		.loc 1 112 14 is_stmt 0 view .LVU18
 114 001a 4169     		ldr	r1, [r0, #20]
 115              	.LVL7:
 113:Core/Src/stm32h5xx_it.c ****     uint32_t stacked_pc  = stacked[6];
 116              		.loc 1 113 5 is_stmt 1 view .LVU19
 117              		.loc 1 113 14 is_stmt 0 view .LVU20
 118 001c 8369     		ldr	r3, [r0, #24]
 119              	.LVL8:
 114:Core/Src/stm32h5xx_it.c ****     uint32_t stacked_psr = stacked[7];
 120              		.loc 1 114 5 is_stmt 1 view .LVU21
 121              		.loc 1 114 14 is_stmt 0 view .LVU22
 122 001e C069     		ldr	r0, [r0, #28]
 123              	.LVL9:
 115:Core/Src/stm32h5xx_it.c **** 
 116:Core/Src/stm32h5xx_it.c ****     uint32_t cfsr  = SCB->CFSR;
 124              		.loc 1 116 5 is_stmt 1 view .LVU23
 125              		.loc 1 116 14 is_stmt 0 view .LVU24
 126 0020 124A     		ldr	r2, .L6
 127 0022 946A     		ldr	r4, [r2, #40]
 128 0024 0594     		str	r4, [sp, #20]
 129              	.LVL10:
 117:Core/Src/stm32h5xx_it.c ****     uint32_t hfsr  = SCB->HFSR;
 130              		.loc 1 117 5 is_stmt 1 view .LVU25
 131              		.loc 1 117 14 is_stmt 0 view .LVU26
 132 0026 D56A     		ldr	r5, [r2, #44]
 133              	.LVL11:
 118:Core/Src/stm32h5xx_it.c ****     uint32_t mmfar = SCB->MMFAR;
 134              		.loc 1 118 5 is_stmt 1 view .LVU27
 135              		.loc 1 118 14 is_stmt 0 view .LVU28
 136 0028 576B     		ldr	r7, [r2, #52]
 137              	.LVL12:
 119:Core/Src/stm32h5xx_it.c ****     uint32_t bfar  = SCB->BFAR;
 138              		.loc 1 119 5 is_stmt 1 view .LVU29
 139              		.loc 1 119 14 is_stmt 0 view .LVU30
 140 002a 966B     		ldr	r6, [r2, #56]
 141              	.LVL13:
 120:Core/Src/stm32h5xx_it.c **** 
 121:Core/Src/stm32h5xx_it.c ****     log_error("FAULT", "HardFault! pc=0x%08lX lr=0x%08lX psr=0x%08lX",
 142              		.loc 1 121 5 is_stmt 1 view .LVU31
 143 002c 104C     		ldr	r4, .L6+4
 144              	.LVL14:
 145              		.loc 1 121 5 is_stmt 0 view .LVU32
 146 002e 0190     		str	r0, [sp, #4]
 147 0030 0091     		str	r1, [sp]
 148 0032 104A     		ldr	r2, .L6+8
 149 0034 2146     		mov	r1, r4
 150              	.LVL15:
 151              		.loc 1 121 5 view .LVU33
 152 0036 0120     		movs	r0, #1
ARM GAS  C:\Users\LENOVO\AppData\Local\Temp\cczkehOP.s 			page 6


 153              	.LVL16:
 154              		.loc 1 121 5 view .LVU34
 155 0038 FFF7FEFF 		bl	log_func
 156              	.LVL17:
 122:Core/Src/stm32h5xx_it.c ****         (unsigned long)stacked_pc, (unsigned long)stacked_lr, (unsigned long)stacked_psr);
 123:Core/Src/stm32h5xx_it.c ****     log_error("FAULT", "  r0=0x%08lX r1=0x%08lX r2=0x%08lX r3=0x%08lX r12=0x%08lX",
 157              		.loc 1 123 5 is_stmt 1 view .LVU35
 158 003c CDF80CB0 		str	fp, [sp, #12]
 159 0040 CDF808A0 		str	r10, [sp, #8]
 160 0044 CDF80490 		str	r9, [sp, #4]
 161 0048 CDF80080 		str	r8, [sp]
 162 004c 049B     		ldr	r3, [sp, #16]
 163 004e 0A4A     		ldr	r2, .L6+12
 164 0050 2146     		mov	r1, r4
 165 0052 0120     		movs	r0, #1
 166 0054 FFF7FEFF 		bl	log_func
 167              	.LVL18:
 124:Core/Src/stm32h5xx_it.c ****         (unsigned long)stacked_r0, (unsigned long)stacked_r1, (unsigned long)stacked_r2,
 125:Core/Src/stm32h5xx_it.c ****         (unsigned long)stacked_r3, (unsigned long)stacked_r12);
 126:Core/Src/stm32h5xx_it.c ****     log_error("FAULT", "  CFSR=0x%08lX HFSR=0x%08lX MMFAR=0x%08lX BFAR=0x%08lX",
 168              		.loc 1 126 5 view .LVU36
 169 0058 0296     		str	r6, [sp, #8]
 170 005a 0197     		str	r7, [sp, #4]
 171 005c 0095     		str	r5, [sp]
 172 005e 059B     		ldr	r3, [sp, #20]
 173 0060 064A     		ldr	r2, .L6+16
 174 0062 2146     		mov	r1, r4
 175 0064 0120     		movs	r0, #1
 176 0066 FFF7FEFF 		bl	log_func
 177              	.LVL19:
 178              	.L4:
 127:Core/Src/stm32h5xx_it.c ****         (unsigned long)cfsr, (unsigned long)hfsr, (unsigned long)mmfar, (unsigned long)bfar);
 128:Core/Src/stm32h5xx_it.c **** 
 129:Core/Src/stm32h5xx_it.c ****     while (1) { }
 179              		.loc 1 129 5 view .LVU37
 180              		.loc 1 129 17 view .LVU38
 181              		.loc 1 129 11 view .LVU39
 182 006a FEE7     		b	.L4
 183              	.L7:
 184              		.align	2
 185              	.L6:
 186 006c 00ED00E0 		.word	-536810240
 187 0070 30000000 		.word	.LC1
 188 0074 00000000 		.word	.LC0
 189 0078 38000000 		.word	.LC2
 190 007c 74000000 		.word	.LC3
 191              		.cfi_endproc
 192              	.LFE497:
 194              		.section	.text.HardFault_Handler,"ax",%progbits
 195              		.align	1
 196              		.global	HardFault_Handler
 197              		.syntax unified
 198              		.thumb
 199              		.thumb_func
 201              	HardFault_Handler:
 202              	.LFB498:
 130:Core/Src/stm32h5xx_it.c **** }
ARM GAS  C:\Users\LENOVO\AppData\Local\Temp\cczkehOP.s 			page 7


 131:Core/Src/stm32h5xx_it.c **** 
 132:Core/Src/stm32h5xx_it.c **** /**
 133:Core/Src/stm32h5xx_it.c ****   * @brief This function handles Hard fault interrupt.
 134:Core/Src/stm32h5xx_it.c ****   *
 135:Core/Src/stm32h5xx_it.c ****   * DEBUG: naked trampoline for the "app hangs after bootloader jump" investigation.
 136:Core/Src/stm32h5xx_it.c ****   * IMPORTANT: a naked function's body must contain ONLY an asm block -- no comments,
 137:Core/Src/stm32h5xx_it.c ****   * no USER CODE markers, no other C statements. GCC only warns (doesn't error) if this
 138:Core/Src/stm32h5xx_it.c ****   * rule is violated, and may silently inject its own prologue/epilogue in that case,
 139:Core/Src/stm32h5xx_it.c ****   * which would corrupt r0/lr before HardFault_LogAndHang ever runs. That would explain
 140:Core/Src/stm32h5xx_it.c ****   * a FAULT log never appearing even on a genuine fault, so keep this function's body
 141:Core/Src/stm32h5xx_it.c ****   * exactly as minimal as it is below if editing it again.
 142:Core/Src/stm32h5xx_it.c ****   *
 143:Core/Src/stm32h5xx_it.c ****   * On fault entry, LR holds EXC_RETURN, whose bit 2 tells us whether the CPU was using
 144:Core/Src/stm32h5xx_it.c ****   * MSP or PSP at the time of the fault. This project never uses PSP (no RTOS), so this
 145:Core/Src/stm32h5xx_it.c ****   * will always resolve to MSP, but the check is kept in case that ever changes.
 146:Core/Src/stm32h5xx_it.c ****   */
 147:Core/Src/stm32h5xx_it.c **** __attribute__((naked)) void HardFault_Handler(void)
 148:Core/Src/stm32h5xx_it.c **** {
 203              		.loc 1 148 1 view -0
 204              		.cfi_startproc
 205              		@ Naked Function: prologue and epilogue provided by programmer.
 206              		@ args = 0, pretend = 0, frame = 0
 207              		@ frame_needed = 0, uses_anonymous_args = 0
 149:Core/Src/stm32h5xx_it.c ****   __asm volatile (
 208              		.loc 1 149 3 view .LVU41
 209              		.syntax unified
 210              	@ 149 "Core/Src/stm32h5xx_it.c" 1
 211 0000 1EF0040F 		tst lr, #4              
 212 0004 0CBF     	ite eq                  
 213 0006 EFF30880 	mrseq r0, msp            
 214 000a EFF30980 	mrsne r0, psp            
 215 000e FFF7FEBF 	b HardFault_LogAndHang   
 216              	
 217              	@ 0 "" 2
 150:Core/Src/stm32h5xx_it.c ****       "tst lr, #4              \n"
 151:Core/Src/stm32h5xx_it.c ****       "ite eq                  \n"
 152:Core/Src/stm32h5xx_it.c ****       "mrseq r0, msp            \n"
 153:Core/Src/stm32h5xx_it.c ****       "mrsne r0, psp            \n"
 154:Core/Src/stm32h5xx_it.c ****       "b HardFault_LogAndHang   \n"
 155:Core/Src/stm32h5xx_it.c ****   );
 156:Core/Src/stm32h5xx_it.c **** }
 218              		.loc 1 156 1 is_stmt 0 view .LVU42
 219              		.thumb
 220              		.syntax unified
 221              		.cfi_endproc
 222              	.LFE498:
 224              		.section	.text.MemManage_Handler,"ax",%progbits
 225              		.align	1
 226              		.global	MemManage_Handler
 227              		.syntax unified
 228              		.thumb
 229              		.thumb_func
 231              	MemManage_Handler:
 232              	.LFB499:
 157:Core/Src/stm32h5xx_it.c **** 
 158:Core/Src/stm32h5xx_it.c **** /**
 159:Core/Src/stm32h5xx_it.c ****   * @brief This function handles Memory management fault.
ARM GAS  C:\Users\LENOVO\AppData\Local\Temp\cczkehOP.s 			page 8


 160:Core/Src/stm32h5xx_it.c ****   */
 161:Core/Src/stm32h5xx_it.c **** void MemManage_Handler(void)
 162:Core/Src/stm32h5xx_it.c **** {
 233              		.loc 1 162 1 is_stmt 1 view -0
 234              		.cfi_startproc
 235              		@ Volatile: function does not return.
 236              		@ args = 0, pretend = 0, frame = 0
 237              		@ frame_needed = 0, uses_anonymous_args = 0
 238              		@ link register save eliminated.
 239              	.L10:
 163:Core/Src/stm32h5xx_it.c ****   /* USER CODE BEGIN MemoryManagement_IRQn 0 */
 164:Core/Src/stm32h5xx_it.c **** 
 165:Core/Src/stm32h5xx_it.c ****   /* USER CODE END MemoryManagement_IRQn 0 */
 166:Core/Src/stm32h5xx_it.c ****   while (1)
 240              		.loc 1 166 3 view .LVU44
 167:Core/Src/stm32h5xx_it.c ****   {
 168:Core/Src/stm32h5xx_it.c ****     /* USER CODE BEGIN W1_MemoryManagement_IRQn 0 */
 169:Core/Src/stm32h5xx_it.c ****     /* USER CODE END W1_MemoryManagement_IRQn 0 */
 170:Core/Src/stm32h5xx_it.c ****   }
 241              		.loc 1 170 3 view .LVU45
 166:Core/Src/stm32h5xx_it.c ****   {
 242              		.loc 1 166 9 view .LVU46
 243 0000 FEE7     		b	.L10
 244              		.cfi_endproc
 245              	.LFE499:
 247              		.section	.text.BusFault_Handler,"ax",%progbits
 248              		.align	1
 249              		.global	BusFault_Handler
 250              		.syntax unified
 251              		.thumb
 252              		.thumb_func
 254              	BusFault_Handler:
 255              	.LFB500:
 171:Core/Src/stm32h5xx_it.c **** }
 172:Core/Src/stm32h5xx_it.c **** 
 173:Core/Src/stm32h5xx_it.c **** /**
 174:Core/Src/stm32h5xx_it.c ****   * @brief This function handles Pre-fetch fault, memory access fault.
 175:Core/Src/stm32h5xx_it.c ****   */
 176:Core/Src/stm32h5xx_it.c **** void BusFault_Handler(void)
 177:Core/Src/stm32h5xx_it.c **** {
 256              		.loc 1 177 1 view -0
 257              		.cfi_startproc
 258              		@ Volatile: function does not return.
 259              		@ args = 0, pretend = 0, frame = 0
 260              		@ frame_needed = 0, uses_anonymous_args = 0
 261              		@ link register save eliminated.
 262              	.L12:
 178:Core/Src/stm32h5xx_it.c ****   /* USER CODE BEGIN BusFault_IRQn 0 */
 179:Core/Src/stm32h5xx_it.c **** 
 180:Core/Src/stm32h5xx_it.c ****   /* USER CODE END BusFault_IRQn 0 */
 181:Core/Src/stm32h5xx_it.c ****   while (1)
 263              		.loc 1 181 3 view .LVU48
 182:Core/Src/stm32h5xx_it.c ****   {
 183:Core/Src/stm32h5xx_it.c ****     /* USER CODE BEGIN W1_BusFault_IRQn 0 */
 184:Core/Src/stm32h5xx_it.c ****     /* USER CODE END W1_BusFault_IRQn 0 */
 185:Core/Src/stm32h5xx_it.c ****   }
 264              		.loc 1 185 3 view .LVU49
ARM GAS  C:\Users\LENOVO\AppData\Local\Temp\cczkehOP.s 			page 9


 181:Core/Src/stm32h5xx_it.c ****   {
 265              		.loc 1 181 9 view .LVU50
 266 0000 FEE7     		b	.L12
 267              		.cfi_endproc
 268              	.LFE500:
 270              		.section	.text.UsageFault_Handler,"ax",%progbits
 271              		.align	1
 272              		.global	UsageFault_Handler
 273              		.syntax unified
 274              		.thumb
 275              		.thumb_func
 277              	UsageFault_Handler:
 278              	.LFB501:
 186:Core/Src/stm32h5xx_it.c **** }
 187:Core/Src/stm32h5xx_it.c **** 
 188:Core/Src/stm32h5xx_it.c **** /**
 189:Core/Src/stm32h5xx_it.c ****   * @brief This function handles Undefined instruction or illegal state.
 190:Core/Src/stm32h5xx_it.c ****   */
 191:Core/Src/stm32h5xx_it.c **** void UsageFault_Handler(void)
 192:Core/Src/stm32h5xx_it.c **** {
 279              		.loc 1 192 1 view -0
 280              		.cfi_startproc
 281              		@ Volatile: function does not return.
 282              		@ args = 0, pretend = 0, frame = 0
 283              		@ frame_needed = 0, uses_anonymous_args = 0
 284              		@ link register save eliminated.
 285              	.L14:
 193:Core/Src/stm32h5xx_it.c ****   /* USER CODE BEGIN UsageFault_IRQn 0 */
 194:Core/Src/stm32h5xx_it.c **** 
 195:Core/Src/stm32h5xx_it.c ****   /* USER CODE END UsageFault_IRQn 0 */
 196:Core/Src/stm32h5xx_it.c ****   while (1)
 286              		.loc 1 196 3 view .LVU52
 197:Core/Src/stm32h5xx_it.c ****   {
 198:Core/Src/stm32h5xx_it.c ****     /* USER CODE BEGIN W1_UsageFault_IRQn 0 */
 199:Core/Src/stm32h5xx_it.c ****     /* USER CODE END W1_UsageFault_IRQn 0 */
 200:Core/Src/stm32h5xx_it.c ****   }
 287              		.loc 1 200 3 view .LVU53
 196:Core/Src/stm32h5xx_it.c ****   {
 288              		.loc 1 196 9 view .LVU54
 289 0000 FEE7     		b	.L14
 290              		.cfi_endproc
 291              	.LFE501:
 293              		.section	.text.SVC_Handler,"ax",%progbits
 294              		.align	1
 295              		.global	SVC_Handler
 296              		.syntax unified
 297              		.thumb
 298              		.thumb_func
 300              	SVC_Handler:
 301              	.LFB502:
 201:Core/Src/stm32h5xx_it.c **** }
 202:Core/Src/stm32h5xx_it.c **** 
 203:Core/Src/stm32h5xx_it.c **** /**
 204:Core/Src/stm32h5xx_it.c ****   * @brief This function handles System service call via SWI instruction.
 205:Core/Src/stm32h5xx_it.c ****   */
 206:Core/Src/stm32h5xx_it.c **** void SVC_Handler(void)
 207:Core/Src/stm32h5xx_it.c **** {
ARM GAS  C:\Users\LENOVO\AppData\Local\Temp\cczkehOP.s 			page 10


 302              		.loc 1 207 1 view -0
 303              		.cfi_startproc
 304              		@ args = 0, pretend = 0, frame = 0
 305              		@ frame_needed = 0, uses_anonymous_args = 0
 306              		@ link register save eliminated.
 208:Core/Src/stm32h5xx_it.c ****   /* USER CODE BEGIN SVCall_IRQn 0 */
 209:Core/Src/stm32h5xx_it.c **** 
 210:Core/Src/stm32h5xx_it.c ****   /* USER CODE END SVCall_IRQn 0 */
 211:Core/Src/stm32h5xx_it.c ****   /* USER CODE BEGIN SVCall_IRQn 1 */
 212:Core/Src/stm32h5xx_it.c **** 
 213:Core/Src/stm32h5xx_it.c ****   /* USER CODE END SVCall_IRQn 1 */
 214:Core/Src/stm32h5xx_it.c **** }
 307              		.loc 1 214 1 view .LVU56
 308 0000 7047     		bx	lr
 309              		.cfi_endproc
 310              	.LFE502:
 312              		.section	.text.DebugMon_Handler,"ax",%progbits
 313              		.align	1
 314              		.global	DebugMon_Handler
 315              		.syntax unified
 316              		.thumb
 317              		.thumb_func
 319              	DebugMon_Handler:
 320              	.LFB503:
 215:Core/Src/stm32h5xx_it.c **** 
 216:Core/Src/stm32h5xx_it.c **** /**
 217:Core/Src/stm32h5xx_it.c ****   * @brief This function handles Debug monitor.
 218:Core/Src/stm32h5xx_it.c ****   */
 219:Core/Src/stm32h5xx_it.c **** void DebugMon_Handler(void)
 220:Core/Src/stm32h5xx_it.c **** {
 321              		.loc 1 220 1 view -0
 322              		.cfi_startproc
 323              		@ args = 0, pretend = 0, frame = 0
 324              		@ frame_needed = 0, uses_anonymous_args = 0
 325              		@ link register save eliminated.
 221:Core/Src/stm32h5xx_it.c ****   /* USER CODE BEGIN DebugMonitor_IRQn 0 */
 222:Core/Src/stm32h5xx_it.c **** 
 223:Core/Src/stm32h5xx_it.c ****   /* USER CODE END DebugMonitor_IRQn 0 */
 224:Core/Src/stm32h5xx_it.c ****   /* USER CODE BEGIN DebugMonitor_IRQn 1 */
 225:Core/Src/stm32h5xx_it.c **** 
 226:Core/Src/stm32h5xx_it.c ****   /* USER CODE END DebugMonitor_IRQn 1 */
 227:Core/Src/stm32h5xx_it.c **** }
 326              		.loc 1 227 1 view .LVU58
 327 0000 7047     		bx	lr
 328              		.cfi_endproc
 329              	.LFE503:
 331              		.section	.text.PendSV_Handler,"ax",%progbits
 332              		.align	1
 333              		.global	PendSV_Handler
 334              		.syntax unified
 335              		.thumb
 336              		.thumb_func
 338              	PendSV_Handler:
 339              	.LFB504:
 228:Core/Src/stm32h5xx_it.c **** 
 229:Core/Src/stm32h5xx_it.c **** /**
 230:Core/Src/stm32h5xx_it.c ****   * @brief This function handles Pendable request for system service.
ARM GAS  C:\Users\LENOVO\AppData\Local\Temp\cczkehOP.s 			page 11


 231:Core/Src/stm32h5xx_it.c ****   */
 232:Core/Src/stm32h5xx_it.c **** void PendSV_Handler(void)
 233:Core/Src/stm32h5xx_it.c **** {
 340              		.loc 1 233 1 view -0
 341              		.cfi_startproc
 342              		@ args = 0, pretend = 0, frame = 0
 343              		@ frame_needed = 0, uses_anonymous_args = 0
 344              		@ link register save eliminated.
 234:Core/Src/stm32h5xx_it.c ****   /* USER CODE BEGIN PendSV_IRQn 0 */
 235:Core/Src/stm32h5xx_it.c **** 
 236:Core/Src/stm32h5xx_it.c ****   /* USER CODE END PendSV_IRQn 0 */
 237:Core/Src/stm32h5xx_it.c ****   /* USER CODE BEGIN PendSV_IRQn 1 */
 238:Core/Src/stm32h5xx_it.c **** 
 239:Core/Src/stm32h5xx_it.c ****   /* USER CODE END PendSV_IRQn 1 */
 240:Core/Src/stm32h5xx_it.c **** }
 345              		.loc 1 240 1 view .LVU60
 346 0000 7047     		bx	lr
 347              		.cfi_endproc
 348              	.LFE504:
 350              		.section	.text.SysTick_Handler,"ax",%progbits
 351              		.align	1
 352              		.global	SysTick_Handler
 353              		.syntax unified
 354              		.thumb
 355              		.thumb_func
 357              	SysTick_Handler:
 358              	.LFB505:
 241:Core/Src/stm32h5xx_it.c **** 
 242:Core/Src/stm32h5xx_it.c **** /**
 243:Core/Src/stm32h5xx_it.c ****   * @brief This function handles System tick timer.
 244:Core/Src/stm32h5xx_it.c ****   */
 245:Core/Src/stm32h5xx_it.c **** void SysTick_Handler(void)
 246:Core/Src/stm32h5xx_it.c **** {
 359              		.loc 1 246 1 view -0
 360              		.cfi_startproc
 361              		@ args = 0, pretend = 0, frame = 0
 362              		@ frame_needed = 0, uses_anonymous_args = 0
 363 0000 08B5     		push	{r3, lr}
 364              	.LCFI2:
 365              		.cfi_def_cfa_offset 8
 366              		.cfi_offset 3, -8
 367              		.cfi_offset 14, -4
 247:Core/Src/stm32h5xx_it.c ****   /* USER CODE BEGIN SysTick_IRQn 0 */
 248:Core/Src/stm32h5xx_it.c **** 
 249:Core/Src/stm32h5xx_it.c ****   /* USER CODE END SysTick_IRQn 0 */
 250:Core/Src/stm32h5xx_it.c ****   HAL_IncTick();
 368              		.loc 1 250 3 view .LVU62
 369 0002 FFF7FEFF 		bl	HAL_IncTick
 370              	.LVL20:
 251:Core/Src/stm32h5xx_it.c ****   /* USER CODE BEGIN SysTick_IRQn 1 */
 252:Core/Src/stm32h5xx_it.c **** 
 253:Core/Src/stm32h5xx_it.c ****   /* USER CODE END SysTick_IRQn 1 */
 254:Core/Src/stm32h5xx_it.c **** }
 371              		.loc 1 254 1 is_stmt 0 view .LVU63
 372 0006 08BD     		pop	{r3, pc}
 373              		.cfi_endproc
 374              	.LFE505:
ARM GAS  C:\Users\LENOVO\AppData\Local\Temp\cczkehOP.s 			page 12


 376              		.section	.text.RTC_IRQHandler,"ax",%progbits
 377              		.align	1
 378              		.global	RTC_IRQHandler
 379              		.syntax unified
 380              		.thumb
 381              		.thumb_func
 383              	RTC_IRQHandler:
 384              	.LFB506:
 255:Core/Src/stm32h5xx_it.c **** 
 256:Core/Src/stm32h5xx_it.c **** /******************************************************************************/
 257:Core/Src/stm32h5xx_it.c **** /* STM32H5xx Peripheral Interrupt Handlers                                    */
 258:Core/Src/stm32h5xx_it.c **** /* Add here the Interrupt Handlers for the used peripherals.                  */
 259:Core/Src/stm32h5xx_it.c **** /* For the available peripheral interrupt handler names,                      */
 260:Core/Src/stm32h5xx_it.c **** /* please refer to the startup file (startup_stm32h5xx.s).                    */
 261:Core/Src/stm32h5xx_it.c **** /******************************************************************************/
 262:Core/Src/stm32h5xx_it.c **** 
 263:Core/Src/stm32h5xx_it.c **** /**
 264:Core/Src/stm32h5xx_it.c ****   * @brief This function handles RTC non-secure interrupt.
 265:Core/Src/stm32h5xx_it.c ****   */
 266:Core/Src/stm32h5xx_it.c **** void RTC_IRQHandler(void)
 267:Core/Src/stm32h5xx_it.c **** {
 385              		.loc 1 267 1 is_stmt 1 view -0
 386              		.cfi_startproc
 387              		@ args = 0, pretend = 0, frame = 0
 388              		@ frame_needed = 0, uses_anonymous_args = 0
 389 0000 08B5     		push	{r3, lr}
 390              	.LCFI3:
 391              		.cfi_def_cfa_offset 8
 392              		.cfi_offset 3, -8
 393              		.cfi_offset 14, -4
 268:Core/Src/stm32h5xx_it.c ****   /* USER CODE BEGIN RTC_IRQn 0 */
 269:Core/Src/stm32h5xx_it.c **** 
 270:Core/Src/stm32h5xx_it.c ****   /* USER CODE END RTC_IRQn 0 */
 271:Core/Src/stm32h5xx_it.c ****   HAL_RTCEx_WakeUpTimerIRQHandler(&hrtc);
 394              		.loc 1 271 3 view .LVU65
 395 0002 0248     		ldr	r0, .L22
 396 0004 FFF7FEFF 		bl	HAL_RTCEx_WakeUpTimerIRQHandler
 397              	.LVL21:
 272:Core/Src/stm32h5xx_it.c ****   /* USER CODE BEGIN RTC_IRQn 1 */
 273:Core/Src/stm32h5xx_it.c **** 
 274:Core/Src/stm32h5xx_it.c ****   /* USER CODE END RTC_IRQn 1 */
 275:Core/Src/stm32h5xx_it.c **** }
 398              		.loc 1 275 1 is_stmt 0 view .LVU66
 399 0008 08BD     		pop	{r3, pc}
 400              	.L23:
 401 000a 00BF     		.align	2
 402              	.L22:
 403 000c 00000000 		.word	hrtc
 404              		.cfi_endproc
 405              	.LFE506:
 407              		.section	.text.EXTI1_IRQHandler,"ax",%progbits
 408              		.align	1
 409              		.global	EXTI1_IRQHandler
 410              		.syntax unified
 411              		.thumb
 412              		.thumb_func
 414              	EXTI1_IRQHandler:
ARM GAS  C:\Users\LENOVO\AppData\Local\Temp\cczkehOP.s 			page 13


 415              	.LFB507:
 276:Core/Src/stm32h5xx_it.c **** 
 277:Core/Src/stm32h5xx_it.c **** /**
 278:Core/Src/stm32h5xx_it.c ****   * @brief This function handles EXTI Line1 interrupt.
 279:Core/Src/stm32h5xx_it.c ****   */
 280:Core/Src/stm32h5xx_it.c **** void EXTI1_IRQHandler(void)
 281:Core/Src/stm32h5xx_it.c **** {
 416              		.loc 1 281 1 is_stmt 1 view -0
 417              		.cfi_startproc
 418              		@ args = 0, pretend = 0, frame = 0
 419              		@ frame_needed = 0, uses_anonymous_args = 0
 420 0000 08B5     		push	{r3, lr}
 421              	.LCFI4:
 422              		.cfi_def_cfa_offset 8
 423              		.cfi_offset 3, -8
 424              		.cfi_offset 14, -4
 282:Core/Src/stm32h5xx_it.c ****   /* USER CODE BEGIN EXTI1_IRQn 0 */
 283:Core/Src/stm32h5xx_it.c **** 
 284:Core/Src/stm32h5xx_it.c ****   /* USER CODE END EXTI1_IRQn 0 */
 285:Core/Src/stm32h5xx_it.c ****   HAL_GPIO_EXTI_IRQHandler(GPIO_PIN_1);
 425              		.loc 1 285 3 view .LVU68
 426 0002 0220     		movs	r0, #2
 427 0004 FFF7FEFF 		bl	HAL_GPIO_EXTI_IRQHandler
 428              	.LVL22:
 286:Core/Src/stm32h5xx_it.c ****   /* USER CODE BEGIN EXTI1_IRQn 1 */
 287:Core/Src/stm32h5xx_it.c **** 
 288:Core/Src/stm32h5xx_it.c ****   /* USER CODE END EXTI1_IRQn 1 */
 289:Core/Src/stm32h5xx_it.c **** }
 429              		.loc 1 289 1 is_stmt 0 view .LVU69
 430 0008 08BD     		pop	{r3, pc}
 431              		.cfi_endproc
 432              	.LFE507:
 434              		.section	.text.TIM1_BRK_IRQHandler,"ax",%progbits
 435              		.align	1
 436              		.global	TIM1_BRK_IRQHandler
 437              		.syntax unified
 438              		.thumb
 439              		.thumb_func
 441              	TIM1_BRK_IRQHandler:
 442              	.LFB508:
 290:Core/Src/stm32h5xx_it.c **** 
 291:Core/Src/stm32h5xx_it.c **** /**
 292:Core/Src/stm32h5xx_it.c ****   * @brief This function handles TIM1 Break interrupt.
 293:Core/Src/stm32h5xx_it.c ****   */
 294:Core/Src/stm32h5xx_it.c **** void TIM1_BRK_IRQHandler(void)
 295:Core/Src/stm32h5xx_it.c **** {
 443              		.loc 1 295 1 is_stmt 1 view -0
 444              		.cfi_startproc
 445              		@ args = 0, pretend = 0, frame = 0
 446              		@ frame_needed = 0, uses_anonymous_args = 0
 447 0000 08B5     		push	{r3, lr}
 448              	.LCFI5:
 449              		.cfi_def_cfa_offset 8
 450              		.cfi_offset 3, -8
 451              		.cfi_offset 14, -4
 296:Core/Src/stm32h5xx_it.c ****   /* USER CODE BEGIN TIM1_BRK_IRQn 0 */
 297:Core/Src/stm32h5xx_it.c **** 
ARM GAS  C:\Users\LENOVO\AppData\Local\Temp\cczkehOP.s 			page 14


 298:Core/Src/stm32h5xx_it.c ****   /* USER CODE END TIM1_BRK_IRQn 0 */
 299:Core/Src/stm32h5xx_it.c ****   HAL_TIM_IRQHandler(&htim1);
 452              		.loc 1 299 3 view .LVU71
 453 0002 0248     		ldr	r0, .L28
 454 0004 FFF7FEFF 		bl	HAL_TIM_IRQHandler
 455              	.LVL23:
 300:Core/Src/stm32h5xx_it.c ****   /* USER CODE BEGIN TIM1_BRK_IRQn 1 */
 301:Core/Src/stm32h5xx_it.c **** 
 302:Core/Src/stm32h5xx_it.c ****   /* USER CODE END TIM1_BRK_IRQn 1 */
 303:Core/Src/stm32h5xx_it.c **** }
 456              		.loc 1 303 1 is_stmt 0 view .LVU72
 457 0008 08BD     		pop	{r3, pc}
 458              	.L29:
 459 000a 00BF     		.align	2
 460              	.L28:
 461 000c 00000000 		.word	htim1
 462              		.cfi_endproc
 463              	.LFE508:
 465              		.section	.text.TIM1_UP_IRQHandler,"ax",%progbits
 466              		.align	1
 467              		.global	TIM1_UP_IRQHandler
 468              		.syntax unified
 469              		.thumb
 470              		.thumb_func
 472              	TIM1_UP_IRQHandler:
 473              	.LFB509:
 304:Core/Src/stm32h5xx_it.c **** 
 305:Core/Src/stm32h5xx_it.c **** /**
 306:Core/Src/stm32h5xx_it.c ****   * @brief This function handles TIM1 Update interrupt.
 307:Core/Src/stm32h5xx_it.c ****   */
 308:Core/Src/stm32h5xx_it.c **** void TIM1_UP_IRQHandler(void)
 309:Core/Src/stm32h5xx_it.c **** {
 474              		.loc 1 309 1 is_stmt 1 view -0
 475              		.cfi_startproc
 476              		@ args = 0, pretend = 0, frame = 0
 477              		@ frame_needed = 0, uses_anonymous_args = 0
 478 0000 08B5     		push	{r3, lr}
 479              	.LCFI6:
 480              		.cfi_def_cfa_offset 8
 481              		.cfi_offset 3, -8
 482              		.cfi_offset 14, -4
 310:Core/Src/stm32h5xx_it.c ****   /* USER CODE BEGIN TIM1_UP_IRQn 0 */
 311:Core/Src/stm32h5xx_it.c **** 
 312:Core/Src/stm32h5xx_it.c ****   /* USER CODE END TIM1_UP_IRQn 0 */
 313:Core/Src/stm32h5xx_it.c ****   HAL_TIM_IRQHandler(&htim1);
 483              		.loc 1 313 3 view .LVU74
 484 0002 0248     		ldr	r0, .L32
 485 0004 FFF7FEFF 		bl	HAL_TIM_IRQHandler
 486              	.LVL24:
 314:Core/Src/stm32h5xx_it.c ****   /* USER CODE BEGIN TIM1_UP_IRQn 1 */
 315:Core/Src/stm32h5xx_it.c **** 
 316:Core/Src/stm32h5xx_it.c ****   /* USER CODE END TIM1_UP_IRQn 1 */
 317:Core/Src/stm32h5xx_it.c **** }
 487              		.loc 1 317 1 is_stmt 0 view .LVU75
 488 0008 08BD     		pop	{r3, pc}
 489              	.L33:
 490 000a 00BF     		.align	2
ARM GAS  C:\Users\LENOVO\AppData\Local\Temp\cczkehOP.s 			page 15


 491              	.L32:
 492 000c 00000000 		.word	htim1
 493              		.cfi_endproc
 494              	.LFE509:
 496              		.section	.text.TIM1_TRG_COM_IRQHandler,"ax",%progbits
 497              		.align	1
 498              		.global	TIM1_TRG_COM_IRQHandler
 499              		.syntax unified
 500              		.thumb
 501              		.thumb_func
 503              	TIM1_TRG_COM_IRQHandler:
 504              	.LFB510:
 318:Core/Src/stm32h5xx_it.c **** 
 319:Core/Src/stm32h5xx_it.c **** /**
 320:Core/Src/stm32h5xx_it.c ****   * @brief This function handles TIM1 Trigger and Commutation interrupts.
 321:Core/Src/stm32h5xx_it.c ****   */
 322:Core/Src/stm32h5xx_it.c **** void TIM1_TRG_COM_IRQHandler(void)
 323:Core/Src/stm32h5xx_it.c **** {
 505              		.loc 1 323 1 is_stmt 1 view -0
 506              		.cfi_startproc
 507              		@ args = 0, pretend = 0, frame = 0
 508              		@ frame_needed = 0, uses_anonymous_args = 0
 509 0000 08B5     		push	{r3, lr}
 510              	.LCFI7:
 511              		.cfi_def_cfa_offset 8
 512              		.cfi_offset 3, -8
 513              		.cfi_offset 14, -4
 324:Core/Src/stm32h5xx_it.c ****   /* USER CODE BEGIN TIM1_TRG_COM_IRQn 0 */
 325:Core/Src/stm32h5xx_it.c **** 
 326:Core/Src/stm32h5xx_it.c ****   /* USER CODE END TIM1_TRG_COM_IRQn 0 */
 327:Core/Src/stm32h5xx_it.c ****   HAL_TIM_IRQHandler(&htim1);
 514              		.loc 1 327 3 view .LVU77
 515 0002 0248     		ldr	r0, .L36
 516 0004 FFF7FEFF 		bl	HAL_TIM_IRQHandler
 517              	.LVL25:
 328:Core/Src/stm32h5xx_it.c ****   /* USER CODE BEGIN TIM1_TRG_COM_IRQn 1 */
 329:Core/Src/stm32h5xx_it.c **** 
 330:Core/Src/stm32h5xx_it.c ****   /* USER CODE END TIM1_TRG_COM_IRQn 1 */
 331:Core/Src/stm32h5xx_it.c **** }
 518              		.loc 1 331 1 is_stmt 0 view .LVU78
 519 0008 08BD     		pop	{r3, pc}
 520              	.L37:
 521 000a 00BF     		.align	2
 522              	.L36:
 523 000c 00000000 		.word	htim1
 524              		.cfi_endproc
 525              	.LFE510:
 527              		.section	.text.TIM1_CC_IRQHandler,"ax",%progbits
 528              		.align	1
 529              		.global	TIM1_CC_IRQHandler
 530              		.syntax unified
 531              		.thumb
 532              		.thumb_func
 534              	TIM1_CC_IRQHandler:
 535              	.LFB511:
 332:Core/Src/stm32h5xx_it.c **** 
 333:Core/Src/stm32h5xx_it.c **** /**
ARM GAS  C:\Users\LENOVO\AppData\Local\Temp\cczkehOP.s 			page 16


 334:Core/Src/stm32h5xx_it.c ****   * @brief This function handles TIM1 Capture Compare interrupt.
 335:Core/Src/stm32h5xx_it.c ****   */
 336:Core/Src/stm32h5xx_it.c **** void TIM1_CC_IRQHandler(void)
 337:Core/Src/stm32h5xx_it.c **** {
 536              		.loc 1 337 1 is_stmt 1 view -0
 537              		.cfi_startproc
 538              		@ args = 0, pretend = 0, frame = 0
 539              		@ frame_needed = 0, uses_anonymous_args = 0
 540 0000 08B5     		push	{r3, lr}
 541              	.LCFI8:
 542              		.cfi_def_cfa_offset 8
 543              		.cfi_offset 3, -8
 544              		.cfi_offset 14, -4
 338:Core/Src/stm32h5xx_it.c ****   /* USER CODE BEGIN TIM1_CC_IRQn 0 */
 339:Core/Src/stm32h5xx_it.c **** 
 340:Core/Src/stm32h5xx_it.c ****   /* USER CODE END TIM1_CC_IRQn 0 */
 341:Core/Src/stm32h5xx_it.c ****   HAL_TIM_IRQHandler(&htim1);
 545              		.loc 1 341 3 view .LVU80
 546 0002 0248     		ldr	r0, .L40
 547 0004 FFF7FEFF 		bl	HAL_TIM_IRQHandler
 548              	.LVL26:
 342:Core/Src/stm32h5xx_it.c ****   /* USER CODE BEGIN TIM1_CC_IRQn 1 */
 343:Core/Src/stm32h5xx_it.c **** 
 344:Core/Src/stm32h5xx_it.c ****   /* USER CODE END TIM1_CC_IRQn 1 */
 345:Core/Src/stm32h5xx_it.c **** }
 549              		.loc 1 345 1 is_stmt 0 view .LVU81
 550 0008 08BD     		pop	{r3, pc}
 551              	.L41:
 552 000a 00BF     		.align	2
 553              	.L40:
 554 000c 00000000 		.word	htim1
 555              		.cfi_endproc
 556              	.LFE511:
 558              		.section	.text.TIM2_IRQHandler,"ax",%progbits
 559              		.align	1
 560              		.global	TIM2_IRQHandler
 561              		.syntax unified
 562              		.thumb
 563              		.thumb_func
 565              	TIM2_IRQHandler:
 566              	.LFB512:
 346:Core/Src/stm32h5xx_it.c **** 
 347:Core/Src/stm32h5xx_it.c **** /**
 348:Core/Src/stm32h5xx_it.c ****   * @brief This function handles TIM2 global interrupt.
 349:Core/Src/stm32h5xx_it.c ****   */
 350:Core/Src/stm32h5xx_it.c **** void TIM2_IRQHandler(void)
 351:Core/Src/stm32h5xx_it.c **** {
 567              		.loc 1 351 1 is_stmt 1 view -0
 568              		.cfi_startproc
 569              		@ args = 0, pretend = 0, frame = 0
 570              		@ frame_needed = 0, uses_anonymous_args = 0
 571 0000 08B5     		push	{r3, lr}
 572              	.LCFI9:
 573              		.cfi_def_cfa_offset 8
 574              		.cfi_offset 3, -8
 575              		.cfi_offset 14, -4
 352:Core/Src/stm32h5xx_it.c ****   /* USER CODE BEGIN TIM2_IRQn 0 */
ARM GAS  C:\Users\LENOVO\AppData\Local\Temp\cczkehOP.s 			page 17


 353:Core/Src/stm32h5xx_it.c **** 
 354:Core/Src/stm32h5xx_it.c ****   /* USER CODE END TIM2_IRQn 0 */
 355:Core/Src/stm32h5xx_it.c ****   HAL_TIM_IRQHandler(&htim2);
 576              		.loc 1 355 3 view .LVU83
 577 0002 0248     		ldr	r0, .L44
 578 0004 FFF7FEFF 		bl	HAL_TIM_IRQHandler
 579              	.LVL27:
 356:Core/Src/stm32h5xx_it.c ****   /* USER CODE BEGIN TIM2_IRQn 1 */
 357:Core/Src/stm32h5xx_it.c **** 
 358:Core/Src/stm32h5xx_it.c ****   /* USER CODE END TIM2_IRQn 1 */
 359:Core/Src/stm32h5xx_it.c **** }
 580              		.loc 1 359 1 is_stmt 0 view .LVU84
 581 0008 08BD     		pop	{r3, pc}
 582              	.L45:
 583 000a 00BF     		.align	2
 584              	.L44:
 585 000c 00000000 		.word	htim2
 586              		.cfi_endproc
 587              	.LFE512:
 589              		.section	.text.TIM3_IRQHandler,"ax",%progbits
 590              		.align	1
 591              		.global	TIM3_IRQHandler
 592              		.syntax unified
 593              		.thumb
 594              		.thumb_func
 596              	TIM3_IRQHandler:
 597              	.LFB513:
 360:Core/Src/stm32h5xx_it.c **** 
 361:Core/Src/stm32h5xx_it.c **** /**
 362:Core/Src/stm32h5xx_it.c ****   * @brief This function handles TIM3 global interrupt.
 363:Core/Src/stm32h5xx_it.c ****   */
 364:Core/Src/stm32h5xx_it.c **** void TIM3_IRQHandler(void)
 365:Core/Src/stm32h5xx_it.c **** {
 598              		.loc 1 365 1 is_stmt 1 view -0
 599              		.cfi_startproc
 600              		@ args = 0, pretend = 0, frame = 0
 601              		@ frame_needed = 0, uses_anonymous_args = 0
 602 0000 08B5     		push	{r3, lr}
 603              	.LCFI10:
 604              		.cfi_def_cfa_offset 8
 605              		.cfi_offset 3, -8
 606              		.cfi_offset 14, -4
 366:Core/Src/stm32h5xx_it.c ****   /* USER CODE BEGIN TIM3_IRQn 0 */
 367:Core/Src/stm32h5xx_it.c **** 
 368:Core/Src/stm32h5xx_it.c ****   /* USER CODE END TIM3_IRQn 0 */
 369:Core/Src/stm32h5xx_it.c ****   HAL_TIM_IRQHandler(&htim3);
 607              		.loc 1 369 3 view .LVU86
 608 0002 0248     		ldr	r0, .L48
 609 0004 FFF7FEFF 		bl	HAL_TIM_IRQHandler
 610              	.LVL28:
 370:Core/Src/stm32h5xx_it.c ****   /* USER CODE BEGIN TIM3_IRQn 1 */
 371:Core/Src/stm32h5xx_it.c **** 
 372:Core/Src/stm32h5xx_it.c ****   /* USER CODE END TIM3_IRQn 1 */
 373:Core/Src/stm32h5xx_it.c **** }
 611              		.loc 1 373 1 is_stmt 0 view .LVU87
 612 0008 08BD     		pop	{r3, pc}
 613              	.L49:
ARM GAS  C:\Users\LENOVO\AppData\Local\Temp\cczkehOP.s 			page 18


 614 000a 00BF     		.align	2
 615              	.L48:
 616 000c 00000000 		.word	htim3
 617              		.cfi_endproc
 618              	.LFE513:
 620              		.section	.text.I2C1_EV_IRQHandler,"ax",%progbits
 621              		.align	1
 622              		.global	I2C1_EV_IRQHandler
 623              		.syntax unified
 624              		.thumb
 625              		.thumb_func
 627              	I2C1_EV_IRQHandler:
 628              	.LFB514:
 374:Core/Src/stm32h5xx_it.c **** 
 375:Core/Src/stm32h5xx_it.c **** /**
 376:Core/Src/stm32h5xx_it.c ****   * @brief This function handles I2C1 Event interrupt.
 377:Core/Src/stm32h5xx_it.c ****   */
 378:Core/Src/stm32h5xx_it.c **** void I2C1_EV_IRQHandler(void)
 379:Core/Src/stm32h5xx_it.c **** {
 629              		.loc 1 379 1 is_stmt 1 view -0
 630              		.cfi_startproc
 631              		@ args = 0, pretend = 0, frame = 0
 632              		@ frame_needed = 0, uses_anonymous_args = 0
 633 0000 08B5     		push	{r3, lr}
 634              	.LCFI11:
 635              		.cfi_def_cfa_offset 8
 636              		.cfi_offset 3, -8
 637              		.cfi_offset 14, -4
 380:Core/Src/stm32h5xx_it.c ****   /* USER CODE BEGIN I2C1_EV_IRQn 0 */
 381:Core/Src/stm32h5xx_it.c **** 
 382:Core/Src/stm32h5xx_it.c ****   /* USER CODE END I2C1_EV_IRQn 0 */
 383:Core/Src/stm32h5xx_it.c ****   HAL_I2C_EV_IRQHandler(&hi2c1);
 638              		.loc 1 383 3 view .LVU89
 639 0002 0248     		ldr	r0, .L52
 640 0004 FFF7FEFF 		bl	HAL_I2C_EV_IRQHandler
 641              	.LVL29:
 384:Core/Src/stm32h5xx_it.c ****   /* USER CODE BEGIN I2C1_EV_IRQn 1 */
 385:Core/Src/stm32h5xx_it.c **** 
 386:Core/Src/stm32h5xx_it.c ****   /* USER CODE END I2C1_EV_IRQn 1 */
 387:Core/Src/stm32h5xx_it.c **** }
 642              		.loc 1 387 1 is_stmt 0 view .LVU90
 643 0008 08BD     		pop	{r3, pc}
 644              	.L53:
 645 000a 00BF     		.align	2
 646              	.L52:
 647 000c 00000000 		.word	hi2c1
 648              		.cfi_endproc
 649              	.LFE514:
 651              		.section	.text.I2C1_ER_IRQHandler,"ax",%progbits
 652              		.align	1
 653              		.global	I2C1_ER_IRQHandler
 654              		.syntax unified
 655              		.thumb
 656              		.thumb_func
 658              	I2C1_ER_IRQHandler:
 659              	.LFB515:
 388:Core/Src/stm32h5xx_it.c **** 
ARM GAS  C:\Users\LENOVO\AppData\Local\Temp\cczkehOP.s 			page 19


 389:Core/Src/stm32h5xx_it.c **** /**
 390:Core/Src/stm32h5xx_it.c ****   * @brief This function handles I2C1 Error interrupt.
 391:Core/Src/stm32h5xx_it.c ****   */
 392:Core/Src/stm32h5xx_it.c **** void I2C1_ER_IRQHandler(void)
 393:Core/Src/stm32h5xx_it.c **** {
 660              		.loc 1 393 1 is_stmt 1 view -0
 661              		.cfi_startproc
 662              		@ args = 0, pretend = 0, frame = 0
 663              		@ frame_needed = 0, uses_anonymous_args = 0
 664 0000 08B5     		push	{r3, lr}
 665              	.LCFI12:
 666              		.cfi_def_cfa_offset 8
 667              		.cfi_offset 3, -8
 668              		.cfi_offset 14, -4
 394:Core/Src/stm32h5xx_it.c ****   /* USER CODE BEGIN I2C1_ER_IRQn 0 */
 395:Core/Src/stm32h5xx_it.c **** 
 396:Core/Src/stm32h5xx_it.c ****   /* USER CODE END I2C1_ER_IRQn 0 */
 397:Core/Src/stm32h5xx_it.c ****   HAL_I2C_ER_IRQHandler(&hi2c1);
 669              		.loc 1 397 3 view .LVU92
 670 0002 0248     		ldr	r0, .L56
 671 0004 FFF7FEFF 		bl	HAL_I2C_ER_IRQHandler
 672              	.LVL30:
 398:Core/Src/stm32h5xx_it.c ****   /* USER CODE BEGIN I2C1_ER_IRQn 1 */
 399:Core/Src/stm32h5xx_it.c **** 
 400:Core/Src/stm32h5xx_it.c ****   /* USER CODE END I2C1_ER_IRQn 1 */
 401:Core/Src/stm32h5xx_it.c **** }
 673              		.loc 1 401 1 is_stmt 0 view .LVU93
 674 0008 08BD     		pop	{r3, pc}
 675              	.L57:
 676 000a 00BF     		.align	2
 677              	.L56:
 678 000c 00000000 		.word	hi2c1
 679              		.cfi_endproc
 680              	.LFE515:
 682              		.section	.text.SPI1_IRQHandler,"ax",%progbits
 683              		.align	1
 684              		.global	SPI1_IRQHandler
 685              		.syntax unified
 686              		.thumb
 687              		.thumb_func
 689              	SPI1_IRQHandler:
 690              	.LFB516:
 402:Core/Src/stm32h5xx_it.c **** 
 403:Core/Src/stm32h5xx_it.c **** /**
 404:Core/Src/stm32h5xx_it.c ****   * @brief This function handles SPI1 global interrupt.
 405:Core/Src/stm32h5xx_it.c ****   */
 406:Core/Src/stm32h5xx_it.c **** void SPI1_IRQHandler(void)
 407:Core/Src/stm32h5xx_it.c **** {
 691              		.loc 1 407 1 is_stmt 1 view -0
 692              		.cfi_startproc
 693              		@ args = 0, pretend = 0, frame = 0
 694              		@ frame_needed = 0, uses_anonymous_args = 0
 695 0000 08B5     		push	{r3, lr}
 696              	.LCFI13:
 697              		.cfi_def_cfa_offset 8
 698              		.cfi_offset 3, -8
 699              		.cfi_offset 14, -4
ARM GAS  C:\Users\LENOVO\AppData\Local\Temp\cczkehOP.s 			page 20


 408:Core/Src/stm32h5xx_it.c ****   /* USER CODE BEGIN SPI1_IRQn 0 */
 409:Core/Src/stm32h5xx_it.c **** 
 410:Core/Src/stm32h5xx_it.c ****   /* USER CODE END SPI1_IRQn 0 */
 411:Core/Src/stm32h5xx_it.c ****   HAL_SPI_IRQHandler(&hspi1);
 700              		.loc 1 411 3 view .LVU95
 701 0002 0248     		ldr	r0, .L60
 702 0004 FFF7FEFF 		bl	HAL_SPI_IRQHandler
 703              	.LVL31:
 412:Core/Src/stm32h5xx_it.c ****   /* USER CODE BEGIN SPI1_IRQn 1 */
 413:Core/Src/stm32h5xx_it.c **** 
 414:Core/Src/stm32h5xx_it.c ****   /* USER CODE END SPI1_IRQn 1 */
 415:Core/Src/stm32h5xx_it.c **** }
 704              		.loc 1 415 1 is_stmt 0 view .LVU96
 705 0008 08BD     		pop	{r3, pc}
 706              	.L61:
 707 000a 00BF     		.align	2
 708              	.L60:
 709 000c 00000000 		.word	hspi1
 710              		.cfi_endproc
 711              	.LFE516:
 713              		.section	.text.USART1_IRQHandler,"ax",%progbits
 714              		.align	1
 715              		.global	USART1_IRQHandler
 716              		.syntax unified
 717              		.thumb
 718              		.thumb_func
 720              	USART1_IRQHandler:
 721              	.LFB517:
 416:Core/Src/stm32h5xx_it.c **** 
 417:Core/Src/stm32h5xx_it.c **** /**
 418:Core/Src/stm32h5xx_it.c ****   * @brief This function handles USART1 global interrupt.
 419:Core/Src/stm32h5xx_it.c ****   */
 420:Core/Src/stm32h5xx_it.c **** void USART1_IRQHandler(void)
 421:Core/Src/stm32h5xx_it.c **** {
 722              		.loc 1 421 1 is_stmt 1 view -0
 723              		.cfi_startproc
 724              		@ args = 0, pretend = 0, frame = 0
 725              		@ frame_needed = 0, uses_anonymous_args = 0
 726 0000 08B5     		push	{r3, lr}
 727              	.LCFI14:
 728              		.cfi_def_cfa_offset 8
 729              		.cfi_offset 3, -8
 730              		.cfi_offset 14, -4
 422:Core/Src/stm32h5xx_it.c ****   /* USER CODE BEGIN USART1_IRQn 0 */
 423:Core/Src/stm32h5xx_it.c **** 
 424:Core/Src/stm32h5xx_it.c ****   /* USER CODE END USART1_IRQn 0 */
 425:Core/Src/stm32h5xx_it.c ****   HAL_UART_IRQHandler(&huart1);
 731              		.loc 1 425 3 view .LVU98
 732 0002 0248     		ldr	r0, .L64
 733 0004 FFF7FEFF 		bl	HAL_UART_IRQHandler
 734              	.LVL32:
 426:Core/Src/stm32h5xx_it.c ****   /* USER CODE BEGIN USART1_IRQn 1 */
 427:Core/Src/stm32h5xx_it.c **** 
 428:Core/Src/stm32h5xx_it.c ****   /* USER CODE END USART1_IRQn 1 */
 429:Core/Src/stm32h5xx_it.c **** }
 735              		.loc 1 429 1 is_stmt 0 view .LVU99
 736 0008 08BD     		pop	{r3, pc}
ARM GAS  C:\Users\LENOVO\AppData\Local\Temp\cczkehOP.s 			page 21


 737              	.L65:
 738 000a 00BF     		.align	2
 739              	.L64:
 740 000c 00000000 		.word	huart1
 741              		.cfi_endproc
 742              	.LFE517:
 744              		.section	.text.USART2_IRQHandler,"ax",%progbits
 745              		.align	1
 746              		.global	USART2_IRQHandler
 747              		.syntax unified
 748              		.thumb
 749              		.thumb_func
 751              	USART2_IRQHandler:
 752              	.LFB518:
 430:Core/Src/stm32h5xx_it.c **** 
 431:Core/Src/stm32h5xx_it.c **** /**
 432:Core/Src/stm32h5xx_it.c ****   * @brief This function handles USART2 global interrupt.
 433:Core/Src/stm32h5xx_it.c ****   */
 434:Core/Src/stm32h5xx_it.c **** void USART2_IRQHandler(void)
 435:Core/Src/stm32h5xx_it.c **** {
 753              		.loc 1 435 1 is_stmt 1 view -0
 754              		.cfi_startproc
 755              		@ args = 0, pretend = 0, frame = 0
 756              		@ frame_needed = 0, uses_anonymous_args = 0
 757 0000 08B5     		push	{r3, lr}
 758              	.LCFI15:
 759              		.cfi_def_cfa_offset 8
 760              		.cfi_offset 3, -8
 761              		.cfi_offset 14, -4
 436:Core/Src/stm32h5xx_it.c ****   /* USER CODE BEGIN USART2_IRQn 0 */
 437:Core/Src/stm32h5xx_it.c **** 
 438:Core/Src/stm32h5xx_it.c ****   /* USER CODE END USART2_IRQn 0 */
 439:Core/Src/stm32h5xx_it.c ****   HAL_UART_IRQHandler(&huart2);
 762              		.loc 1 439 3 view .LVU101
 763 0002 0248     		ldr	r0, .L68
 764 0004 FFF7FEFF 		bl	HAL_UART_IRQHandler
 765              	.LVL33:
 440:Core/Src/stm32h5xx_it.c ****   /* USER CODE BEGIN USART2_IRQn 1 */
 441:Core/Src/stm32h5xx_it.c **** 
 442:Core/Src/stm32h5xx_it.c ****   /* USER CODE END USART2_IRQn 1 */
 443:Core/Src/stm32h5xx_it.c **** }
 766              		.loc 1 443 1 is_stmt 0 view .LVU102
 767 0008 08BD     		pop	{r3, pc}
 768              	.L69:
 769 000a 00BF     		.align	2
 770              	.L68:
 771 000c 00000000 		.word	huart2
 772              		.cfi_endproc
 773              	.LFE518:
 775              		.section	.text.USART3_IRQHandler,"ax",%progbits
 776              		.align	1
 777              		.global	USART3_IRQHandler
 778              		.syntax unified
 779              		.thumb
 780              		.thumb_func
 782              	USART3_IRQHandler:
 783              	.LFB519:
ARM GAS  C:\Users\LENOVO\AppData\Local\Temp\cczkehOP.s 			page 22


 444:Core/Src/stm32h5xx_it.c **** 
 445:Core/Src/stm32h5xx_it.c **** /**
 446:Core/Src/stm32h5xx_it.c ****   * @brief This function handles USART3 global interrupt.
 447:Core/Src/stm32h5xx_it.c ****   */
 448:Core/Src/stm32h5xx_it.c **** void USART3_IRQHandler(void)
 449:Core/Src/stm32h5xx_it.c **** {
 784              		.loc 1 449 1 is_stmt 1 view -0
 785              		.cfi_startproc
 786              		@ args = 0, pretend = 0, frame = 0
 787              		@ frame_needed = 0, uses_anonymous_args = 0
 788 0000 08B5     		push	{r3, lr}
 789              	.LCFI16:
 790              		.cfi_def_cfa_offset 8
 791              		.cfi_offset 3, -8
 792              		.cfi_offset 14, -4
 450:Core/Src/stm32h5xx_it.c ****   /* USER CODE BEGIN USART3_IRQn 0 */
 451:Core/Src/stm32h5xx_it.c **** 
 452:Core/Src/stm32h5xx_it.c ****   /* USER CODE END USART3_IRQn 0 */
 453:Core/Src/stm32h5xx_it.c ****   HAL_UART_IRQHandler(&huart3);
 793              		.loc 1 453 3 view .LVU104
 794 0002 0248     		ldr	r0, .L72
 795 0004 FFF7FEFF 		bl	HAL_UART_IRQHandler
 796              	.LVL34:
 454:Core/Src/stm32h5xx_it.c ****   /* USER CODE BEGIN USART3_IRQn 1 */
 455:Core/Src/stm32h5xx_it.c **** 
 456:Core/Src/stm32h5xx_it.c ****   /* USER CODE END USART3_IRQn 1 */
 457:Core/Src/stm32h5xx_it.c **** }
 797              		.loc 1 457 1 is_stmt 0 view .LVU105
 798 0008 08BD     		pop	{r3, pc}
 799              	.L73:
 800 000a 00BF     		.align	2
 801              	.L72:
 802 000c 00000000 		.word	huart3
 803              		.cfi_endproc
 804              	.LFE519:
 806              		.section	.text.LPTIM1_IRQHandler,"ax",%progbits
 807              		.align	1
 808              		.global	LPTIM1_IRQHandler
 809              		.syntax unified
 810              		.thumb
 811              		.thumb_func
 813              	LPTIM1_IRQHandler:
 814              	.LFB520:
 458:Core/Src/stm32h5xx_it.c **** 
 459:Core/Src/stm32h5xx_it.c **** /**
 460:Core/Src/stm32h5xx_it.c ****   * @brief This function handles LPTIM1 global interrupt.
 461:Core/Src/stm32h5xx_it.c ****   */
 462:Core/Src/stm32h5xx_it.c **** void LPTIM1_IRQHandler(void)
 463:Core/Src/stm32h5xx_it.c **** {
 815              		.loc 1 463 1 is_stmt 1 view -0
 816              		.cfi_startproc
 817              		@ args = 0, pretend = 0, frame = 0
 818              		@ frame_needed = 0, uses_anonymous_args = 0
 819 0000 08B5     		push	{r3, lr}
 820              	.LCFI17:
 821              		.cfi_def_cfa_offset 8
 822              		.cfi_offset 3, -8
ARM GAS  C:\Users\LENOVO\AppData\Local\Temp\cczkehOP.s 			page 23


 823              		.cfi_offset 14, -4
 464:Core/Src/stm32h5xx_it.c ****   /* USER CODE BEGIN LPTIM1_IRQn 0 */
 465:Core/Src/stm32h5xx_it.c **** 
 466:Core/Src/stm32h5xx_it.c ****   /* USER CODE END LPTIM1_IRQn 0 */
 467:Core/Src/stm32h5xx_it.c ****   HAL_LPTIM_IRQHandler(&hlptim1);
 824              		.loc 1 467 3 view .LVU107
 825 0002 0248     		ldr	r0, .L76
 826 0004 FFF7FEFF 		bl	HAL_LPTIM_IRQHandler
 827              	.LVL35:
 468:Core/Src/stm32h5xx_it.c ****   /* USER CODE BEGIN LPTIM1_IRQn 1 */
 469:Core/Src/stm32h5xx_it.c **** 
 470:Core/Src/stm32h5xx_it.c ****   /* USER CODE END LPTIM1_IRQn 1 */
 471:Core/Src/stm32h5xx_it.c **** }
 828              		.loc 1 471 1 is_stmt 0 view .LVU108
 829 0008 08BD     		pop	{r3, pc}
 830              	.L77:
 831 000a 00BF     		.align	2
 832              	.L76:
 833 000c 00000000 		.word	hlptim1
 834              		.cfi_endproc
 835              	.LFE520:
 837              		.text
 838              	.Letext0:
 839              		.file 2 "C:\\ST\\STM32CubeCLT_1.20.0\\GNU-tools-for-STM32\\bin/../lib/gcc/arm-none-eabi/13.3.1/../
 840              		.file 3 "C:\\ST\\STM32CubeCLT_1.20.0\\GNU-tools-for-STM32\\bin/../lib/gcc/arm-none-eabi/13.3.1/../
 841              		.file 4 "Drivers/CMSIS/Include/core_cm33.h"
 842              		.file 5 "Drivers/CMSIS/Device/ST/STM32H5xx/Include/stm32h563xx.h"
 843              		.file 6 "Drivers/STM32H5xx_HAL_Driver/Inc/stm32h5xx_hal_def.h"
 844              		.file 7 "Drivers/STM32H5xx_HAL_Driver/Inc/stm32h5xx_hal_dma.h"
 845              		.file 8 "Drivers/STM32H5xx_HAL_Driver/Inc/stm32h5xx_hal_dma_ex.h"
 846              		.file 9 "Drivers/STM32H5xx_HAL_Driver/Inc/stm32h5xx_hal_i2c.h"
 847              		.file 10 "Drivers/STM32H5xx_HAL_Driver/Inc/stm32h5xx_ll_lptim.h"
 848              		.file 11 "Drivers/STM32H5xx_HAL_Driver/Inc/stm32h5xx_hal_lptim.h"
 849              		.file 12 "Drivers/STM32H5xx_HAL_Driver/Inc/stm32h5xx_hal_rtc.h"
 850              		.file 13 "Drivers/STM32H5xx_HAL_Driver/Inc/stm32h5xx_hal_spi.h"
 851              		.file 14 "Drivers/STM32H5xx_HAL_Driver/Inc/stm32h5xx_hal_tim.h"
 852              		.file 15 "Drivers/STM32H5xx_HAL_Driver/Inc/stm32h5xx_hal_uart.h"
 853              		.file 16 "SynaptiX_FDK/services/logger/logger.h"
 854              		.file 17 "Drivers/STM32H5xx_HAL_Driver/Inc/stm32h5xx_hal_gpio.h"
 855              		.file 18 "Drivers/STM32H5xx_HAL_Driver/Inc/stm32h5xx_hal_rtc_ex.h"
 856              		.file 19 "Drivers/STM32H5xx_HAL_Driver/Inc/stm32h5xx_hal.h"
ARM GAS  C:\Users\LENOVO\AppData\Local\Temp\cczkehOP.s 			page 24

