ARM GAS  C:\Users\LENOVO\AppData\Local\Temp\cc90TV8l.s 			page 1


   1              		.cpu cortex-m33
   2              		.arch armv8-m.main
   3              		.fpu fpv5-sp-d16
   4              		.arch_extension dsp
   5              		.eabi_attribute 27, 1
   6              		.eabi_attribute 28, 1
   7              		.eabi_attribute 20, 1
   8              		.eabi_attribute 21, 1
   9              		.eabi_attribute 23, 3
  10              		.eabi_attribute 24, 1
  11              		.eabi_attribute 25, 1
  12              		.eabi_attribute 26, 1
  13              		.eabi_attribute 30, 1
  14              		.eabi_attribute 34, 1
  15              		.eabi_attribute 18, 4
  16              		.file	"sx_board.c"
  17              		.text
  18              	.Ltext0:
  19              		.cfi_sections	.debug_frame
  20              		.file 1 "SynaptiX_FDK/board/sx_board.c"
  21              		.section	.text.sx_gpio_write,"ax",%progbits
  22              		.align	1
  23              		.syntax unified
  24              		.thumb
  25              		.thumb_func
  27              	sx_gpio_write:
  28              	.LVL0:
  29              	.LFB497:
  30              		.file 2 "SynaptiX_FDK/components/gpio/sx_gpio.h"
   1:SynaptiX_FDK/components/gpio/sx_gpio.h **** #ifndef SX_GPIO_H
   2:SynaptiX_FDK/components/gpio/sx_gpio.h **** #define SX_GPIO_H
   3:SynaptiX_FDK/components/gpio/sx_gpio.h **** #ifdef __cplusplus
   4:SynaptiX_FDK/components/gpio/sx_gpio.h **** extern "C" {
   5:SynaptiX_FDK/components/gpio/sx_gpio.h **** #endif
   6:SynaptiX_FDK/components/gpio/sx_gpio.h **** 
   7:SynaptiX_FDK/components/gpio/sx_gpio.h **** #include <stdint.h>
   8:SynaptiX_FDK/components/gpio/sx_gpio.h **** 
   9:SynaptiX_FDK/components/gpio/sx_gpio.h **** typedef enum SX_GPIO_VALUE{
  10:SynaptiX_FDK/components/gpio/sx_gpio.h ****     SX_GPIO_LOW = 0,
  11:SynaptiX_FDK/components/gpio/sx_gpio.h ****     SX_GPIO_HIGH = 1
  12:SynaptiX_FDK/components/gpio/sx_gpio.h **** } SX_GPIO_VALUE;
  13:SynaptiX_FDK/components/gpio/sx_gpio.h **** 
  14:SynaptiX_FDK/components/gpio/sx_gpio.h **** typedef struct sx_gpio sx_gpio_t;
  15:SynaptiX_FDK/components/gpio/sx_gpio.h **** 
  16:SynaptiX_FDK/components/gpio/sx_gpio.h **** typedef struct {
  17:SynaptiX_FDK/components/gpio/sx_gpio.h ****     void    *port;
  18:SynaptiX_FDK/components/gpio/sx_gpio.h ****     uint16_t pin;
  19:SynaptiX_FDK/components/gpio/sx_gpio.h **** } sx_gpio_pin_t;
  20:SynaptiX_FDK/components/gpio/sx_gpio.h **** 
  21:SynaptiX_FDK/components/gpio/sx_gpio.h **** typedef struct sx_gpio_ops{
  22:SynaptiX_FDK/components/gpio/sx_gpio.h ****     int (*write)(sx_gpio_t *gpio, SX_GPIO_VALUE value);
  23:SynaptiX_FDK/components/gpio/sx_gpio.h ****     int (*read)(sx_gpio_t *gpio, SX_GPIO_VALUE *value);
  24:SynaptiX_FDK/components/gpio/sx_gpio.h ****     int (*toggle)(sx_gpio_t *gpio);
  25:SynaptiX_FDK/components/gpio/sx_gpio.h **** } sx_gpio_ops_t;
  26:SynaptiX_FDK/components/gpio/sx_gpio.h **** 
  27:SynaptiX_FDK/components/gpio/sx_gpio.h **** typedef struct sx_gpio{
  28:SynaptiX_FDK/components/gpio/sx_gpio.h ****     sx_gpio_ops_t *ops;
ARM GAS  C:\Users\LENOVO\AppData\Local\Temp\cc90TV8l.s 			page 2


  29:SynaptiX_FDK/components/gpio/sx_gpio.h ****     void *pDriver;
  30:SynaptiX_FDK/components/gpio/sx_gpio.h ****     SX_GPIO_VALUE value;
  31:SynaptiX_FDK/components/gpio/sx_gpio.h **** } sx_gpio_t;
  32:SynaptiX_FDK/components/gpio/sx_gpio.h **** 
  33:SynaptiX_FDK/components/gpio/sx_gpio.h **** static inline void sx_gpio_init(sx_gpio_t *gpio, sx_gpio_ops_t *ops, void *pDriver){
  34:SynaptiX_FDK/components/gpio/sx_gpio.h ****     gpio->ops = ops;
  35:SynaptiX_FDK/components/gpio/sx_gpio.h ****     gpio->pDriver = pDriver;
  36:SynaptiX_FDK/components/gpio/sx_gpio.h ****     gpio->value = SX_GPIO_LOW;
  37:SynaptiX_FDK/components/gpio/sx_gpio.h **** }
  38:SynaptiX_FDK/components/gpio/sx_gpio.h **** 
  39:SynaptiX_FDK/components/gpio/sx_gpio.h **** static inline int sx_gpio_write(sx_gpio_t *gpio, SX_GPIO_VALUE value){
  31              		.loc 2 39 70 view -0
  32              		.cfi_startproc
  33              		@ args = 0, pretend = 0, frame = 0
  34              		@ frame_needed = 0, uses_anonymous_args = 0
  35              		.loc 2 39 70 is_stmt 0 view .LVU1
  36 0000 38B5     		push	{r3, r4, r5, lr}
  37              	.LCFI0:
  38              		.cfi_def_cfa_offset 16
  39              		.cfi_offset 3, -16
  40              		.cfi_offset 4, -12
  41              		.cfi_offset 5, -8
  42              		.cfi_offset 14, -4
  40:SynaptiX_FDK/components/gpio/sx_gpio.h ****     if(gpio->ops && gpio->ops->write){
  43              		.loc 2 40 5 is_stmt 1 view .LVU2
  44              		.loc 2 40 12 is_stmt 0 view .LVU3
  45 0002 0368     		ldr	r3, [r0]
  46              		.loc 2 40 7 view .LVU4
  47 0004 3BB1     		cbz	r3, .L4
  48 0006 0446     		mov	r4, r0
  49 0008 0D46     		mov	r5, r1
  50              		.loc 2 40 30 discriminator 1 view .LVU5
  51 000a 1B68     		ldr	r3, [r3]
  52              		.loc 2 40 18 discriminator 1 view .LVU6
  53 000c 33B1     		cbz	r3, .L5
  54              	.LBB18:
  41:SynaptiX_FDK/components/gpio/sx_gpio.h ****         int ret = gpio->ops->write(gpio, value);
  55              		.loc 2 41 9 is_stmt 1 view .LVU7
  56              		.loc 2 41 19 is_stmt 0 view .LVU8
  57 000e 9847     		blx	r3
  58              	.LVL1:
  42:SynaptiX_FDK/components/gpio/sx_gpio.h ****         if(ret == 0){
  59              		.loc 2 42 9 is_stmt 1 view .LVU9
  60              		.loc 2 42 11 is_stmt 0 view .LVU10
  61 0010 00B9     		cbnz	r0, .L1
  43:SynaptiX_FDK/components/gpio/sx_gpio.h ****             gpio->value = value;
  62              		.loc 2 43 13 is_stmt 1 view .LVU11
  63              		.loc 2 43 25 is_stmt 0 view .LVU12
  64 0012 2572     		strb	r5, [r4, #8]
  44:SynaptiX_FDK/components/gpio/sx_gpio.h ****         }
  45:SynaptiX_FDK/components/gpio/sx_gpio.h ****         return ret;
  65              		.loc 2 45 9 is_stmt 1 view .LVU13
  66              	.LVL2:
  67              	.L1:
  68              		.loc 2 45 9 is_stmt 0 view .LVU14
  69              	.LBE18:
  46:SynaptiX_FDK/components/gpio/sx_gpio.h ****     }
ARM GAS  C:\Users\LENOVO\AppData\Local\Temp\cc90TV8l.s 			page 3


  47:SynaptiX_FDK/components/gpio/sx_gpio.h ****     return -1;
  48:SynaptiX_FDK/components/gpio/sx_gpio.h **** }
  70              		.loc 2 48 1 view .LVU15
  71 0014 38BD     		pop	{r3, r4, r5, pc}
  72              	.LVL3:
  73              	.L4:
  47:SynaptiX_FDK/components/gpio/sx_gpio.h **** }
  74              		.loc 2 47 12 view .LVU16
  75 0016 4FF0FF30 		mov	r0, #-1
  76              	.LVL4:
  47:SynaptiX_FDK/components/gpio/sx_gpio.h **** }
  77              		.loc 2 47 12 view .LVU17
  78 001a FBE7     		b	.L1
  79              	.LVL5:
  80              	.L5:
  47:SynaptiX_FDK/components/gpio/sx_gpio.h **** }
  81              		.loc 2 47 12 view .LVU18
  82 001c 4FF0FF30 		mov	r0, #-1
  83              	.LVL6:
  47:SynaptiX_FDK/components/gpio/sx_gpio.h **** }
  84              		.loc 2 47 12 view .LVU19
  85 0020 F8E7     		b	.L1
  86              		.cfi_endproc
  87              	.LFE497:
  89              		.section	.text.log_print,"ax",%progbits
  90              		.align	1
  91              		.syntax unified
  92              		.thumb
  93              		.thumb_func
  95              	log_print:
  96              	.LVL7:
  97              	.LFB646:
   1:SynaptiX_FDK/board/sx_board.c **** #include "sx_board.h"
   2:SynaptiX_FDK/board/sx_board.c **** #include "stm32h5xx_hal.h"
   3:SynaptiX_FDK/board/sx_board.c **** #include "tusb.h"
   4:SynaptiX_FDK/board/sx_board.c **** #include "usb.h"
   5:SynaptiX_FDK/board/sx_board.c **** #include "sx_user_cdc.h"
   6:SynaptiX_FDK/board/sx_board.c **** #include "sx_user_msc.h"
   7:SynaptiX_FDK/board/sx_board.c **** #include "logger.h"
   8:SynaptiX_FDK/board/sx_board.c **** #include "sx_delay.h"
   9:SynaptiX_FDK/board/sx_board.c **** #include "sx_gpio.h"
  10:SynaptiX_FDK/board/sx_board.c **** #include "app_config.h"
  11:SynaptiX_FDK/board/sx_board.c **** #include "app.h"
  12:SynaptiX_FDK/board/sx_board.c **** #include "sx_sleep.h"
  13:SynaptiX_FDK/board/sx_board.c **** 
  14:SynaptiX_FDK/board/sx_board.c **** static const char *TAG = "BOARD";
  15:SynaptiX_FDK/board/sx_board.c **** 
  16:SynaptiX_FDK/board/sx_board.c **** Board_t board;
  17:SynaptiX_FDK/board/sx_board.c **** 
  18:SynaptiX_FDK/board/sx_board.c **** #define UART_LTE 0
  19:SynaptiX_FDK/board/sx_board.c **** #define UART_GPS 1
  20:SynaptiX_FDK/board/sx_board.c **** #define UART_LOG 2
  21:SynaptiX_FDK/board/sx_board.c **** 
  22:SynaptiX_FDK/board/sx_board.c **** static UART_HandleTypeDef *hal_uart[3] = {&huart1, &huart2, &huart3}; // lte, gps, log
  23:SynaptiX_FDK/board/sx_board.c **** static sx_uart_t *bsp_uart[3];
  24:SynaptiX_FDK/board/sx_board.c **** static uint8_t uart_rx_char[3];
  25:SynaptiX_FDK/board/sx_board.c **** 
ARM GAS  C:\Users\LENOVO\AppData\Local\Temp\cc90TV8l.s 			page 4


  26:SynaptiX_FDK/board/sx_board.c **** static void set_enter_sleep_mode(void);
  27:SynaptiX_FDK/board/sx_board.c **** static void set_enter_full_mode(void);
  28:SynaptiX_FDK/board/sx_board.c **** 
  29:SynaptiX_FDK/board/sx_board.c **** static ADC_HandleTypeDef *hal_adc = &hadc1;
  30:SynaptiX_FDK/board/sx_board.c **** 
  31:SynaptiX_FDK/board/sx_board.c **** void dcd_fs_msp_init(uint8_t rhport)
  32:SynaptiX_FDK/board/sx_board.c **** {
  33:SynaptiX_FDK/board/sx_board.c ****     (void)rhport;
  34:SynaptiX_FDK/board/sx_board.c ****     log_info(TAG, "dcd_fs_msp_init called");
  35:SynaptiX_FDK/board/sx_board.c ****     hpcd_USB_DRD_FS.Instance = USB_DRD_FS;
  36:SynaptiX_FDK/board/sx_board.c ****     HAL_PCD_MspInit(&hpcd_USB_DRD_FS);
  37:SynaptiX_FDK/board/sx_board.c ****     HAL_Delay(100);
  38:SynaptiX_FDK/board/sx_board.c ****     log_info(TAG, "MSP init done!");
  39:SynaptiX_FDK/board/sx_board.c **** }
  40:SynaptiX_FDK/board/sx_board.c **** 
  41:SynaptiX_FDK/board/sx_board.c **** void USB_DRD_FS_IRQHandler(void)
  42:SynaptiX_FDK/board/sx_board.c **** {
  43:SynaptiX_FDK/board/sx_board.c ****     tud_int_handler(0);
  44:SynaptiX_FDK/board/sx_board.c **** }
  45:SynaptiX_FDK/board/sx_board.c **** 
  46:SynaptiX_FDK/board/sx_board.c **** /* ------------------------------------------------------------------ */
  47:SynaptiX_FDK/board/sx_board.c **** /*  GPIO Define                                                       */
  48:SynaptiX_FDK/board/sx_board.c **** /* ------------------------------------------------------------------ */
  49:SynaptiX_FDK/board/sx_board.c **** 
  50:SynaptiX_FDK/board/sx_board.c **** static sx_gpio_pin_t s_lte_power_pin = {.pin = LTE_EN_PW_Pin, .port = LTE_EN_PW_Port};
  51:SynaptiX_FDK/board/sx_board.c **** static sx_gpio_pin_t s_lte_pwrkey_pin = {.pin = LTE_PWRKEY_Pin, .port = LTE_PWRKEY_PW_Port};
  52:SynaptiX_FDK/board/sx_board.c **** static sx_gpio_pin_t s_gps_power_pin = {.pin = GPS_EN_PW_Pin, .port = GPS_EN_PW_Port};
  53:SynaptiX_FDK/board/sx_board.c **** 
  54:SynaptiX_FDK/board/sx_board.c **** static sx_gpio_t s_charge;
  55:SynaptiX_FDK/board/sx_board.c **** static sx_gpio_pin_t s_charge_pin = {.pin = EN_BAT_CHARGE_PIN, .port = EN_BAT_CHARGE_Port};
  56:SynaptiX_FDK/board/sx_board.c **** 
  57:SynaptiX_FDK/board/sx_board.c **** static sx_gpio_t s_dis_charge;
  58:SynaptiX_FDK/board/sx_board.c **** static sx_gpio_pin_t s_dis_charge_pin = {.pin = EN_BAT_DISCHARGE_PIN, .port = EN_BAT_DISCHARGE_Port
  59:SynaptiX_FDK/board/sx_board.c **** 
  60:SynaptiX_FDK/board/sx_board.c **** static sx_gpio_pin_t s_rtc_pwr_pin = {.pin = RTC_EN_PW_GPIO_Pin, .port = RTC_EN_PW_GPIO_Port};
  61:SynaptiX_FDK/board/sx_board.c **** static sx_gpio_t     s_rtc_pwr;
  62:SynaptiX_FDK/board/sx_board.c **** 
  63:SynaptiX_FDK/board/sx_board.c **** static sx_gpio_pin_t s_imu_en_pin    = {.pin = IMU_EN_PW_GPIO_Pin,  .port = IMU_EN_PW_GPIO_Port};
  64:SynaptiX_FDK/board/sx_board.c **** static sx_gpio_pin_t s_imu_reset_pin = {.pin = IMU_RESET_Pin,  .port = IMU_RESET_Port};
  65:SynaptiX_FDK/board/sx_board.c **** static sx_gpio_t     s_imu_en;
  66:SynaptiX_FDK/board/sx_board.c **** static sx_gpio_t     s_imu_reset;
  67:SynaptiX_FDK/board/sx_board.c **** 
  68:SynaptiX_FDK/board/sx_board.c **** /*  SPI */
  69:SynaptiX_FDK/board/sx_board.c **** // static sx_gpio_t s_spi_cs;
  70:SynaptiX_FDK/board/sx_board.c **** // static sx_gpio_t s_spi_pwr;
  71:SynaptiX_FDK/board/sx_board.c **** // static sx_spi_t storage_spi;
  72:SynaptiX_FDK/board/sx_board.c **** 
  73:SynaptiX_FDK/board/sx_board.c **** static sx_gpio_pin_t s_spi_cs_pin = {.pin = SPI_CS_Pin, .port = SPI_CS_Port};
  74:SynaptiX_FDK/board/sx_board.c **** static sx_gpio_pin_t s_spi_pw_pin = {.pin = SPI_PW_PIN, .port = SPI_PW_PORT};
  75:SynaptiX_FDK/board/sx_board.c **** 
  76:SynaptiX_FDK/board/sx_board.c **** static void spi_storage_init(void){
  77:SynaptiX_FDK/board/sx_board.c ****     board.storage_cfg.cs_pin = s_spi_cs_pin;
  78:SynaptiX_FDK/board/sx_board.c ****     board.storage_cfg.pwr_pin = s_spi_pw_pin;
  79:SynaptiX_FDK/board/sx_board.c ****     board.storage_cfg.hspi = &hspi1;
  80:SynaptiX_FDK/board/sx_board.c **** 
  81:SynaptiX_FDK/board/sx_board.c ****     sx_storage_init(&board.storage_cfg);
  82:SynaptiX_FDK/board/sx_board.c **** }
ARM GAS  C:\Users\LENOVO\AppData\Local\Temp\cc90TV8l.s 			page 5


  83:SynaptiX_FDK/board/sx_board.c **** 
  84:SynaptiX_FDK/board/sx_board.c **** // USART define
  85:SynaptiX_FDK/board/sx_board.c **** 
  86:SynaptiX_FDK/board/sx_board.c **** /* ------------------------------------------------------------------ */
  87:SynaptiX_FDK/board/sx_board.c **** /*  Board                                                               */
  88:SynaptiX_FDK/board/sx_board.c **** /* ------------------------------------------------------------------ */
  89:SynaptiX_FDK/board/sx_board.c **** 
  90:SynaptiX_FDK/board/sx_board.c **** static void log_print(const char *str)
  91:SynaptiX_FDK/board/sx_board.c **** {
  98              		.loc 1 91 1 is_stmt 1 view -0
  99              		.cfi_startproc
 100              		@ args = 0, pretend = 0, frame = 0
 101              		@ frame_needed = 0, uses_anonymous_args = 0
 102              		.loc 1 91 1 is_stmt 0 view .LVU21
 103 0000 10B5     		push	{r4, lr}
 104              	.LCFI1:
 105              		.cfi_def_cfa_offset 8
 106              		.cfi_offset 4, -8
 107              		.cfi_offset 14, -4
 108 0002 0446     		mov	r4, r0
  92:SynaptiX_FDK/board/sx_board.c ****     sx_uart_write(&board.log_uart, (const uint8_t *)str, strlen(str));
 109              		.loc 1 92 5 is_stmt 1 view .LVU22
 110              		.loc 1 92 58 is_stmt 0 view .LVU23
 111 0004 FFF7FEFF 		bl	strlen
 112              	.LVL8:
 113              		.loc 1 92 58 view .LVU24
 114 0008 0246     		mov	r2, r0
 115              		.loc 1 92 5 discriminator 1 view .LVU25
 116 000a 2146     		mov	r1, r4
 117 000c 0148     		ldr	r0, .L9
 118 000e FFF7FEFF 		bl	sx_uart_write
 119              	.LVL9:
  93:SynaptiX_FDK/board/sx_board.c **** }
 120              		.loc 1 93 1 view .LVU26
 121 0012 10BD     		pop	{r4, pc}
 122              	.LVL10:
 123              	.L10:
 124              		.loc 1 93 1 view .LVU27
 125              		.align	2
 126              	.L9:
 127 0014 A4040000 		.word	board+1188
 128              		.cfi_endproc
 129              	.LFE646:
 131              		.section	.text.spi_storage_init,"ax",%progbits
 132              		.align	1
 133              		.syntax unified
 134              		.thumb
 135              		.thumb_func
 137              	spi_storage_init:
 138              	.LFB645:
  76:SynaptiX_FDK/board/sx_board.c ****     board.storage_cfg.cs_pin = s_spi_cs_pin;
 139              		.loc 1 76 35 is_stmt 1 view -0
 140              		.cfi_startproc
 141              		@ args = 0, pretend = 0, frame = 0
 142              		@ frame_needed = 0, uses_anonymous_args = 0
 143 0000 08B5     		push	{r3, lr}
 144              	.LCFI2:
ARM GAS  C:\Users\LENOVO\AppData\Local\Temp\cc90TV8l.s 			page 6


 145              		.cfi_def_cfa_offset 8
 146              		.cfi_offset 3, -8
 147              		.cfi_offset 14, -4
  77:SynaptiX_FDK/board/sx_board.c ****     board.storage_cfg.pwr_pin = s_spi_pw_pin;
 148              		.loc 1 77 5 view .LVU29
  77:SynaptiX_FDK/board/sx_board.c ****     board.storage_cfg.pwr_pin = s_spi_pw_pin;
 149              		.loc 1 77 30 is_stmt 0 view .LVU30
 150 0002 0A4B     		ldr	r3, .L13
 151 0004 0A49     		ldr	r1, .L13+4
 152 0006 03F5AF62 		add	r2, r3, #1400
 153 000a 03C9     		ldm	r1, {r0, r1}
 154 000c 82E80300 		stm	r2, {r0, r1}
  78:SynaptiX_FDK/board/sx_board.c ****     board.storage_cfg.hspi = &hspi1;
 155              		.loc 1 78 5 is_stmt 1 view .LVU31
  78:SynaptiX_FDK/board/sx_board.c ****     board.storage_cfg.hspi = &hspi1;
 156              		.loc 1 78 31 is_stmt 0 view .LVU32
 157 0010 0849     		ldr	r1, .L13+8
 158 0012 03F5B062 		add	r2, r3, #1408
 159 0016 03C9     		ldm	r1, {r0, r1}
 160 0018 82E80300 		stm	r2, {r0, r1}
  79:SynaptiX_FDK/board/sx_board.c **** 
 161              		.loc 1 79 5 is_stmt 1 view .LVU33
  79:SynaptiX_FDK/board/sx_board.c **** 
 162              		.loc 1 79 28 is_stmt 0 view .LVU34
 163 001c 064A     		ldr	r2, .L13+12
 164 001e C3F85025 		str	r2, [r3, #1360]
  81:SynaptiX_FDK/board/sx_board.c **** }
 165              		.loc 1 81 5 is_stmt 1 view .LVU35
 166 0022 03F5AA60 		add	r0, r3, #1360
 167 0026 FFF7FEFF 		bl	sx_storage_init
 168              	.LVL11:
  82:SynaptiX_FDK/board/sx_board.c **** 
 169              		.loc 1 82 1 is_stmt 0 view .LVU36
 170 002a 08BD     		pop	{r3, pc}
 171              	.L14:
 172              		.align	2
 173              	.L13:
 174 002c 00000000 		.word	board
 175 0030 00000000 		.word	s_spi_cs_pin
 176 0034 00000000 		.word	s_spi_pw_pin
 177 0038 00000000 		.word	hspi1
 178              		.cfi_endproc
 179              	.LFE645:
 181              		.section	.text.sx_gps_uart_abort,"ax",%progbits
 182              		.align	1
 183              		.syntax unified
 184              		.thumb
 185              		.thumb_func
 187              	sx_gps_uart_abort:
 188              	.LFB649:
  94:SynaptiX_FDK/board/sx_board.c **** 
  95:SynaptiX_FDK/board/sx_board.c **** void sx_board_init(void)
  96:SynaptiX_FDK/board/sx_board.c **** {
  97:SynaptiX_FDK/board/sx_board.c ****     // Initialize Logger
  98:SynaptiX_FDK/board/sx_board.c ****     static sx_uart_config_t uart_config[3];
  99:SynaptiX_FDK/board/sx_board.c ****     uart_config[UART_LOG].pDriver = hal_uart[UART_LOG];
 100:SynaptiX_FDK/board/sx_board.c ****     uart_config[UART_LOG].baudrate = 115200;
ARM GAS  C:\Users\LENOVO\AppData\Local\Temp\cc90TV8l.s 			page 7


 101:SynaptiX_FDK/board/sx_board.c ****     uart_config[UART_LOG].bits = 8;
 102:SynaptiX_FDK/board/sx_board.c ****     uart_config[UART_LOG].parity = 0;
 103:SynaptiX_FDK/board/sx_board.c ****     uart_config[UART_LOG].stopbits = 1;
 104:SynaptiX_FDK/board/sx_board.c **** 
 105:SynaptiX_FDK/board/sx_board.c ****     bsp_uart[UART_LOG] = &board.log_uart;
 106:SynaptiX_FDK/board/sx_board.c **** 
 107:SynaptiX_FDK/board/sx_board.c ****     sx_uart_init(&board.log_uart, &uart_config[UART_LOG], 512, 512);
 108:SynaptiX_FDK/board/sx_board.c ****     logger_init(LOGGER_INFO, log_print);
 109:SynaptiX_FDK/board/sx_board.c ****     log_info(TAG, "Board init start");
 110:SynaptiX_FDK/board/sx_board.c **** 
 111:SynaptiX_FDK/board/sx_board.c ****     sx_gpio_init(&s_charge, &sx_gpio_ops, &s_charge_pin);
 112:SynaptiX_FDK/board/sx_board.c ****     sx_gpio_init(&s_dis_charge, &sx_gpio_ops, &s_dis_charge_pin);
 113:SynaptiX_FDK/board/sx_board.c ****     
 114:SynaptiX_FDK/board/sx_board.c ****     sx_gpio_write(&s_charge, SX_GPIO_HIGH);
 115:SynaptiX_FDK/board/sx_board.c ****     sx_gpio_write(&s_dis_charge, SX_GPIO_HIGH);
 116:SynaptiX_FDK/board/sx_board.c **** 
 117:SynaptiX_FDK/board/sx_board.c ****     sx_delay_ms(1000);
 118:SynaptiX_FDK/board/sx_board.c ****     
 119:SynaptiX_FDK/board/sx_board.c ****     /*  USB  */ 
 120:SynaptiX_FDK/board/sx_board.c ****     #if BOARD_USE_MSC
 121:SynaptiX_FDK/board/sx_board.c ****     sx_user_msc_init();
 122:SynaptiX_FDK/board/sx_board.c ****     sx_user_msc_create_disk(USER_DISK_LABEL_CREATE);
 123:SynaptiX_FDK/board/sx_board.c ****     log_info(TAG, "MSC disk created");
 124:SynaptiX_FDK/board/sx_board.c ****     #endif
 125:SynaptiX_FDK/board/sx_board.c ****     board.usb_cfg.rx_buf_size = 256;
 126:SynaptiX_FDK/board/sx_board.c ****     board.usb_cfg.tx_buf_size = 256;
 127:SynaptiX_FDK/board/sx_board.c ****     dcd_fs_msp_init(0);
 128:SynaptiX_FDK/board/sx_board.c ****     sx_usb_tiny_init(&board.usb, &board.usb_cfg);
 129:SynaptiX_FDK/board/sx_board.c ****     log_info(TAG, "USB init done");
 130:SynaptiX_FDK/board/sx_board.c **** 
 131:SynaptiX_FDK/board/sx_board.c ****     uart_config[UART_LTE].pDriver = hal_uart[UART_LTE];
 132:SynaptiX_FDK/board/sx_board.c ****     uart_config[UART_LTE].baudrate = 115200;
 133:SynaptiX_FDK/board/sx_board.c ****     uart_config[UART_LTE].bits = 8;
 134:SynaptiX_FDK/board/sx_board.c ****     uart_config[UART_LTE].parity = 0;
 135:SynaptiX_FDK/board/sx_board.c ****     uart_config[UART_LTE].stopbits = 1;
 136:SynaptiX_FDK/board/sx_board.c **** 
 137:SynaptiX_FDK/board/sx_board.c ****     uart_config[UART_GPS].pDriver = hal_uart[UART_GPS];
 138:SynaptiX_FDK/board/sx_board.c ****     uart_config[UART_GPS].baudrate = 9600;
 139:SynaptiX_FDK/board/sx_board.c ****     uart_config[UART_GPS].bits = 8;
 140:SynaptiX_FDK/board/sx_board.c ****     uart_config[UART_GPS].parity = 0;
 141:SynaptiX_FDK/board/sx_board.c ****     uart_config[UART_GPS].stopbits = 1;
 142:SynaptiX_FDK/board/sx_board.c **** 
 143:SynaptiX_FDK/board/sx_board.c ****     bsp_uart[UART_LTE] = &board.sim76xx.base.uart;
 144:SynaptiX_FDK/board/sx_board.c ****     bsp_uart[UART_GPS] = &board.gps.comm;
 145:SynaptiX_FDK/board/sx_board.c **** 
 146:SynaptiX_FDK/board/sx_board.c ****     // I2C
 147:SynaptiX_FDK/board/sx_board.c ****     sx_i2c_init(&board.i2c1, &sx_i2c_ops, &hi2c1);
 148:SynaptiX_FDK/board/sx_board.c ****     // RTC
 149:SynaptiX_FDK/board/sx_board.c ****     sx_gpio_init(&s_rtc_pwr,   &sx_gpio_ops, &s_rtc_pwr_pin);
 150:SynaptiX_FDK/board/sx_board.c ****     rx8130ce_init(&board.rtc,  &board.i2c1, &s_rtc_pwr);
 151:SynaptiX_FDK/board/sx_board.c ****     // IMU
 152:SynaptiX_FDK/board/sx_board.c ****     sx_gpio_init(&s_imu_en,    &sx_gpio_ops, &s_imu_en_pin);
 153:SynaptiX_FDK/board/sx_board.c ****     sx_gpio_init(&s_imu_reset, &sx_gpio_ops, &s_imu_reset_pin);
 154:SynaptiX_FDK/board/sx_board.c ****     // Initialize LTE
 155:SynaptiX_FDK/board/sx_board.c ****     sx_gpio_init(&board.sim76xx.base.powerPin, &sx_gpio_ops, &s_lte_power_pin);
 156:SynaptiX_FDK/board/sx_board.c ****     sx_gpio_init(&board.sim76xx.base.pwrPin, &sx_gpio_ops, &s_lte_pwrkey_pin);
 157:SynaptiX_FDK/board/sx_board.c ****     sx_uart_init(&board.sim76xx.base.uart, &uart_config[UART_LTE], 512, 512);
ARM GAS  C:\Users\LENOVO\AppData\Local\Temp\cc90TV8l.s 			page 8


 158:SynaptiX_FDK/board/sx_board.c ****     sim76xx_init(&board.sim76xx);
 159:SynaptiX_FDK/board/sx_board.c ****     HAL_UART_Receive_IT(hal_uart[UART_LTE], &uart_rx_char[UART_LTE], 1);
 160:SynaptiX_FDK/board/sx_board.c ****     sim76xx_power_on(&board.sim76xx);
 161:SynaptiX_FDK/board/sx_board.c ****     gps_init(&board.gps, &uart_config[UART_GPS], &sx_gpio_ops, &s_gps_power_pin, NULL);
 162:SynaptiX_FDK/board/sx_board.c ****     HAL_UART_Receive_IT(hal_uart[UART_GPS], &uart_rx_char[UART_GPS], 1);
 163:SynaptiX_FDK/board/sx_board.c ****     gps_it_handle();
 164:SynaptiX_FDK/board/sx_board.c ****     sim_it_handle();
 165:SynaptiX_FDK/board/sx_board.c ****     sim76xx_start(&board.sim76xx);
 166:SynaptiX_FDK/board/sx_board.c ****     // Initialize GPS
 167:SynaptiX_FDK/board/sx_board.c ****     spi_storage_init();
 168:SynaptiX_FDK/board/sx_board.c ****     bno055_power_on(&board.imu);
 169:SynaptiX_FDK/board/sx_board.c ****     sx_gpio_write(&s_imu_en, SX_GPIO_LOW);
 170:SynaptiX_FDK/board/sx_board.c ****     bno055_init(&board.imu, &board.i2c1, BNO055_I2C_ADDR_DEFAULT, &s_imu_en, &s_imu_reset);
 171:SynaptiX_FDK/board/sx_board.c **** 
 172:SynaptiX_FDK/board/sx_board.c ****     HAL_ADCEx_Calibration_Start(hal_adc, ADC_SINGLE_ENDED);
 173:SynaptiX_FDK/board/sx_board.c ****     HAL_ADC_Start(hal_adc);
 174:SynaptiX_FDK/board/sx_board.c ****     sx_adc_reader_init(&board.s_adc_reader);
 175:SynaptiX_FDK/board/sx_board.c **** }
 176:SynaptiX_FDK/board/sx_board.c **** 
 177:SynaptiX_FDK/board/sx_board.c **** static void sx_sim76_uart_abort(void) {
 178:SynaptiX_FDK/board/sx_board.c ****     HAL_UART_Abort(hal_uart[UART_LTE]);
 179:SynaptiX_FDK/board/sx_board.c **** }
 180:SynaptiX_FDK/board/sx_board.c **** 
 181:SynaptiX_FDK/board/sx_board.c **** static void sx_gps_uart_abort(){
 189              		.loc 1 181 32 is_stmt 1 view -0
 190              		.cfi_startproc
 191              		@ args = 0, pretend = 0, frame = 0
 192              		@ frame_needed = 0, uses_anonymous_args = 0
 193 0000 08B5     		push	{r3, lr}
 194              	.LCFI3:
 195              		.cfi_def_cfa_offset 8
 196              		.cfi_offset 3, -8
 197              		.cfi_offset 14, -4
 182:SynaptiX_FDK/board/sx_board.c ****     HAL_UART_Abort(hal_uart[UART_GPS]);
 198              		.loc 1 182 5 view .LVU38
 199 0002 0248     		ldr	r0, .L17
 200 0004 FFF7FEFF 		bl	HAL_UART_Abort
 201              	.LVL12:
 183:SynaptiX_FDK/board/sx_board.c **** }
 202              		.loc 1 183 1 is_stmt 0 view .LVU39
 203 0008 08BD     		pop	{r3, pc}
 204              	.L18:
 205 000a 00BF     		.align	2
 206              	.L17:
 207 000c 00000000 		.word	huart2
 208              		.cfi_endproc
 209              	.LFE649:
 211              		.section	.text.sx_sim76_uart_abort,"ax",%progbits
 212              		.align	1
 213              		.syntax unified
 214              		.thumb
 215              		.thumb_func
 217              	sx_sim76_uart_abort:
 218              	.LFB648:
 177:SynaptiX_FDK/board/sx_board.c ****     HAL_UART_Abort(hal_uart[UART_LTE]);
 219              		.loc 1 177 39 is_stmt 1 view -0
 220              		.cfi_startproc
ARM GAS  C:\Users\LENOVO\AppData\Local\Temp\cc90TV8l.s 			page 9


 221              		@ args = 0, pretend = 0, frame = 0
 222              		@ frame_needed = 0, uses_anonymous_args = 0
 223 0000 08B5     		push	{r3, lr}
 224              	.LCFI4:
 225              		.cfi_def_cfa_offset 8
 226              		.cfi_offset 3, -8
 227              		.cfi_offset 14, -4
 178:SynaptiX_FDK/board/sx_board.c **** }
 228              		.loc 1 178 5 view .LVU41
 229 0002 0248     		ldr	r0, .L21
 230 0004 FFF7FEFF 		bl	HAL_UART_Abort
 231              	.LVL13:
 179:SynaptiX_FDK/board/sx_board.c **** 
 232              		.loc 1 179 1 is_stmt 0 view .LVU42
 233 0008 08BD     		pop	{r3, pc}
 234              	.L22:
 235 000a 00BF     		.align	2
 236              	.L21:
 237 000c 00000000 		.word	huart1
 238              		.cfi_endproc
 239              	.LFE648:
 241              		.section	.rodata.dcd_fs_msp_init.str1.4,"aMS",%progbits,1
 242              		.align	2
 243              	.LC0:
 244 0000 6463645F 		.ascii	"dcd_fs_msp_init called\000"
 244      66735F6D 
 244      73705F69 
 244      6E697420 
 244      63616C6C 
 245 0017 00       		.align	2
 246              	.LC1:
 247 0018 424F4152 		.ascii	"BOARD\000"
 247      4400
 248 001e 0000     		.align	2
 249              	.LC2:
 250 0020 4D535020 		.ascii	"MSP init done!\000"
 250      696E6974 
 250      20646F6E 
 250      652100
 251              		.section	.text.dcd_fs_msp_init,"ax",%progbits
 252              		.align	1
 253              		.global	dcd_fs_msp_init
 254              		.syntax unified
 255              		.thumb
 256              		.thumb_func
 258              	dcd_fs_msp_init:
 259              	.LVL14:
 260              	.LFB643:
  32:SynaptiX_FDK/board/sx_board.c ****     (void)rhport;
 261              		.loc 1 32 1 is_stmt 1 view -0
 262              		.cfi_startproc
 263              		@ args = 0, pretend = 0, frame = 0
 264              		@ frame_needed = 0, uses_anonymous_args = 0
  32:SynaptiX_FDK/board/sx_board.c ****     (void)rhport;
 265              		.loc 1 32 1 is_stmt 0 view .LVU44
 266 0000 10B5     		push	{r4, lr}
 267              	.LCFI5:
ARM GAS  C:\Users\LENOVO\AppData\Local\Temp\cc90TV8l.s 			page 10


 268              		.cfi_def_cfa_offset 8
 269              		.cfi_offset 4, -8
 270              		.cfi_offset 14, -4
  33:SynaptiX_FDK/board/sx_board.c ****     log_info(TAG, "dcd_fs_msp_init called");
 271              		.loc 1 33 5 is_stmt 1 view .LVU45
  34:SynaptiX_FDK/board/sx_board.c ****     hpcd_USB_DRD_FS.Instance = USB_DRD_FS;
 272              		.loc 1 34 5 view .LVU46
 273 0002 0A4C     		ldr	r4, .L25
 274 0004 0A4A     		ldr	r2, .L25+4
 275 0006 2146     		mov	r1, r4
 276 0008 0320     		movs	r0, #3
 277              	.LVL15:
  34:SynaptiX_FDK/board/sx_board.c ****     hpcd_USB_DRD_FS.Instance = USB_DRD_FS;
 278              		.loc 1 34 5 is_stmt 0 view .LVU47
 279 000a FFF7FEFF 		bl	log_func
 280              	.LVL16:
  35:SynaptiX_FDK/board/sx_board.c ****     HAL_PCD_MspInit(&hpcd_USB_DRD_FS);
 281              		.loc 1 35 5 is_stmt 1 view .LVU48
  35:SynaptiX_FDK/board/sx_board.c ****     HAL_PCD_MspInit(&hpcd_USB_DRD_FS);
 282              		.loc 1 35 30 is_stmt 0 view .LVU49
 283 000e 0948     		ldr	r0, .L25+8
 284 0010 094B     		ldr	r3, .L25+12
 285 0012 0360     		str	r3, [r0]
  36:SynaptiX_FDK/board/sx_board.c ****     HAL_Delay(100);
 286              		.loc 1 36 5 is_stmt 1 view .LVU50
 287 0014 FFF7FEFF 		bl	HAL_PCD_MspInit
 288              	.LVL17:
  37:SynaptiX_FDK/board/sx_board.c ****     log_info(TAG, "MSP init done!");
 289              		.loc 1 37 5 view .LVU51
 290 0018 6420     		movs	r0, #100
 291 001a FFF7FEFF 		bl	HAL_Delay
 292              	.LVL18:
  38:SynaptiX_FDK/board/sx_board.c **** }
 293              		.loc 1 38 5 view .LVU52
 294 001e 074A     		ldr	r2, .L25+16
 295 0020 2146     		mov	r1, r4
 296 0022 0320     		movs	r0, #3
 297 0024 FFF7FEFF 		bl	log_func
 298              	.LVL19:
  39:SynaptiX_FDK/board/sx_board.c **** 
 299              		.loc 1 39 1 is_stmt 0 view .LVU53
 300 0028 10BD     		pop	{r4, pc}
 301              	.L26:
 302 002a 00BF     		.align	2
 303              	.L25:
 304 002c 18000000 		.word	.LC1
 305 0030 00000000 		.word	.LC0
 306 0034 00000000 		.word	hpcd_USB_DRD_FS
 307 0038 00600140 		.word	1073831936
 308 003c 20000000 		.word	.LC2
 309              		.cfi_endproc
 310              	.LFE643:
 312              		.section	.text.USB_DRD_FS_IRQHandler,"ax",%progbits
 313              		.align	1
 314              		.global	USB_DRD_FS_IRQHandler
 315              		.syntax unified
 316              		.thumb
ARM GAS  C:\Users\LENOVO\AppData\Local\Temp\cc90TV8l.s 			page 11


 317              		.thumb_func
 319              	USB_DRD_FS_IRQHandler:
 320              	.LFB644:
  42:SynaptiX_FDK/board/sx_board.c ****     tud_int_handler(0);
 321              		.loc 1 42 1 is_stmt 1 view -0
 322              		.cfi_startproc
 323              		@ args = 0, pretend = 0, frame = 0
 324              		@ frame_needed = 0, uses_anonymous_args = 0
 325 0000 08B5     		push	{r3, lr}
 326              	.LCFI6:
 327              		.cfi_def_cfa_offset 8
 328              		.cfi_offset 3, -8
 329              		.cfi_offset 14, -4
  43:SynaptiX_FDK/board/sx_board.c **** }
 330              		.loc 1 43 5 view .LVU55
 331 0002 0020     		movs	r0, #0
 332 0004 FFF7FEFF 		bl	dcd_int_handler
 333              	.LVL20:
  44:SynaptiX_FDK/board/sx_board.c **** 
 334              		.loc 1 44 1 is_stmt 0 view .LVU56
 335 0008 08BD     		pop	{r3, pc}
 336              		.cfi_endproc
 337              	.LFE644:
 339              		.section	.text.gps_it_handle,"ax",%progbits
 340              		.align	1
 341              		.global	gps_it_handle
 342              		.syntax unified
 343              		.thumb
 344              		.thumb_func
 346              	gps_it_handle:
 347              	.LFB650:
 184:SynaptiX_FDK/board/sx_board.c **** 
 185:SynaptiX_FDK/board/sx_board.c **** void gps_it_handle(){
 348              		.loc 1 185 21 is_stmt 1 view -0
 349              		.cfi_startproc
 350              		@ args = 0, pretend = 0, frame = 0
 351              		@ frame_needed = 0, uses_anonymous_args = 0
 352 0000 08B5     		push	{r3, lr}
 353              	.LCFI7:
 354              		.cfi_def_cfa_offset 8
 355              		.cfi_offset 3, -8
 356              		.cfi_offset 14, -4
 186:SynaptiX_FDK/board/sx_board.c ****     HAL_UART_Receive_IT(hal_uart[UART_GPS], &uart_rx_char[UART_GPS], 1);
 357              		.loc 1 186 5 view .LVU58
 358 0002 0122     		movs	r2, #1
 359 0004 0249     		ldr	r1, .L31
 360 0006 0348     		ldr	r0, .L31+4
 361 0008 FFF7FEFF 		bl	HAL_UART_Receive_IT
 362              	.LVL21:
 187:SynaptiX_FDK/board/sx_board.c **** }
 363              		.loc 1 187 1 is_stmt 0 view .LVU59
 364 000c 08BD     		pop	{r3, pc}
 365              	.L32:
 366 000e 00BF     		.align	2
 367              	.L31:
 368 0010 01000000 		.word	uart_rx_char+1
 369 0014 00000000 		.word	huart2
ARM GAS  C:\Users\LENOVO\AppData\Local\Temp\cc90TV8l.s 			page 12


 370              		.cfi_endproc
 371              	.LFE650:
 373              		.section	.text.sim_it_handle,"ax",%progbits
 374              		.align	1
 375              		.global	sim_it_handle
 376              		.syntax unified
 377              		.thumb
 378              		.thumb_func
 380              	sim_it_handle:
 381              	.LFB651:
 188:SynaptiX_FDK/board/sx_board.c **** 
 189:SynaptiX_FDK/board/sx_board.c **** void sim_it_handle(){
 382              		.loc 1 189 21 is_stmt 1 view -0
 383              		.cfi_startproc
 384              		@ args = 0, pretend = 0, frame = 0
 385              		@ frame_needed = 0, uses_anonymous_args = 0
 386 0000 08B5     		push	{r3, lr}
 387              	.LCFI8:
 388              		.cfi_def_cfa_offset 8
 389              		.cfi_offset 3, -8
 390              		.cfi_offset 14, -4
 190:SynaptiX_FDK/board/sx_board.c ****     HAL_UART_Receive_IT(hal_uart[UART_LTE], &uart_rx_char[UART_LTE], 1);
 391              		.loc 1 190 5 view .LVU61
 392 0002 0122     		movs	r2, #1
 393 0004 0249     		ldr	r1, .L35
 394 0006 0348     		ldr	r0, .L35+4
 395 0008 FFF7FEFF 		bl	HAL_UART_Receive_IT
 396              	.LVL22:
 191:SynaptiX_FDK/board/sx_board.c **** }
 397              		.loc 1 191 1 is_stmt 0 view .LVU62
 398 000c 08BD     		pop	{r3, pc}
 399              	.L36:
 400 000e 00BF     		.align	2
 401              	.L35:
 402 0010 00000000 		.word	uart_rx_char
 403 0014 00000000 		.word	huart1
 404              		.cfi_endproc
 405              	.LFE651:
 407              		.section	.rodata.sx_board_init.str1.4,"aMS",%progbits,1
 408              		.align	2
 409              	.LC3:
 410 0000 426F6172 		.ascii	"Board init start\000"
 410      6420696E 
 410      69742073 
 410      74617274 
 410      00
 411 0011 000000   		.align	2
 412              	.LC4:
 413 0014 56442047 		.ascii	"VD GPS\000"
 413      505300
 414 001b 00       		.align	2
 415              	.LC5:
 416 001c 4D534320 		.ascii	"MSC disk created\000"
 416      6469736B 
 416      20637265 
 416      61746564 
 416      00
ARM GAS  C:\Users\LENOVO\AppData\Local\Temp\cc90TV8l.s 			page 13


 417 002d 000000   		.align	2
 418              	.LC6:
 419 0030 55534220 		.ascii	"USB init done\000"
 419      696E6974 
 419      20646F6E 
 419      6500
 420              		.section	.text.sx_board_init,"ax",%progbits
 421              		.align	1
 422              		.global	sx_board_init
 423              		.syntax unified
 424              		.thumb
 425              		.thumb_func
 427              	sx_board_init:
 428              	.LFB647:
  96:SynaptiX_FDK/board/sx_board.c ****     // Initialize Logger
 429              		.loc 1 96 1 is_stmt 1 view -0
 430              		.cfi_startproc
 431              		@ args = 0, pretend = 0, frame = 0
 432              		@ frame_needed = 0, uses_anonymous_args = 0
 433 0000 2DE9F04F 		push	{r4, r5, r6, r7, r8, r9, r10, fp, lr}
 434              	.LCFI9:
 435              		.cfi_def_cfa_offset 36
 436              		.cfi_offset 4, -36
 437              		.cfi_offset 5, -32
 438              		.cfi_offset 6, -28
 439              		.cfi_offset 7, -24
 440              		.cfi_offset 8, -20
 441              		.cfi_offset 9, -16
 442              		.cfi_offset 10, -12
 443              		.cfi_offset 11, -8
 444              		.cfi_offset 14, -4
 445 0004 83B0     		sub	sp, sp, #12
 446              	.LCFI10:
 447              		.cfi_def_cfa_offset 48
  98:SynaptiX_FDK/board/sx_board.c ****     uart_config[UART_LOG].pDriver = hal_uart[UART_LOG];
 448              		.loc 1 98 5 view .LVU64
  99:SynaptiX_FDK/board/sx_board.c ****     uart_config[UART_LOG].baudrate = 115200;
 449              		.loc 1 99 5 view .LVU65
  99:SynaptiX_FDK/board/sx_board.c ****     uart_config[UART_LOG].baudrate = 115200;
 450              		.loc 1 99 35 is_stmt 0 view .LVU66
 451 0006 7C4D     		ldr	r5, .L39
 452 0008 7C4B     		ldr	r3, .L39+4
 453 000a AB61     		str	r3, [r5, #24]
 100:SynaptiX_FDK/board/sx_board.c ****     uart_config[UART_LOG].bits = 8;
 454              		.loc 1 100 5 is_stmt 1 view .LVU67
 100:SynaptiX_FDK/board/sx_board.c ****     uart_config[UART_LOG].bits = 8;
 455              		.loc 1 100 36 is_stmt 0 view .LVU68
 456 000c 4FF4E133 		mov	r3, #115200
 457 0010 EB61     		str	r3, [r5, #28]
 101:SynaptiX_FDK/board/sx_board.c ****     uart_config[UART_LOG].parity = 0;
 458              		.loc 1 101 5 is_stmt 1 view .LVU69
 101:SynaptiX_FDK/board/sx_board.c ****     uart_config[UART_LOG].parity = 0;
 459              		.loc 1 101 32 is_stmt 0 view .LVU70
 460 0012 4FF00809 		mov	r9, #8
 461 0016 85F82090 		strb	r9, [r5, #32]
 102:SynaptiX_FDK/board/sx_board.c ****     uart_config[UART_LOG].stopbits = 1;
 462              		.loc 1 102 5 is_stmt 1 view .LVU71
ARM GAS  C:\Users\LENOVO\AppData\Local\Temp\cc90TV8l.s 			page 14


 102:SynaptiX_FDK/board/sx_board.c ****     uart_config[UART_LOG].stopbits = 1;
 463              		.loc 1 102 34 is_stmt 0 view .LVU72
 464 001a 0026     		movs	r6, #0
 465 001c 85F82160 		strb	r6, [r5, #33]
 103:SynaptiX_FDK/board/sx_board.c **** 
 466              		.loc 1 103 5 is_stmt 1 view .LVU73
 103:SynaptiX_FDK/board/sx_board.c **** 
 467              		.loc 1 103 36 is_stmt 0 view .LVU74
 468 0020 4FF0010B 		mov	fp, #1
 469 0024 85F822B0 		strb	fp, [r5, #34]
 105:SynaptiX_FDK/board/sx_board.c **** 
 470              		.loc 1 105 5 is_stmt 1 view .LVU75
 105:SynaptiX_FDK/board/sx_board.c **** 
 471              		.loc 1 105 24 is_stmt 0 view .LVU76
 472 0028 DFF83482 		ldr	r8, .L39+104
 473 002c 744C     		ldr	r4, .L39+8
 474 002e C8F80840 		str	r4, [r8, #8]
 107:SynaptiX_FDK/board/sx_board.c ****     logger_init(LOGGER_INFO, log_print);
 475              		.loc 1 107 5 is_stmt 1 view .LVU77
 476 0032 4FF40073 		mov	r3, #512
 477 0036 1A46     		mov	r2, r3
 478 0038 05F11801 		add	r1, r5, #24
 479 003c 2046     		mov	r0, r4
 480 003e FFF7FEFF 		bl	sx_uart_init
 481              	.LVL23:
 108:SynaptiX_FDK/board/sx_board.c ****     log_info(TAG, "Board init start");
 482              		.loc 1 108 5 view .LVU78
 483 0042 7049     		ldr	r1, .L39+12
 484 0044 0320     		movs	r0, #3
 485 0046 FFF7FEFF 		bl	logger_init
 486              	.LVL24:
 109:SynaptiX_FDK/board/sx_board.c **** 
 487              		.loc 1 109 5 view .LVU79
 488 004a 6F4A     		ldr	r2, .L39+16
 489 004c 6F49     		ldr	r1, .L39+20
 490 004e 0320     		movs	r0, #3
 491 0050 FFF7FEFF 		bl	log_func
 492              	.LVL25:
 111:SynaptiX_FDK/board/sx_board.c ****     sx_gpio_init(&s_dis_charge, &sx_gpio_ops, &s_dis_charge_pin);
 493              		.loc 1 111 5 view .LVU80
 494              	.LBB19:
 495              	.LBI19:
  33:SynaptiX_FDK/components/gpio/sx_gpio.h ****     gpio->ops = ops;
 496              		.loc 2 33 20 view .LVU81
 497              	.LBB20:
  34:SynaptiX_FDK/components/gpio/sx_gpio.h ****     gpio->pDriver = pDriver;
 498              		.loc 2 34 5 view .LVU82
  34:SynaptiX_FDK/components/gpio/sx_gpio.h ****     gpio->pDriver = pDriver;
 499              		.loc 2 34 15 is_stmt 0 view .LVU83
 500 0054 6E48     		ldr	r0, .L39+24
 501 0056 DFF80CA2 		ldr	r10, .L39+108
 502 005a C0F800A0 		str	r10, [r0]
  35:SynaptiX_FDK/components/gpio/sx_gpio.h ****     gpio->value = SX_GPIO_LOW;
 503              		.loc 2 35 5 is_stmt 1 view .LVU84
  35:SynaptiX_FDK/components/gpio/sx_gpio.h ****     gpio->value = SX_GPIO_LOW;
 504              		.loc 2 35 19 is_stmt 0 view .LVU85
 505 005e 6D4B     		ldr	r3, .L39+28
ARM GAS  C:\Users\LENOVO\AppData\Local\Temp\cc90TV8l.s 			page 15


 506 0060 4360     		str	r3, [r0, #4]
  36:SynaptiX_FDK/components/gpio/sx_gpio.h **** }
 507              		.loc 2 36 5 is_stmt 1 view .LVU86
  36:SynaptiX_FDK/components/gpio/sx_gpio.h **** }
 508              		.loc 2 36 17 is_stmt 0 view .LVU87
 509 0062 0672     		strb	r6, [r0, #8]
 510              	.LVL26:
  36:SynaptiX_FDK/components/gpio/sx_gpio.h **** }
 511              		.loc 2 36 17 view .LVU88
 512              	.LBE20:
 513              	.LBE19:
 112:SynaptiX_FDK/board/sx_board.c ****     
 514              		.loc 1 112 5 is_stmt 1 view .LVU89
 515              	.LBB21:
 516              	.LBI21:
  33:SynaptiX_FDK/components/gpio/sx_gpio.h ****     gpio->ops = ops;
 517              		.loc 2 33 20 view .LVU90
 518              	.LBB22:
  34:SynaptiX_FDK/components/gpio/sx_gpio.h ****     gpio->pDriver = pDriver;
 519              		.loc 2 34 5 view .LVU91
  34:SynaptiX_FDK/components/gpio/sx_gpio.h ****     gpio->pDriver = pDriver;
 520              		.loc 2 34 15 is_stmt 0 view .LVU92
 521 0064 6C4F     		ldr	r7, .L39+32
 522 0066 C7F800A0 		str	r10, [r7]
  35:SynaptiX_FDK/components/gpio/sx_gpio.h ****     gpio->value = SX_GPIO_LOW;
 523              		.loc 2 35 5 is_stmt 1 view .LVU93
  35:SynaptiX_FDK/components/gpio/sx_gpio.h ****     gpio->value = SX_GPIO_LOW;
 524              		.loc 2 35 19 is_stmt 0 view .LVU94
 525 006a 6C4B     		ldr	r3, .L39+36
 526 006c 7B60     		str	r3, [r7, #4]
  36:SynaptiX_FDK/components/gpio/sx_gpio.h **** }
 527              		.loc 2 36 5 is_stmt 1 view .LVU95
  36:SynaptiX_FDK/components/gpio/sx_gpio.h **** }
 528              		.loc 2 36 17 is_stmt 0 view .LVU96
 529 006e 3E72     		strb	r6, [r7, #8]
 530              	.LVL27:
  36:SynaptiX_FDK/components/gpio/sx_gpio.h **** }
 531              		.loc 2 36 17 view .LVU97
 532              	.LBE22:
 533              	.LBE21:
 114:SynaptiX_FDK/board/sx_board.c ****     sx_gpio_write(&s_dis_charge, SX_GPIO_HIGH);
 534              		.loc 1 114 5 is_stmt 1 view .LVU98
 535 0070 5946     		mov	r1, fp
 536 0072 FFF7FEFF 		bl	sx_gpio_write
 537              	.LVL28:
 115:SynaptiX_FDK/board/sx_board.c **** 
 538              		.loc 1 115 5 view .LVU99
 539 0076 5946     		mov	r1, fp
 540 0078 3846     		mov	r0, r7
 541 007a FFF7FEFF 		bl	sx_gpio_write
 542              	.LVL29:
 117:SynaptiX_FDK/board/sx_board.c ****     
 543              		.loc 1 117 5 view .LVU100
 544 007e 4FF47A70 		mov	r0, #1000
 545 0082 FFF7FEFF 		bl	sx_delay_ms
 546              	.LVL30:
 121:SynaptiX_FDK/board/sx_board.c ****     sx_user_msc_create_disk(USER_DISK_LABEL_CREATE);
ARM GAS  C:\Users\LENOVO\AppData\Local\Temp\cc90TV8l.s 			page 16


 547              		.loc 1 121 5 view .LVU101
 548 0086 FFF7FEFF 		bl	sx_user_msc_init
 549              	.LVL31:
 122:SynaptiX_FDK/board/sx_board.c ****     log_info(TAG, "MSC disk created");
 550              		.loc 1 122 5 view .LVU102
 551 008a 6548     		ldr	r0, .L39+40
 552 008c FFF7FEFF 		bl	sx_user_msc_create_disk
 553              	.LVL32:
 123:SynaptiX_FDK/board/sx_board.c ****     #endif
 554              		.loc 1 123 5 view .LVU103
 555 0090 644A     		ldr	r2, .L39+44
 556 0092 5E49     		ldr	r1, .L39+20
 557 0094 0320     		movs	r0, #3
 558 0096 FFF7FEFF 		bl	log_func
 559              	.LVL33:
 125:SynaptiX_FDK/board/sx_board.c ****     board.usb_cfg.tx_buf_size = 256;
 560              		.loc 1 125 5 view .LVU104
 125:SynaptiX_FDK/board/sx_board.c ****     board.usb_cfg.tx_buf_size = 256;
 561              		.loc 1 125 31 is_stmt 0 view .LVU105
 562 009a A4F2A444 		subw	r4, r4, #1188
 563 009e 4FF48073 		mov	r3, #256
 564 00a2 C4F84835 		str	r3, [r4, #1352]
 126:SynaptiX_FDK/board/sx_board.c ****     dcd_fs_msp_init(0);
 565              		.loc 1 126 5 is_stmt 1 view .LVU106
 126:SynaptiX_FDK/board/sx_board.c ****     dcd_fs_msp_init(0);
 566              		.loc 1 126 31 is_stmt 0 view .LVU107
 567 00a6 C4F84C35 		str	r3, [r4, #1356]
 127:SynaptiX_FDK/board/sx_board.c ****     sx_usb_tiny_init(&board.usb, &board.usb_cfg);
 568              		.loc 1 127 5 is_stmt 1 view .LVU108
 569 00aa 3046     		mov	r0, r6
 570 00ac FFF7FEFF 		bl	dcd_fs_msp_init
 571              	.LVL34:
 128:SynaptiX_FDK/board/sx_board.c ****     log_info(TAG, "USB init done");
 572              		.loc 1 128 5 view .LVU109
 573 00b0 04F5A961 		add	r1, r4, #1352
 574 00b4 04F2F440 		addw	r0, r4, #1268
 575 00b8 FFF7FEFF 		bl	sx_usb_tiny_init
 576              	.LVL35:
 129:SynaptiX_FDK/board/sx_board.c **** 
 577              		.loc 1 129 5 view .LVU110
 578 00bc 5A4A     		ldr	r2, .L39+48
 579 00be 5349     		ldr	r1, .L39+20
 580 00c0 0320     		movs	r0, #3
 581 00c2 FFF7FEFF 		bl	log_func
 582              	.LVL36:
 131:SynaptiX_FDK/board/sx_board.c ****     uart_config[UART_LTE].baudrate = 115200;
 583              		.loc 1 131 5 view .LVU111
 131:SynaptiX_FDK/board/sx_board.c ****     uart_config[UART_LTE].baudrate = 115200;
 584              		.loc 1 131 35 is_stmt 0 view .LVU112
 585 00c6 594B     		ldr	r3, .L39+52
 586 00c8 2B60     		str	r3, [r5]
 132:SynaptiX_FDK/board/sx_board.c ****     uart_config[UART_LTE].bits = 8;
 587              		.loc 1 132 5 is_stmt 1 view .LVU113
 132:SynaptiX_FDK/board/sx_board.c ****     uart_config[UART_LTE].bits = 8;
 588              		.loc 1 132 36 is_stmt 0 view .LVU114
 589 00ca 4FF4E133 		mov	r3, #115200
 590 00ce 6B60     		str	r3, [r5, #4]
ARM GAS  C:\Users\LENOVO\AppData\Local\Temp\cc90TV8l.s 			page 17


 133:SynaptiX_FDK/board/sx_board.c ****     uart_config[UART_LTE].parity = 0;
 591              		.loc 1 133 5 is_stmt 1 view .LVU115
 133:SynaptiX_FDK/board/sx_board.c ****     uart_config[UART_LTE].parity = 0;
 592              		.loc 1 133 32 is_stmt 0 view .LVU116
 593 00d0 85F80890 		strb	r9, [r5, #8]
 134:SynaptiX_FDK/board/sx_board.c ****     uart_config[UART_LTE].stopbits = 1;
 594              		.loc 1 134 5 is_stmt 1 view .LVU117
 134:SynaptiX_FDK/board/sx_board.c ****     uart_config[UART_LTE].stopbits = 1;
 595              		.loc 1 134 34 is_stmt 0 view .LVU118
 596 00d4 6E72     		strb	r6, [r5, #9]
 135:SynaptiX_FDK/board/sx_board.c **** 
 597              		.loc 1 135 5 is_stmt 1 view .LVU119
 135:SynaptiX_FDK/board/sx_board.c **** 
 598              		.loc 1 135 36 is_stmt 0 view .LVU120
 599 00d6 85F80AB0 		strb	fp, [r5, #10]
 137:SynaptiX_FDK/board/sx_board.c ****     uart_config[UART_GPS].baudrate = 9600;
 600              		.loc 1 137 5 is_stmt 1 view .LVU121
 137:SynaptiX_FDK/board/sx_board.c ****     uart_config[UART_GPS].baudrate = 9600;
 601              		.loc 1 137 35 is_stmt 0 view .LVU122
 602 00da 554B     		ldr	r3, .L39+56
 603 00dc EB60     		str	r3, [r5, #12]
 138:SynaptiX_FDK/board/sx_board.c ****     uart_config[UART_GPS].bits = 8;
 604              		.loc 1 138 5 is_stmt 1 view .LVU123
 138:SynaptiX_FDK/board/sx_board.c ****     uart_config[UART_GPS].bits = 8;
 605              		.loc 1 138 36 is_stmt 0 view .LVU124
 606 00de 4FF41653 		mov	r3, #9600
 607 00e2 2B61     		str	r3, [r5, #16]
 139:SynaptiX_FDK/board/sx_board.c ****     uart_config[UART_GPS].parity = 0;
 608              		.loc 1 139 5 is_stmt 1 view .LVU125
 139:SynaptiX_FDK/board/sx_board.c ****     uart_config[UART_GPS].parity = 0;
 609              		.loc 1 139 32 is_stmt 0 view .LVU126
 610 00e4 85F81490 		strb	r9, [r5, #20]
 140:SynaptiX_FDK/board/sx_board.c ****     uart_config[UART_GPS].stopbits = 1;
 611              		.loc 1 140 5 is_stmt 1 view .LVU127
 140:SynaptiX_FDK/board/sx_board.c ****     uart_config[UART_GPS].stopbits = 1;
 612              		.loc 1 140 34 is_stmt 0 view .LVU128
 613 00e8 6E75     		strb	r6, [r5, #21]
 141:SynaptiX_FDK/board/sx_board.c **** 
 614              		.loc 1 141 5 is_stmt 1 view .LVU129
 141:SynaptiX_FDK/board/sx_board.c **** 
 615              		.loc 1 141 36 is_stmt 0 view .LVU130
 616 00ea 85F816B0 		strb	fp, [r5, #22]
 143:SynaptiX_FDK/board/sx_board.c ****     bsp_uart[UART_GPS] = &board.gps.comm;
 617              		.loc 1 143 5 is_stmt 1 view .LVU131
 143:SynaptiX_FDK/board/sx_board.c ****     bsp_uart[UART_GPS] = &board.gps.comm;
 618              		.loc 1 143 24 is_stmt 0 view .LVU132
 619 00ee 04F50179 		add	r9, r4, #516
 620 00f2 C8F80090 		str	r9, [r8]
 144:SynaptiX_FDK/board/sx_board.c **** 
 621              		.loc 1 144 5 is_stmt 1 view .LVU133
 144:SynaptiX_FDK/board/sx_board.c **** 
 622              		.loc 1 144 24 is_stmt 0 view .LVU134
 623 00f6 04F54273 		add	r3, r4, #776
 624 00fa C8F80430 		str	r3, [r8, #4]
 147:SynaptiX_FDK/board/sx_board.c ****     // RTC
 625              		.loc 1 147 5 is_stmt 1 view .LVU135
 626              	.LVL37:
ARM GAS  C:\Users\LENOVO\AppData\Local\Temp\cc90TV8l.s 			page 18


 627              	.LBB23:
 628              	.LBI23:
 629              		.file 3 "SynaptiX_FDK/components/i2c/sx_i2c.h"
   1:SynaptiX_FDK/components/i2c/sx_i2c.h **** #ifndef SX_I2C_H
   2:SynaptiX_FDK/components/i2c/sx_i2c.h **** #define SX_I2C_H
   3:SynaptiX_FDK/components/i2c/sx_i2c.h **** #ifdef __cplusplus
   4:SynaptiX_FDK/components/i2c/sx_i2c.h **** extern "C" {
   5:SynaptiX_FDK/components/i2c/sx_i2c.h **** #endif
   6:SynaptiX_FDK/components/i2c/sx_i2c.h **** 
   7:SynaptiX_FDK/components/i2c/sx_i2c.h **** #include <stdint.h>
   8:SynaptiX_FDK/components/i2c/sx_i2c.h **** 
   9:SynaptiX_FDK/components/i2c/sx_i2c.h **** typedef struct sx_i2c sx_i2c_t;
  10:SynaptiX_FDK/components/i2c/sx_i2c.h **** 
  11:SynaptiX_FDK/components/i2c/sx_i2c.h **** typedef struct sx_i2c_ops{
  12:SynaptiX_FDK/components/i2c/sx_i2c.h ****     int (*write)(sx_i2c_t *i2c, uint16_t dev_addr, const uint8_t *data, uint32_t len);
  13:SynaptiX_FDK/components/i2c/sx_i2c.h ****     int (*read)(sx_i2c_t *i2c, uint16_t dev_addr, uint8_t *data, uint32_t len);
  14:SynaptiX_FDK/components/i2c/sx_i2c.h ****     int (*mem_write)(sx_i2c_t *i2c, uint16_t dev_addr, uint16_t mem_addr, uint16_t mem_addr_size, c
  15:SynaptiX_FDK/components/i2c/sx_i2c.h ****     int (*mem_read)(sx_i2c_t *i2c, uint16_t dev_addr, uint16_t mem_addr, uint16_t mem_addr_size, ui
  16:SynaptiX_FDK/components/i2c/sx_i2c.h ****     int (*is_device_ready)(sx_i2c_t *i2c, uint16_t dev_addr, uint8_t num_trial, uint32_t timeout);
  17:SynaptiX_FDK/components/i2c/sx_i2c.h **** } sx_i2c_ops_t;
  18:SynaptiX_FDK/components/i2c/sx_i2c.h **** 
  19:SynaptiX_FDK/components/i2c/sx_i2c.h **** struct sx_i2c{
  20:SynaptiX_FDK/components/i2c/sx_i2c.h ****     sx_i2c_ops_t *ops;
  21:SynaptiX_FDK/components/i2c/sx_i2c.h ****     void *pDriver;
  22:SynaptiX_FDK/components/i2c/sx_i2c.h **** };
  23:SynaptiX_FDK/components/i2c/sx_i2c.h **** 
  24:SynaptiX_FDK/components/i2c/sx_i2c.h **** static inline void sx_i2c_init(sx_i2c_t *i2c, sx_i2c_ops_t *ops, void *pDriver){
 630              		.loc 3 24 20 view .LVU136
 631              	.LBB24:
  25:SynaptiX_FDK/components/i2c/sx_i2c.h ****     i2c->ops = ops;
 632              		.loc 3 25 5 view .LVU137
 633              		.loc 3 25 14 is_stmt 0 view .LVU138
 634 00fe 4D4B     		ldr	r3, .L39+60
 635 0100 C4F88835 		str	r3, [r4, #1416]
  26:SynaptiX_FDK/components/i2c/sx_i2c.h ****     i2c->pDriver = pDriver;
 636              		.loc 3 26 5 is_stmt 1 view .LVU139
 637              		.loc 3 26 18 is_stmt 0 view .LVU140
 638 0104 4C4B     		ldr	r3, .L39+64
 639 0106 C4F88C35 		str	r3, [r4, #1420]
 640              	.LVL38:
 641              		.loc 3 26 18 view .LVU141
 642              	.LBE24:
 643              	.LBE23:
 149:SynaptiX_FDK/board/sx_board.c ****     rx8130ce_init(&board.rtc,  &board.i2c1, &s_rtc_pwr);
 644              		.loc 1 149 5 is_stmt 1 view .LVU142
 645              	.LBB25:
 646              	.LBI25:
  33:SynaptiX_FDK/components/gpio/sx_gpio.h ****     gpio->ops = ops;
 647              		.loc 2 33 20 view .LVU143
 648              	.LBB26:
  34:SynaptiX_FDK/components/gpio/sx_gpio.h ****     gpio->pDriver = pDriver;
 649              		.loc 2 34 5 view .LVU144
  34:SynaptiX_FDK/components/gpio/sx_gpio.h ****     gpio->pDriver = pDriver;
 650              		.loc 2 34 15 is_stmt 0 view .LVU145
 651 010a 4C4A     		ldr	r2, .L39+68
 652 010c C2F800A0 		str	r10, [r2]
  35:SynaptiX_FDK/components/gpio/sx_gpio.h ****     gpio->value = SX_GPIO_LOW;
ARM GAS  C:\Users\LENOVO\AppData\Local\Temp\cc90TV8l.s 			page 19


 653              		.loc 2 35 5 is_stmt 1 view .LVU146
  35:SynaptiX_FDK/components/gpio/sx_gpio.h ****     gpio->value = SX_GPIO_LOW;
 654              		.loc 2 35 19 is_stmt 0 view .LVU147
 655 0110 4B4B     		ldr	r3, .L39+72
 656 0112 5360     		str	r3, [r2, #4]
  36:SynaptiX_FDK/components/gpio/sx_gpio.h **** }
 657              		.loc 2 36 5 is_stmt 1 view .LVU148
  36:SynaptiX_FDK/components/gpio/sx_gpio.h **** }
 658              		.loc 2 36 17 is_stmt 0 view .LVU149
 659 0114 1672     		strb	r6, [r2, #8]
 660              	.LVL39:
  36:SynaptiX_FDK/components/gpio/sx_gpio.h **** }
 661              		.loc 2 36 17 view .LVU150
 662              	.LBE26:
 663              	.LBE25:
 150:SynaptiX_FDK/board/sx_board.c ****     // IMU
 664              		.loc 1 150 5 is_stmt 1 view .LVU151
 665 0116 04F5B161 		add	r1, r4, #1416
 666 011a 04F5B260 		add	r0, r4, #1424
 667 011e FFF7FEFF 		bl	rx8130ce_init
 668              	.LVL40:
 152:SynaptiX_FDK/board/sx_board.c ****     sx_gpio_init(&s_imu_reset, &sx_gpio_ops, &s_imu_reset_pin);
 669              		.loc 1 152 5 view .LVU152
 670              	.LBB27:
 671              	.LBI27:
  33:SynaptiX_FDK/components/gpio/sx_gpio.h ****     gpio->ops = ops;
 672              		.loc 2 33 20 view .LVU153
 673              	.LBB28:
  34:SynaptiX_FDK/components/gpio/sx_gpio.h ****     gpio->pDriver = pDriver;
 674              		.loc 2 34 5 view .LVU154
  34:SynaptiX_FDK/components/gpio/sx_gpio.h ****     gpio->pDriver = pDriver;
 675              		.loc 2 34 15 is_stmt 0 view .LVU155
 676 0122 484F     		ldr	r7, .L39+76
 677 0124 C7F800A0 		str	r10, [r7]
  35:SynaptiX_FDK/components/gpio/sx_gpio.h ****     gpio->value = SX_GPIO_LOW;
 678              		.loc 2 35 5 is_stmt 1 view .LVU156
  35:SynaptiX_FDK/components/gpio/sx_gpio.h ****     gpio->value = SX_GPIO_LOW;
 679              		.loc 2 35 19 is_stmt 0 view .LVU157
 680 0128 474B     		ldr	r3, .L39+80
 681 012a 7B60     		str	r3, [r7, #4]
  36:SynaptiX_FDK/components/gpio/sx_gpio.h **** }
 682              		.loc 2 36 5 is_stmt 1 view .LVU158
  36:SynaptiX_FDK/components/gpio/sx_gpio.h **** }
 683              		.loc 2 36 17 is_stmt 0 view .LVU159
 684 012c 3E72     		strb	r6, [r7, #8]
 685              	.LVL41:
  36:SynaptiX_FDK/components/gpio/sx_gpio.h **** }
 686              		.loc 2 36 17 view .LVU160
 687              	.LBE28:
 688              	.LBE27:
 153:SynaptiX_FDK/board/sx_board.c ****     // Initialize LTE
 689              		.loc 1 153 5 is_stmt 1 view .LVU161
 690              	.LBB29:
 691              	.LBI29:
  33:SynaptiX_FDK/components/gpio/sx_gpio.h ****     gpio->ops = ops;
 692              		.loc 2 33 20 view .LVU162
 693              	.LBB30:
ARM GAS  C:\Users\LENOVO\AppData\Local\Temp\cc90TV8l.s 			page 20


  34:SynaptiX_FDK/components/gpio/sx_gpio.h ****     gpio->pDriver = pDriver;
 694              		.loc 2 34 5 view .LVU163
  34:SynaptiX_FDK/components/gpio/sx_gpio.h ****     gpio->pDriver = pDriver;
 695              		.loc 2 34 15 is_stmt 0 view .LVU164
 696 012e DFF83881 		ldr	r8, .L39+112
 697 0132 C8F800A0 		str	r10, [r8]
  35:SynaptiX_FDK/components/gpio/sx_gpio.h ****     gpio->value = SX_GPIO_LOW;
 698              		.loc 2 35 5 is_stmt 1 view .LVU165
  35:SynaptiX_FDK/components/gpio/sx_gpio.h ****     gpio->value = SX_GPIO_LOW;
 699              		.loc 2 35 19 is_stmt 0 view .LVU166
 700 0136 454B     		ldr	r3, .L39+84
 701 0138 C8F80430 		str	r3, [r8, #4]
  36:SynaptiX_FDK/components/gpio/sx_gpio.h **** }
 702              		.loc 2 36 5 is_stmt 1 view .LVU167
  36:SynaptiX_FDK/components/gpio/sx_gpio.h **** }
 703              		.loc 2 36 17 is_stmt 0 view .LVU168
 704 013c 88F80860 		strb	r6, [r8, #8]
 705              	.LVL42:
  36:SynaptiX_FDK/components/gpio/sx_gpio.h **** }
 706              		.loc 2 36 17 view .LVU169
 707              	.LBE30:
 708              	.LBE29:
 155:SynaptiX_FDK/board/sx_board.c ****     sx_gpio_init(&board.sim76xx.base.pwrPin, &sx_gpio_ops, &s_lte_pwrkey_pin);
 709              		.loc 1 155 5 is_stmt 1 view .LVU170
 710              	.LBB31:
 711              	.LBI31:
  33:SynaptiX_FDK/components/gpio/sx_gpio.h ****     gpio->ops = ops;
 712              		.loc 2 33 20 view .LVU171
 713              	.LBB32:
  34:SynaptiX_FDK/components/gpio/sx_gpio.h ****     gpio->pDriver = pDriver;
 714              		.loc 2 34 5 view .LVU172
  34:SynaptiX_FDK/components/gpio/sx_gpio.h ****     gpio->pDriver = pDriver;
 715              		.loc 2 34 15 is_stmt 0 view .LVU173
 716 0140 C4F848A2 		str	r10, [r4, #584]
  35:SynaptiX_FDK/components/gpio/sx_gpio.h ****     gpio->value = SX_GPIO_LOW;
 717              		.loc 2 35 5 is_stmt 1 view .LVU174
  35:SynaptiX_FDK/components/gpio/sx_gpio.h ****     gpio->value = SX_GPIO_LOW;
 718              		.loc 2 35 19 is_stmt 0 view .LVU175
 719 0144 424B     		ldr	r3, .L39+88
 720 0146 C4F84C32 		str	r3, [r4, #588]
  36:SynaptiX_FDK/components/gpio/sx_gpio.h **** }
 721              		.loc 2 36 5 is_stmt 1 view .LVU176
  36:SynaptiX_FDK/components/gpio/sx_gpio.h **** }
 722              		.loc 2 36 17 is_stmt 0 view .LVU177
 723 014a 84F85062 		strb	r6, [r4, #592]
 724              	.LVL43:
  36:SynaptiX_FDK/components/gpio/sx_gpio.h **** }
 725              		.loc 2 36 17 view .LVU178
 726              	.LBE32:
 727              	.LBE31:
 156:SynaptiX_FDK/board/sx_board.c ****     sx_uart_init(&board.sim76xx.base.uart, &uart_config[UART_LTE], 512, 512);
 728              		.loc 1 156 5 is_stmt 1 view .LVU179
 729              	.LBB33:
 730              	.LBI33:
  33:SynaptiX_FDK/components/gpio/sx_gpio.h ****     gpio->ops = ops;
 731              		.loc 2 33 20 view .LVU180
 732              	.LBB34:
ARM GAS  C:\Users\LENOVO\AppData\Local\Temp\cc90TV8l.s 			page 21


  34:SynaptiX_FDK/components/gpio/sx_gpio.h ****     gpio->pDriver = pDriver;
 733              		.loc 2 34 5 view .LVU181
  34:SynaptiX_FDK/components/gpio/sx_gpio.h ****     gpio->pDriver = pDriver;
 734              		.loc 2 34 15 is_stmt 0 view .LVU182
 735 014e C4F854A2 		str	r10, [r4, #596]
  35:SynaptiX_FDK/components/gpio/sx_gpio.h ****     gpio->value = SX_GPIO_LOW;
 736              		.loc 2 35 5 is_stmt 1 view .LVU183
  35:SynaptiX_FDK/components/gpio/sx_gpio.h ****     gpio->value = SX_GPIO_LOW;
 737              		.loc 2 35 19 is_stmt 0 view .LVU184
 738 0152 404B     		ldr	r3, .L39+92
 739 0154 C4F85832 		str	r3, [r4, #600]
  36:SynaptiX_FDK/components/gpio/sx_gpio.h **** }
 740              		.loc 2 36 5 is_stmt 1 view .LVU185
  36:SynaptiX_FDK/components/gpio/sx_gpio.h **** }
 741              		.loc 2 36 17 is_stmt 0 view .LVU186
 742 0158 84F85C62 		strb	r6, [r4, #604]
 743              	.LVL44:
  36:SynaptiX_FDK/components/gpio/sx_gpio.h **** }
 744              		.loc 2 36 17 view .LVU187
 745              	.LBE34:
 746              	.LBE33:
 157:SynaptiX_FDK/board/sx_board.c ****     sim76xx_init(&board.sim76xx);
 747              		.loc 1 157 5 is_stmt 1 view .LVU188
 748 015c 4FF40073 		mov	r3, #512
 749 0160 1A46     		mov	r2, r3
 750 0162 2946     		mov	r1, r5
 751 0164 4846     		mov	r0, r9
 752 0166 FFF7FEFF 		bl	sx_uart_init
 753              	.LVL45:
 158:SynaptiX_FDK/board/sx_board.c ****     HAL_UART_Receive_IT(hal_uart[UART_LTE], &uart_rx_char[UART_LTE], 1);
 754              		.loc 1 158 5 view .LVU189
 755 016a 2046     		mov	r0, r4
 756 016c FFF7FEFF 		bl	sim76xx_init
 757              	.LVL46:
 159:SynaptiX_FDK/board/sx_board.c ****     sim76xx_power_on(&board.sim76xx);
 758              		.loc 1 159 5 view .LVU190
 759 0170 DFF8F890 		ldr	r9, .L39+116
 760 0174 5A46     		mov	r2, fp
 761 0176 4946     		mov	r1, r9
 762 0178 2C48     		ldr	r0, .L39+52
 763 017a FFF7FEFF 		bl	HAL_UART_Receive_IT
 764              	.LVL47:
 160:SynaptiX_FDK/board/sx_board.c ****     gps_init(&board.gps, &uart_config[UART_GPS], &sx_gpio_ops, &s_gps_power_pin, NULL);
 765              		.loc 1 160 5 view .LVU191
 766 017e 2046     		mov	r0, r4
 767 0180 FFF7FEFF 		bl	sim76xx_power_on
 768              	.LVL48:
 161:SynaptiX_FDK/board/sx_board.c ****     HAL_UART_Receive_IT(hal_uart[UART_GPS], &uart_rx_char[UART_GPS], 1);
 769              		.loc 1 161 5 view .LVU192
 770 0184 0096     		str	r6, [sp]
 771 0186 344B     		ldr	r3, .L39+96
 772 0188 5246     		mov	r2, r10
 773 018a 05F10C01 		add	r1, r5, #12
 774 018e 04F54270 		add	r0, r4, #776
 775 0192 FFF7FEFF 		bl	gps_init
 776              	.LVL49:
 162:SynaptiX_FDK/board/sx_board.c ****     gps_it_handle();
ARM GAS  C:\Users\LENOVO\AppData\Local\Temp\cc90TV8l.s 			page 22


 777              		.loc 1 162 5 view .LVU193
 778 0196 5A46     		mov	r2, fp
 779 0198 09EB0B01 		add	r1, r9, fp
 780 019c 2448     		ldr	r0, .L39+56
 781 019e FFF7FEFF 		bl	HAL_UART_Receive_IT
 782              	.LVL50:
 163:SynaptiX_FDK/board/sx_board.c ****     sim_it_handle();
 783              		.loc 1 163 5 view .LVU194
 784 01a2 FFF7FEFF 		bl	gps_it_handle
 785              	.LVL51:
 164:SynaptiX_FDK/board/sx_board.c ****     sim76xx_start(&board.sim76xx);
 786              		.loc 1 164 5 view .LVU195
 787 01a6 FFF7FEFF 		bl	sim_it_handle
 788              	.LVL52:
 165:SynaptiX_FDK/board/sx_board.c ****     // Initialize GPS
 789              		.loc 1 165 5 view .LVU196
 790 01aa 2046     		mov	r0, r4
 791 01ac FFF7FEFF 		bl	sim76xx_start
 792              	.LVL53:
 167:SynaptiX_FDK/board/sx_board.c ****     bno055_power_on(&board.imu);
 793              		.loc 1 167 5 view .LVU197
 794 01b0 FFF7FEFF 		bl	spi_storage_init
 795              	.LVL54:
 168:SynaptiX_FDK/board/sx_board.c ****     sx_gpio_write(&s_imu_en, SX_GPIO_LOW);
 796              		.loc 1 168 5 view .LVU198
 797 01b4 04F2A455 		addw	r5, r4, #1444
 798 01b8 2846     		mov	r0, r5
 799 01ba FFF7FEFF 		bl	bno055_power_on
 800              	.LVL55:
 169:SynaptiX_FDK/board/sx_board.c ****     bno055_init(&board.imu, &board.i2c1, BNO055_I2C_ADDR_DEFAULT, &s_imu_en, &s_imu_reset);
 801              		.loc 1 169 5 view .LVU199
 802 01be 3146     		mov	r1, r6
 803 01c0 3846     		mov	r0, r7
 804 01c2 FFF7FEFF 		bl	sx_gpio_write
 805              	.LVL56:
 170:SynaptiX_FDK/board/sx_board.c **** 
 806              		.loc 1 170 5 view .LVU200
 807 01c6 CDF80080 		str	r8, [sp]
 808 01ca 3B46     		mov	r3, r7
 809 01cc 5222     		movs	r2, #82
 810 01ce 04F5B161 		add	r1, r4, #1416
 811 01d2 2846     		mov	r0, r5
 812 01d4 FFF7FEFF 		bl	bno055_init
 813              	.LVL57:
 172:SynaptiX_FDK/board/sx_board.c ****     HAL_ADC_Start(hal_adc);
 814              		.loc 1 172 5 view .LVU201
 815 01d8 204D     		ldr	r5, .L39+100
 816 01da 7F21     		movs	r1, #127
 817 01dc 2846     		mov	r0, r5
 818 01de FFF7FEFF 		bl	HAL_ADCEx_Calibration_Start
 819              	.LVL58:
 173:SynaptiX_FDK/board/sx_board.c ****     sx_adc_reader_init(&board.s_adc_reader);
 820              		.loc 1 173 5 view .LVU202
 821 01e2 2846     		mov	r0, r5
 822 01e4 FFF7FEFF 		bl	HAL_ADC_Start
 823              	.LVL59:
 174:SynaptiX_FDK/board/sx_board.c **** }
ARM GAS  C:\Users\LENOVO\AppData\Local\Temp\cc90TV8l.s 			page 23


 824              		.loc 1 174 5 view .LVU203
 825 01e8 04F5B760 		add	r0, r4, #1464
 826 01ec FFF7FEFF 		bl	sx_adc_reader_init
 827              	.LVL60:
 175:SynaptiX_FDK/board/sx_board.c **** 
 828              		.loc 1 175 1 is_stmt 0 view .LVU204
 829 01f0 03B0     		add	sp, sp, #12
 830              	.LCFI11:
 831              		.cfi_def_cfa_offset 36
 832              		@ sp needed
 833 01f2 BDE8F08F 		pop	{r4, r5, r6, r7, r8, r9, r10, fp, pc}
 834              	.L40:
 835 01f6 00BF     		.align	2
 836              	.L39:
 837 01f8 00000000 		.word	uart_config.0
 838 01fc 00000000 		.word	huart3
 839 0200 A4040000 		.word	board+1188
 840 0204 00000000 		.word	log_print
 841 0208 00000000 		.word	.LC3
 842 020c 18000000 		.word	.LC1
 843 0210 00000000 		.word	s_charge
 844 0214 00000000 		.word	s_charge_pin
 845 0218 00000000 		.word	s_dis_charge
 846 021c 00000000 		.word	s_dis_charge_pin
 847 0220 14000000 		.word	.LC4
 848 0224 1C000000 		.word	.LC5
 849 0228 30000000 		.word	.LC6
 850 022c 00000000 		.word	huart1
 851 0230 00000000 		.word	huart2
 852 0234 00000000 		.word	sx_i2c_ops
 853 0238 00000000 		.word	hi2c1
 854 023c 00000000 		.word	s_rtc_pwr
 855 0240 00000000 		.word	s_rtc_pwr_pin
 856 0244 00000000 		.word	s_imu_en
 857 0248 00000000 		.word	s_imu_en_pin
 858 024c 00000000 		.word	s_imu_reset_pin
 859 0250 00000000 		.word	s_lte_power_pin
 860 0254 00000000 		.word	s_lte_pwrkey_pin
 861 0258 00000000 		.word	s_gps_power_pin
 862 025c 00000000 		.word	hadc1
 863 0260 00000000 		.word	bsp_uart
 864 0264 00000000 		.word	sx_gpio_ops
 865 0268 00000000 		.word	s_imu_reset
 866 026c 00000000 		.word	uart_rx_char
 867              		.cfi_endproc
 868              	.LFE647:
 870              		.section	.text.board_gps_uart_resume_it,"ax",%progbits
 871              		.align	1
 872              		.global	board_gps_uart_resume_it
 873              		.syntax unified
 874              		.thumb
 875              		.thumb_func
 877              	board_gps_uart_resume_it:
 878              	.LFB652:
 192:SynaptiX_FDK/board/sx_board.c **** 
 193:SynaptiX_FDK/board/sx_board.c **** void board_gps_uart_resume_it(void){
 879              		.loc 1 193 36 is_stmt 1 view -0
ARM GAS  C:\Users\LENOVO\AppData\Local\Temp\cc90TV8l.s 			page 24


 880              		.cfi_startproc
 881              		@ args = 0, pretend = 0, frame = 0
 882              		@ frame_needed = 0, uses_anonymous_args = 0
 883 0000 08B5     		push	{r3, lr}
 884              	.LCFI12:
 885              		.cfi_def_cfa_offset 8
 886              		.cfi_offset 3, -8
 887              		.cfi_offset 14, -4
 194:SynaptiX_FDK/board/sx_board.c ****     sx_gps_uart_abort();
 888              		.loc 1 194 5 view .LVU206
 889 0002 FFF7FEFF 		bl	sx_gps_uart_abort
 890              	.LVL61:
 195:SynaptiX_FDK/board/sx_board.c ****     gps_it_handle();
 891              		.loc 1 195 5 view .LVU207
 892 0006 FFF7FEFF 		bl	gps_it_handle
 893              	.LVL62:
 196:SynaptiX_FDK/board/sx_board.c **** }
 894              		.loc 1 196 1 is_stmt 0 view .LVU208
 895 000a 08BD     		pop	{r3, pc}
 896              		.cfi_endproc
 897              	.LFE652:
 899              		.section	.text.board_sim_uart_resume_it,"ax",%progbits
 900              		.align	1
 901              		.global	board_sim_uart_resume_it
 902              		.syntax unified
 903              		.thumb
 904              		.thumb_func
 906              	board_sim_uart_resume_it:
 907              	.LFB653:
 197:SynaptiX_FDK/board/sx_board.c **** 
 198:SynaptiX_FDK/board/sx_board.c **** void board_sim_uart_resume_it(void){
 908              		.loc 1 198 36 is_stmt 1 view -0
 909              		.cfi_startproc
 910              		@ args = 0, pretend = 0, frame = 0
 911              		@ frame_needed = 0, uses_anonymous_args = 0
 912 0000 08B5     		push	{r3, lr}
 913              	.LCFI13:
 914              		.cfi_def_cfa_offset 8
 915              		.cfi_offset 3, -8
 916              		.cfi_offset 14, -4
 199:SynaptiX_FDK/board/sx_board.c ****     sx_sim76_uart_abort();
 917              		.loc 1 199 5 view .LVU210
 918 0002 FFF7FEFF 		bl	sx_sim76_uart_abort
 919              	.LVL63:
 200:SynaptiX_FDK/board/sx_board.c ****     sim_it_handle();
 920              		.loc 1 200 5 view .LVU211
 921 0006 FFF7FEFF 		bl	sim_it_handle
 922              	.LVL64:
 201:SynaptiX_FDK/board/sx_board.c **** }
 923              		.loc 1 201 1 is_stmt 0 view .LVU212
 924 000a 08BD     		pop	{r3, pc}
 925              		.cfi_endproc
 926              	.LFE653:
 928              		.section	.text.sx_board_uart_resume_it,"ax",%progbits
 929              		.align	1
 930              		.global	sx_board_uart_resume_it
 931              		.syntax unified
ARM GAS  C:\Users\LENOVO\AppData\Local\Temp\cc90TV8l.s 			page 25


 932              		.thumb
 933              		.thumb_func
 935              	sx_board_uart_resume_it:
 936              	.LFB654:
 202:SynaptiX_FDK/board/sx_board.c **** void sx_board_uart_resume_it(void) {
 937              		.loc 1 202 36 is_stmt 1 view -0
 938              		.cfi_startproc
 939              		@ args = 0, pretend = 0, frame = 0
 940              		@ frame_needed = 0, uses_anonymous_args = 0
 941 0000 08B5     		push	{r3, lr}
 942              	.LCFI14:
 943              		.cfi_def_cfa_offset 8
 944              		.cfi_offset 3, -8
 945              		.cfi_offset 14, -4
 203:SynaptiX_FDK/board/sx_board.c ****     // sx_sim76_uart_abort();
 204:SynaptiX_FDK/board/sx_board.c ****     // sx_gps_uart_abort();
 205:SynaptiX_FDK/board/sx_board.c ****     // HAL_UART_Receive_IT(hal_uart[UART_LTE], &uart_rx_char[UART_LTE], 1);
 206:SynaptiX_FDK/board/sx_board.c ****     // HAL_UART_Receive_IT(hal_uart[UART_GPS], &uart_rx_char[UART_GPS], 1);
 207:SynaptiX_FDK/board/sx_board.c ****     board_gps_uart_resume_it();
 946              		.loc 1 207 5 view .LVU214
 947 0002 FFF7FEFF 		bl	board_gps_uart_resume_it
 948              	.LVL65:
 208:SynaptiX_FDK/board/sx_board.c ****     board_sim_uart_resume_it();
 949              		.loc 1 208 5 view .LVU215
 950 0006 FFF7FEFF 		bl	board_sim_uart_resume_it
 951              	.LVL66:
 209:SynaptiX_FDK/board/sx_board.c **** }
 952              		.loc 1 209 1 is_stmt 0 view .LVU216
 953 000a 08BD     		pop	{r3, pc}
 954              		.cfi_endproc
 955              	.LFE654:
 957              		.section	.text.read_vol_pin,"ax",%progbits
 958              		.align	1
 959              		.global	read_vol_pin
 960              		.syntax unified
 961              		.thumb
 962              		.thumb_func
 964              	read_vol_pin:
 965              	.LVL67:
 966              	.LFB656:
 210:SynaptiX_FDK/board/sx_board.c **** 
 211:SynaptiX_FDK/board/sx_board.c **** static void set_enter_sleep_mode(void) {
 212:SynaptiX_FDK/board/sx_board.c ****     sx_gpio_write(&s_dis_charge, SX_GPIO_HIGH); 
 213:SynaptiX_FDK/board/sx_board.c ****     sx_gpio_write(&s_charge, SX_GPIO_LOW);
 214:SynaptiX_FDK/board/sx_board.c ****     log_info(TAG, "Enter sleep POWER");
 215:SynaptiX_FDK/board/sx_board.c **** }
 216:SynaptiX_FDK/board/sx_board.c **** 
 217:SynaptiX_FDK/board/sx_board.c **** // static void set_enter_full_mode(void) {
 218:SynaptiX_FDK/board/sx_board.c **** //     sx_gpio_write(&s_charge, SX_GPIO_HIGH);
 219:SynaptiX_FDK/board/sx_board.c **** //     sx_gpio_write(&s_dis_charge, SX_GPIO_HIGH);
 220:SynaptiX_FDK/board/sx_board.c **** //     log_info(TAG, "Enter full POWER");
 221:SynaptiX_FDK/board/sx_board.c **** // }
 222:SynaptiX_FDK/board/sx_board.c **** 
 223:SynaptiX_FDK/board/sx_board.c **** void read_vol_pin(uint32_t time_stamp) {
 967              		.loc 1 223 40 is_stmt 1 view -0
 968              		.cfi_startproc
 969              		@ args = 0, pretend = 0, frame = 0
ARM GAS  C:\Users\LENOVO\AppData\Local\Temp\cc90TV8l.s 			page 26


 970              		@ frame_needed = 0, uses_anonymous_args = 0
 971              		.loc 1 223 40 is_stmt 0 view .LVU218
 972 0000 10B5     		push	{r4, lr}
 973              	.LCFI15:
 974              		.cfi_def_cfa_offset 8
 975              		.cfi_offset 4, -8
 976              		.cfi_offset 14, -4
 977 0002 0246     		mov	r2, r0
 224:SynaptiX_FDK/board/sx_board.c ****     sx_adc_reader_process(&board.s_adc_reader, hal_adc, time_stamp);
 978              		.loc 1 224 5 is_stmt 1 view .LVU219
 979 0004 044C     		ldr	r4, .L49
 980 0006 0549     		ldr	r1, .L49+4
 981 0008 2046     		mov	r0, r4
 982              	.LVL68:
 983              		.loc 1 224 5 is_stmt 0 view .LVU220
 984 000a FFF7FEFF 		bl	sx_adc_reader_process
 985              	.LVL69:
 225:SynaptiX_FDK/board/sx_board.c ****     board.voltage.v_bat = board.s_adc_reader.v_bat_filtered;
 986              		.loc 1 225 5 is_stmt 1 view .LVU221
 987              		.loc 1 225 45 is_stmt 0 view .LVU222
 988 000e E369     		ldr	r3, [r4, #28]	@ float
 989              		.loc 1 225 25 view .LVU223
 990 0010 44F8C83C 		str	r3, [r4, #-200]	@ float
 226:SynaptiX_FDK/board/sx_board.c **** }
 991              		.loc 1 226 1 view .LVU224
 992 0014 10BD     		pop	{r4, pc}
 993              	.L50:
 994 0016 00BF     		.align	2
 995              	.L49:
 996 0018 B8050000 		.word	board+1464
 997 001c 00000000 		.word	hadc1
 998              		.cfi_endproc
 999              	.LFE656:
 1001              		.section	.rodata.tud_mount_cb.str1.4,"aMS",%progbits,1
 1002              		.align	2
 1003              	.LC7:
 1004 0000 55534220 		.ascii	"USB tiny connected\000"
 1004      74696E79 
 1004      20636F6E 
 1004      6E656374 
 1004      656400
 1005              		.section	.text.tud_mount_cb,"ax",%progbits
 1006              		.align	1
 1007              		.global	tud_mount_cb
 1008              		.syntax unified
 1009              		.thumb
 1010              		.thumb_func
 1012              	tud_mount_cb:
 1013              	.LFB657:
 227:SynaptiX_FDK/board/sx_board.c **** 
 228:SynaptiX_FDK/board/sx_board.c **** /* USB IT CB    */
 229:SynaptiX_FDK/board/sx_board.c **** void tud_mount_cb(void) {
 1014              		.loc 1 229 25 is_stmt 1 view -0
 1015              		.cfi_startproc
 1016              		@ args = 0, pretend = 0, frame = 0
 1017              		@ frame_needed = 0, uses_anonymous_args = 0
 1018 0000 08B5     		push	{r3, lr}
ARM GAS  C:\Users\LENOVO\AppData\Local\Temp\cc90TV8l.s 			page 27


 1019              	.LCFI16:
 1020              		.cfi_def_cfa_offset 8
 1021              		.cfi_offset 3, -8
 1022              		.cfi_offset 14, -4
 230:SynaptiX_FDK/board/sx_board.c ****     log_info(TAG, "USB tiny connected");
 1023              		.loc 1 230 5 view .LVU226
 1024 0002 034A     		ldr	r2, .L53
 1025 0004 0349     		ldr	r1, .L53+4
 1026 0006 0320     		movs	r0, #3
 1027 0008 FFF7FEFF 		bl	log_func
 1028              	.LVL70:
 231:SynaptiX_FDK/board/sx_board.c ****     
 232:SynaptiX_FDK/board/sx_board.c ****     //app_sync_gps_log_to_disk();
 233:SynaptiX_FDK/board/sx_board.c ****     // set_enter_full_mode();
 234:SynaptiX_FDK/board/sx_board.c ****     //app_mode = APP_MODE_FULL_POWER;
 235:SynaptiX_FDK/board/sx_board.c ****     //app_notify_usb_connected();
 236:SynaptiX_FDK/board/sx_board.c **** }
 1029              		.loc 1 236 1 is_stmt 0 view .LVU227
 1030 000c 08BD     		pop	{r3, pc}
 1031              	.L54:
 1032 000e 00BF     		.align	2
 1033              	.L53:
 1034 0010 00000000 		.word	.LC7
 1035 0014 18000000 		.word	.LC1
 1036              		.cfi_endproc
 1037              	.LFE657:
 1039              		.section	.rodata.tud_umount_cb.str1.4,"aMS",%progbits,1
 1040              		.align	2
 1041              	.LC8:
 1042 0000 55534220 		.ascii	"USB discharge\000"
 1042      64697363 
 1042      68617267 
 1042      6500
 1043 000e 0000     		.align	2
 1044              	.LC9:
 1045 0010 55534220 		.ascii	"USB tiny disconnected\000"
 1045      74696E79 
 1045      20646973 
 1045      636F6E6E 
 1045      65637465 
 1046              		.section	.text.tud_umount_cb,"ax",%progbits
 1047              		.align	1
 1048              		.global	tud_umount_cb
 1049              		.syntax unified
 1050              		.thumb
 1051              		.thumb_func
 1053              	tud_umount_cb:
 1054              	.LFB658:
 237:SynaptiX_FDK/board/sx_board.c **** 
 238:SynaptiX_FDK/board/sx_board.c **** void tud_umount_cb(void) {
 1055              		.loc 1 238 26 is_stmt 1 view -0
 1056              		.cfi_startproc
 1057              		@ args = 0, pretend = 0, frame = 0
 1058              		@ frame_needed = 0, uses_anonymous_args = 0
 1059 0000 10B5     		push	{r4, lr}
 1060              	.LCFI17:
 1061              		.cfi_def_cfa_offset 8
ARM GAS  C:\Users\LENOVO\AppData\Local\Temp\cc90TV8l.s 			page 28


 1062              		.cfi_offset 4, -8
 1063              		.cfi_offset 14, -4
 239:SynaptiX_FDK/board/sx_board.c ****     //(void)remote_wakeup_en;
 240:SynaptiX_FDK/board/sx_board.c ****     sx_gpio_write(&s_charge, SX_GPIO_LOW);
 1064              		.loc 1 240 5 view .LVU229
 1065 0002 0021     		movs	r1, #0
 1066 0004 0A48     		ldr	r0, .L57
 1067 0006 FFF7FEFF 		bl	sx_gpio_write
 1068              	.LVL71:
 241:SynaptiX_FDK/board/sx_board.c ****     sx_gpio_write(&s_dis_charge, SX_GPIO_HIGH);
 1069              		.loc 1 241 5 view .LVU230
 1070 000a 0121     		movs	r1, #1
 1071 000c 0948     		ldr	r0, .L57+4
 1072 000e FFF7FEFF 		bl	sx_gpio_write
 1073              	.LVL72:
 242:SynaptiX_FDK/board/sx_board.c ****     log_info(TAG,"USB discharge");
 1074              		.loc 1 242 5 view .LVU231
 1075 0012 094C     		ldr	r4, .L57+8
 1076 0014 094A     		ldr	r2, .L57+12
 1077 0016 2146     		mov	r1, r4
 1078 0018 0320     		movs	r0, #3
 1079 001a FFF7FEFF 		bl	log_func
 1080              	.LVL73:
 243:SynaptiX_FDK/board/sx_board.c ****     app_request_sleep();
 1081              		.loc 1 243 5 view .LVU232
 1082 001e FFF7FEFF 		bl	app_request_sleep
 1083              	.LVL74:
 244:SynaptiX_FDK/board/sx_board.c ****     log_info(TAG, "USB tiny disconnected");
 1084              		.loc 1 244 5 view .LVU233
 1085 0022 074A     		ldr	r2, .L57+16
 1086 0024 2146     		mov	r1, r4
 1087 0026 0320     		movs	r0, #3
 1088 0028 FFF7FEFF 		bl	log_func
 1089              	.LVL75:
 245:SynaptiX_FDK/board/sx_board.c ****     // set_enter_sleep_mode();
 246:SynaptiX_FDK/board/sx_board.c ****     // app_request_sleep();
 247:SynaptiX_FDK/board/sx_board.c ****     
 248:SynaptiX_FDK/board/sx_board.c **** }
 1090              		.loc 1 248 1 is_stmt 0 view .LVU234
 1091 002c 10BD     		pop	{r4, pc}
 1092              	.L58:
 1093 002e 00BF     		.align	2
 1094              	.L57:
 1095 0030 00000000 		.word	s_charge
 1096 0034 00000000 		.word	s_dis_charge
 1097 0038 18000000 		.word	.LC1
 1098 003c 00000000 		.word	.LC8
 1099 0040 10000000 		.word	.LC9
 1100              		.cfi_endproc
 1101              	.LFE658:
 1103              		.section	.text.tud_suspend_cb,"ax",%progbits
 1104              		.align	1
 1105              		.global	tud_suspend_cb
 1106              		.syntax unified
 1107              		.thumb
 1108              		.thumb_func
 1110              	tud_suspend_cb:
ARM GAS  C:\Users\LENOVO\AppData\Local\Temp\cc90TV8l.s 			page 29


 1111              	.LVL76:
 1112              	.LFB659:
 249:SynaptiX_FDK/board/sx_board.c **** 
 250:SynaptiX_FDK/board/sx_board.c **** void tud_suspend_cb(bool remote_wakeup_en) {
 1113              		.loc 1 250 44 is_stmt 1 view -0
 1114              		.cfi_startproc
 1115              		@ args = 0, pretend = 0, frame = 0
 1116              		@ frame_needed = 0, uses_anonymous_args = 0
 1117              		.loc 1 250 44 is_stmt 0 view .LVU236
 1118 0000 08B5     		push	{r3, lr}
 1119              	.LCFI18:
 1120              		.cfi_def_cfa_offset 8
 1121              		.cfi_offset 3, -8
 1122              		.cfi_offset 14, -4
 251:SynaptiX_FDK/board/sx_board.c ****     sx_gpio_write(&s_dis_charge, SX_GPIO_HIGH);
 1123              		.loc 1 251 5 is_stmt 1 view .LVU237
 1124 0002 0121     		movs	r1, #1
 1125 0004 0348     		ldr	r0, .L61
 1126              	.LVL77:
 1127              		.loc 1 251 5 is_stmt 0 view .LVU238
 1128 0006 FFF7FEFF 		bl	sx_gpio_write
 1129              	.LVL78:
 252:SynaptiX_FDK/board/sx_board.c ****     // (void)remote_wakeup_en;
 253:SynaptiX_FDK/board/sx_board.c ****     sx_gpio_write(&s_charge, SX_GPIO_LOW);
 1130              		.loc 1 253 5 is_stmt 1 view .LVU239
 1131 000a 0021     		movs	r1, #0
 1132 000c 0248     		ldr	r0, .L61+4
 1133 000e FFF7FEFF 		bl	sx_gpio_write
 1134              	.LVL79:
 254:SynaptiX_FDK/board/sx_board.c ****     // log_info(TAG,"USB discharge");
 255:SynaptiX_FDK/board/sx_board.c ****     // app_request_sleep();
 256:SynaptiX_FDK/board/sx_board.c ****     // log_info(TAG, "USB tiny suspended"); 
 257:SynaptiX_FDK/board/sx_board.c **** }
 1135              		.loc 1 257 1 is_stmt 0 view .LVU240
 1136 0012 08BD     		pop	{r3, pc}
 1137              	.L62:
 1138              		.align	2
 1139              	.L61:
 1140 0014 00000000 		.word	s_dis_charge
 1141 0018 00000000 		.word	s_charge
 1142              		.cfi_endproc
 1143              	.LFE659:
 1145              		.section	.rodata.tud_resume_cb.str1.4,"aMS",%progbits,1
 1146              		.align	2
 1147              	.LC10:
 1148 0000 55534220 		.ascii	"USB tiny resumed\000"
 1148      74696E79 
 1148      20726573 
 1148      756D6564 
 1148      00
 1149              		.section	.text.tud_resume_cb,"ax",%progbits
 1150              		.align	1
 1151              		.global	tud_resume_cb
 1152              		.syntax unified
 1153              		.thumb
 1154              		.thumb_func
 1156              	tud_resume_cb:
ARM GAS  C:\Users\LENOVO\AppData\Local\Temp\cc90TV8l.s 			page 30


 1157              	.LFB660:
 258:SynaptiX_FDK/board/sx_board.c **** 
 259:SynaptiX_FDK/board/sx_board.c **** void tud_resume_cb(void) {
 1158              		.loc 1 259 26 is_stmt 1 view -0
 1159              		.cfi_startproc
 1160              		@ args = 0, pretend = 0, frame = 0
 1161              		@ frame_needed = 0, uses_anonymous_args = 0
 1162 0000 08B5     		push	{r3, lr}
 1163              	.LCFI19:
 1164              		.cfi_def_cfa_offset 8
 1165              		.cfi_offset 3, -8
 1166              		.cfi_offset 14, -4
 260:SynaptiX_FDK/board/sx_board.c ****     log_info(TAG, "USB tiny resumed");
 1167              		.loc 1 260 5 view .LVU242
 1168 0002 034A     		ldr	r2, .L65
 1169 0004 0349     		ldr	r1, .L65+4
 1170 0006 0320     		movs	r0, #3
 1171 0008 FFF7FEFF 		bl	log_func
 1172              	.LVL80:
 261:SynaptiX_FDK/board/sx_board.c ****     // HAL_GPIO_WritePin(GPIOD, GPIO_PIN_12, 0);
 262:SynaptiX_FDK/board/sx_board.c ****     // HAL_GPIO_WritePin(GPIOC, GPIO_PIN_6, 1);
 263:SynaptiX_FDK/board/sx_board.c ****     //set_enter_full_mode();
 264:SynaptiX_FDK/board/sx_board.c ****     // app_mode = APP_MODE_FULL_POWER;
 265:SynaptiX_FDK/board/sx_board.c ****     // app_notify_usb_connected();
 266:SynaptiX_FDK/board/sx_board.c **** }
 1173              		.loc 1 266 1 is_stmt 0 view .LVU243
 1174 000c 08BD     		pop	{r3, pc}
 1175              	.L66:
 1176 000e 00BF     		.align	2
 1177              	.L65:
 1178 0010 00000000 		.word	.LC10
 1179 0014 18000000 		.word	.LC1
 1180              		.cfi_endproc
 1181              	.LFE660:
 1183              		.section	.text.check_charge,"ax",%progbits
 1184              		.align	1
 1185              		.global	check_charge
 1186              		.syntax unified
 1187              		.thumb
 1188              		.thumb_func
 1190              	check_charge:
 1191              	.LFB661:
 267:SynaptiX_FDK/board/sx_board.c **** 
 268:SynaptiX_FDK/board/sx_board.c **** void check_charge(void){
 1192              		.loc 1 268 24 is_stmt 1 view -0
 1193              		.cfi_startproc
 1194              		@ args = 0, pretend = 0, frame = 0
 1195              		@ frame_needed = 0, uses_anonymous_args = 0
 1196 0000 08B5     		push	{r3, lr}
 1197              	.LCFI20:
 1198              		.cfi_def_cfa_offset 8
 1199              		.cfi_offset 3, -8
 1200              		.cfi_offset 14, -4
 269:SynaptiX_FDK/board/sx_board.c ****     uint8_t ret = HAL_GPIO_ReadPin(VBUS_PORT, VBUS_PIN);
 1201              		.loc 1 269 5 view .LVU245
 1202              		.loc 1 269 19 is_stmt 0 view .LVU246
 1203 0002 0221     		movs	r1, #2
ARM GAS  C:\Users\LENOVO\AppData\Local\Temp\cc90TV8l.s 			page 31


 1204 0004 0748     		ldr	r0, .L72
 1205 0006 FFF7FEFF 		bl	HAL_GPIO_ReadPin
 1206              	.LVL81:
 270:SynaptiX_FDK/board/sx_board.c ****     (ret == 1)?(sx_gpio_write(&s_charge, SX_GPIO_HIGH)):(sx_gpio_write(&s_charge, SX_GPIO_LOW));
 1207              		.loc 1 270 5 is_stmt 1 view .LVU247
 1208              		.loc 1 270 56 is_stmt 0 view .LVU248
 1209 000a 0128     		cmp	r0, #1
 1210 000c 04D0     		beq	.L71
 1211              		.loc 1 270 58 discriminator 2 view .LVU249
 1212 000e 0021     		movs	r1, #0
 1213 0010 0548     		ldr	r0, .L72+4
 1214              	.LVL82:
 1215              		.loc 1 270 58 discriminator 2 view .LVU250
 1216 0012 FFF7FEFF 		bl	sx_gpio_write
 1217              	.LVL83:
 1218              	.L67:
 271:SynaptiX_FDK/board/sx_board.c **** }
 1219              		.loc 1 271 1 view .LVU251
 1220 0016 08BD     		pop	{r3, pc}
 1221              	.LVL84:
 1222              	.L71:
 270:SynaptiX_FDK/board/sx_board.c ****     (ret == 1)?(sx_gpio_write(&s_charge, SX_GPIO_HIGH)):(sx_gpio_write(&s_charge, SX_GPIO_LOW));
 1223              		.loc 1 270 17 discriminator 1 view .LVU252
 1224 0018 0121     		movs	r1, #1
 1225 001a 0348     		ldr	r0, .L72+4
 1226              	.LVL85:
 270:SynaptiX_FDK/board/sx_board.c ****     (ret == 1)?(sx_gpio_write(&s_charge, SX_GPIO_HIGH)):(sx_gpio_write(&s_charge, SX_GPIO_LOW));
 1227              		.loc 1 270 17 discriminator 1 view .LVU253
 1228 001c FFF7FEFF 		bl	sx_gpio_write
 1229              	.LVL86:
 1230 0020 F9E7     		b	.L67
 1231              	.L73:
 1232 0022 00BF     		.align	2
 1233              	.L72:
 1234 0024 00080242 		.word	1107429376
 1235 0028 00000000 		.word	s_charge
 1236              		.cfi_endproc
 1237              	.LFE661:
 1239              		.section	.text.HAL_UART_RxCpltCallback,"ax",%progbits
 1240              		.align	1
 1241              		.global	HAL_UART_RxCpltCallback
 1242              		.syntax unified
 1243              		.thumb
 1244              		.thumb_func
 1246              	HAL_UART_RxCpltCallback:
 1247              	.LVL87:
 1248              	.LFB662:
 272:SynaptiX_FDK/board/sx_board.c **** 
 273:SynaptiX_FDK/board/sx_board.c **** void HAL_UART_RxCpltCallback(UART_HandleTypeDef *huart)
 274:SynaptiX_FDK/board/sx_board.c **** {
 1249              		.loc 1 274 1 is_stmt 1 view -0
 1250              		.cfi_startproc
 1251              		@ args = 0, pretend = 0, frame = 0
 1252              		@ frame_needed = 0, uses_anonymous_args = 0
 1253              		.loc 1 274 1 is_stmt 0 view .LVU255
 1254 0000 10B5     		push	{r4, lr}
 1255              	.LCFI21:
ARM GAS  C:\Users\LENOVO\AppData\Local\Temp\cc90TV8l.s 			page 32


 1256              		.cfi_def_cfa_offset 8
 1257              		.cfi_offset 4, -8
 1258              		.cfi_offset 14, -4
 275:SynaptiX_FDK/board/sx_board.c ****     if(huart == hal_uart[UART_LTE]){
 1259              		.loc 1 275 5 is_stmt 1 view .LVU256
 1260              		.loc 1 275 7 is_stmt 0 view .LVU257
 1261 0002 184B     		ldr	r3, .L82
 1262 0004 9842     		cmp	r0, r3
 1263 0006 06D0     		beq	.L79
 276:SynaptiX_FDK/board/sx_board.c ****         sx_uart_rx_callback(bsp_uart[UART_LTE], &uart_rx_char[UART_LTE], 1);
 277:SynaptiX_FDK/board/sx_board.c ****         HAL_UART_Receive_IT(hal_uart[UART_LTE], &uart_rx_char[UART_LTE], 1);
 278:SynaptiX_FDK/board/sx_board.c ****     } else if(huart == hal_uart[UART_GPS]){
 1264              		.loc 1 278 12 is_stmt 1 view .LVU258
 1265              		.loc 1 278 14 is_stmt 0 view .LVU259
 1266 0008 174B     		ldr	r3, .L82+4
 1267 000a 9842     		cmp	r0, r3
 1268 000c 10D0     		beq	.L80
 279:SynaptiX_FDK/board/sx_board.c ****         sx_uart_rx_callback(bsp_uart[UART_GPS], &uart_rx_char[UART_GPS], 1);
 280:SynaptiX_FDK/board/sx_board.c ****         HAL_UART_Receive_IT(hal_uart[UART_GPS], &uart_rx_char[UART_GPS], 1);
 281:SynaptiX_FDK/board/sx_board.c ****     } else if(huart == hal_uart[UART_LOG]){
 1269              		.loc 1 281 12 is_stmt 1 view .LVU260
 1270              		.loc 1 281 14 is_stmt 0 view .LVU261
 1271 000e 174B     		ldr	r3, .L82+8
 1272 0010 9842     		cmp	r0, r3
 1273 0012 1AD0     		beq	.L81
 1274              	.LVL88:
 1275              	.L74:
 282:SynaptiX_FDK/board/sx_board.c ****         sx_uart_rx_callback(bsp_uart[UART_LOG], &uart_rx_char[UART_LOG], 1);
 283:SynaptiX_FDK/board/sx_board.c ****         HAL_UART_Receive_IT(hal_uart[UART_LOG], &uart_rx_char[UART_LOG], 1);
 284:SynaptiX_FDK/board/sx_board.c ****     }
 285:SynaptiX_FDK/board/sx_board.c **** }
 1276              		.loc 1 285 1 view .LVU262
 1277 0014 10BD     		pop	{r4, pc}
 1278              	.LVL89:
 1279              	.L79:
 276:SynaptiX_FDK/board/sx_board.c ****         HAL_UART_Receive_IT(hal_uart[UART_LTE], &uart_rx_char[UART_LTE], 1);
 1280              		.loc 1 276 9 is_stmt 1 view .LVU263
 1281 0016 164C     		ldr	r4, .L82+12
 1282 0018 0122     		movs	r2, #1
 1283 001a 2146     		mov	r1, r4
 1284 001c 154B     		ldr	r3, .L82+16
 1285 001e 1868     		ldr	r0, [r3]
 1286              	.LVL90:
 276:SynaptiX_FDK/board/sx_board.c ****         HAL_UART_Receive_IT(hal_uart[UART_LTE], &uart_rx_char[UART_LTE], 1);
 1287              		.loc 1 276 9 is_stmt 0 view .LVU264
 1288 0020 FFF7FEFF 		bl	sx_uart_rx_callback
 1289              	.LVL91:
 277:SynaptiX_FDK/board/sx_board.c ****     } else if(huart == hal_uart[UART_GPS]){
 1290              		.loc 1 277 9 is_stmt 1 view .LVU265
 1291 0024 0122     		movs	r2, #1
 1292 0026 2146     		mov	r1, r4
 1293 0028 0E48     		ldr	r0, .L82
 1294 002a FFF7FEFF 		bl	HAL_UART_Receive_IT
 1295              	.LVL92:
 1296 002e F1E7     		b	.L74
 1297              	.LVL93:
 1298              	.L80:
ARM GAS  C:\Users\LENOVO\AppData\Local\Temp\cc90TV8l.s 			page 33


 279:SynaptiX_FDK/board/sx_board.c ****         HAL_UART_Receive_IT(hal_uart[UART_GPS], &uart_rx_char[UART_GPS], 1);
 1299              		.loc 1 279 9 view .LVU266
 1300 0030 114C     		ldr	r4, .L82+20
 1301 0032 0122     		movs	r2, #1
 1302 0034 2146     		mov	r1, r4
 1303 0036 0F4B     		ldr	r3, .L82+16
 1304 0038 5868     		ldr	r0, [r3, #4]
 1305              	.LVL94:
 279:SynaptiX_FDK/board/sx_board.c ****         HAL_UART_Receive_IT(hal_uart[UART_GPS], &uart_rx_char[UART_GPS], 1);
 1306              		.loc 1 279 9 is_stmt 0 view .LVU267
 1307 003a FFF7FEFF 		bl	sx_uart_rx_callback
 1308              	.LVL95:
 280:SynaptiX_FDK/board/sx_board.c ****     } else if(huart == hal_uart[UART_LOG]){
 1309              		.loc 1 280 9 is_stmt 1 view .LVU268
 1310 003e 0122     		movs	r2, #1
 1311 0040 2146     		mov	r1, r4
 1312 0042 0948     		ldr	r0, .L82+4
 1313 0044 FFF7FEFF 		bl	HAL_UART_Receive_IT
 1314              	.LVL96:
 1315 0048 E4E7     		b	.L74
 1316              	.LVL97:
 1317              	.L81:
 282:SynaptiX_FDK/board/sx_board.c ****         HAL_UART_Receive_IT(hal_uart[UART_LOG], &uart_rx_char[UART_LOG], 1);
 1318              		.loc 1 282 9 view .LVU269
 1319 004a 0C4C     		ldr	r4, .L82+24
 1320 004c 0122     		movs	r2, #1
 1321 004e 2146     		mov	r1, r4
 1322 0050 084B     		ldr	r3, .L82+16
 1323 0052 9868     		ldr	r0, [r3, #8]
 1324              	.LVL98:
 282:SynaptiX_FDK/board/sx_board.c ****         HAL_UART_Receive_IT(hal_uart[UART_LOG], &uart_rx_char[UART_LOG], 1);
 1325              		.loc 1 282 9 is_stmt 0 view .LVU270
 1326 0054 FFF7FEFF 		bl	sx_uart_rx_callback
 1327              	.LVL99:
 283:SynaptiX_FDK/board/sx_board.c ****     }
 1328              		.loc 1 283 9 is_stmt 1 view .LVU271
 1329 0058 0122     		movs	r2, #1
 1330 005a 2146     		mov	r1, r4
 1331 005c 0348     		ldr	r0, .L82+8
 1332 005e FFF7FEFF 		bl	HAL_UART_Receive_IT
 1333              	.LVL100:
 1334              		.loc 1 285 1 is_stmt 0 view .LVU272
 1335 0062 D7E7     		b	.L74
 1336              	.L83:
 1337              		.align	2
 1338              	.L82:
 1339 0064 00000000 		.word	huart1
 1340 0068 00000000 		.word	huart2
 1341 006c 00000000 		.word	huart3
 1342 0070 00000000 		.word	uart_rx_char
 1343 0074 00000000 		.word	bsp_uart
 1344 0078 01000000 		.word	uart_rx_char+1
 1345 007c 02000000 		.word	uart_rx_char+2
 1346              		.cfi_endproc
 1347              	.LFE662:
 1349              		.section	.rodata.HAL_GPIO_EXTI_Rising_Callback.str1.4,"aMS",%progbits,1
 1350              		.align	2
ARM GAS  C:\Users\LENOVO\AppData\Local\Temp\cc90TV8l.s 			page 34


 1351              	.LC11:
 1352 0000 55534220 		.ascii	"USB charge\000"
 1352      63686172 
 1352      676500
 1353              		.section	.text.HAL_GPIO_EXTI_Rising_Callback,"ax",%progbits
 1354              		.align	1
 1355              		.global	HAL_GPIO_EXTI_Rising_Callback
 1356              		.syntax unified
 1357              		.thumb
 1358              		.thumb_func
 1360              	HAL_GPIO_EXTI_Rising_Callback:
 1361              	.LVL101:
 1362              	.LFB663:
 286:SynaptiX_FDK/board/sx_board.c **** 
 287:SynaptiX_FDK/board/sx_board.c **** void HAL_GPIO_EXTI_Rising_Callback(uint16_t GPIO_Pin)
 288:SynaptiX_FDK/board/sx_board.c **** {
 1363              		.loc 1 288 1 is_stmt 1 view -0
 1364              		.cfi_startproc
 1365              		@ args = 0, pretend = 0, frame = 0
 1366              		@ frame_needed = 0, uses_anonymous_args = 0
 289:SynaptiX_FDK/board/sx_board.c ****     if(GPIO_Pin == VBUS_PIN){
 1367              		.loc 1 289 5 view .LVU274
 1368              		.loc 1 289 7 is_stmt 0 view .LVU275
 1369 0000 0228     		cmp	r0, #2
 1370 0002 00D0     		beq	.L90
 1371 0004 7047     		bx	lr
 1372              	.L90:
 288:SynaptiX_FDK/board/sx_board.c ****     if(GPIO_Pin == VBUS_PIN){
 1373              		.loc 1 288 1 view .LVU276
 1374 0006 08B5     		push	{r3, lr}
 1375              	.LCFI22:
 1376              		.cfi_def_cfa_offset 8
 1377              		.cfi_offset 3, -8
 1378              		.cfi_offset 14, -4
 290:SynaptiX_FDK/board/sx_board.c ****         
 291:SynaptiX_FDK/board/sx_board.c ****         /* Set EXTI wake reason for sleep manager if MCU is waking from sleep */
 292:SynaptiX_FDK/board/sx_board.c ****         sx_sleep_set_exti_wake();
 1379              		.loc 1 292 9 is_stmt 1 view .LVU277
 1380 0008 FFF7FEFF 		bl	sx_sleep_set_exti_wake
 1381              	.LVL102:
 293:SynaptiX_FDK/board/sx_board.c ****         
 294:SynaptiX_FDK/board/sx_board.c ****         sx_gpio_write(&s_dis_charge, SX_GPIO_HIGH);
 1382              		.loc 1 294 9 view .LVU278
 1383 000c 0121     		movs	r1, #1
 1384 000e 0948     		ldr	r0, .L91
 1385 0010 FFF7FEFF 		bl	sx_gpio_write
 1386              	.LVL103:
 295:SynaptiX_FDK/board/sx_board.c ****         sx_gpio_write(&s_charge, SX_GPIO_HIGH);
 1387              		.loc 1 295 9 view .LVU279
 1388 0014 0121     		movs	r1, #1
 1389 0016 0848     		ldr	r0, .L91+4
 1390 0018 FFF7FEFF 		bl	sx_gpio_write
 1391              	.LVL104:
 296:SynaptiX_FDK/board/sx_board.c **** 
 297:SynaptiX_FDK/board/sx_board.c ****         app_sync_gps_log_to_disk();
 1392              		.loc 1 297 9 view .LVU280
 1393 001c FFF7FEFF 		bl	app_sync_gps_log_to_disk
ARM GAS  C:\Users\LENOVO\AppData\Local\Temp\cc90TV8l.s 			page 35


 1394              	.LVL105:
 298:SynaptiX_FDK/board/sx_board.c ****         app_mode_full_pw();
 1395              		.loc 1 298 9 view .LVU281
 1396 0020 FFF7FEFF 		bl	app_mode_full_pw
 1397              	.LVL106:
 299:SynaptiX_FDK/board/sx_board.c ****         app_notify_usb_connected();
 1398              		.loc 1 299 9 view .LVU282
 1399 0024 FFF7FEFF 		bl	app_notify_usb_connected
 1400              	.LVL107:
 300:SynaptiX_FDK/board/sx_board.c ****         log_info(TAG,"USB charge");
 1401              		.loc 1 300 9 view .LVU283
 1402 0028 044A     		ldr	r2, .L91+8
 1403 002a 0549     		ldr	r1, .L91+12
 1404 002c 0320     		movs	r0, #3
 1405 002e FFF7FEFF 		bl	log_func
 1406              	.LVL108:
 301:SynaptiX_FDK/board/sx_board.c ****     }
 302:SynaptiX_FDK/board/sx_board.c **** }
 1407              		.loc 1 302 1 is_stmt 0 view .LVU284
 1408 0032 08BD     		pop	{r3, pc}
 1409              	.L92:
 1410              		.align	2
 1411              	.L91:
 1412 0034 00000000 		.word	s_dis_charge
 1413 0038 00000000 		.word	s_charge
 1414 003c 00000000 		.word	.LC11
 1415 0040 18000000 		.word	.LC1
 1416              		.cfi_endproc
 1417              	.LFE663:
 1419              		.section	.text.HAL_GPIO_EXTI_Falling_Callback,"ax",%progbits
 1420              		.align	1
 1421              		.global	HAL_GPIO_EXTI_Falling_Callback
 1422              		.syntax unified
 1423              		.thumb
 1424              		.thumb_func
 1426              	HAL_GPIO_EXTI_Falling_Callback:
 1427              	.LVL109:
 1428              	.LFB664:
 303:SynaptiX_FDK/board/sx_board.c **** 
 304:SynaptiX_FDK/board/sx_board.c **** void HAL_GPIO_EXTI_Falling_Callback(uint16_t GPIO_Pin){
 1429              		.loc 1 304 55 is_stmt 1 view -0
 1430              		.cfi_startproc
 1431              		@ args = 0, pretend = 0, frame = 0
 1432              		@ frame_needed = 0, uses_anonymous_args = 0
 305:SynaptiX_FDK/board/sx_board.c ****     if(GPIO_Pin == VBUS_PIN){
 1433              		.loc 1 305 5 view .LVU286
 1434              		.loc 1 305 7 is_stmt 0 view .LVU287
 1435 0000 0228     		cmp	r0, #2
 1436 0002 00D0     		beq	.L99
 1437 0004 7047     		bx	lr
 1438              	.L99:
 304:SynaptiX_FDK/board/sx_board.c ****     if(GPIO_Pin == VBUS_PIN){
 1439              		.loc 1 304 55 view .LVU288
 1440 0006 08B5     		push	{r3, lr}
 1441              	.LCFI23:
 1442              		.cfi_def_cfa_offset 8
 1443              		.cfi_offset 3, -8
ARM GAS  C:\Users\LENOVO\AppData\Local\Temp\cc90TV8l.s 			page 36


 1444              		.cfi_offset 14, -4
 306:SynaptiX_FDK/board/sx_board.c ****         sx_gpio_write(&s_dis_charge, SX_GPIO_HIGH);
 1445              		.loc 1 306 9 is_stmt 1 view .LVU289
 1446 0008 0121     		movs	r1, #1
 1447 000a 0748     		ldr	r0, .L100
 1448              	.LVL110:
 1449              		.loc 1 306 9 is_stmt 0 view .LVU290
 1450 000c FFF7FEFF 		bl	sx_gpio_write
 1451              	.LVL111:
 307:SynaptiX_FDK/board/sx_board.c ****         sx_gpio_write(&s_charge, SX_GPIO_LOW);
 1452              		.loc 1 307 9 is_stmt 1 view .LVU291
 1453 0010 0021     		movs	r1, #0
 1454 0012 0648     		ldr	r0, .L100+4
 1455 0014 FFF7FEFF 		bl	sx_gpio_write
 1456              	.LVL112:
 308:SynaptiX_FDK/board/sx_board.c ****         
 309:SynaptiX_FDK/board/sx_board.c ****         app_request_sleep();
 1457              		.loc 1 309 9 view .LVU292
 1458 0018 FFF7FEFF 		bl	app_request_sleep
 1459              	.LVL113:
 310:SynaptiX_FDK/board/sx_board.c ****         log_info(TAG,"USB discharge");
 1460              		.loc 1 310 9 view .LVU293
 1461 001c 044A     		ldr	r2, .L100+8
 1462 001e 0549     		ldr	r1, .L100+12
 1463 0020 0320     		movs	r0, #3
 1464 0022 FFF7FEFF 		bl	log_func
 1465              	.LVL114:
 311:SynaptiX_FDK/board/sx_board.c ****     }
 312:SynaptiX_FDK/board/sx_board.c **** }
 1466              		.loc 1 312 1 is_stmt 0 view .LVU294
 1467 0026 08BD     		pop	{r3, pc}
 1468              	.L101:
 1469              		.align	2
 1470              	.L100:
 1471 0028 00000000 		.word	s_dis_charge
 1472 002c 00000000 		.word	s_charge
 1473 0030 00000000 		.word	.LC8
 1474 0034 18000000 		.word	.LC1
 1475              		.cfi_endproc
 1476              	.LFE664:
 1478              		.section	.rodata.tud_cdc_line_state_cb.str1.4,"aMS",%progbits,1
 1479              		.align	2
 1480              	.LC12:
 1481 0000 43444320 		.ascii	"CDC line state: dtr=%d rts=%d\000"
 1481      6C696E65 
 1481      20737461 
 1481      74653A20 
 1481      6474723D 
 1482 001e 0000     		.align	2
 1483              	.LC13:
 1484 0020 55534200 		.ascii	"USB\000"
 1485              		.section	.text.tud_cdc_line_state_cb,"ax",%progbits
 1486              		.align	1
 1487              		.global	tud_cdc_line_state_cb
 1488              		.syntax unified
 1489              		.thumb
 1490              		.thumb_func
ARM GAS  C:\Users\LENOVO\AppData\Local\Temp\cc90TV8l.s 			page 37


 1492              	tud_cdc_line_state_cb:
 1493              	.LVL115:
 1494              	.LFB665:
 313:SynaptiX_FDK/board/sx_board.c **** 
 314:SynaptiX_FDK/board/sx_board.c **** void tud_cdc_line_state_cb(uint8_t itf, bool dtr, bool rts) {
 1495              		.loc 1 314 61 is_stmt 1 view -0
 1496              		.cfi_startproc
 1497              		@ args = 0, pretend = 0, frame = 0
 1498              		@ frame_needed = 0, uses_anonymous_args = 0
 1499              		.loc 1 314 61 is_stmt 0 view .LVU296
 1500 0000 00B5     		push	{lr}
 1501              	.LCFI24:
 1502              		.cfi_def_cfa_offset 4
 1503              		.cfi_offset 14, -4
 1504 0002 83B0     		sub	sp, sp, #12
 1505              	.LCFI25:
 1506              		.cfi_def_cfa_offset 16
 1507 0004 0B46     		mov	r3, r1
 315:SynaptiX_FDK/board/sx_board.c ****     log_info("USB", "CDC line state: dtr=%d rts=%d", dtr, rts);
 1508              		.loc 1 315 5 is_stmt 1 view .LVU297
 1509 0006 0092     		str	r2, [sp]
 1510 0008 034A     		ldr	r2, .L104
 1511              	.LVL116:
 1512              		.loc 1 315 5 is_stmt 0 view .LVU298
 1513 000a 0449     		ldr	r1, .L104+4
 1514              	.LVL117:
 1515              		.loc 1 315 5 view .LVU299
 1516 000c 0320     		movs	r0, #3
 1517              	.LVL118:
 1518              		.loc 1 315 5 view .LVU300
 1519 000e FFF7FEFF 		bl	log_func
 1520              	.LVL119:
 316:SynaptiX_FDK/board/sx_board.c **** }...
 1521              		.loc 1 316 1 view .LVU301
 1522 0012 03B0     		add	sp, sp, #12
 1523              	.LCFI26:
 1524              		.cfi_def_cfa_offset 4
 1525              		@ sp needed
 1526 0014 5DF804FB 		ldr	pc, [sp], #4
 1527              	.L105:
 1528              		.align	2
 1529              	.L104:
 1530 0018 00000000 		.word	.LC12
 1531 001c 20000000 		.word	.LC13
 1532              		.cfi_endproc
 1533              	.LFE665:
 1535              		.section	.bss.uart_config.0,"aw",%nobits
 1536              		.align	2
 1539              	uart_config.0:
 1540 0000 00000000 		.space	36
 1540      00000000 
 1540      00000000 
 1540      00000000 
 1540      00000000 
 1541              		.section	.rodata.s_spi_pw_pin,"a"
 1542              		.align	2
 1545              	s_spi_pw_pin:
ARM GAS  C:\Users\LENOVO\AppData\Local\Temp\cc90TV8l.s 			page 38


 1546 0000 00080242 		.word	1107429376
 1547 0004 1000     		.short	16
 1548 0006 0000     		.space	2
 1549              		.section	.rodata.s_spi_cs_pin,"a"
 1550              		.align	2
 1553              	s_spi_cs_pin:
 1554 0000 00000242 		.word	1107427328
 1555 0004 1000     		.short	16
 1556 0006 0000     		.space	2
 1557              		.section	.bss.s_imu_reset,"aw",%nobits
 1558              		.align	2
 1561              	s_imu_reset:
 1562 0000 00000000 		.space	12
 1562      00000000 
 1562      00000000 
 1563              		.section	.bss.s_imu_en,"aw",%nobits
 1564              		.align	2
 1567              	s_imu_en:
 1568 0000 00000000 		.space	12
 1568      00000000 
 1568      00000000 
 1569              		.section	.data.s_imu_reset_pin,"aw"
 1570              		.align	2
 1573              	s_imu_reset_pin:
 1574 0000 00040242 		.word	1107428352
 1575 0004 2000     		.short	32
 1576 0006 0000     		.space	2
 1577              		.section	.data.s_imu_en_pin,"aw"
 1578              		.align	2
 1581              	s_imu_en_pin:
 1582 0000 00040242 		.word	1107428352
 1583 0004 1000     		.short	16
 1584 0006 0000     		.space	2
 1585              		.section	.bss.s_rtc_pwr,"aw",%nobits
 1586              		.align	2
 1589              	s_rtc_pwr:
 1590 0000 00000000 		.space	12
 1590      00000000 
 1590      00000000 
 1591              		.section	.data.s_rtc_pwr_pin,"aw"
 1592              		.align	2
 1595              	s_rtc_pwr_pin:
 1596 0000 00040242 		.word	1107428352
 1597 0004 0800     		.short	8
 1598 0006 0000     		.space	2
 1599              		.section	.data.s_dis_charge_pin,"aw"
 1600              		.align	2
 1603              	s_dis_charge_pin:
 1604 0000 000C0242 		.word	1107430400
 1605 0004 0010     		.short	4096
 1606 0006 0000     		.space	2
 1607              		.section	.bss.s_dis_charge,"aw",%nobits
 1608              		.align	2
 1611              	s_dis_charge:
 1612 0000 00000000 		.space	12
 1612      00000000 
 1612      00000000 
ARM GAS  C:\Users\LENOVO\AppData\Local\Temp\cc90TV8l.s 			page 39


 1613              		.section	.data.s_charge_pin,"aw"
 1614              		.align	2
 1617              	s_charge_pin:
 1618 0000 00080242 		.word	1107429376
 1619 0004 4000     		.short	64
 1620 0006 0000     		.space	2
 1621              		.section	.bss.s_charge,"aw",%nobits
 1622              		.align	2
 1625              	s_charge:
 1626 0000 00000000 		.space	12
 1626      00000000 
 1626      00000000 
 1627              		.section	.data.s_gps_power_pin,"aw"
 1628              		.align	2
 1631              	s_gps_power_pin:
 1632 0000 00080242 		.word	1107429376
 1633 0004 0080     		.short	-32768
 1634 0006 0000     		.space	2
 1635              		.section	.data.s_lte_pwrkey_pin,"aw"
 1636              		.align	2
 1639              	s_lte_pwrkey_pin:
 1640 0000 00080242 		.word	1107429376
 1641 0004 0040     		.short	16384
 1642 0006 0000     		.space	2
 1643              		.section	.data.s_lte_power_pin,"aw"
 1644              		.align	2
 1647              	s_lte_power_pin:
 1648 0000 00080242 		.word	1107429376
 1649 0004 0020     		.short	8192
 1650 0006 0000     		.space	2
 1651              		.section	.bss.uart_rx_char,"aw",%nobits
 1652              		.align	2
 1655              	uart_rx_char:
 1656 0000 000000   		.space	3
 1657              		.section	.bss.bsp_uart,"aw",%nobits
 1658              		.align	2
 1661              	bsp_uart:
 1662 0000 00000000 		.space	12
 1662      00000000 
 1662      00000000 
 1663              		.global	board
 1664              		.section	.bss.board,"aw",%nobits
 1665              		.align	2
 1668              	board:
 1669 0000 00000000 		.space	1504
 1669      00000000 
 1669      00000000 
 1669      00000000 
 1669      00000000 
 1670              		.text
 1671              	.Letext0:
 1672              		.file 4 "C:\\ST\\STM32CubeCLT_1.20.0\\GNU-tools-for-STM32\\bin/../lib/gcc/arm-none-eabi/13.3.1/../
 1673              		.file 5 "C:\\ST\\STM32CubeCLT_1.20.0\\GNU-tools-for-STM32\\bin/../lib/gcc/arm-none-eabi/13.3.1/../
 1674              		.file 6 "C:\\ST\\STM32CubeCLT_1.20.0\\GNU-tools-for-STM32\\bin/../lib/gcc/arm-none-eabi/13.3.1/inc
 1675              		.file 7 "Drivers/CMSIS/Device/ST/STM32H5xx/Include/stm32h563xx.h"
 1676              		.file 8 "Drivers/CMSIS/Device/ST/STM32H5xx/Include/stm32h5xx.h"
 1677              		.file 9 "Drivers/STM32H5xx_HAL_Driver/Inc/stm32h5xx_hal_def.h"
ARM GAS  C:\Users\LENOVO\AppData\Local\Temp\cc90TV8l.s 			page 40


 1678              		.file 10 "Drivers/STM32H5xx_HAL_Driver/Inc/stm32h5xx_hal_gpio.h"
 1679              		.file 11 "Drivers/STM32H5xx_HAL_Driver/Inc/stm32h5xx_hal_dma.h"
 1680              		.file 12 "Drivers/STM32H5xx_HAL_Driver/Inc/stm32h5xx_hal_dma_ex.h"
 1681              		.file 13 "Drivers/STM32H5xx_HAL_Driver/Inc/stm32h5xx_hal_adc.h"
 1682              		.file 14 "Drivers/STM32H5xx_HAL_Driver/Inc/stm32h5xx_hal_i2c.h"
 1683              		.file 15 "Drivers/STM32H5xx_HAL_Driver/Inc/stm32h5xx_ll_lptim.h"
 1684              		.file 16 "Drivers/STM32H5xx_HAL_Driver/Inc/stm32h5xx_hal_spi.h"
 1685              		.file 17 "Drivers/STM32H5xx_HAL_Driver/Inc/stm32h5xx_hal_uart.h"
 1686              		.file 18 "Drivers/STM32H5xx_HAL_Driver/Inc/stm32h5xx_ll_usb.h"
 1687              		.file 19 "Drivers/STM32H5xx_HAL_Driver/Inc/stm32h5xx_hal_pcd.h"
 1688              		.file 20 "Core/Inc/usart.h"
 1689              		.file 21 "SynaptiX_FDK/components/spi/sx_spi.h"
 1690              		.file 22 "SynaptiX_FDK/utils/cqueue/cqueue.h"
 1691              		.file 23 "SynaptiX_FDK/components/uart/sx_uart.h"
 1692              		.file 24 "C:\\ST\\STM32CubeCLT_1.20.0\\GNU-tools-for-STM32\\bin/../lib/gcc/arm-none-eabi/13.3.1/..
 1693              		.file 25 "SynaptiX_FDK/components/gps/minmea.h"
 1694              		.file 26 "SynaptiX_FDK/components/gps/gps.h"
 1695              		.file 27 "SynaptiX_FDK/components/modem/modem.h"
 1696              		.file 28 "SynaptiX_FDK/components/sim76xx/sim76xx.h"
 1697              		.file 29 "SynaptiX_FDK/components/external_flash/sx_W25Q128.h"
 1698              		.file 30 "SynaptiX_FDK/app/user/sx_ex_storage/sx_ex_storage.h"
 1699              		.file 31 "SynaptiX_FDK/components/usb_cdc_tiny/sx_usb_tiny_cdc.h"
 1700              		.file 32 "Core/Inc/adc.h"
 1701              		.file 33 "Core/Inc/spi.h"
 1702              		.file 34 "Core/Inc/i2c.h"
 1703              		.file 35 "SynaptiX_FDK/components/rtc/sx_ex_rtc.h"
 1704              		.file 36 "SynaptiX_FDK/components/imu/bno055.h"
 1705              		.file 37 "SynaptiX_FDK/utils/filter/sx_filter.h"
 1706              		.file 38 "SynaptiX_FDK/services/read_bat/sx_read_bat.h"
 1707              		.file 39 "SynaptiX_FDK/board/sx_board.h"
 1708              		.file 40 "Core/Inc/usb.h"
 1709              		.file 41 "SynaptiX_FDK/app/user/sx_msc/sx_user_msc.h"
 1710              		.file 42 "SynaptiX_FDK/services/logger/logger.h"
 1711              		.file 43 "SynaptiX_FDK/app/app.h"
 1712              		.file 44 "SynaptiX_FDK/components/sleep/sx_sleep.h"
 1713              		.file 45 "C:\\ST\\STM32CubeCLT_1.20.0\\GNU-tools-for-STM32\\bin/../lib/gcc/arm-none-eabi/13.3.1/..
 1714              		.file 46 "Drivers/STM32H5xx_HAL_Driver/Inc/stm32h5xx_hal_adc_ex.h"
 1715              		.file 47 "SynaptiX_FDK/utils/delay/sx_delay.h"
 1716              		.file 48 "SynaptiX_FDK/lib/tinyusb/src/device/usbd.h"
 1717              		.file 49 "Drivers/STM32H5xx_HAL_Driver/Inc/stm32h5xx_hal.h"
ARM GAS  C:\Users\LENOVO\AppData\Local\Temp\cc90TV8l.s 			page 41

