ARM GAS  C:\Users\LENOVO\AppData\Local\Temp\ccc7byMl.s 			page 1


   1              		.cpu cortex-m33
   2              		.arch armv8-m.main
   3              		.fpu fpv5-sp-d16
   4              		.arch_extension dsp
   5              		.eabi_attribute 27, 1
   6              		.eabi_attribute 28, 1
   7              		.eabi_attribute 20, 1
   8              		.eabi_attribute 21, 1
   9              		.eabi_attribute 23, 3
  10              		.eabi_attribute 24, 1
  11              		.eabi_attribute 25, 1
  12              		.eabi_attribute 26, 1
  13              		.eabi_attribute 30, 1
  14              		.eabi_attribute 34, 1
  15              		.eabi_attribute 18, 4
  16              		.file	"sx_ex_storage.c"
  17              		.text
  18              	.Ltext0:
  19              		.cfi_sections	.debug_frame
  20              		.file 1 "SynaptiX_FDK/app/user/sx_ex_storage/sx_ex_storage.c"
  21              		.section	.text.sx_gpio_write,"ax",%progbits
  22              		.align	1
  23              		.syntax unified
  24              		.thumb
  25              		.thumb_func
  27              	sx_gpio_write:
  28              	.LVL0:
  29              	.LFB497:
  30              		.file 2 "SynaptiX_FDK/components/gpio/sx_gpio.h"
   1:SynaptiX_FDK/components/gpio/sx_gpio.h **** #ifndef SX_GPIO_H
   2:SynaptiX_FDK/components/gpio/sx_gpio.h **** #define SX_GPIO_H
   3:SynaptiX_FDK/components/gpio/sx_gpio.h **** #ifdef __cplusplus
   4:SynaptiX_FDK/components/gpio/sx_gpio.h **** extern "C" {
   5:SynaptiX_FDK/components/gpio/sx_gpio.h **** #endif
   6:SynaptiX_FDK/components/gpio/sx_gpio.h **** 
   7:SynaptiX_FDK/components/gpio/sx_gpio.h **** #include <stdint.h>
   8:SynaptiX_FDK/components/gpio/sx_gpio.h **** 
   9:SynaptiX_FDK/components/gpio/sx_gpio.h **** typedef enum SX_GPIO_VALUE{
  10:SynaptiX_FDK/components/gpio/sx_gpio.h ****     SX_GPIO_LOW = 0,
  11:SynaptiX_FDK/components/gpio/sx_gpio.h ****     SX_GPIO_HIGH = 1
  12:SynaptiX_FDK/components/gpio/sx_gpio.h **** } SX_GPIO_VALUE;
  13:SynaptiX_FDK/components/gpio/sx_gpio.h **** 
  14:SynaptiX_FDK/components/gpio/sx_gpio.h **** typedef struct sx_gpio sx_gpio_t;
  15:SynaptiX_FDK/components/gpio/sx_gpio.h **** 
  16:SynaptiX_FDK/components/gpio/sx_gpio.h **** typedef struct {
  17:SynaptiX_FDK/components/gpio/sx_gpio.h ****     void    *port;
  18:SynaptiX_FDK/components/gpio/sx_gpio.h ****     uint16_t pin;
  19:SynaptiX_FDK/components/gpio/sx_gpio.h **** } sx_gpio_pin_t;
  20:SynaptiX_FDK/components/gpio/sx_gpio.h **** 
  21:SynaptiX_FDK/components/gpio/sx_gpio.h **** typedef struct sx_gpio_ops{
  22:SynaptiX_FDK/components/gpio/sx_gpio.h ****     int (*write)(sx_gpio_t *gpio, SX_GPIO_VALUE value);
  23:SynaptiX_FDK/components/gpio/sx_gpio.h ****     int (*read)(sx_gpio_t *gpio, SX_GPIO_VALUE *value);
  24:SynaptiX_FDK/components/gpio/sx_gpio.h ****     int (*toggle)(sx_gpio_t *gpio);
  25:SynaptiX_FDK/components/gpio/sx_gpio.h **** } sx_gpio_ops_t;
  26:SynaptiX_FDK/components/gpio/sx_gpio.h **** 
  27:SynaptiX_FDK/components/gpio/sx_gpio.h **** typedef struct sx_gpio{
  28:SynaptiX_FDK/components/gpio/sx_gpio.h ****     sx_gpio_ops_t *ops;
ARM GAS  C:\Users\LENOVO\AppData\Local\Temp\ccc7byMl.s 			page 2


  29:SynaptiX_FDK/components/gpio/sx_gpio.h ****     void *pDriver;
  30:SynaptiX_FDK/components/gpio/sx_gpio.h ****     SX_GPIO_VALUE value;
  31:SynaptiX_FDK/components/gpio/sx_gpio.h **** } sx_gpio_t;
  32:SynaptiX_FDK/components/gpio/sx_gpio.h **** 
  33:SynaptiX_FDK/components/gpio/sx_gpio.h **** static inline void sx_gpio_init(sx_gpio_t *gpio, sx_gpio_ops_t *ops, void *pDriver){
  34:SynaptiX_FDK/components/gpio/sx_gpio.h ****     gpio->ops = ops;
  35:SynaptiX_FDK/components/gpio/sx_gpio.h ****     gpio->pDriver = pDriver;
  36:SynaptiX_FDK/components/gpio/sx_gpio.h ****     gpio->value = SX_GPIO_LOW;
  37:SynaptiX_FDK/components/gpio/sx_gpio.h **** }
  38:SynaptiX_FDK/components/gpio/sx_gpio.h **** 
  39:SynaptiX_FDK/components/gpio/sx_gpio.h **** static inline int sx_gpio_write(sx_gpio_t *gpio, SX_GPIO_VALUE value){
  31              		.loc 2 39 70 view -0
  32              		.cfi_startproc
  33              		@ args = 0, pretend = 0, frame = 0
  34              		@ frame_needed = 0, uses_anonymous_args = 0
  35              		.loc 2 39 70 is_stmt 0 view .LVU1
  36 0000 38B5     		push	{r3, r4, r5, lr}
  37              	.LCFI0:
  38              		.cfi_def_cfa_offset 16
  39              		.cfi_offset 3, -16
  40              		.cfi_offset 4, -12
  41              		.cfi_offset 5, -8
  42              		.cfi_offset 14, -4
  40:SynaptiX_FDK/components/gpio/sx_gpio.h ****     if(gpio->ops && gpio->ops->write){
  43              		.loc 2 40 5 is_stmt 1 view .LVU2
  44              		.loc 2 40 12 is_stmt 0 view .LVU3
  45 0002 0368     		ldr	r3, [r0]
  46              		.loc 2 40 7 view .LVU4
  47 0004 3BB1     		cbz	r3, .L4
  48 0006 0446     		mov	r4, r0
  49 0008 0D46     		mov	r5, r1
  50              		.loc 2 40 30 discriminator 1 view .LVU5
  51 000a 1B68     		ldr	r3, [r3]
  52              		.loc 2 40 18 discriminator 1 view .LVU6
  53 000c 33B1     		cbz	r3, .L5
  54              	.LBB8:
  41:SynaptiX_FDK/components/gpio/sx_gpio.h ****         int ret = gpio->ops->write(gpio, value);
  55              		.loc 2 41 9 is_stmt 1 view .LVU7
  56              		.loc 2 41 19 is_stmt 0 view .LVU8
  57 000e 9847     		blx	r3
  58              	.LVL1:
  42:SynaptiX_FDK/components/gpio/sx_gpio.h ****         if(ret == 0){
  59              		.loc 2 42 9 is_stmt 1 view .LVU9
  60              		.loc 2 42 11 is_stmt 0 view .LVU10
  61 0010 00B9     		cbnz	r0, .L1
  43:SynaptiX_FDK/components/gpio/sx_gpio.h ****             gpio->value = value;
  62              		.loc 2 43 13 is_stmt 1 view .LVU11
  63              		.loc 2 43 25 is_stmt 0 view .LVU12
  64 0012 2572     		strb	r5, [r4, #8]
  44:SynaptiX_FDK/components/gpio/sx_gpio.h ****         }
  45:SynaptiX_FDK/components/gpio/sx_gpio.h ****         return ret;
  65              		.loc 2 45 9 is_stmt 1 view .LVU13
  66              	.LVL2:
  67              	.L1:
  68              		.loc 2 45 9 is_stmt 0 view .LVU14
  69              	.LBE8:
  46:SynaptiX_FDK/components/gpio/sx_gpio.h ****     }
ARM GAS  C:\Users\LENOVO\AppData\Local\Temp\ccc7byMl.s 			page 3


  47:SynaptiX_FDK/components/gpio/sx_gpio.h ****     return -1;
  48:SynaptiX_FDK/components/gpio/sx_gpio.h **** }
  70              		.loc 2 48 1 view .LVU15
  71 0014 38BD     		pop	{r3, r4, r5, pc}
  72              	.LVL3:
  73              	.L4:
  47:SynaptiX_FDK/components/gpio/sx_gpio.h **** }
  74              		.loc 2 47 12 view .LVU16
  75 0016 4FF0FF30 		mov	r0, #-1
  76              	.LVL4:
  47:SynaptiX_FDK/components/gpio/sx_gpio.h **** }
  77              		.loc 2 47 12 view .LVU17
  78 001a FBE7     		b	.L1
  79              	.LVL5:
  80              	.L5:
  47:SynaptiX_FDK/components/gpio/sx_gpio.h **** }
  81              		.loc 2 47 12 view .LVU18
  82 001c 4FF0FF30 		mov	r0, #-1
  83              	.LVL6:
  47:SynaptiX_FDK/components/gpio/sx_gpio.h **** }
  84              		.loc 2 47 12 view .LVU19
  85 0020 F8E7     		b	.L1
  86              		.cfi_endproc
  87              	.LFE497:
  89              		.section	.rodata._check_init.str1.4,"aMS",%progbits,1
  90              		.align	2
  91              	.LC0:
  92 0000 4E6F7420 		.ascii	"Not initialized\000"
  92      696E6974 
  92      69616C69 
  92      7A656400 
  93              		.align	2
  94              	.LC1:
  95 0010 53585F53 		.ascii	"SX_STORAGE\000"
  95      544F5241 
  95      474500
  96              		.section	.text._check_init,"ax",%progbits
  97              		.align	1
  98              		.syntax unified
  99              		.thumb
 100              		.thumb_func
 102              	_check_init:
 103              	.LFB531:
   1:SynaptiX_FDK/app/user/sx_ex_storage/sx_ex_storage.c **** #include "sx_ex_storage.h"
   2:SynaptiX_FDK/app/user/sx_ex_storage/sx_ex_storage.c **** #include "sx_spi.h"
   3:SynaptiX_FDK/app/user/sx_ex_storage/sx_ex_storage.c **** #include "sx_gpio.h"
   4:SynaptiX_FDK/app/user/sx_ex_storage/sx_ex_storage.c **** #include "sx_W25Q128.h"
   5:SynaptiX_FDK/app/user/sx_ex_storage/sx_ex_storage.c **** #include "sx_external_flash.h"
   6:SynaptiX_FDK/app/user/sx_ex_storage/sx_ex_storage.c **** #include "sx_fs.h"
   7:SynaptiX_FDK/app/user/sx_ex_storage/sx_ex_storage.c **** #include "file_io.h"
   8:SynaptiX_FDK/app/user/sx_ex_storage/sx_ex_storage.c **** #include "logger.h"
   9:SynaptiX_FDK/app/user/sx_ex_storage/sx_ex_storage.c **** 
  10:SynaptiX_FDK/app/user/sx_ex_storage/sx_ex_storage.c **** static const char *TAG = "SX_STORAGE";
  11:SynaptiX_FDK/app/user/sx_ex_storage/sx_ex_storage.c **** 
  12:SynaptiX_FDK/app/user/sx_ex_storage/sx_ex_storage.c **** static sx_W25Q128_t     s_w25q128;
  13:SynaptiX_FDK/app/user/sx_ex_storage/sx_ex_storage.c **** static sx_ext_flash_t   s_flash;
  14:SynaptiX_FDK/app/user/sx_ex_storage/sx_ex_storage.c **** static bool             s_initialized = false;
ARM GAS  C:\Users\LENOVO\AppData\Local\Temp\ccc7byMl.s 			page 4


  15:SynaptiX_FDK/app/user/sx_ex_storage/sx_ex_storage.c **** 
  16:SynaptiX_FDK/app/user/sx_ex_storage/sx_ex_storage.c **** sx_storage_err_t sx_storage_init(sx_storage_cfg_t *cfg)
  17:SynaptiX_FDK/app/user/sx_ex_storage/sx_ex_storage.c **** {
  18:SynaptiX_FDK/app/user/sx_ex_storage/sx_ex_storage.c ****     if (cfg == NULL) return SX_STORAGE_ERR_INVALID;
  19:SynaptiX_FDK/app/user/sx_ex_storage/sx_ex_storage.c **** 
  20:SynaptiX_FDK/app/user/sx_ex_storage/sx_ex_storage.c ****     sx_gpio_init(&cfg->s_cs, &sx_gpio_ops, &cfg->cs_pin);
  21:SynaptiX_FDK/app/user/sx_ex_storage/sx_ex_storage.c ****     sx_gpio_write(&cfg->s_cs, SX_GPIO_HIGH);
  22:SynaptiX_FDK/app/user/sx_ex_storage/sx_ex_storage.c ****     sx_spi_init(&cfg->s_spi, &sx_spi_ops, cfg->hspi, &cfg->s_cs); 
  23:SynaptiX_FDK/app/user/sx_ex_storage/sx_ex_storage.c **** 
  24:SynaptiX_FDK/app/user/sx_ex_storage/sx_ex_storage.c ****     if (!sx_W25Q128_init(&s_w25q128, &cfg->s_spi, &sx_gpio_ops, &cfg->pwr_pin)) {
  25:SynaptiX_FDK/app/user/sx_ex_storage/sx_ex_storage.c ****         log_error(TAG, "W25Q128 init failed");
  26:SynaptiX_FDK/app/user/sx_ex_storage/sx_ex_storage.c ****         return SX_STORAGE_ERR_IO;
  27:SynaptiX_FDK/app/user/sx_ex_storage/sx_ex_storage.c ****     }
  28:SynaptiX_FDK/app/user/sx_ex_storage/sx_ex_storage.c **** 
  29:SynaptiX_FDK/app/user/sx_ex_storage/sx_ex_storage.c ****     /* External flash interface */
  30:SynaptiX_FDK/app/user/sx_ex_storage/sx_ex_storage.c ****     sx_ext_flash_init(&s_flash, &sx_W25Q128_ops, &sx_W25Q128_info);
  31:SynaptiX_FDK/app/user/sx_ex_storage/sx_ex_storage.c **** 
  32:SynaptiX_FDK/app/user/sx_ex_storage/sx_ex_storage.c ****     /* Filesystem */
  33:SynaptiX_FDK/app/user/sx_ex_storage/sx_ex_storage.c ****     if (sx_fs_init(&s_flash) != 0) {
  34:SynaptiX_FDK/app/user/sx_ex_storage/sx_ex_storage.c ****         log_error(TAG, "Filesystem init failed");
  35:SynaptiX_FDK/app/user/sx_ex_storage/sx_ex_storage.c ****         return SX_STORAGE_ERR_IO;
  36:SynaptiX_FDK/app/user/sx_ex_storage/sx_ex_storage.c ****     }
  37:SynaptiX_FDK/app/user/sx_ex_storage/sx_ex_storage.c **** 
  38:SynaptiX_FDK/app/user/sx_ex_storage/sx_ex_storage.c ****     s_initialized = true;
  39:SynaptiX_FDK/app/user/sx_ex_storage/sx_ex_storage.c ****     log_info(TAG, "Storage init OK");
  40:SynaptiX_FDK/app/user/sx_ex_storage/sx_ex_storage.c ****     return SX_STORAGE_OK;
  41:SynaptiX_FDK/app/user/sx_ex_storage/sx_ex_storage.c **** }
  42:SynaptiX_FDK/app/user/sx_ex_storage/sx_ex_storage.c **** 
  43:SynaptiX_FDK/app/user/sx_ex_storage/sx_ex_storage.c **** static sx_storage_err_t _check_init(void)
  44:SynaptiX_FDK/app/user/sx_ex_storage/sx_ex_storage.c **** {
 104              		.loc 1 44 1 is_stmt 1 view -0
 105              		.cfi_startproc
 106              		@ args = 0, pretend = 0, frame = 0
 107              		@ frame_needed = 0, uses_anonymous_args = 0
 108 0000 08B5     		push	{r3, lr}
 109              	.LCFI1:
 110              		.cfi_def_cfa_offset 8
 111              		.cfi_offset 3, -8
 112              		.cfi_offset 14, -4
  45:SynaptiX_FDK/app/user/sx_ex_storage/sx_ex_storage.c ****     if (!s_initialized) {
 113              		.loc 1 45 5 view .LVU21
 114              		.loc 1 45 9 is_stmt 0 view .LVU22
 115 0002 064B     		ldr	r3, .L12
 116 0004 1B78     		ldrb	r3, [r3]	@ zero_extendqisi2
 117              		.loc 1 45 8 view .LVU23
 118 0006 0BB1     		cbz	r3, .L11
  46:SynaptiX_FDK/app/user/sx_ex_storage/sx_ex_storage.c ****         log_error(TAG, "Not initialized");
  47:SynaptiX_FDK/app/user/sx_ex_storage/sx_ex_storage.c ****         return SX_STORAGE_ERR_NOT_INIT;
  48:SynaptiX_FDK/app/user/sx_ex_storage/sx_ex_storage.c ****     }
  49:SynaptiX_FDK/app/user/sx_ex_storage/sx_ex_storage.c ****     return SX_STORAGE_OK;
 119              		.loc 1 49 12 view .LVU24
 120 0008 0020     		movs	r0, #0
 121              	.L8:
  50:SynaptiX_FDK/app/user/sx_ex_storage/sx_ex_storage.c **** }
 122              		.loc 1 50 1 view .LVU25
 123 000a 08BD     		pop	{r3, pc}
 124              	.L11:
ARM GAS  C:\Users\LENOVO\AppData\Local\Temp\ccc7byMl.s 			page 5


  46:SynaptiX_FDK/app/user/sx_ex_storage/sx_ex_storage.c ****         log_error(TAG, "Not initialized");
 125              		.loc 1 46 9 is_stmt 1 view .LVU26
 126 000c 044A     		ldr	r2, .L12+4
 127 000e 0549     		ldr	r1, .L12+8
 128 0010 0120     		movs	r0, #1
 129 0012 FFF7FEFF 		bl	log_func
 130              	.LVL7:
  47:SynaptiX_FDK/app/user/sx_ex_storage/sx_ex_storage.c ****     }
 131              		.loc 1 47 9 view .LVU27
  47:SynaptiX_FDK/app/user/sx_ex_storage/sx_ex_storage.c ****     }
 132              		.loc 1 47 16 is_stmt 0 view .LVU28
 133 0016 6FF00400 		mvn	r0, #4
 134 001a F6E7     		b	.L8
 135              	.L13:
 136              		.align	2
 137              	.L12:
 138 001c 00000000 		.word	s_initialized
 139 0020 00000000 		.word	.LC0
 140 0024 10000000 		.word	.LC1
 141              		.cfi_endproc
 142              	.LFE531:
 144              		.section	.rodata.file_open.str1.4,"aMS",%progbits,1
 145              		.align	2
 146              	.LC2:
 147 0000 66696C65 		.ascii	"file_open: enter path=%s mode=%s\000"
 147      5F6F7065 
 147      6E3A2065 
 147      6E746572 
 147      20706174 
 148 0021 000000   		.align	2
 149              	.LC3:
 150 0024 46494C45 		.ascii	"FILE_IO\000"
 150      5F494F00 
 151              		.align	2
 152              	.LC4:
 153 002c 66696C65 		.ascii	"file_open: malloc done, file=%p\000"
 153      5F6F7065 
 153      6E3A206D 
 153      616C6C6F 
 153      6320646F 
 154              		.align	2
 155              	.LC5:
 156 004c 66696C65 		.ascii	"file_open: calling lfs_file_open, flags=%d\000"
 156      5F6F7065 
 156      6E3A2063 
 156      616C6C69 
 156      6E67206C 
 157 0077 00       		.align	2
 158              	.LC6:
 159 0078 66696C65 		.ascii	"file_open: lfs_file_open returned %d\000"
 159      5F6F7065 
 159      6E3A206C 
 159      66735F66 
 159      696C655F 
 160              		.section	.text.file_open,"ax",%progbits
 161              		.align	1
 162              		.syntax unified
ARM GAS  C:\Users\LENOVO\AppData\Local\Temp\ccc7byMl.s 			page 6


 163              		.thumb
 164              		.thumb_func
 166              	file_open:
 167              	.LVL8:
 168              	.LFB528:
 169              		.file 3 "SynaptiX_FDK/services/filesystem/file_io.h"
   1:SynaptiX_FDK/services/filesystem/file_io.h **** #ifndef __FILE_IO_H
   2:SynaptiX_FDK/services/filesystem/file_io.h **** #define __FILE_IO_H
   3:SynaptiX_FDK/services/filesystem/file_io.h **** 
   4:SynaptiX_FDK/services/filesystem/file_io.h **** #ifdef __cplusplus
   5:SynaptiX_FDK/services/filesystem/file_io.h **** extern "C" {
   6:SynaptiX_FDK/services/filesystem/file_io.h **** #endif
   7:SynaptiX_FDK/services/filesystem/file_io.h **** 
   8:SynaptiX_FDK/services/filesystem/file_io.h **** #include <stdio.h>
   9:SynaptiX_FDK/services/filesystem/file_io.h **** #include "lfs.h"
  10:SynaptiX_FDK/services/filesystem/file_io.h **** #include "lfs_util.h"
  11:SynaptiX_FDK/services/filesystem/file_io.h **** #include "logger.h" // DEBUG: needed for log_info added for hang investigation
  12:SynaptiX_FDK/services/filesystem/file_io.h **** 
  13:SynaptiX_FDK/services/filesystem/file_io.h **** typedef struct file_system_config{
  14:SynaptiX_FDK/services/filesystem/file_io.h ****     struct lfs_config cfg; // LittleFS configuration
  15:SynaptiX_FDK/services/filesystem/file_io.h ****     lfs_t *lfs; // Pointer to the LittleFS object
  16:SynaptiX_FDK/services/filesystem/file_io.h ****     uint32_t block_size; // Size of a block in bytes
  17:SynaptiX_FDK/services/filesystem/file_io.h ****     uint32_t block_count; // Number of blocks in the filesystem
  18:SynaptiX_FDK/services/filesystem/file_io.h ****     struct file_function_t{
  19:SynaptiX_FDK/services/filesystem/file_io.h ****         int (*erase)(const struct lfs_config *c,lfs_size_t block); // Function to erase a block
  20:SynaptiX_FDK/services/filesystem/file_io.h ****         int (*read)(const struct lfs_config *c, lfs_block_t block,
  21:SynaptiX_FDK/services/filesystem/file_io.h ****             lfs_off_t off, void *buffer, lfs_size_t size); // Function to read data from a block
  22:SynaptiX_FDK/services/filesystem/file_io.h ****         int (*write)(const struct lfs_config *c, lfs_block_t block,
  23:SynaptiX_FDK/services/filesystem/file_io.h ****             lfs_off_t off, const void *buffer, lfs_size_t size); // Function to write data to a blo
  24:SynaptiX_FDK/services/filesystem/file_io.h ****     } file_function; // Disk operations functions
  25:SynaptiX_FDK/services/filesystem/file_io.h **** }file_system_config_t;
  26:SynaptiX_FDK/services/filesystem/file_io.h **** 
  27:SynaptiX_FDK/services/filesystem/file_io.h **** int file_system_init(file_system_config_t *config);
  28:SynaptiX_FDK/services/filesystem/file_io.h **** 
  29:SynaptiX_FDK/services/filesystem/file_io.h **** extern lfs_t lfs;
  30:SynaptiX_FDK/services/filesystem/file_io.h **** 
  31:SynaptiX_FDK/services/filesystem/file_io.h **** #define CONFIG_LITTLEFS &lfs
  32:SynaptiX_FDK/services/filesystem/file_io.h **** 
  33:SynaptiX_FDK/services/filesystem/file_io.h **** static inline FILE *file_open(const char *path, const char *mode) {
 170              		.loc 3 33 67 is_stmt 1 view -0
 171              		.cfi_startproc
 172              		@ args = 0, pretend = 0, frame = 0
 173              		@ frame_needed = 0, uses_anonymous_args = 0
 174              		.loc 3 33 67 is_stmt 0 view .LVU30
 175 0000 F0B5     		push	{r4, r5, r6, r7, lr}
 176              	.LCFI2:
 177              		.cfi_def_cfa_offset 20
 178              		.cfi_offset 4, -20
 179              		.cfi_offset 5, -16
 180              		.cfi_offset 6, -12
 181              		.cfi_offset 7, -8
 182              		.cfi_offset 14, -4
 183 0002 83B0     		sub	sp, sp, #12
 184              	.LCFI3:
 185              		.cfi_def_cfa_offset 32
 186 0004 0646     		mov	r6, r0
 187 0006 0D46     		mov	r5, r1
ARM GAS  C:\Users\LENOVO\AppData\Local\Temp\ccc7byMl.s 			page 7


  34:SynaptiX_FDK/services/filesystem/file_io.h ****     // DEBUG: temporary trace to locate the hang after boot-via-bootloader.
  35:SynaptiX_FDK/services/filesystem/file_io.h ****     log_info("FILE_IO", "file_open: enter path=%s mode=%s", path, mode);
 188              		.loc 3 35 5 is_stmt 1 view .LVU31
 189 0008 2D4F     		ldr	r7, .L31
 190 000a 0091     		str	r1, [sp]
 191 000c 0346     		mov	r3, r0
 192 000e 2D4A     		ldr	r2, .L31+4
 193 0010 3946     		mov	r1, r7
 194              	.LVL9:
 195              		.loc 3 35 5 is_stmt 0 view .LVU32
 196 0012 0320     		movs	r0, #3
 197              	.LVL10:
 198              		.loc 3 35 5 view .LVU33
 199 0014 FFF7FEFF 		bl	log_func
 200              	.LVL11:
  36:SynaptiX_FDK/services/filesystem/file_io.h ****     // Use LittleFS to open a file
  37:SynaptiX_FDK/services/filesystem/file_io.h ****     lfs_file_t *file = malloc(sizeof(lfs_file_t));
 201              		.loc 3 37 5 is_stmt 1 view .LVU34
 202              		.loc 3 37 24 is_stmt 0 view .LVU35
 203 0018 5420     		movs	r0, #84
 204 001a FFF7FEFF 		bl	malloc
 205              	.LVL12:
 206 001e 0446     		mov	r4, r0
 207              	.LVL13:
  38:SynaptiX_FDK/services/filesystem/file_io.h ****     log_info("FILE_IO", "file_open: malloc done, file=%p", (void *)file);
 208              		.loc 3 38 5 is_stmt 1 view .LVU36
 209 0020 0346     		mov	r3, r0
 210 0022 294A     		ldr	r2, .L31+8
 211 0024 3946     		mov	r1, r7
 212 0026 0320     		movs	r0, #3
 213              	.LVL14:
 214              		.loc 3 38 5 is_stmt 0 view .LVU37
 215 0028 FFF7FEFF 		bl	log_func
 216              	.LVL15:
  39:SynaptiX_FDK/services/filesystem/file_io.h ****     int lfs_status;
 217              		.loc 3 39 5 is_stmt 1 view .LVU38
  40:SynaptiX_FDK/services/filesystem/file_io.h ****     if(file == NULL) {
 218              		.loc 3 40 5 view .LVU39
 219              		.loc 3 40 7 is_stmt 0 view .LVU40
 220 002c 002C     		cmp	r4, #0
 221 002e 3BD0     		beq	.L14
  41:SynaptiX_FDK/services/filesystem/file_io.h ****         return NULL; // Memory allocation failed
  42:SynaptiX_FDK/services/filesystem/file_io.h ****     }
  43:SynaptiX_FDK/services/filesystem/file_io.h ****     int flags = LFS_O_RDONLY;
 222              		.loc 3 43 5 is_stmt 1 view .LVU41
 223              	.LVL16:
  44:SynaptiX_FDK/services/filesystem/file_io.h **** 
  45:SynaptiX_FDK/services/filesystem/file_io.h ****     if (mode[0] == 'r' && mode[1] == '+') {
 224              		.loc 3 45 5 view .LVU42
 225              		.loc 3 45 13 is_stmt 0 view .LVU43
 226 0030 2978     		ldrb	r1, [r5]	@ zero_extendqisi2
 227              		.loc 3 45 8 view .LVU44
 228 0032 7229     		cmp	r1, #114
 229 0034 0ED0     		beq	.L27
 230              	.L16:
  46:SynaptiX_FDK/services/filesystem/file_io.h ****         flags = LFS_O_RDWR;
  47:SynaptiX_FDK/services/filesystem/file_io.h ****     } else if (mode[0] == 'w' && mode[1] == '+') {
ARM GAS  C:\Users\LENOVO\AppData\Local\Temp\ccc7byMl.s 			page 8


 231              		.loc 3 47 12 is_stmt 1 view .LVU45
 232              		.loc 3 47 15 is_stmt 0 view .LVU46
 233 0036 7729     		cmp	r1, #119
 234 0038 11D0     		beq	.L28
 235              	.L18:
  48:SynaptiX_FDK/services/filesystem/file_io.h ****         flags = LFS_O_RDWR | LFS_O_CREAT | LFS_O_TRUNC;
  49:SynaptiX_FDK/services/filesystem/file_io.h ****     } else if (mode[0] == 'a' && mode[1] == '+') {
 236              		.loc 3 49 12 is_stmt 1 view .LVU47
 237              		.loc 3 49 15 is_stmt 0 view .LVU48
 238 003a 6129     		cmp	r1, #97
 239 003c 15D0     		beq	.L29
 240              	.L19:
  50:SynaptiX_FDK/services/filesystem/file_io.h ****         flags = LFS_O_RDWR | LFS_O_CREAT | LFS_O_APPEND;
  51:SynaptiX_FDK/services/filesystem/file_io.h ****     } else if (mode[0] == 'r') {
 241              		.loc 3 51 12 is_stmt 1 view .LVU49
 242 003e 7229     		cmp	r1, #114
 243 0040 19D0     		beq	.L23
 244 0042 7729     		cmp	r1, #119
 245 0044 19D0     		beq	.L24
 246 0046 6129     		cmp	r1, #97
 247 0048 31D0     		beq	.L25
  52:SynaptiX_FDK/services/filesystem/file_io.h ****         flags = LFS_O_RDONLY;
  53:SynaptiX_FDK/services/filesystem/file_io.h ****     } else if (mode[0] == 'w') {
  54:SynaptiX_FDK/services/filesystem/file_io.h ****         flags = LFS_O_WRONLY | LFS_O_CREAT | LFS_O_TRUNC;
  55:SynaptiX_FDK/services/filesystem/file_io.h ****     } else if (mode[0] == 'a') {
  56:SynaptiX_FDK/services/filesystem/file_io.h ****         flags = LFS_O_WRONLY | LFS_O_CREAT | LFS_O_APPEND;
  57:SynaptiX_FDK/services/filesystem/file_io.h ****     } else {
  58:SynaptiX_FDK/services/filesystem/file_io.h ****         free(file);
 248              		.loc 3 58 9 view .LVU50
 249 004a 2046     		mov	r0, r4
 250 004c FFF7FEFF 		bl	free
 251              	.LVL17:
  59:SynaptiX_FDK/services/filesystem/file_io.h ****         return NULL;
 252              		.loc 3 59 9 view .LVU51
 253              		.loc 3 59 16 is_stmt 0 view .LVU52
 254 0050 0024     		movs	r4, #0
 255              	.LVL18:
 256              		.loc 3 59 16 view .LVU53
 257 0052 29E0     		b	.L14
 258              	.LVL19:
 259              	.L27:
  45:SynaptiX_FDK/services/filesystem/file_io.h ****         flags = LFS_O_RDWR;
 260              		.loc 3 45 31 discriminator 1 view .LVU54
 261 0054 6B78     		ldrb	r3, [r5, #1]	@ zero_extendqisi2
  45:SynaptiX_FDK/services/filesystem/file_io.h ****         flags = LFS_O_RDWR;
 262              		.loc 3 45 24 discriminator 1 view .LVU55
 263 0056 2B2B     		cmp	r3, #43
 264 0058 EDD1     		bne	.L16
  46:SynaptiX_FDK/services/filesystem/file_io.h ****     } else if (mode[0] == 'w' && mode[1] == '+') {
 265              		.loc 3 46 15 view .LVU56
 266 005a 0325     		movs	r5, #3
 267              	.LVL20:
  46:SynaptiX_FDK/services/filesystem/file_io.h ****     } else if (mode[0] == 'w' && mode[1] == '+') {
 268              		.loc 3 46 15 view .LVU57
 269 005c 0FE0     		b	.L17
 270              	.LVL21:
 271              	.L28:
ARM GAS  C:\Users\LENOVO\AppData\Local\Temp\ccc7byMl.s 			page 9


  47:SynaptiX_FDK/services/filesystem/file_io.h ****         flags = LFS_O_RDWR | LFS_O_CREAT | LFS_O_TRUNC;
 272              		.loc 3 47 38 discriminator 1 view .LVU58
 273 005e 6B78     		ldrb	r3, [r5, #1]	@ zero_extendqisi2
  47:SynaptiX_FDK/services/filesystem/file_io.h ****         flags = LFS_O_RDWR | LFS_O_CREAT | LFS_O_TRUNC;
 274              		.loc 3 47 31 discriminator 1 view .LVU59
 275 0060 2B2B     		cmp	r3, #43
 276 0062 EAD1     		bne	.L18
  48:SynaptiX_FDK/services/filesystem/file_io.h ****     } else if (mode[0] == 'a' && mode[1] == '+') {
 277              		.loc 3 48 15 view .LVU60
 278 0064 40F20355 		movw	r5, #1283
 279              	.LVL22:
  48:SynaptiX_FDK/services/filesystem/file_io.h ****     } else if (mode[0] == 'a' && mode[1] == '+') {
 280              		.loc 3 48 15 view .LVU61
 281 0068 09E0     		b	.L17
 282              	.LVL23:
 283              	.L29:
  49:SynaptiX_FDK/services/filesystem/file_io.h ****         flags = LFS_O_RDWR | LFS_O_CREAT | LFS_O_APPEND;
 284              		.loc 3 49 38 discriminator 1 view .LVU62
 285 006a 6B78     		ldrb	r3, [r5, #1]	@ zero_extendqisi2
  49:SynaptiX_FDK/services/filesystem/file_io.h ****         flags = LFS_O_RDWR | LFS_O_CREAT | LFS_O_APPEND;
 286              		.loc 3 49 31 discriminator 1 view .LVU63
 287 006c 2B2B     		cmp	r3, #43
 288 006e E6D1     		bne	.L19
  50:SynaptiX_FDK/services/filesystem/file_io.h ****     } else if (mode[0] == 'r') {
 289              		.loc 3 50 15 view .LVU64
 290 0070 40F60315 		movw	r5, #2307
 291              	.LVL24:
  50:SynaptiX_FDK/services/filesystem/file_io.h ****     } else if (mode[0] == 'r') {
 292              		.loc 3 50 15 view .LVU65
 293 0074 03E0     		b	.L17
 294              	.LVL25:
 295              	.L23:
  50:SynaptiX_FDK/services/filesystem/file_io.h ****     } else if (mode[0] == 'r') {
 296              		.loc 3 50 15 view .LVU66
 297 0076 0125     		movs	r5, #1
 298              	.LVL26:
  50:SynaptiX_FDK/services/filesystem/file_io.h ****     } else if (mode[0] == 'r') {
 299              		.loc 3 50 15 view .LVU67
 300 0078 01E0     		b	.L17
 301              	.LVL27:
 302              	.L24:
  50:SynaptiX_FDK/services/filesystem/file_io.h ****     } else if (mode[0] == 'r') {
 303              		.loc 3 50 15 view .LVU68
 304 007a 40F20255 		movw	r5, #1282
 305              	.LVL28:
 306              	.L17:
  60:SynaptiX_FDK/services/filesystem/file_io.h ****     }
  61:SynaptiX_FDK/services/filesystem/file_io.h ****     log_info("FILE_IO", "file_open: calling lfs_file_open, flags=%d", flags);
 307              		.loc 3 61 5 is_stmt 1 view .LVU69
 308 007e 104F     		ldr	r7, .L31
 309 0080 2B46     		mov	r3, r5
 310 0082 124A     		ldr	r2, .L31+12
 311 0084 3946     		mov	r1, r7
 312 0086 0320     		movs	r0, #3
 313 0088 FFF7FEFF 		bl	log_func
 314              	.LVL29:
  62:SynaptiX_FDK/services/filesystem/file_io.h ****     lfs_status = lfs_file_open(CONFIG_LITTLEFS,file, path, flags);
ARM GAS  C:\Users\LENOVO\AppData\Local\Temp\ccc7byMl.s 			page 10


 315              		.loc 3 62 5 view .LVU70
 316              		.loc 3 62 18 is_stmt 0 view .LVU71
 317 008c 2B46     		mov	r3, r5
 318 008e 3246     		mov	r2, r6
 319 0090 2146     		mov	r1, r4
 320 0092 0F48     		ldr	r0, .L31+16
 321 0094 FFF7FEFF 		bl	lfs_file_open
 322              	.LVL30:
 323 0098 0546     		mov	r5, r0
 324              	.LVL31:
  63:SynaptiX_FDK/services/filesystem/file_io.h ****     log_info("FILE_IO", "file_open: lfs_file_open returned %d", lfs_status);
 325              		.loc 3 63 5 is_stmt 1 view .LVU72
 326 009a 0346     		mov	r3, r0
 327 009c 0D4A     		ldr	r2, .L31+20
 328 009e 3946     		mov	r1, r7
 329 00a0 0320     		movs	r0, #3
 330              	.LVL32:
 331              		.loc 3 63 5 is_stmt 0 view .LVU73
 332 00a2 FFF7FEFF 		bl	log_func
 333              	.LVL33:
  64:SynaptiX_FDK/services/filesystem/file_io.h ****     if (lfs_status != LFS_ERR_OK) {
 334              		.loc 3 64 5 is_stmt 1 view .LVU74
 335              		.loc 3 64 8 is_stmt 0 view .LVU75
 336 00a6 2DB9     		cbnz	r5, .L30
 337              	.LVL34:
 338              	.L14:
  65:SynaptiX_FDK/services/filesystem/file_io.h ****         free(file);
  66:SynaptiX_FDK/services/filesystem/file_io.h ****         return NULL; // Error opening file
  67:SynaptiX_FDK/services/filesystem/file_io.h ****     }
  68:SynaptiX_FDK/services/filesystem/file_io.h ****     return (FILE *)file; // Cast to FILE pointer
  69:SynaptiX_FDK/services/filesystem/file_io.h **** }
 339              		.loc 3 69 1 view .LVU76
 340 00a8 2046     		mov	r0, r4
 341 00aa 03B0     		add	sp, sp, #12
 342              	.LCFI4:
 343              		.cfi_remember_state
 344              		.cfi_def_cfa_offset 20
 345              		@ sp needed
 346 00ac F0BD     		pop	{r4, r5, r6, r7, pc}
 347              	.LVL35:
 348              	.L25:
 349              	.LCFI5:
 350              		.cfi_restore_state
  50:SynaptiX_FDK/services/filesystem/file_io.h ****     } else if (mode[0] == 'r') {
 351              		.loc 3 50 15 view .LVU77
 352 00ae 40F60215 		movw	r5, #2306
 353              	.LVL36:
  50:SynaptiX_FDK/services/filesystem/file_io.h ****     } else if (mode[0] == 'r') {
 354              		.loc 3 50 15 view .LVU78
 355 00b2 E4E7     		b	.L17
 356              	.LVL37:
 357              	.L30:
  65:SynaptiX_FDK/services/filesystem/file_io.h ****         free(file);
 358              		.loc 3 65 9 is_stmt 1 view .LVU79
 359 00b4 2046     		mov	r0, r4
 360 00b6 FFF7FEFF 		bl	free
 361              	.LVL38:
ARM GAS  C:\Users\LENOVO\AppData\Local\Temp\ccc7byMl.s 			page 11


  66:SynaptiX_FDK/services/filesystem/file_io.h ****     }
 362              		.loc 3 66 9 view .LVU80
  66:SynaptiX_FDK/services/filesystem/file_io.h ****     }
 363              		.loc 3 66 16 is_stmt 0 view .LVU81
 364 00ba 0024     		movs	r4, #0
 365              	.LVL39:
  66:SynaptiX_FDK/services/filesystem/file_io.h ****     }
 366              		.loc 3 66 16 view .LVU82
 367 00bc F4E7     		b	.L14
 368              	.L32:
 369 00be 00BF     		.align	2
 370              	.L31:
 371 00c0 24000000 		.word	.LC3
 372 00c4 00000000 		.word	.LC2
 373 00c8 2C000000 		.word	.LC4
 374 00cc 4C000000 		.word	.LC5
 375 00d0 00000000 		.word	lfs
 376 00d4 78000000 		.word	.LC6
 377              		.cfi_endproc
 378              	.LFE528:
 380              		.section	.rodata.sx_storage_init.str1.4,"aMS",%progbits,1
 381              		.align	2
 382              	.LC7:
 383 0000 57323551 		.ascii	"W25Q128 init failed\000"
 383      31323820 
 383      696E6974 
 383      20666169 
 383      6C656400 
 384              		.align	2
 385              	.LC8:
 386 0014 46696C65 		.ascii	"Filesystem init failed\000"
 386      73797374 
 386      656D2069 
 386      6E697420 
 386      6661696C 
 387 002b 00       		.align	2
 388              	.LC9:
 389 002c 53746F72 		.ascii	"Storage init OK\000"
 389      61676520 
 389      696E6974 
 389      204F4B00 
 390              		.section	.text.sx_storage_init,"ax",%progbits
 391              		.align	1
 392              		.global	sx_storage_init
 393              		.syntax unified
 394              		.thumb
 395              		.thumb_func
 397              	sx_storage_init:
 398              	.LVL40:
 399              	.LFB530:
  17:SynaptiX_FDK/app/user/sx_ex_storage/sx_ex_storage.c ****     if (cfg == NULL) return SX_STORAGE_ERR_INVALID;
 400              		.loc 1 17 1 is_stmt 1 view -0
 401              		.cfi_startproc
 402              		@ args = 0, pretend = 0, frame = 0
 403              		@ frame_needed = 0, uses_anonymous_args = 0
  18:SynaptiX_FDK/app/user/sx_ex_storage/sx_ex_storage.c **** 
 404              		.loc 1 18 5 view .LVU84
ARM GAS  C:\Users\LENOVO\AppData\Local\Temp\ccc7byMl.s 			page 12


  18:SynaptiX_FDK/app/user/sx_ex_storage/sx_ex_storage.c **** 
 405              		.loc 1 18 8 is_stmt 0 view .LVU85
 406 0000 0028     		cmp	r0, #0
 407 0002 42D0     		beq	.L37
  17:SynaptiX_FDK/app/user/sx_ex_storage/sx_ex_storage.c ****     if (cfg == NULL) return SX_STORAGE_ERR_INVALID;
 408              		.loc 1 17 1 view .LVU86
 409 0004 70B5     		push	{r4, r5, r6, lr}
 410              	.LCFI6:
 411              		.cfi_def_cfa_offset 16
 412              		.cfi_offset 4, -16
 413              		.cfi_offset 5, -12
 414              		.cfi_offset 6, -8
 415              		.cfi_offset 14, -4
 416 0006 0446     		mov	r4, r0
  20:SynaptiX_FDK/app/user/sx_ex_storage/sx_ex_storage.c ****     sx_gpio_write(&cfg->s_cs, SX_GPIO_HIGH);
 417              		.loc 1 20 5 is_stmt 1 view .LVU87
  20:SynaptiX_FDK/app/user/sx_ex_storage/sx_ex_storage.c ****     sx_gpio_write(&cfg->s_cs, SX_GPIO_HIGH);
 418              		.loc 1 20 44 is_stmt 0 view .LVU88
 419 0008 00F12803 		add	r3, r0, #40
 420              	.LVL41:
 421              	.LBB9:
 422              	.LBI9:
  33:SynaptiX_FDK/components/gpio/sx_gpio.h ****     gpio->ops = ops;
 423              		.loc 2 33 20 is_stmt 1 view .LVU89
 424              	.LBB10:
  34:SynaptiX_FDK/components/gpio/sx_gpio.h ****     gpio->pDriver = pDriver;
 425              		.loc 2 34 5 view .LVU90
  34:SynaptiX_FDK/components/gpio/sx_gpio.h ****     gpio->pDriver = pDriver;
 426              		.loc 2 34 15 is_stmt 0 view .LVU91
 427 000c 204D     		ldr	r5, .L44
 428 000e 0561     		str	r5, [r0, #16]
  35:SynaptiX_FDK/components/gpio/sx_gpio.h ****     gpio->value = SX_GPIO_LOW;
 429              		.loc 2 35 5 is_stmt 1 view .LVU92
  35:SynaptiX_FDK/components/gpio/sx_gpio.h ****     gpio->value = SX_GPIO_LOW;
 430              		.loc 2 35 19 is_stmt 0 view .LVU93
 431 0010 4361     		str	r3, [r0, #20]
  36:SynaptiX_FDK/components/gpio/sx_gpio.h **** }
 432              		.loc 2 36 5 is_stmt 1 view .LVU94
  36:SynaptiX_FDK/components/gpio/sx_gpio.h **** }
 433              		.loc 2 36 17 is_stmt 0 view .LVU95
 434 0012 0023     		movs	r3, #0
 435              	.LVL42:
  36:SynaptiX_FDK/components/gpio/sx_gpio.h **** }
 436              		.loc 2 36 17 view .LVU96
 437 0014 0376     		strb	r3, [r0, #24]
 438              	.LVL43:
  36:SynaptiX_FDK/components/gpio/sx_gpio.h **** }
 439              		.loc 2 36 17 view .LVU97
 440              	.LBE10:
 441              	.LBE9:
  21:SynaptiX_FDK/app/user/sx_ex_storage/sx_ex_storage.c ****     sx_spi_init(&cfg->s_spi, &sx_spi_ops, cfg->hspi, &cfg->s_cs); 
 442              		.loc 1 21 5 is_stmt 1 view .LVU98
 443 0016 00F11006 		add	r6, r0, #16
 444 001a 0121     		movs	r1, #1
 445 001c 3046     		mov	r0, r6
 446              	.LVL44:
  21:SynaptiX_FDK/app/user/sx_ex_storage/sx_ex_storage.c ****     sx_spi_init(&cfg->s_spi, &sx_spi_ops, cfg->hspi, &cfg->s_cs); 
ARM GAS  C:\Users\LENOVO\AppData\Local\Temp\ccc7byMl.s 			page 13


 447              		.loc 1 21 5 is_stmt 0 view .LVU99
 448 001e FFF7FEFF 		bl	sx_gpio_write
 449              	.LVL45:
  22:SynaptiX_FDK/app/user/sx_ex_storage/sx_ex_storage.c **** 
 450              		.loc 1 22 5 is_stmt 1 view .LVU100
  22:SynaptiX_FDK/app/user/sx_ex_storage/sx_ex_storage.c **** 
 451              		.loc 1 22 46 is_stmt 0 view .LVU101
 452 0022 2368     		ldr	r3, [r4]
 453              	.LVL46:
 454              	.LBB11:
 455              	.LBI11:
 456              		.file 4 "SynaptiX_FDK/components/spi/sx_spi.h"
   1:SynaptiX_FDK/components/spi/sx_spi.h **** #ifndef SX_SPI_H
   2:SynaptiX_FDK/components/spi/sx_spi.h **** #define SX_SPI_H
   3:SynaptiX_FDK/components/spi/sx_spi.h **** #ifdef __cplusplus
   4:SynaptiX_FDK/components/spi/sx_spi.h **** extern "C" {
   5:SynaptiX_FDK/components/spi/sx_spi.h **** #endif
   6:SynaptiX_FDK/components/spi/sx_spi.h **** 
   7:SynaptiX_FDK/components/spi/sx_spi.h **** #include <stdint.h>
   8:SynaptiX_FDK/components/spi/sx_spi.h **** #include "sx_gpio.h"
   9:SynaptiX_FDK/components/spi/sx_spi.h **** 
  10:SynaptiX_FDK/components/spi/sx_spi.h **** typedef struct sx_spi sx_spi_t;
  11:SynaptiX_FDK/components/spi/sx_spi.h **** 
  12:SynaptiX_FDK/components/spi/sx_spi.h **** typedef struct sx_spi_ops{
  13:SynaptiX_FDK/components/spi/sx_spi.h ****     int (*write)(sx_spi_t *spi, const uint8_t *data, uint32_t len);
  14:SynaptiX_FDK/components/spi/sx_spi.h ****     int (*read)(sx_spi_t *spi, uint8_t *data, uint32_t len);
  15:SynaptiX_FDK/components/spi/sx_spi.h ****     int (*write_read)(sx_spi_t *spi, const uint8_t *tx_buf, uint8_t *rx_buf, uint32_t len);
  16:SynaptiX_FDK/components/spi/sx_spi.h **** } sx_spi_ops_t;
  17:SynaptiX_FDK/components/spi/sx_spi.h **** 
  18:SynaptiX_FDK/components/spi/sx_spi.h **** struct sx_spi
  19:SynaptiX_FDK/components/spi/sx_spi.h **** {
  20:SynaptiX_FDK/components/spi/sx_spi.h ****     /* data */
  21:SynaptiX_FDK/components/spi/sx_spi.h ****     sx_spi_ops_t *ops;
  22:SynaptiX_FDK/components/spi/sx_spi.h ****     void *pDriver;
  23:SynaptiX_FDK/components/spi/sx_spi.h ****     sx_gpio_t *cs;
  24:SynaptiX_FDK/components/spi/sx_spi.h **** };
  25:SynaptiX_FDK/components/spi/sx_spi.h **** 
  26:SynaptiX_FDK/components/spi/sx_spi.h **** static inline void sx_spi_init(sx_spi_t *spi, sx_spi_ops_t *ops, void *pDriver, sx_gpio_t *cs){
 457              		.loc 4 26 20 is_stmt 1 view .LVU102
 458              	.LBB12:
  27:SynaptiX_FDK/components/spi/sx_spi.h ****     spi->ops = ops;
 459              		.loc 4 27 5 view .LVU103
 460              		.loc 4 27 14 is_stmt 0 view .LVU104
 461 0024 1B4A     		ldr	r2, .L44+4
 462 0026 6260     		str	r2, [r4, #4]
  28:SynaptiX_FDK/components/spi/sx_spi.h ****     spi->pDriver = pDriver;
 463              		.loc 4 28 5 is_stmt 1 view .LVU105
 464              		.loc 4 28 18 is_stmt 0 view .LVU106
 465 0028 A360     		str	r3, [r4, #8]
  29:SynaptiX_FDK/components/spi/sx_spi.h ****     spi->cs = cs;
 466              		.loc 4 29 5 is_stmt 1 view .LVU107
 467              		.loc 4 29 13 is_stmt 0 view .LVU108
 468 002a E660     		str	r6, [r4, #12]
 469              	.LVL47:
 470              		.loc 4 29 13 view .LVU109
 471              	.LBE12:
 472              	.LBE11:
ARM GAS  C:\Users\LENOVO\AppData\Local\Temp\ccc7byMl.s 			page 14


  24:SynaptiX_FDK/app/user/sx_ex_storage/sx_ex_storage.c ****         log_error(TAG, "W25Q128 init failed");
 473              		.loc 1 24 5 is_stmt 1 view .LVU110
  24:SynaptiX_FDK/app/user/sx_ex_storage/sx_ex_storage.c ****         log_error(TAG, "W25Q128 init failed");
 474              		.loc 1 24 10 is_stmt 0 view .LVU111
 475 002c 04F13003 		add	r3, r4, #48
 476 0030 2A46     		mov	r2, r5
 477 0032 211D     		adds	r1, r4, #4
 478 0034 1848     		ldr	r0, .L44+8
 479 0036 FFF7FEFF 		bl	sx_W25Q128_init
 480              	.LVL48:
  24:SynaptiX_FDK/app/user/sx_ex_storage/sx_ex_storage.c ****         log_error(TAG, "W25Q128 init failed");
 481              		.loc 1 24 8 discriminator 1 view .LVU112
 482 003a B0B1     		cbz	r0, .L42
  30:SynaptiX_FDK/app/user/sx_ex_storage/sx_ex_storage.c **** 
 483              		.loc 1 30 5 is_stmt 1 view .LVU113
 484              	.LVL49:
 485              	.LBB13:
 486              	.LBI13:
 487              		.file 5 "SynaptiX_FDK/components/external_flash/sx_external_flash.h"
   1:SynaptiX_FDK/components/external_flash/sx_external_flash.h **** #ifndef __SX_EXTERNAL_FLASH_H
   2:SynaptiX_FDK/components/external_flash/sx_external_flash.h **** #define __SX_EXTERNAL_FLASH_H
   3:SynaptiX_FDK/components/external_flash/sx_external_flash.h **** 
   4:SynaptiX_FDK/components/external_flash/sx_external_flash.h **** #ifdef  __cplusplus
   5:SynaptiX_FDK/components/external_flash/sx_external_flash.h **** extern "C"{
   6:SynaptiX_FDK/components/external_flash/sx_external_flash.h **** #endif
   7:SynaptiX_FDK/components/external_flash/sx_external_flash.h **** 
   8:SynaptiX_FDK/components/external_flash/sx_external_flash.h **** #include "stdint.h"
   9:SynaptiX_FDK/components/external_flash/sx_external_flash.h **** #include "stdbool.h"
  10:SynaptiX_FDK/components/external_flash/sx_external_flash.h **** #include "sx_gpio.h"
  11:SynaptiX_FDK/components/external_flash/sx_external_flash.h **** #include "logger.h" // DEBUG: needed for log_error added for hang investigation
  12:SynaptiX_FDK/components/external_flash/sx_external_flash.h **** 
  13:SynaptiX_FDK/components/external_flash/sx_external_flash.h **** typedef struct {
  14:SynaptiX_FDK/components/external_flash/sx_external_flash.h ****     uint32_t page_size;     /* bytes per page   */
  15:SynaptiX_FDK/components/external_flash/sx_external_flash.h ****     uint32_t sector_size;   /* bytes per sector */
  16:SynaptiX_FDK/components/external_flash/sx_external_flash.h ****     uint32_t block_size;    /* bytes per block  */
  17:SynaptiX_FDK/components/external_flash/sx_external_flash.h ****     uint32_t total_bytes;   /* total chip size  */
  18:SynaptiX_FDK/components/external_flash/sx_external_flash.h **** } sx_ext_flash_info_t;
  19:SynaptiX_FDK/components/external_flash/sx_external_flash.h **** 
  20:SynaptiX_FDK/components/external_flash/sx_external_flash.h **** typedef struct {
  21:SynaptiX_FDK/components/external_flash/sx_external_flash.h ****     int  (*read)        (uint32_t addr, uint8_t *buf, uint32_t len);
  22:SynaptiX_FDK/components/external_flash/sx_external_flash.h ****     int  (*write)       (uint32_t addr, const uint8_t *buf, uint32_t len);
  23:SynaptiX_FDK/components/external_flash/sx_external_flash.h ****     int  (*erase_sector)(uint32_t addr);
  24:SynaptiX_FDK/components/external_flash/sx_external_flash.h ****     bool (*is_busy)     (void);
  25:SynaptiX_FDK/components/external_flash/sx_external_flash.h **** } sx_ext_flash_ops_t;
  26:SynaptiX_FDK/components/external_flash/sx_external_flash.h **** 
  27:SynaptiX_FDK/components/external_flash/sx_external_flash.h **** typedef struct {
  28:SynaptiX_FDK/components/external_flash/sx_external_flash.h ****     sx_ext_flash_ops_t  *ops;
  29:SynaptiX_FDK/components/external_flash/sx_external_flash.h ****     sx_ext_flash_info_t  info;
  30:SynaptiX_FDK/components/external_flash/sx_external_flash.h **** } sx_ext_flash_t;
  31:SynaptiX_FDK/components/external_flash/sx_external_flash.h **** 
  32:SynaptiX_FDK/components/external_flash/sx_external_flash.h **** static inline void sx_ext_flash_init(sx_ext_flash_t *flash, sx_ext_flash_ops_t *ops, sx_ext_flash_i
 488              		.loc 5 32 20 view .LVU114
 489              	.LBB14:
  33:SynaptiX_FDK/components/external_flash/sx_external_flash.h ****     flash->ops = ops;
 490              		.loc 5 33 5 view .LVU115
 491              		.loc 5 33 16 is_stmt 0 view .LVU116
 492 003c 174D     		ldr	r5, .L44+12
ARM GAS  C:\Users\LENOVO\AppData\Local\Temp\ccc7byMl.s 			page 15


 493 003e 2C46     		mov	r4, r5
 494              	.LVL50:
 495              		.loc 5 33 16 view .LVU117
 496 0040 174B     		ldr	r3, .L44+16
 497 0042 44F8043B 		str	r3, [r4], #4
  34:SynaptiX_FDK/components/external_flash/sx_external_flash.h ****     flash->info = *info;
 498              		.loc 5 34 5 is_stmt 1 view .LVU118
 499              		.loc 5 34 17 is_stmt 0 view .LVU119
 500 0046 174B     		ldr	r3, .L44+20
 501 0048 0FCB     		ldm	r3, {r0, r1, r2, r3}
 502 004a 84E80F00 		stm	r4, {r0, r1, r2, r3}
 503              	.LVL51:
 504              		.loc 5 34 17 view .LVU120
 505              	.LBE14:
 506              	.LBE13:
  33:SynaptiX_FDK/app/user/sx_ex_storage/sx_ex_storage.c ****         log_error(TAG, "Filesystem init failed");
 507              		.loc 1 33 5 is_stmt 1 view .LVU121
  33:SynaptiX_FDK/app/user/sx_ex_storage/sx_ex_storage.c ****         log_error(TAG, "Filesystem init failed");
 508              		.loc 1 33 9 is_stmt 0 view .LVU122
 509 004e 2846     		mov	r0, r5
 510 0050 FFF7FEFF 		bl	sx_fs_init
 511              	.LVL52:
  33:SynaptiX_FDK/app/user/sx_ex_storage/sx_ex_storage.c ****         log_error(TAG, "Filesystem init failed");
 512              		.loc 1 33 8 discriminator 1 view .LVU123
 513 0054 88B9     		cbnz	r0, .L43
  38:SynaptiX_FDK/app/user/sx_ex_storage/sx_ex_storage.c ****     log_info(TAG, "Storage init OK");
 514              		.loc 1 38 5 is_stmt 1 view .LVU124
  38:SynaptiX_FDK/app/user/sx_ex_storage/sx_ex_storage.c ****     log_info(TAG, "Storage init OK");
 515              		.loc 1 38 19 is_stmt 0 view .LVU125
 516 0056 144B     		ldr	r3, .L44+24
 517 0058 0122     		movs	r2, #1
 518 005a 1A70     		strb	r2, [r3]
  39:SynaptiX_FDK/app/user/sx_ex_storage/sx_ex_storage.c ****     return SX_STORAGE_OK;
 519              		.loc 1 39 5 is_stmt 1 view .LVU126
 520 005c 134A     		ldr	r2, .L44+28
 521 005e 1449     		ldr	r1, .L44+32
 522 0060 0320     		movs	r0, #3
 523 0062 FFF7FEFF 		bl	log_func
 524              	.LVL53:
  40:SynaptiX_FDK/app/user/sx_ex_storage/sx_ex_storage.c **** }
 525              		.loc 1 40 5 view .LVU127
  40:SynaptiX_FDK/app/user/sx_ex_storage/sx_ex_storage.c **** }
 526              		.loc 1 40 12 is_stmt 0 view .LVU128
 527 0066 0020     		movs	r0, #0
 528              	.L34:
  41:SynaptiX_FDK/app/user/sx_ex_storage/sx_ex_storage.c **** 
 529              		.loc 1 41 1 view .LVU129
 530 0068 70BD     		pop	{r4, r5, r6, pc}
 531              	.LVL54:
 532              	.L42:
  25:SynaptiX_FDK/app/user/sx_ex_storage/sx_ex_storage.c ****         return SX_STORAGE_ERR_IO;
 533              		.loc 1 25 9 is_stmt 1 view .LVU130
 534 006a 124A     		ldr	r2, .L44+36
 535 006c 1049     		ldr	r1, .L44+32
 536 006e 0120     		movs	r0, #1
 537 0070 FFF7FEFF 		bl	log_func
 538              	.LVL55:
ARM GAS  C:\Users\LENOVO\AppData\Local\Temp\ccc7byMl.s 			page 16


  26:SynaptiX_FDK/app/user/sx_ex_storage/sx_ex_storage.c ****     }
 539              		.loc 1 26 9 view .LVU131
  26:SynaptiX_FDK/app/user/sx_ex_storage/sx_ex_storage.c ****     }
 540              		.loc 1 26 16 is_stmt 0 view .LVU132
 541 0074 6FF00100 		mvn	r0, #1
 542 0078 F6E7     		b	.L34
 543              	.LVL56:
 544              	.L43:
  34:SynaptiX_FDK/app/user/sx_ex_storage/sx_ex_storage.c ****         return SX_STORAGE_ERR_IO;
 545              		.loc 1 34 9 is_stmt 1 view .LVU133
 546 007a 0F4A     		ldr	r2, .L44+40
 547 007c 0C49     		ldr	r1, .L44+32
 548 007e 0120     		movs	r0, #1
 549 0080 FFF7FEFF 		bl	log_func
 550              	.LVL57:
  35:SynaptiX_FDK/app/user/sx_ex_storage/sx_ex_storage.c ****     }
 551              		.loc 1 35 9 view .LVU134
  35:SynaptiX_FDK/app/user/sx_ex_storage/sx_ex_storage.c ****     }
 552              		.loc 1 35 16 is_stmt 0 view .LVU135
 553 0084 6FF00100 		mvn	r0, #1
 554 0088 EEE7     		b	.L34
 555              	.LVL58:
 556              	.L37:
 557              	.LCFI7:
 558              		.cfi_def_cfa_offset 0
 559              		.cfi_restore 4
 560              		.cfi_restore 5
 561              		.cfi_restore 6
 562              		.cfi_restore 14
  18:SynaptiX_FDK/app/user/sx_ex_storage/sx_ex_storage.c **** 
 563              		.loc 1 18 29 discriminator 1 view .LVU136
 564 008a 4FF0FF30 		mov	r0, #-1
 565              	.LVL59:
  41:SynaptiX_FDK/app/user/sx_ex_storage/sx_ex_storage.c **** 
 566              		.loc 1 41 1 view .LVU137
 567 008e 7047     		bx	lr
 568              	.L45:
 569              		.align	2
 570              	.L44:
 571 0090 00000000 		.word	sx_gpio_ops
 572 0094 00000000 		.word	sx_spi_ops
 573 0098 00000000 		.word	s_w25q128
 574 009c 00000000 		.word	s_flash
 575 00a0 00000000 		.word	sx_W25Q128_ops
 576 00a4 00000000 		.word	sx_W25Q128_info
 577 00a8 00000000 		.word	s_initialized
 578 00ac 2C000000 		.word	.LC9
 579 00b0 10000000 		.word	.LC1
 580 00b4 00000000 		.word	.LC7
 581 00b8 14000000 		.word	.LC8
 582              		.cfi_endproc
 583              	.LFE530:
 585              		.section	.rodata.sx_storage_write.str1.4,"aMS",%progbits,1
 586              		.align	2
 587              	.LC10:
 588 0000 7700     		.ascii	"w\000"
 589              		.section	.text.sx_storage_write,"ax",%progbits
ARM GAS  C:\Users\LENOVO\AppData\Local\Temp\ccc7byMl.s 			page 17


 590              		.align	1
 591              		.global	sx_storage_write
 592              		.syntax unified
 593              		.thumb
 594              		.thumb_func
 596              	sx_storage_write:
 597              	.LVL60:
 598              	.LFB532:
  51:SynaptiX_FDK/app/user/sx_ex_storage/sx_ex_storage.c **** 
  52:SynaptiX_FDK/app/user/sx_ex_storage/sx_ex_storage.c **** sx_storage_err_t sx_storage_write(const char *path, const void *data, uint32_t len)
  53:SynaptiX_FDK/app/user/sx_ex_storage/sx_ex_storage.c **** {
 599              		.loc 1 53 1 is_stmt 1 view -0
 600              		.cfi_startproc
 601              		@ args = 0, pretend = 0, frame = 0
 602              		@ frame_needed = 0, uses_anonymous_args = 0
 603              		.loc 1 53 1 is_stmt 0 view .LVU139
 604 0000 2DE9F041 		push	{r4, r5, r6, r7, r8, lr}
 605              	.LCFI8:
 606              		.cfi_def_cfa_offset 24
 607              		.cfi_offset 4, -24
 608              		.cfi_offset 5, -20
 609              		.cfi_offset 6, -16
 610              		.cfi_offset 7, -12
 611              		.cfi_offset 8, -8
 612              		.cfi_offset 14, -4
 613 0004 0446     		mov	r4, r0
 614 0006 0D46     		mov	r5, r1
 615 0008 1646     		mov	r6, r2
  54:SynaptiX_FDK/app/user/sx_ex_storage/sx_ex_storage.c ****     if (_check_init() != SX_STORAGE_OK)     return SX_STORAGE_ERR_NOT_INIT;
 616              		.loc 1 54 5 is_stmt 1 view .LVU140
 617              		.loc 1 54 9 is_stmt 0 view .LVU141
 618 000a FFF7FEFF 		bl	_check_init
 619              	.LVL61:
 620              		.loc 1 54 8 discriminator 1 view .LVU142
 621 000e F0B9     		cbnz	r0, .L48
 622 0010 0746     		mov	r7, r0
  55:SynaptiX_FDK/app/user/sx_ex_storage/sx_ex_storage.c ****     if (path == NULL || data == NULL || len == 0) return SX_STORAGE_ERR_INVALID;
 623              		.loc 1 55 5 is_stmt 1 view .LVU143
 624              		.loc 1 55 8 is_stmt 0 view .LVU144
 625 0012 FCB1     		cbz	r4, .L49
 626              		.loc 1 55 22 discriminator 2 view .LVU145
 627 0014 0DB3     		cbz	r5, .L50
 628              		.loc 1 55 38 discriminator 4 view .LVU146
 629 0016 1EB3     		cbz	r6, .L51
  56:SynaptiX_FDK/app/user/sx_ex_storage/sx_ex_storage.c **** 
  57:SynaptiX_FDK/app/user/sx_ex_storage/sx_ex_storage.c ****     FILE *f = fopen(path, "w");
 630              		.loc 1 57 5 is_stmt 1 view .LVU147
 631              		.loc 1 57 15 is_stmt 0 view .LVU148
 632 0018 1649     		ldr	r1, .L56
 633 001a 2046     		mov	r0, r4
 634 001c FFF7FEFF 		bl	file_open
 635              	.LVL62:
  58:SynaptiX_FDK/app/user/sx_ex_storage/sx_ex_storage.c ****     if (f == NULL) return SX_STORAGE_ERR_IO;
 636              		.loc 1 58 5 is_stmt 1 view .LVU149
 637              		.loc 1 58 8 is_stmt 0 view .LVU150
 638 0020 0446     		mov	r4, r0
 639              	.LVL63:
ARM GAS  C:\Users\LENOVO\AppData\Local\Temp\ccc7byMl.s 			page 18


 640              		.loc 1 58 8 view .LVU151
 641 0022 00B3     		cbz	r0, .L52
  59:SynaptiX_FDK/app/user/sx_ex_storage/sx_ex_storage.c **** 
  60:SynaptiX_FDK/app/user/sx_ex_storage/sx_ex_storage.c ****     int ret = fwrite(data, 1, len, f);
 642              		.loc 1 60 5 is_stmt 1 view .LVU152
 643              		.loc 1 60 15 is_stmt 0 view .LVU153
 644 0024 DFF85080 		ldr	r8, .L56+4
 645 0028 3346     		mov	r3, r6
 646 002a 2A46     		mov	r2, r5
 647 002c 0146     		mov	r1, r0
 648 002e 4046     		mov	r0, r8
 649              	.LVL64:
 650              		.loc 1 60 15 view .LVU154
 651 0030 FFF7FEFF 		bl	lfs_file_write
 652              	.LVL65:
 653              		.loc 1 60 15 view .LVU155
 654 0034 0546     		mov	r5, r0
 655              	.LVL66:
  61:SynaptiX_FDK/app/user/sx_ex_storage/sx_ex_storage.c ****     fclose(f);
 656              		.loc 1 61 5 is_stmt 1 view .LVU156
 657              		.loc 1 61 5 view .LVU157
 658 0036 2146     		mov	r1, r4
 659 0038 4046     		mov	r0, r8
 660              	.LVL67:
 661              		.loc 1 61 5 is_stmt 0 view .LVU158
 662 003a FFF7FEFF 		bl	lfs_file_close
 663              	.LVL68:
 664              		.loc 1 61 5 is_stmt 1 discriminator 1 view .LVU159
 665 003e 2046     		mov	r0, r4
 666 0040 FFF7FEFF 		bl	free
 667              	.LVL69:
 668              		.loc 1 61 5 discriminator 2 view .LVU160
  62:SynaptiX_FDK/app/user/sx_ex_storage/sx_ex_storage.c **** 
  63:SynaptiX_FDK/app/user/sx_ex_storage/sx_ex_storage.c ****     if (ret < 0) return SX_STORAGE_ERR_IO;
 669              		.loc 1 63 5 view .LVU161
 670              		.loc 1 63 8 is_stmt 0 view .LVU162
 671 0044 002D     		cmp	r5, #0
 672 0046 11DB     		blt	.L55
 673              	.LVL70:
 674              	.L47:
  64:SynaptiX_FDK/app/user/sx_ex_storage/sx_ex_storage.c ****     return SX_STORAGE_OK;
  65:SynaptiX_FDK/app/user/sx_ex_storage/sx_ex_storage.c **** }
 675              		.loc 1 65 1 view .LVU163
 676 0048 3846     		mov	r0, r7
 677 004a BDE8F081 		pop	{r4, r5, r6, r7, r8, pc}
 678              	.LVL71:
 679              	.L48:
  54:SynaptiX_FDK/app/user/sx_ex_storage/sx_ex_storage.c ****     if (path == NULL || data == NULL || len == 0) return SX_STORAGE_ERR_INVALID;
 680              		.loc 1 54 52 discriminator 1 view .LVU164
 681 004e 6FF00407 		mvn	r7, #4
 682 0052 F9E7     		b	.L47
 683              	.L49:
  55:SynaptiX_FDK/app/user/sx_ex_storage/sx_ex_storage.c **** 
 684              		.loc 1 55 58 discriminator 5 view .LVU165
 685 0054 4FF0FF37 		mov	r7, #-1
 686 0058 F6E7     		b	.L47
 687              	.L50:
ARM GAS  C:\Users\LENOVO\AppData\Local\Temp\ccc7byMl.s 			page 19


 688 005a 4FF0FF37 		mov	r7, #-1
 689 005e F3E7     		b	.L47
 690              	.L51:
 691 0060 4FF0FF37 		mov	r7, #-1
 692 0064 F0E7     		b	.L47
 693              	.LVL72:
 694              	.L52:
  58:SynaptiX_FDK/app/user/sx_ex_storage/sx_ex_storage.c **** 
 695              		.loc 1 58 27 discriminator 1 view .LVU166
 696 0066 6FF00107 		mvn	r7, #1
 697 006a EDE7     		b	.L47
 698              	.LVL73:
 699              	.L55:
  63:SynaptiX_FDK/app/user/sx_ex_storage/sx_ex_storage.c ****     return SX_STORAGE_OK;
 700              		.loc 1 63 25 discriminator 1 view .LVU167
 701 006c 6FF00107 		mvn	r7, #1
 702 0070 EAE7     		b	.L47
 703              	.L57:
 704 0072 00BF     		.align	2
 705              	.L56:
 706 0074 00000000 		.word	.LC10
 707 0078 00000000 		.word	lfs
 708              		.cfi_endproc
 709              	.LFE532:
 711              		.section	.rodata.sx_storage_append.str1.4,"aMS",%progbits,1
 712              		.align	2
 713              	.LC11:
 714 0000 6100     		.ascii	"a\000"
 715              		.section	.text.sx_storage_append,"ax",%progbits
 716              		.align	1
 717              		.global	sx_storage_append
 718              		.syntax unified
 719              		.thumb
 720              		.thumb_func
 722              	sx_storage_append:
 723              	.LVL74:
 724              	.LFB533:
  66:SynaptiX_FDK/app/user/sx_ex_storage/sx_ex_storage.c **** 
  67:SynaptiX_FDK/app/user/sx_ex_storage/sx_ex_storage.c **** sx_storage_err_t sx_storage_append(const char *path, const void *data, uint32_t len)
  68:SynaptiX_FDK/app/user/sx_ex_storage/sx_ex_storage.c **** {
 725              		.loc 1 68 1 is_stmt 1 view -0
 726              		.cfi_startproc
 727              		@ args = 0, pretend = 0, frame = 0
 728              		@ frame_needed = 0, uses_anonymous_args = 0
 729              		.loc 1 68 1 is_stmt 0 view .LVU169
 730 0000 2DE9F041 		push	{r4, r5, r6, r7, r8, lr}
 731              	.LCFI9:
 732              		.cfi_def_cfa_offset 24
 733              		.cfi_offset 4, -24
 734              		.cfi_offset 5, -20
 735              		.cfi_offset 6, -16
 736              		.cfi_offset 7, -12
 737              		.cfi_offset 8, -8
 738              		.cfi_offset 14, -4
 739 0004 0446     		mov	r4, r0
 740 0006 0D46     		mov	r5, r1
 741 0008 1646     		mov	r6, r2
ARM GAS  C:\Users\LENOVO\AppData\Local\Temp\ccc7byMl.s 			page 20


  69:SynaptiX_FDK/app/user/sx_ex_storage/sx_ex_storage.c ****     if (_check_init() != SX_STORAGE_OK)           return SX_STORAGE_ERR_NOT_INIT;
 742              		.loc 1 69 5 is_stmt 1 view .LVU170
 743              		.loc 1 69 9 is_stmt 0 view .LVU171
 744 000a FFF7FEFF 		bl	_check_init
 745              	.LVL75:
 746              		.loc 1 69 8 discriminator 1 view .LVU172
 747 000e F0B9     		cbnz	r0, .L60
 748 0010 0746     		mov	r7, r0
  70:SynaptiX_FDK/app/user/sx_ex_storage/sx_ex_storage.c ****     if (path == NULL || data == NULL || len == 0) return SX_STORAGE_ERR_INVALID;
 749              		.loc 1 70 5 is_stmt 1 view .LVU173
 750              		.loc 1 70 8 is_stmt 0 view .LVU174
 751 0012 FCB1     		cbz	r4, .L61
 752              		.loc 1 70 22 discriminator 2 view .LVU175
 753 0014 0DB3     		cbz	r5, .L62
 754              		.loc 1 70 38 discriminator 4 view .LVU176
 755 0016 1EB3     		cbz	r6, .L63
  71:SynaptiX_FDK/app/user/sx_ex_storage/sx_ex_storage.c **** 
  72:SynaptiX_FDK/app/user/sx_ex_storage/sx_ex_storage.c ****     FILE *f = fopen(path, "a");
 756              		.loc 1 72 5 is_stmt 1 view .LVU177
 757              		.loc 1 72 15 is_stmt 0 view .LVU178
 758 0018 1649     		ldr	r1, .L68
 759 001a 2046     		mov	r0, r4
 760 001c FFF7FEFF 		bl	file_open
 761              	.LVL76:
  73:SynaptiX_FDK/app/user/sx_ex_storage/sx_ex_storage.c ****     if (f == NULL) return SX_STORAGE_ERR_IO;
 762              		.loc 1 73 5 is_stmt 1 view .LVU179
 763              		.loc 1 73 8 is_stmt 0 view .LVU180
 764 0020 0446     		mov	r4, r0
 765              	.LVL77:
 766              		.loc 1 73 8 view .LVU181
 767 0022 00B3     		cbz	r0, .L64
  74:SynaptiX_FDK/app/user/sx_ex_storage/sx_ex_storage.c **** 
  75:SynaptiX_FDK/app/user/sx_ex_storage/sx_ex_storage.c ****     int ret = fwrite(data, 1, len, f);
 768              		.loc 1 75 5 is_stmt 1 view .LVU182
 769              		.loc 1 75 15 is_stmt 0 view .LVU183
 770 0024 DFF85080 		ldr	r8, .L68+4
 771 0028 3346     		mov	r3, r6
 772 002a 2A46     		mov	r2, r5
 773 002c 0146     		mov	r1, r0
 774 002e 4046     		mov	r0, r8
 775              	.LVL78:
 776              		.loc 1 75 15 view .LVU184
 777 0030 FFF7FEFF 		bl	lfs_file_write
 778              	.LVL79:
 779              		.loc 1 75 15 view .LVU185
 780 0034 0546     		mov	r5, r0
 781              	.LVL80:
  76:SynaptiX_FDK/app/user/sx_ex_storage/sx_ex_storage.c ****     fclose(f);
 782              		.loc 1 76 5 is_stmt 1 view .LVU186
 783              		.loc 1 76 5 view .LVU187
 784 0036 2146     		mov	r1, r4
 785 0038 4046     		mov	r0, r8
 786              	.LVL81:
 787              		.loc 1 76 5 is_stmt 0 view .LVU188
 788 003a FFF7FEFF 		bl	lfs_file_close
 789              	.LVL82:
 790              		.loc 1 76 5 is_stmt 1 discriminator 1 view .LVU189
ARM GAS  C:\Users\LENOVO\AppData\Local\Temp\ccc7byMl.s 			page 21


 791 003e 2046     		mov	r0, r4
 792 0040 FFF7FEFF 		bl	free
 793              	.LVL83:
 794              		.loc 1 76 5 discriminator 2 view .LVU190
  77:SynaptiX_FDK/app/user/sx_ex_storage/sx_ex_storage.c **** 
  78:SynaptiX_FDK/app/user/sx_ex_storage/sx_ex_storage.c ****     if (ret < 0) return SX_STORAGE_ERR_IO;
 795              		.loc 1 78 5 view .LVU191
 796              		.loc 1 78 8 is_stmt 0 view .LVU192
 797 0044 002D     		cmp	r5, #0
 798 0046 11DB     		blt	.L67
 799              	.LVL84:
 800              	.L59:
  79:SynaptiX_FDK/app/user/sx_ex_storage/sx_ex_storage.c ****     return SX_STORAGE_OK;
  80:SynaptiX_FDK/app/user/sx_ex_storage/sx_ex_storage.c **** }
 801              		.loc 1 80 1 view .LVU193
 802 0048 3846     		mov	r0, r7
 803 004a BDE8F081 		pop	{r4, r5, r6, r7, r8, pc}
 804              	.LVL85:
 805              	.L60:
  69:SynaptiX_FDK/app/user/sx_ex_storage/sx_ex_storage.c ****     if (path == NULL || data == NULL || len == 0) return SX_STORAGE_ERR_INVALID;
 806              		.loc 1 69 58 discriminator 1 view .LVU194
 807 004e 6FF00407 		mvn	r7, #4
 808 0052 F9E7     		b	.L59
 809              	.L61:
  70:SynaptiX_FDK/app/user/sx_ex_storage/sx_ex_storage.c **** 
 810              		.loc 1 70 58 discriminator 5 view .LVU195
 811 0054 4FF0FF37 		mov	r7, #-1
 812 0058 F6E7     		b	.L59
 813              	.L62:
 814 005a 4FF0FF37 		mov	r7, #-1
 815 005e F3E7     		b	.L59
 816              	.L63:
 817 0060 4FF0FF37 		mov	r7, #-1
 818 0064 F0E7     		b	.L59
 819              	.LVL86:
 820              	.L64:
  73:SynaptiX_FDK/app/user/sx_ex_storage/sx_ex_storage.c **** 
 821              		.loc 1 73 27 discriminator 1 view .LVU196
 822 0066 6FF00107 		mvn	r7, #1
 823 006a EDE7     		b	.L59
 824              	.LVL87:
 825              	.L67:
  78:SynaptiX_FDK/app/user/sx_ex_storage/sx_ex_storage.c ****     return SX_STORAGE_OK;
 826              		.loc 1 78 25 discriminator 1 view .LVU197
 827 006c 6FF00107 		mvn	r7, #1
 828 0070 EAE7     		b	.L59
 829              	.L69:
 830 0072 00BF     		.align	2
 831              	.L68:
 832 0074 00000000 		.word	.LC11
 833 0078 00000000 		.word	lfs
 834              		.cfi_endproc
 835              	.LFE533:
 837              		.section	.rodata.sx_storage_read.str1.4,"aMS",%progbits,1
 838              		.align	2
 839              	.LC12:
 840 0000 7200     		.ascii	"r\000"
ARM GAS  C:\Users\LENOVO\AppData\Local\Temp\ccc7byMl.s 			page 22


 841              		.section	.text.sx_storage_read,"ax",%progbits
 842              		.align	1
 843              		.global	sx_storage_read
 844              		.syntax unified
 845              		.thumb
 846              		.thumb_func
 848              	sx_storage_read:
 849              	.LVL88:
 850              	.LFB534:
  81:SynaptiX_FDK/app/user/sx_ex_storage/sx_ex_storage.c **** 
  82:SynaptiX_FDK/app/user/sx_ex_storage/sx_ex_storage.c **** sx_storage_err_t sx_storage_read(const char *path, void *buf, uint32_t len)
  83:SynaptiX_FDK/app/user/sx_ex_storage/sx_ex_storage.c **** {
 851              		.loc 1 83 1 is_stmt 1 view -0
 852              		.cfi_startproc
 853              		@ args = 0, pretend = 0, frame = 0
 854              		@ frame_needed = 0, uses_anonymous_args = 0
 855              		.loc 1 83 1 is_stmt 0 view .LVU199
 856 0000 2DE9F041 		push	{r4, r5, r6, r7, r8, lr}
 857              	.LCFI10:
 858              		.cfi_def_cfa_offset 24
 859              		.cfi_offset 4, -24
 860              		.cfi_offset 5, -20
 861              		.cfi_offset 6, -16
 862              		.cfi_offset 7, -12
 863              		.cfi_offset 8, -8
 864              		.cfi_offset 14, -4
 865 0004 0446     		mov	r4, r0
 866 0006 0D46     		mov	r5, r1
 867 0008 1646     		mov	r6, r2
  84:SynaptiX_FDK/app/user/sx_ex_storage/sx_ex_storage.c ****     if (_check_init() != SX_STORAGE_OK)          return SX_STORAGE_ERR_NOT_INIT;
 868              		.loc 1 84 5 is_stmt 1 view .LVU200
 869              		.loc 1 84 9 is_stmt 0 view .LVU201
 870 000a FFF7FEFF 		bl	_check_init
 871              	.LVL89:
 872              		.loc 1 84 8 discriminator 1 view .LVU202
 873 000e F0B9     		cbnz	r0, .L72
 874 0010 0746     		mov	r7, r0
  85:SynaptiX_FDK/app/user/sx_ex_storage/sx_ex_storage.c ****     if (path == NULL || buf == NULL || len == 0) return SX_STORAGE_ERR_INVALID;
 875              		.loc 1 85 5 is_stmt 1 view .LVU203
 876              		.loc 1 85 8 is_stmt 0 view .LVU204
 877 0012 FCB1     		cbz	r4, .L73
 878              		.loc 1 85 22 discriminator 2 view .LVU205
 879 0014 0DB3     		cbz	r5, .L74
 880              		.loc 1 85 37 discriminator 4 view .LVU206
 881 0016 1EB3     		cbz	r6, .L75
  86:SynaptiX_FDK/app/user/sx_ex_storage/sx_ex_storage.c **** 
  87:SynaptiX_FDK/app/user/sx_ex_storage/sx_ex_storage.c ****     FILE *f = fopen(path, "r");
 882              		.loc 1 87 5 is_stmt 1 view .LVU207
 883              		.loc 1 87 15 is_stmt 0 view .LVU208
 884 0018 1649     		ldr	r1, .L80
 885 001a 2046     		mov	r0, r4
 886 001c FFF7FEFF 		bl	file_open
 887              	.LVL90:
  88:SynaptiX_FDK/app/user/sx_ex_storage/sx_ex_storage.c ****     if (f == NULL) return SX_STORAGE_ERR_NOT_FOUND;
 888              		.loc 1 88 5 is_stmt 1 view .LVU209
 889              		.loc 1 88 8 is_stmt 0 view .LVU210
 890 0020 0446     		mov	r4, r0
ARM GAS  C:\Users\LENOVO\AppData\Local\Temp\ccc7byMl.s 			page 23


 891              	.LVL91:
 892              		.loc 1 88 8 view .LVU211
 893 0022 00B3     		cbz	r0, .L76
  89:SynaptiX_FDK/app/user/sx_ex_storage/sx_ex_storage.c **** 
  90:SynaptiX_FDK/app/user/sx_ex_storage/sx_ex_storage.c ****     int ret = fread(buf, 1, len, f);
 894              		.loc 1 90 5 is_stmt 1 view .LVU212
 895              		.loc 1 90 15 is_stmt 0 view .LVU213
 896 0024 DFF85080 		ldr	r8, .L80+4
 897 0028 3346     		mov	r3, r6
 898 002a 2A46     		mov	r2, r5
 899 002c 0146     		mov	r1, r0
 900 002e 4046     		mov	r0, r8
 901              	.LVL92:
 902              		.loc 1 90 15 view .LVU214
 903 0030 FFF7FEFF 		bl	lfs_file_read
 904              	.LVL93:
 905              		.loc 1 90 15 view .LVU215
 906 0034 0546     		mov	r5, r0
 907              	.LVL94:
  91:SynaptiX_FDK/app/user/sx_ex_storage/sx_ex_storage.c ****     fclose(f);
 908              		.loc 1 91 5 is_stmt 1 view .LVU216
 909              		.loc 1 91 5 view .LVU217
 910 0036 2146     		mov	r1, r4
 911 0038 4046     		mov	r0, r8
 912              	.LVL95:
 913              		.loc 1 91 5 is_stmt 0 view .LVU218
 914 003a FFF7FEFF 		bl	lfs_file_close
 915              	.LVL96:
 916              		.loc 1 91 5 is_stmt 1 discriminator 1 view .LVU219
 917 003e 2046     		mov	r0, r4
 918 0040 FFF7FEFF 		bl	free
 919              	.LVL97:
 920              		.loc 1 91 5 discriminator 2 view .LVU220
  92:SynaptiX_FDK/app/user/sx_ex_storage/sx_ex_storage.c **** 
  93:SynaptiX_FDK/app/user/sx_ex_storage/sx_ex_storage.c ****     if (ret < 0) return SX_STORAGE_ERR_IO;
 921              		.loc 1 93 5 view .LVU221
 922              		.loc 1 93 8 is_stmt 0 view .LVU222
 923 0044 002D     		cmp	r5, #0
 924 0046 11DB     		blt	.L79
 925              	.LVL98:
 926              	.L71:
  94:SynaptiX_FDK/app/user/sx_ex_storage/sx_ex_storage.c ****     return SX_STORAGE_OK;
  95:SynaptiX_FDK/app/user/sx_ex_storage/sx_ex_storage.c **** }
 927              		.loc 1 95 1 view .LVU223
 928 0048 3846     		mov	r0, r7
 929 004a BDE8F081 		pop	{r4, r5, r6, r7, r8, pc}
 930              	.LVL99:
 931              	.L72:
  84:SynaptiX_FDK/app/user/sx_ex_storage/sx_ex_storage.c ****     if (path == NULL || buf == NULL || len == 0) return SX_STORAGE_ERR_INVALID;
 932              		.loc 1 84 57 discriminator 1 view .LVU224
 933 004e 6FF00407 		mvn	r7, #4
 934 0052 F9E7     		b	.L71
 935              	.L73:
  85:SynaptiX_FDK/app/user/sx_ex_storage/sx_ex_storage.c **** 
 936              		.loc 1 85 57 discriminator 5 view .LVU225
 937 0054 4FF0FF37 		mov	r7, #-1
 938 0058 F6E7     		b	.L71
ARM GAS  C:\Users\LENOVO\AppData\Local\Temp\ccc7byMl.s 			page 24


 939              	.L74:
 940 005a 4FF0FF37 		mov	r7, #-1
 941 005e F3E7     		b	.L71
 942              	.L75:
 943 0060 4FF0FF37 		mov	r7, #-1
 944 0064 F0E7     		b	.L71
 945              	.LVL100:
 946              	.L76:
  88:SynaptiX_FDK/app/user/sx_ex_storage/sx_ex_storage.c **** 
 947              		.loc 1 88 27 discriminator 1 view .LVU226
 948 0066 6FF00207 		mvn	r7, #2
 949 006a EDE7     		b	.L71
 950              	.LVL101:
 951              	.L79:
  93:SynaptiX_FDK/app/user/sx_ex_storage/sx_ex_storage.c ****     return SX_STORAGE_OK;
 952              		.loc 1 93 25 discriminator 1 view .LVU227
 953 006c 6FF00107 		mvn	r7, #1
 954 0070 EAE7     		b	.L71
 955              	.L81:
 956 0072 00BF     		.align	2
 957              	.L80:
 958 0074 00000000 		.word	.LC12
 959 0078 00000000 		.word	lfs
 960              		.cfi_endproc
 961              	.LFE534:
 963              		.section	.text.sx_storage_read_partial,"ax",%progbits
 964              		.align	1
 965              		.global	sx_storage_read_partial
 966              		.syntax unified
 967              		.thumb
 968              		.thumb_func
 970              	sx_storage_read_partial:
 971              	.LVL102:
 972              	.LFB535:
  96:SynaptiX_FDK/app/user/sx_ex_storage/sx_ex_storage.c **** 
  97:SynaptiX_FDK/app/user/sx_ex_storage/sx_ex_storage.c **** sx_storage_err_t sx_storage_read_partial(const char *path, void *buf, uint32_t offset, uint32_t len
  98:SynaptiX_FDK/app/user/sx_ex_storage/sx_ex_storage.c **** {
 973              		.loc 1 98 1 is_stmt 1 view -0
 974              		.cfi_startproc
 975              		@ args = 0, pretend = 0, frame = 0
 976              		@ frame_needed = 0, uses_anonymous_args = 0
 977              		.loc 1 98 1 is_stmt 0 view .LVU229
 978 0000 2DE9F041 		push	{r4, r5, r6, r7, r8, lr}
 979              	.LCFI11:
 980              		.cfi_def_cfa_offset 24
 981              		.cfi_offset 4, -24
 982              		.cfi_offset 5, -20
 983              		.cfi_offset 6, -16
 984              		.cfi_offset 7, -12
 985              		.cfi_offset 8, -8
 986              		.cfi_offset 14, -4
 987 0004 0446     		mov	r4, r0
 988 0006 0D46     		mov	r5, r1
 989 0008 1746     		mov	r7, r2
 990 000a 1E46     		mov	r6, r3
  99:SynaptiX_FDK/app/user/sx_ex_storage/sx_ex_storage.c ****     if (_check_init() != SX_STORAGE_OK)          return SX_STORAGE_ERR_NOT_INIT;
 991              		.loc 1 99 5 is_stmt 1 view .LVU230
ARM GAS  C:\Users\LENOVO\AppData\Local\Temp\ccc7byMl.s 			page 25


 992              		.loc 1 99 9 is_stmt 0 view .LVU231
 993 000c FFF7FEFF 		bl	_check_init
 994              	.LVL103:
 995              		.loc 1 99 8 discriminator 1 view .LVU232
 996 0010 78BB     		cbnz	r0, .L85
 997 0012 8046     		mov	r8, r0
 100:SynaptiX_FDK/app/user/sx_ex_storage/sx_ex_storage.c ****     if (path == NULL || buf == NULL || len == 0)  return SX_STORAGE_ERR_INVALID;
 998              		.loc 1 100 5 is_stmt 1 view .LVU233
 999              		.loc 1 100 8 is_stmt 0 view .LVU234
 1000 0014 84B3     		cbz	r4, .L86
 1001              		.loc 1 100 22 discriminator 2 view .LVU235
 1002 0016 95B3     		cbz	r5, .L87
 1003              		.loc 1 100 37 discriminator 4 view .LVU236
 1004 0018 A6B3     		cbz	r6, .L88
 101:SynaptiX_FDK/app/user/sx_ex_storage/sx_ex_storage.c **** 
 102:SynaptiX_FDK/app/user/sx_ex_storage/sx_ex_storage.c ****     FILE *f = fopen(path, "r");
 1005              		.loc 1 102 5 is_stmt 1 view .LVU237
 1006              		.loc 1 102 15 is_stmt 0 view .LVU238
 1007 001a 1F49     		ldr	r1, .L94
 1008 001c 2046     		mov	r0, r4
 1009 001e FFF7FEFF 		bl	file_open
 1010              	.LVL104:
 103:SynaptiX_FDK/app/user/sx_ex_storage/sx_ex_storage.c ****     if (f == NULL) return SX_STORAGE_ERR_NOT_FOUND;
 1011              		.loc 1 103 5 is_stmt 1 view .LVU239
 1012              		.loc 1 103 8 is_stmt 0 view .LVU240
 1013 0022 0446     		mov	r4, r0
 1014              	.LVL105:
 1015              		.loc 1 103 8 view .LVU241
 1016 0024 88B3     		cbz	r0, .L89
 104:SynaptiX_FDK/app/user/sx_ex_storage/sx_ex_storage.c **** 
 105:SynaptiX_FDK/app/user/sx_ex_storage/sx_ex_storage.c ****     if (fseek(f, offset, LFS_SEEK_SET) < 0) {
 1017              		.loc 1 105 5 is_stmt 1 view .LVU242
 1018              		.loc 1 105 9 is_stmt 0 view .LVU243
 1019 0026 0023     		movs	r3, #0
 1020 0028 3A46     		mov	r2, r7
 1021 002a 0146     		mov	r1, r0
 1022 002c 1B48     		ldr	r0, .L94+4
 1023              	.LVL106:
 1024              		.loc 1 105 9 view .LVU244
 1025 002e FFF7FEFF 		bl	lfs_file_seek
 1026              	.LVL107:
 1027              		.loc 1 105 8 discriminator 1 view .LVU245
 1028 0032 0028     		cmp	r0, #0
 1029 0034 13DB     		blt	.L92
 106:SynaptiX_FDK/app/user/sx_ex_storage/sx_ex_storage.c ****         fclose(f);
 107:SynaptiX_FDK/app/user/sx_ex_storage/sx_ex_storage.c ****         return SX_STORAGE_ERR_IO;
 108:SynaptiX_FDK/app/user/sx_ex_storage/sx_ex_storage.c ****     }
 109:SynaptiX_FDK/app/user/sx_ex_storage/sx_ex_storage.c **** 
 110:SynaptiX_FDK/app/user/sx_ex_storage/sx_ex_storage.c ****     int ret = fread(buf, 1, len, f);
 1030              		.loc 1 110 5 is_stmt 1 view .LVU246
 1031              		.loc 1 110 15 is_stmt 0 view .LVU247
 1032 0036 194F     		ldr	r7, .L94+4
 1033              	.LVL108:
 1034              		.loc 1 110 15 view .LVU248
 1035 0038 3346     		mov	r3, r6
 1036 003a 2A46     		mov	r2, r5
 1037 003c 2146     		mov	r1, r4
ARM GAS  C:\Users\LENOVO\AppData\Local\Temp\ccc7byMl.s 			page 26


 1038 003e 3846     		mov	r0, r7
 1039 0040 FFF7FEFF 		bl	lfs_file_read
 1040              	.LVL109:
 1041 0044 0546     		mov	r5, r0
 1042              	.LVL110:
 111:SynaptiX_FDK/app/user/sx_ex_storage/sx_ex_storage.c ****     fclose(f);
 1043              		.loc 1 111 5 is_stmt 1 view .LVU249
 1044              		.loc 1 111 5 view .LVU250
 1045 0046 2146     		mov	r1, r4
 1046 0048 3846     		mov	r0, r7
 1047              	.LVL111:
 1048              		.loc 1 111 5 is_stmt 0 view .LVU251
 1049 004a FFF7FEFF 		bl	lfs_file_close
 1050              	.LVL112:
 1051              		.loc 1 111 5 is_stmt 1 discriminator 1 view .LVU252
 1052 004e 2046     		mov	r0, r4
 1053 0050 FFF7FEFF 		bl	free
 1054              	.LVL113:
 1055              		.loc 1 111 5 discriminator 2 view .LVU253
 112:SynaptiX_FDK/app/user/sx_ex_storage/sx_ex_storage.c **** 
 113:SynaptiX_FDK/app/user/sx_ex_storage/sx_ex_storage.c ****     if (ret < 0) return SX_STORAGE_ERR_IO;
 1056              		.loc 1 113 5 view .LVU254
 1057              		.loc 1 113 8 is_stmt 0 view .LVU255
 1058 0054 002D     		cmp	r5, #0
 1059 0056 1BDB     		blt	.L93
 1060              	.LVL114:
 1061              	.L83:
 114:SynaptiX_FDK/app/user/sx_ex_storage/sx_ex_storage.c ****     return SX_STORAGE_OK;
 115:SynaptiX_FDK/app/user/sx_ex_storage/sx_ex_storage.c **** }
 1062              		.loc 1 115 1 view .LVU256
 1063 0058 4046     		mov	r0, r8
 1064 005a BDE8F081 		pop	{r4, r5, r6, r7, r8, pc}
 1065              	.LVL115:
 1066              	.L92:
 106:SynaptiX_FDK/app/user/sx_ex_storage/sx_ex_storage.c ****         return SX_STORAGE_ERR_IO;
 1067              		.loc 1 106 9 is_stmt 1 view .LVU257
 106:SynaptiX_FDK/app/user/sx_ex_storage/sx_ex_storage.c ****         return SX_STORAGE_ERR_IO;
 1068              		.loc 1 106 9 view .LVU258
 1069 005e 2146     		mov	r1, r4
 1070 0060 0E48     		ldr	r0, .L94+4
 1071 0062 FFF7FEFF 		bl	lfs_file_close
 1072              	.LVL116:
 106:SynaptiX_FDK/app/user/sx_ex_storage/sx_ex_storage.c ****         return SX_STORAGE_ERR_IO;
 1073              		.loc 1 106 9 discriminator 1 view .LVU259
 1074 0066 2046     		mov	r0, r4
 1075 0068 FFF7FEFF 		bl	free
 1076              	.LVL117:
 106:SynaptiX_FDK/app/user/sx_ex_storage/sx_ex_storage.c ****         return SX_STORAGE_ERR_IO;
 1077              		.loc 1 106 9 discriminator 2 view .LVU260
 107:SynaptiX_FDK/app/user/sx_ex_storage/sx_ex_storage.c ****     }
 1078              		.loc 1 107 9 view .LVU261
 107:SynaptiX_FDK/app/user/sx_ex_storage/sx_ex_storage.c ****     }
 1079              		.loc 1 107 16 is_stmt 0 view .LVU262
 1080 006c 6FF00108 		mvn	r8, #1
 1081 0070 F2E7     		b	.L83
 1082              	.LVL118:
 1083              	.L85:
ARM GAS  C:\Users\LENOVO\AppData\Local\Temp\ccc7byMl.s 			page 27


  99:SynaptiX_FDK/app/user/sx_ex_storage/sx_ex_storage.c ****     if (path == NULL || buf == NULL || len == 0)  return SX_STORAGE_ERR_INVALID;
 1084              		.loc 1 99 57 discriminator 1 view .LVU263
 1085 0072 6FF00408 		mvn	r8, #4
 1086 0076 EFE7     		b	.L83
 1087              	.L86:
 100:SynaptiX_FDK/app/user/sx_ex_storage/sx_ex_storage.c **** 
 1088              		.loc 1 100 58 discriminator 5 view .LVU264
 1089 0078 4FF0FF38 		mov	r8, #-1
 1090 007c ECE7     		b	.L83
 1091              	.L87:
 1092 007e 4FF0FF38 		mov	r8, #-1
 1093 0082 E9E7     		b	.L83
 1094              	.L88:
 1095 0084 4FF0FF38 		mov	r8, #-1
 1096 0088 E6E7     		b	.L83
 1097              	.LVL119:
 1098              	.L89:
 103:SynaptiX_FDK/app/user/sx_ex_storage/sx_ex_storage.c **** 
 1099              		.loc 1 103 27 discriminator 1 view .LVU265
 1100 008a 6FF00208 		mvn	r8, #2
 1101 008e E3E7     		b	.L83
 1102              	.LVL120:
 1103              	.L93:
 113:SynaptiX_FDK/app/user/sx_ex_storage/sx_ex_storage.c ****     return SX_STORAGE_OK;
 1104              		.loc 1 113 25 discriminator 1 view .LVU266
 1105 0090 6FF00108 		mvn	r8, #1
 1106 0094 E0E7     		b	.L83
 1107              	.L95:
 1108 0096 00BF     		.align	2
 1109              	.L94:
 1110 0098 00000000 		.word	.LC12
 1111 009c 00000000 		.word	lfs
 1112              		.cfi_endproc
 1113              	.LFE535:
 1115              		.section	.text.sx_storage_delete,"ax",%progbits
 1116              		.align	1
 1117              		.global	sx_storage_delete
 1118              		.syntax unified
 1119              		.thumb
 1120              		.thumb_func
 1122              	sx_storage_delete:
 1123              	.LVL121:
 1124              	.LFB536:
 116:SynaptiX_FDK/app/user/sx_ex_storage/sx_ex_storage.c **** 
 117:SynaptiX_FDK/app/user/sx_ex_storage/sx_ex_storage.c **** sx_storage_err_t sx_storage_delete(const char *path)
 118:SynaptiX_FDK/app/user/sx_ex_storage/sx_ex_storage.c **** {
 1125              		.loc 1 118 1 is_stmt 1 view -0
 1126              		.cfi_startproc
 1127              		@ args = 0, pretend = 0, frame = 0
 1128              		@ frame_needed = 0, uses_anonymous_args = 0
 1129              		.loc 1 118 1 is_stmt 0 view .LVU268
 1130 0000 38B5     		push	{r3, r4, r5, lr}
 1131              	.LCFI12:
 1132              		.cfi_def_cfa_offset 16
 1133              		.cfi_offset 3, -16
 1134              		.cfi_offset 4, -12
 1135              		.cfi_offset 5, -8
ARM GAS  C:\Users\LENOVO\AppData\Local\Temp\ccc7byMl.s 			page 28


 1136              		.cfi_offset 14, -4
 1137 0002 0446     		mov	r4, r0
 119:SynaptiX_FDK/app/user/sx_ex_storage/sx_ex_storage.c ****     if (_check_init() != SX_STORAGE_OK) return SX_STORAGE_ERR_NOT_INIT;
 1138              		.loc 1 119 5 is_stmt 1 view .LVU269
 1139              		.loc 1 119 9 is_stmt 0 view .LVU270
 1140 0004 FFF7FEFF 		bl	_check_init
 1141              	.LVL122:
 1142              		.loc 1 119 8 discriminator 1 view .LVU271
 1143 0008 48B9     		cbnz	r0, .L98
 1144 000a 0546     		mov	r5, r0
 120:SynaptiX_FDK/app/user/sx_ex_storage/sx_ex_storage.c ****     if (path == NULL)                    return SX_STORAGE_ERR_INVALID;
 1145              		.loc 1 120 5 is_stmt 1 view .LVU272
 1146              		.loc 1 120 8 is_stmt 0 view .LVU273
 1147 000c 54B1     		cbz	r4, .L99
 121:SynaptiX_FDK/app/user/sx_ex_storage/sx_ex_storage.c **** 
 122:SynaptiX_FDK/app/user/sx_ex_storage/sx_ex_storage.c ****     if (remove(path) < 0) return SX_STORAGE_ERR_NOT_FOUND;
 1148              		.loc 1 122 5 is_stmt 1 view .LVU274
 1149              		.loc 1 122 9 is_stmt 0 view .LVU275
 1150 000e 2146     		mov	r1, r4
 1151 0010 0748     		ldr	r0, .L103
 1152 0012 FFF7FEFF 		bl	lfs_remove
 1153              	.LVL123:
 1154              		.loc 1 122 8 discriminator 1 view .LVU276
 1155 0016 0028     		cmp	r0, #0
 1156 0018 07DB     		blt	.L102
 1157              	.L97:
 123:SynaptiX_FDK/app/user/sx_ex_storage/sx_ex_storage.c ****     return SX_STORAGE_OK;
 124:SynaptiX_FDK/app/user/sx_ex_storage/sx_ex_storage.c **** }
 1158              		.loc 1 124 1 view .LVU277
 1159 001a 2846     		mov	r0, r5
 1160 001c 38BD     		pop	{r3, r4, r5, pc}
 1161              	.LVL124:
 1162              	.L98:
 119:SynaptiX_FDK/app/user/sx_ex_storage/sx_ex_storage.c ****     if (path == NULL)                    return SX_STORAGE_ERR_INVALID;
 1163              		.loc 1 119 48 discriminator 1 view .LVU278
 1164 001e 6FF00405 		mvn	r5, #4
 1165 0022 FAE7     		b	.L97
 1166              	.L99:
 120:SynaptiX_FDK/app/user/sx_ex_storage/sx_ex_storage.c **** 
 1167              		.loc 1 120 49 discriminator 1 view .LVU279
 1168 0024 4FF0FF35 		mov	r5, #-1
 1169 0028 F7E7     		b	.L97
 1170              	.L102:
 122:SynaptiX_FDK/app/user/sx_ex_storage/sx_ex_storage.c ****     return SX_STORAGE_OK;
 1171              		.loc 1 122 34 discriminator 1 view .LVU280
 1172 002a 6FF00205 		mvn	r5, #2
 1173 002e F4E7     		b	.L97
 1174              	.L104:
 1175              		.align	2
 1176              	.L103:
 1177 0030 00000000 		.word	lfs
 1178              		.cfi_endproc
 1179              	.LFE536:
 1181              		.section	.text.sx_storage_exists,"ax",%progbits
 1182              		.align	1
 1183              		.global	sx_storage_exists
 1184              		.syntax unified
ARM GAS  C:\Users\LENOVO\AppData\Local\Temp\ccc7byMl.s 			page 29


 1185              		.thumb
 1186              		.thumb_func
 1188              	sx_storage_exists:
 1189              	.LVL125:
 1190              	.LFB537:
 125:SynaptiX_FDK/app/user/sx_ex_storage/sx_ex_storage.c **** 
 126:SynaptiX_FDK/app/user/sx_ex_storage/sx_ex_storage.c **** bool sx_storage_exists(const char *path){
 1191              		.loc 1 126 41 is_stmt 1 view -0
 1192              		.cfi_startproc
 1193              		@ args = 0, pretend = 0, frame = 0
 1194              		@ frame_needed = 0, uses_anonymous_args = 0
 1195              		.loc 1 126 41 is_stmt 0 view .LVU282
 1196 0000 38B5     		push	{r3, r4, r5, lr}
 1197              	.LCFI13:
 1198              		.cfi_def_cfa_offset 16
 1199              		.cfi_offset 3, -16
 1200              		.cfi_offset 4, -12
 1201              		.cfi_offset 5, -8
 1202              		.cfi_offset 14, -4
 127:SynaptiX_FDK/app/user/sx_ex_storage/sx_ex_storage.c ****     if (!s_initialized || path == NULL) return false;
 1203              		.loc 1 127 5 is_stmt 1 view .LVU283
 1204              		.loc 1 127 9 is_stmt 0 view .LVU284
 1205 0002 0B4B     		ldr	r3, .L110
 1206 0004 1C78     		ldrb	r4, [r3]	@ zero_extendqisi2
 1207              		.loc 1 127 8 view .LVU285
 1208 0006 64B1     		cbz	r4, .L106
 1209              		.loc 1 127 24 discriminator 2 view .LVU286
 1210 0008 68B1     		cbz	r0, .L107
 128:SynaptiX_FDK/app/user/sx_ex_storage/sx_ex_storage.c **** 
 129:SynaptiX_FDK/app/user/sx_ex_storage/sx_ex_storage.c ****     FILE *f = fopen(path, "r");
 1211              		.loc 1 129 5 is_stmt 1 view .LVU287
 1212              		.loc 1 129 15 is_stmt 0 view .LVU288
 1213 000a 0A49     		ldr	r1, .L110+4
 1214 000c FFF7FEFF 		bl	file_open
 1215              	.LVL126:
 130:SynaptiX_FDK/app/user/sx_ex_storage/sx_ex_storage.c ****     if (f == NULL) return false;
 1216              		.loc 1 130 5 is_stmt 1 view .LVU289
 1217              		.loc 1 130 8 is_stmt 0 view .LVU290
 1218 0010 0546     		mov	r5, r0
 1219 0012 50B1     		cbz	r0, .L108
 131:SynaptiX_FDK/app/user/sx_ex_storage/sx_ex_storage.c ****     fclose(f);
 1220              		.loc 1 131 5 is_stmt 1 view .LVU291
 1221              		.loc 1 131 5 view .LVU292
 1222 0014 0146     		mov	r1, r0
 1223 0016 0848     		ldr	r0, .L110+8
 1224              	.LVL127:
 1225              		.loc 1 131 5 is_stmt 0 view .LVU293
 1226 0018 FFF7FEFF 		bl	lfs_file_close
 1227              	.LVL128:
 1228              		.loc 1 131 5 is_stmt 1 discriminator 1 view .LVU294
 1229 001c 2846     		mov	r0, r5
 1230 001e FFF7FEFF 		bl	free
 1231              	.LVL129:
 1232              		.loc 1 131 5 discriminator 2 view .LVU295
 132:SynaptiX_FDK/app/user/sx_ex_storage/sx_ex_storage.c ****     return true;
 1233              		.loc 1 132 5 view .LVU296
 1234              	.L106:
ARM GAS  C:\Users\LENOVO\AppData\Local\Temp\ccc7byMl.s 			page 30


 133:SynaptiX_FDK/app/user/sx_ex_storage/sx_ex_storage.c **** }
 1235              		.loc 1 133 1 is_stmt 0 view .LVU297
 1236 0022 2046     		mov	r0, r4
 1237 0024 38BD     		pop	{r3, r4, r5, pc}
 1238              	.LVL130:
 1239              	.L107:
 127:SynaptiX_FDK/app/user/sx_ex_storage/sx_ex_storage.c **** 
 1240              		.loc 1 127 48 discriminator 3 view .LVU298
 1241 0026 0024     		movs	r4, #0
 1242 0028 FBE7     		b	.L106
 1243              	.LVL131:
 1244              	.L108:
 130:SynaptiX_FDK/app/user/sx_ex_storage/sx_ex_storage.c ****     fclose(f);
 1245              		.loc 1 130 27 discriminator 1 view .LVU299
 1246 002a 0024     		movs	r4, #0
 1247 002c F9E7     		b	.L106
 1248              	.L111:
 1249 002e 00BF     		.align	2
 1250              	.L110:
 1251 0030 00000000 		.word	s_initialized
 1252 0034 00000000 		.word	.LC12
 1253 0038 00000000 		.word	lfs
 1254              		.cfi_endproc
 1255              	.LFE537:
 1257              		.section	.text.sx_storage_size,"ax",%progbits
 1258              		.align	1
 1259              		.global	sx_storage_size
 1260              		.syntax unified
 1261              		.thumb
 1262              		.thumb_func
 1264              	sx_storage_size:
 1265              	.LVL132:
 1266              	.LFB538:
 134:SynaptiX_FDK/app/user/sx_ex_storage/sx_ex_storage.c **** 
 135:SynaptiX_FDK/app/user/sx_ex_storage/sx_ex_storage.c **** int32_t sx_storage_size(const char *path)
 136:SynaptiX_FDK/app/user/sx_ex_storage/sx_ex_storage.c **** {
 1267              		.loc 1 136 1 is_stmt 1 view -0
 1268              		.cfi_startproc
 1269              		@ args = 0, pretend = 0, frame = 0
 1270              		@ frame_needed = 0, uses_anonymous_args = 0
 1271              		.loc 1 136 1 is_stmt 0 view .LVU301
 1272 0000 70B5     		push	{r4, r5, r6, lr}
 1273              	.LCFI14:
 1274              		.cfi_def_cfa_offset 16
 1275              		.cfi_offset 4, -16
 1276              		.cfi_offset 5, -12
 1277              		.cfi_offset 6, -8
 1278              		.cfi_offset 14, -4
 137:SynaptiX_FDK/app/user/sx_ex_storage/sx_ex_storage.c ****     if (!s_initialized || path == NULL) return -1;
 1279              		.loc 1 137 5 is_stmt 1 view .LVU302
 1280              		.loc 1 137 9 is_stmt 0 view .LVU303
 1281 0002 104B     		ldr	r3, .L118
 1282 0004 1B78     		ldrb	r3, [r3]	@ zero_extendqisi2
 1283              		.loc 1 137 8 view .LVU304
 1284 0006 A3B1     		cbz	r3, .L114
 1285              		.loc 1 137 24 discriminator 2 view .LVU305
 1286 0008 B0B1     		cbz	r0, .L115
ARM GAS  C:\Users\LENOVO\AppData\Local\Temp\ccc7byMl.s 			page 31


 138:SynaptiX_FDK/app/user/sx_ex_storage/sx_ex_storage.c **** 
 139:SynaptiX_FDK/app/user/sx_ex_storage/sx_ex_storage.c ****     FILE *f = fopen(path, "r");
 1287              		.loc 1 139 5 is_stmt 1 view .LVU306
 1288              		.loc 1 139 15 is_stmt 0 view .LVU307
 1289 000a 0F49     		ldr	r1, .L118+4
 1290 000c FFF7FEFF 		bl	file_open
 1291              	.LVL133:
 140:SynaptiX_FDK/app/user/sx_ex_storage/sx_ex_storage.c ****     if (f == NULL) return -1;
 1292              		.loc 1 140 5 is_stmt 1 view .LVU308
 1293              		.loc 1 140 8 is_stmt 0 view .LVU309
 1294 0010 0546     		mov	r5, r0
 1295 0012 A0B1     		cbz	r0, .L116
 141:SynaptiX_FDK/app/user/sx_ex_storage/sx_ex_storage.c **** 
 142:SynaptiX_FDK/app/user/sx_ex_storage/sx_ex_storage.c ****     int32_t sz = (int32_t)file_size(f);
 1296              		.loc 1 142 5 is_stmt 1 view .LVU310
 1297              		.loc 1 142 27 is_stmt 0 view .LVU311
 1298 0014 0D4E     		ldr	r6, .L118+8
 1299 0016 0146     		mov	r1, r0
 1300 0018 3046     		mov	r0, r6
 1301              	.LVL134:
 1302              		.loc 1 142 27 view .LVU312
 1303 001a FFF7FEFF 		bl	lfs_file_size
 1304              	.LVL135:
 1305              		.loc 1 142 27 view .LVU313
 1306 001e 0446     		mov	r4, r0
 1307              	.LVL136:
 143:SynaptiX_FDK/app/user/sx_ex_storage/sx_ex_storage.c ****     fclose(f);
 1308              		.loc 1 143 5 is_stmt 1 view .LVU314
 1309              		.loc 1 143 5 view .LVU315
 1310 0020 2946     		mov	r1, r5
 1311 0022 3046     		mov	r0, r6
 1312              	.LVL137:
 1313              		.loc 1 143 5 is_stmt 0 view .LVU316
 1314 0024 FFF7FEFF 		bl	lfs_file_close
 1315              	.LVL138:
 1316              		.loc 1 143 5 is_stmt 1 discriminator 1 view .LVU317
 1317 0028 2846     		mov	r0, r5
 1318 002a FFF7FEFF 		bl	free
 1319              	.LVL139:
 1320              		.loc 1 143 5 discriminator 2 view .LVU318
 144:SynaptiX_FDK/app/user/sx_ex_storage/sx_ex_storage.c ****     return sz;
 1321              		.loc 1 144 5 view .LVU319
 1322              	.L112:
 145:SynaptiX_FDK/app/user/sx_ex_storage/sx_ex_storage.c **** }
 1323              		.loc 1 145 1 is_stmt 0 view .LVU320
 1324 002e 2046     		mov	r0, r4
 1325 0030 70BD     		pop	{r4, r5, r6, pc}
 1326              	.LVL140:
 1327              	.L114:
 137:SynaptiX_FDK/app/user/sx_ex_storage/sx_ex_storage.c **** 
 1328              		.loc 1 137 48 discriminator 3 view .LVU321
 1329 0032 4FF0FF34 		mov	r4, #-1
 1330 0036 FAE7     		b	.L112
 1331              	.L115:
 1332 0038 4FF0FF34 		mov	r4, #-1
 1333 003c F7E7     		b	.L112
 1334              	.LVL141:
ARM GAS  C:\Users\LENOVO\AppData\Local\Temp\ccc7byMl.s 			page 32


 1335              	.L116:
 140:SynaptiX_FDK/app/user/sx_ex_storage/sx_ex_storage.c **** 
 1336              		.loc 1 140 27 discriminator 1 view .LVU322
 1337 003e 4FF0FF34 		mov	r4, #-1
 1338 0042 F4E7     		b	.L112
 1339              	.L119:
 1340              		.align	2
 1341              	.L118:
 1342 0044 00000000 		.word	s_initialized
 1343 0048 00000000 		.word	.LC12
 1344 004c 00000000 		.word	lfs
 1345              		.cfi_endproc
 1346              	.LFE538:
 1348              		.section	.text.sx_storage_mkdir,"ax",%progbits
 1349              		.align	1
 1350              		.global	sx_storage_mkdir
 1351              		.syntax unified
 1352              		.thumb
 1353              		.thumb_func
 1355              	sx_storage_mkdir:
 1356              	.LVL142:
 1357              	.LFB539:
 146:SynaptiX_FDK/app/user/sx_ex_storage/sx_ex_storage.c **** 
 147:SynaptiX_FDK/app/user/sx_ex_storage/sx_ex_storage.c **** sx_storage_err_t sx_storage_mkdir(const char *path)
 148:SynaptiX_FDK/app/user/sx_ex_storage/sx_ex_storage.c **** {
 1358              		.loc 1 148 1 is_stmt 1 view -0
 1359              		.cfi_startproc
 1360              		@ args = 0, pretend = 0, frame = 0
 1361              		@ frame_needed = 0, uses_anonymous_args = 0
 1362              		.loc 1 148 1 is_stmt 0 view .LVU324
 1363 0000 38B5     		push	{r3, r4, r5, lr}
 1364              	.LCFI15:
 1365              		.cfi_def_cfa_offset 16
 1366              		.cfi_offset 3, -16
 1367              		.cfi_offset 4, -12
 1368              		.cfi_offset 5, -8
 1369              		.cfi_offset 14, -4
 1370 0002 0446     		mov	r4, r0
 149:SynaptiX_FDK/app/user/sx_ex_storage/sx_ex_storage.c ****     if (_check_init() != SX_STORAGE_OK) return SX_STORAGE_ERR_NOT_INIT;
 1371              		.loc 1 149 5 is_stmt 1 view .LVU325
 1372              		.loc 1 149 9 is_stmt 0 view .LVU326
 1373 0004 FFF7FEFF 		bl	_check_init
 1374              	.LVL143:
 1375              		.loc 1 149 8 discriminator 1 view .LVU327
 1376 0008 48B9     		cbnz	r0, .L122
 1377 000a 0546     		mov	r5, r0
 150:SynaptiX_FDK/app/user/sx_ex_storage/sx_ex_storage.c ****     if (path == NULL)                    return SX_STORAGE_ERR_INVALID;
 1378              		.loc 1 150 5 is_stmt 1 view .LVU328
 1379              		.loc 1 150 8 is_stmt 0 view .LVU329
 1380 000c 54B1     		cbz	r4, .L123
 151:SynaptiX_FDK/app/user/sx_ex_storage/sx_ex_storage.c **** 
 152:SynaptiX_FDK/app/user/sx_ex_storage/sx_ex_storage.c ****     if (mkdir(path) < 0) return SX_STORAGE_ERR_IO;
 1381              		.loc 1 152 5 is_stmt 1 view .LVU330
 1382              		.loc 1 152 9 is_stmt 0 view .LVU331
 1383 000e 2146     		mov	r1, r4
 1384 0010 0748     		ldr	r0, .L127
 1385 0012 FFF7FEFF 		bl	lfs_mkdir
ARM GAS  C:\Users\LENOVO\AppData\Local\Temp\ccc7byMl.s 			page 33


 1386              	.LVL144:
 1387              		.loc 1 152 8 discriminator 1 view .LVU332
 1388 0016 0028     		cmp	r0, #0
 1389 0018 07DB     		blt	.L126
 1390              	.L121:
 153:SynaptiX_FDK/app/user/sx_ex_storage/sx_ex_storage.c ****     return SX_STORAGE_OK;
 154:SynaptiX_FDK/app/user/sx_ex_storage/sx_ex_storage.c **** }
 1391              		.loc 1 154 1 view .LVU333
 1392 001a 2846     		mov	r0, r5
 1393 001c 38BD     		pop	{r3, r4, r5, pc}
 1394              	.LVL145:
 1395              	.L122:
 149:SynaptiX_FDK/app/user/sx_ex_storage/sx_ex_storage.c ****     if (path == NULL)                    return SX_STORAGE_ERR_INVALID;
 1396              		.loc 1 149 48 discriminator 1 view .LVU334
 1397 001e 6FF00405 		mvn	r5, #4
 1398 0022 FAE7     		b	.L121
 1399              	.L123:
 150:SynaptiX_FDK/app/user/sx_ex_storage/sx_ex_storage.c **** 
 1400              		.loc 1 150 49 discriminator 1 view .LVU335
 1401 0024 4FF0FF35 		mov	r5, #-1
 1402 0028 F7E7     		b	.L121
 1403              	.L126:
 152:SynaptiX_FDK/app/user/sx_ex_storage/sx_ex_storage.c ****     return SX_STORAGE_OK;
 1404              		.loc 1 152 33 discriminator 1 view .LVU336
 1405 002a 6FF00105 		mvn	r5, #1
 1406 002e F4E7     		b	.L121
 1407              	.L128:
 1408              		.align	2
 1409              	.L127:
 1410 0030 00000000 		.word	lfs
 1411              		.cfi_endproc
 1412              	.LFE539:
 1414              		.section	.text.sx_storage_list_dir,"ax",%progbits
 1415              		.align	1
 1416              		.global	sx_storage_list_dir
 1417              		.syntax unified
 1418              		.thumb
 1419              		.thumb_func
 1421              	sx_storage_list_dir:
 1422              	.LVL146:
 1423              	.LFB540:
 155:SynaptiX_FDK/app/user/sx_ex_storage/sx_ex_storage.c **** 
 156:SynaptiX_FDK/app/user/sx_ex_storage/sx_ex_storage.c **** void sx_storage_list_dir(const char *path)
 157:SynaptiX_FDK/app/user/sx_ex_storage/sx_ex_storage.c **** {
 1424              		.loc 1 157 1 is_stmt 1 view -0
 1425              		.cfi_startproc
 1426              		@ args = 0, pretend = 0, frame = 0
 1427              		@ frame_needed = 0, uses_anonymous_args = 0
 1428              		.loc 1 157 1 is_stmt 0 view .LVU338
 1429 0000 08B5     		push	{r3, lr}
 1430              	.LCFI16:
 1431              		.cfi_def_cfa_offset 8
 1432              		.cfi_offset 3, -8
 1433              		.cfi_offset 14, -4
 158:SynaptiX_FDK/app/user/sx_ex_storage/sx_ex_storage.c ****     if (!s_initialized || path == NULL) return;
 1434              		.loc 1 158 5 is_stmt 1 view .LVU339
 1435              		.loc 1 158 9 is_stmt 0 view .LVU340
ARM GAS  C:\Users\LENOVO\AppData\Local\Temp\ccc7byMl.s 			page 34


 1436 0002 034B     		ldr	r3, .L132
 1437 0004 1B78     		ldrb	r3, [r3]	@ zero_extendqisi2
 1438              		.loc 1 158 8 view .LVU341
 1439 0006 13B1     		cbz	r3, .L129
 1440              		.loc 1 158 24 discriminator 2 view .LVU342
 1441 0008 08B1     		cbz	r0, .L129
 159:SynaptiX_FDK/app/user/sx_ex_storage/sx_ex_storage.c ****     fs_list_dir(path);
 1442              		.loc 1 159 5 is_stmt 1 view .LVU343
 1443 000a FFF7FEFF 		bl	fs_list_dir
 1444              	.LVL147:
 1445              	.L129:
 160:SynaptiX_FDK/app/user/sx_ex_storage/sx_ex_storage.c **** }
 1446              		.loc 1 160 1 is_stmt 0 view .LVU344
 1447 000e 08BD     		pop	{r3, pc}
 1448              	.L133:
 1449              		.align	2
 1450              	.L132:
 1451 0010 00000000 		.word	s_initialized
 1452              		.cfi_endproc
 1453              	.LFE540:
 1455              		.section	.text.sx_storage_free_space,"ax",%progbits
 1456              		.align	1
 1457              		.global	sx_storage_free_space
 1458              		.syntax unified
 1459              		.thumb
 1460              		.thumb_func
 1462              	sx_storage_free_space:
 1463              	.LFB541:
 161:SynaptiX_FDK/app/user/sx_ex_storage/sx_ex_storage.c **** 
 162:SynaptiX_FDK/app/user/sx_ex_storage/sx_ex_storage.c **** int32_t sx_storage_free_space(void)
 163:SynaptiX_FDK/app/user/sx_ex_storage/sx_ex_storage.c **** {
 1464              		.loc 1 163 1 is_stmt 1 view -0
 1465              		.cfi_startproc
 1466              		@ args = 0, pretend = 0, frame = 0
 1467              		@ frame_needed = 0, uses_anonymous_args = 0
 1468 0000 08B5     		push	{r3, lr}
 1469              	.LCFI17:
 1470              		.cfi_def_cfa_offset 8
 1471              		.cfi_offset 3, -8
 1472              		.cfi_offset 14, -4
 164:SynaptiX_FDK/app/user/sx_ex_storage/sx_ex_storage.c ****     if (!s_initialized) return -1;
 1473              		.loc 1 164 5 view .LVU346
 1474              		.loc 1 164 9 is_stmt 0 view .LVU347
 1475 0002 094B     		ldr	r3, .L139
 1476 0004 1B78     		ldrb	r3, [r3]	@ zero_extendqisi2
 1477              		.loc 1 164 8 view .LVU348
 1478 0006 43B1     		cbz	r3, .L136
 165:SynaptiX_FDK/app/user/sx_ex_storage/sx_ex_storage.c ****     int32_t used = (int32_t)fs_size();
 1479              		.loc 1 165 5 is_stmt 1 view .LVU349
 1480              		.loc 1 165 29 is_stmt 0 view .LVU350
 1481 0008 0848     		ldr	r0, .L139+4
 1482 000a FFF7FEFF 		bl	lfs_fs_size
 1483              	.LVL148:
 166:SynaptiX_FDK/app/user/sx_ex_storage/sx_ex_storage.c ****     if (used < 0) return -1;
 1484              		.loc 1 166 5 is_stmt 1 view .LVU351
 1485              		.loc 1 166 8 is_stmt 0 view .LVU352
 1486 000e 0028     		cmp	r0, #0
ARM GAS  C:\Users\LENOVO\AppData\Local\Temp\ccc7byMl.s 			page 35


 1487              		.loc 1 166 8 view .LVU353
 1488 0010 06DB     		blt	.L137
 167:SynaptiX_FDK/app/user/sx_ex_storage/sx_ex_storage.c ****     return (int32_t)sx_W25Q128_info.total_bytes - used;
 1489              		.loc 1 167 5 is_stmt 1 view .LVU354
 1490              		.loc 1 167 36 is_stmt 0 view .LVU355
 1491 0012 074B     		ldr	r3, .L139+8
 1492 0014 DB68     		ldr	r3, [r3, #12]
 1493              		.loc 1 167 49 view .LVU356
 1494 0016 181A     		subs	r0, r3, r0
 1495              	.LVL149:
 1496              	.L134:
 168:SynaptiX_FDK/app/user/sx_ex_storage/sx_ex_storage.c **** }
 1497              		.loc 1 168 1 view .LVU357
 1498 0018 08BD     		pop	{r3, pc}
 1499              	.L136:
 164:SynaptiX_FDK/app/user/sx_ex_storage/sx_ex_storage.c ****     int32_t used = (int32_t)fs_size();
 1500              		.loc 1 164 32 discriminator 1 view .LVU358
 1501 001a 4FF0FF30 		mov	r0, #-1
 1502 001e FBE7     		b	.L134
 1503              	.LVL150:
 1504              	.L137:
 166:SynaptiX_FDK/app/user/sx_ex_storage/sx_ex_storage.c ****     return (int32_t)sx_W25Q128_info.total_bytes - used;
 1505              		.loc 1 166 26 discriminator 1 view .LVU359
 1506 0020 4FF0FF30 		mov	r0, #-1
 1507              	.LVL151:
 166:SynaptiX_FDK/app/user/sx_ex_storage/sx_ex_storage.c ****     return (int32_t)sx_W25Q128_info.total_bytes - used;
 1508              		.loc 1 166 26 discriminator 1 view .LVU360
 1509 0024 F8E7     		b	.L134
 1510              	.L140:
 1511 0026 00BF     		.align	2
 1512              	.L139:
 1513 0028 00000000 		.word	s_initialized
 1514 002c 00000000 		.word	lfs
 1515 0030 00000000 		.word	sx_W25Q128_info
 1516              		.cfi_endproc
 1517              	.LFE541:
 1519              		.section	.text.sx_storage_total_space,"ax",%progbits
 1520              		.align	1
 1521              		.global	sx_storage_total_space
 1522              		.syntax unified
 1523              		.thumb
 1524              		.thumb_func
 1526              	sx_storage_total_space:
 1527              	.LFB542:
 169:SynaptiX_FDK/app/user/sx_ex_storage/sx_ex_storage.c **** 
 170:SynaptiX_FDK/app/user/sx_ex_storage/sx_ex_storage.c **** int32_t sx_storage_total_space(void)
 171:SynaptiX_FDK/app/user/sx_ex_storage/sx_ex_storage.c **** {
 1528              		.loc 1 171 1 is_stmt 1 view -0
 1529              		.cfi_startproc
 1530              		@ args = 0, pretend = 0, frame = 0
 1531              		@ frame_needed = 0, uses_anonymous_args = 0
 1532              		@ link register save eliminated.
 172:SynaptiX_FDK/app/user/sx_ex_storage/sx_ex_storage.c ****     return (int32_t)sx_W25Q128_info.total_bytes;
 1533              		.loc 1 172 5 view .LVU362
 173:SynaptiX_FDK/app/user/sx_ex_storage/sx_ex_storage.c **** }
 1534              		.loc 1 173 1 is_stmt 0 view .LVU363
 1535 0000 014B     		ldr	r3, .L142
ARM GAS  C:\Users\LENOVO\AppData\Local\Temp\ccc7byMl.s 			page 36


 1536 0002 D868     		ldr	r0, [r3, #12]
 1537 0004 7047     		bx	lr
 1538              	.L143:
 1539 0006 00BF     		.align	2
 1540              	.L142:
 1541 0008 00000000 		.word	sx_W25Q128_info
 1542              		.cfi_endproc
 1543              	.LFE542:
 1545              		.section	.rodata.sx_storage_format.str1.4,"aMS",%progbits,1
 1546              		.align	2
 1547              	.LC13:
 1548 0000 466F726D 		.ascii	"Format failed\000"
 1548      61742066 
 1548      61696C65 
 1548      6400
 1549 000e 0000     		.align	2
 1550              	.LC14:
 1551 0010 466F726D 		.ascii	"Format OK\000"
 1551      6174204F 
 1551      4B00
 1552              		.section	.text.sx_storage_format,"ax",%progbits
 1553              		.align	1
 1554              		.global	sx_storage_format
 1555              		.syntax unified
 1556              		.thumb
 1557              		.thumb_func
 1559              	sx_storage_format:
 1560              	.LFB543:
 174:SynaptiX_FDK/app/user/sx_ex_storage/sx_ex_storage.c **** 
 175:SynaptiX_FDK/app/user/sx_ex_storage/sx_ex_storage.c **** sx_storage_err_t sx_storage_format(void)
 176:SynaptiX_FDK/app/user/sx_ex_storage/sx_ex_storage.c **** {
 1561              		.loc 1 176 1 is_stmt 1 view -0
 1562              		.cfi_startproc
 1563              		@ args = 0, pretend = 0, frame = 0
 1564              		@ frame_needed = 0, uses_anonymous_args = 0
 1565 0000 10B5     		push	{r4, lr}
 1566              	.LCFI18:
 1567              		.cfi_def_cfa_offset 8
 1568              		.cfi_offset 4, -8
 1569              		.cfi_offset 14, -4
 177:SynaptiX_FDK/app/user/sx_ex_storage/sx_ex_storage.c ****     if (_check_init() != SX_STORAGE_OK) return SX_STORAGE_ERR_NOT_INIT;
 1570              		.loc 1 177 5 view .LVU365
 1571              		.loc 1 177 9 is_stmt 0 view .LVU366
 1572 0002 FFF7FEFF 		bl	_check_init
 1573              	.LVL152:
 1574              		.loc 1 177 8 discriminator 1 view .LVU367
 1575 0006 C8B9     		cbnz	r0, .L147
 1576 0008 0446     		mov	r4, r0
 178:SynaptiX_FDK/app/user/sx_ex_storage/sx_ex_storage.c **** 
 179:SynaptiX_FDK/app/user/sx_ex_storage/sx_ex_storage.c ****     s_initialized = false;
 1577              		.loc 1 179 5 is_stmt 1 view .LVU368
 1578              		.loc 1 179 19 is_stmt 0 view .LVU369
 1579 000a 0E4B     		ldr	r3, .L150
 1580 000c 0022     		movs	r2, #0
 1581 000e 1A70     		strb	r2, [r3]
 180:SynaptiX_FDK/app/user/sx_ex_storage/sx_ex_storage.c ****     if (sx_fs_init(&s_flash) != 0) {
 1582              		.loc 1 180 5 is_stmt 1 view .LVU370
ARM GAS  C:\Users\LENOVO\AppData\Local\Temp\ccc7byMl.s 			page 37


 1583              		.loc 1 180 9 is_stmt 0 view .LVU371
 1584 0010 0D48     		ldr	r0, .L150+4
 1585 0012 FFF7FEFF 		bl	sx_fs_init
 1586              	.LVL153:
 1587              		.loc 1 180 8 discriminator 1 view .LVU372
 1588 0016 48B9     		cbnz	r0, .L149
 181:SynaptiX_FDK/app/user/sx_ex_storage/sx_ex_storage.c ****         log_error(TAG, "Format failed");
 182:SynaptiX_FDK/app/user/sx_ex_storage/sx_ex_storage.c ****         return SX_STORAGE_ERR_IO;
 183:SynaptiX_FDK/app/user/sx_ex_storage/sx_ex_storage.c ****     }
 184:SynaptiX_FDK/app/user/sx_ex_storage/sx_ex_storage.c **** 
 185:SynaptiX_FDK/app/user/sx_ex_storage/sx_ex_storage.c ****     s_initialized = true;
 1589              		.loc 1 185 5 is_stmt 1 view .LVU373
 1590              		.loc 1 185 19 is_stmt 0 view .LVU374
 1591 0018 0A4B     		ldr	r3, .L150
 1592 001a 0122     		movs	r2, #1
 1593 001c 1A70     		strb	r2, [r3]
 186:SynaptiX_FDK/app/user/sx_ex_storage/sx_ex_storage.c ****     log_info(TAG, "Format OK");
 1594              		.loc 1 186 5 is_stmt 1 view .LVU375
 1595 001e 0B4A     		ldr	r2, .L150+8
 1596 0020 0B49     		ldr	r1, .L150+12
 1597 0022 0320     		movs	r0, #3
 1598 0024 FFF7FEFF 		bl	log_func
 1599              	.LVL154:
 187:SynaptiX_FDK/app/user/sx_ex_storage/sx_ex_storage.c ****     return SX_STORAGE_OK;
 1600              		.loc 1 187 5 view .LVU376
 1601              	.L145:
 188:SynaptiX_FDK/app/user/sx_ex_storage/sx_ex_storage.c **** }
 1602              		.loc 1 188 1 is_stmt 0 view .LVU377
 1603 0028 2046     		mov	r0, r4
 1604 002a 10BD     		pop	{r4, pc}
 1605              	.L149:
 181:SynaptiX_FDK/app/user/sx_ex_storage/sx_ex_storage.c ****         return SX_STORAGE_ERR_IO;
 1606              		.loc 1 181 9 is_stmt 1 view .LVU378
 1607 002c 094A     		ldr	r2, .L150+16
 1608 002e 0849     		ldr	r1, .L150+12
 1609 0030 0120     		movs	r0, #1
 1610 0032 FFF7FEFF 		bl	log_func
 1611              	.LVL155:
 182:SynaptiX_FDK/app/user/sx_ex_storage/sx_ex_storage.c ****     }
 1612              		.loc 1 182 9 view .LVU379
 182:SynaptiX_FDK/app/user/sx_ex_storage/sx_ex_storage.c ****     }
 1613              		.loc 1 182 16 is_stmt 0 view .LVU380
 1614 0036 6FF00104 		mvn	r4, #1
 1615 003a F5E7     		b	.L145
 1616              	.L147:
 177:SynaptiX_FDK/app/user/sx_ex_storage/sx_ex_storage.c **** 
 1617              		.loc 1 177 48 discriminator 1 view .LVU381
 1618 003c 6FF00404 		mvn	r4, #4
 1619 0040 F2E7     		b	.L145
 1620              	.L151:
 1621 0042 00BF     		.align	2
 1622              	.L150:
 1623 0044 00000000 		.word	s_initialized
 1624 0048 00000000 		.word	s_flash
 1625 004c 10000000 		.word	.LC14
 1626 0050 10000000 		.word	.LC1
 1627 0054 00000000 		.word	.LC13
ARM GAS  C:\Users\LENOVO\AppData\Local\Temp\ccc7byMl.s 			page 38


 1628              		.cfi_endproc
 1629              	.LFE543:
 1631              		.section	.rodata.sx_storage_factory_reset.str1.4,"aMS",%progbits,1
 1632              		.align	2
 1633              	.LC15:
 1634 0000 46616374 		.ascii	"Factory reset start...\000"
 1634      6F727920 
 1634      72657365 
 1634      74207374 
 1634      6172742E 
 1635 0017 00       		.align	2
 1636              	.LC16:
 1637 0018 46616374 		.ascii	"Factory reset: fs init failed\000"
 1637      6F727920 
 1637      72657365 
 1637      743A2066 
 1637      7320696E 
 1638 0036 0000     		.align	2
 1639              	.LC17:
 1640 0038 46616374 		.ascii	"Factory reset done\000"
 1640      6F727920 
 1640      72657365 
 1640      7420646F 
 1640      6E6500
 1641              		.section	.text.sx_storage_factory_reset,"ax",%progbits
 1642              		.align	1
 1643              		.global	sx_storage_factory_reset
 1644              		.syntax unified
 1645              		.thumb
 1646              		.thumb_func
 1648              	sx_storage_factory_reset:
 1649              	.LFB544:
 189:SynaptiX_FDK/app/user/sx_ex_storage/sx_ex_storage.c **** 
 190:SynaptiX_FDK/app/user/sx_ex_storage/sx_ex_storage.c **** sx_storage_err_t sx_storage_factory_reset(void)
 191:SynaptiX_FDK/app/user/sx_ex_storage/sx_ex_storage.c **** {
 1650              		.loc 1 191 1 is_stmt 1 view -0
 1651              		.cfi_startproc
 1652              		@ args = 0, pretend = 0, frame = 0
 1653              		@ frame_needed = 0, uses_anonymous_args = 0
 1654 0000 10B5     		push	{r4, lr}
 1655              	.LCFI19:
 1656              		.cfi_def_cfa_offset 8
 1657              		.cfi_offset 4, -8
 1658              		.cfi_offset 14, -4
 192:SynaptiX_FDK/app/user/sx_ex_storage/sx_ex_storage.c ****     if (_check_init() != SX_STORAGE_OK) return SX_STORAGE_ERR_NOT_INIT;
 1659              		.loc 1 192 5 view .LVU383
 1660              		.loc 1 192 9 is_stmt 0 view .LVU384
 1661 0002 FFF7FEFF 		bl	_check_init
 1662              	.LVL156:
 1663              		.loc 1 192 8 discriminator 1 view .LVU385
 1664 0006 08BB     		cbnz	r0, .L155
 1665 0008 0446     		mov	r4, r0
 193:SynaptiX_FDK/app/user/sx_ex_storage/sx_ex_storage.c **** 
 194:SynaptiX_FDK/app/user/sx_ex_storage/sx_ex_storage.c ****     s_initialized = false;
 1666              		.loc 1 194 5 is_stmt 1 view .LVU386
 1667              		.loc 1 194 19 is_stmt 0 view .LVU387
 1668 000a 124B     		ldr	r3, .L158
ARM GAS  C:\Users\LENOVO\AppData\Local\Temp\ccc7byMl.s 			page 39


 1669 000c 0022     		movs	r2, #0
 1670 000e 1A70     		strb	r2, [r3]
 195:SynaptiX_FDK/app/user/sx_ex_storage/sx_ex_storage.c ****     log_info(TAG, "Factory reset start...");
 1671              		.loc 1 195 5 is_stmt 1 view .LVU388
 1672 0010 114A     		ldr	r2, .L158+4
 1673 0012 1249     		ldr	r1, .L158+8
 1674 0014 0320     		movs	r0, #3
 1675 0016 FFF7FEFF 		bl	log_func
 1676              	.LVL157:
 196:SynaptiX_FDK/app/user/sx_ex_storage/sx_ex_storage.c **** 
 197:SynaptiX_FDK/app/user/sx_ex_storage/sx_ex_storage.c ****     sx_W25Q128_chip_erase(&s_w25q128);
 1677              		.loc 1 197 5 view .LVU389
 1678 001a 1148     		ldr	r0, .L158+12
 1679 001c FFF7FEFF 		bl	sx_W25Q128_chip_erase
 1680              	.LVL158:
 198:SynaptiX_FDK/app/user/sx_ex_storage/sx_ex_storage.c **** 
 199:SynaptiX_FDK/app/user/sx_ex_storage/sx_ex_storage.c ****     if (sx_fs_init(&s_flash) != 0) {
 1681              		.loc 1 199 5 view .LVU390
 1682              		.loc 1 199 9 is_stmt 0 view .LVU391
 1683 0020 1048     		ldr	r0, .L158+16
 1684 0022 FFF7FEFF 		bl	sx_fs_init
 1685              	.LVL159:
 1686              		.loc 1 199 8 discriminator 1 view .LVU392
 1687 0026 48B9     		cbnz	r0, .L157
 200:SynaptiX_FDK/app/user/sx_ex_storage/sx_ex_storage.c ****         log_error(TAG, "Factory reset: fs init failed");
 201:SynaptiX_FDK/app/user/sx_ex_storage/sx_ex_storage.c ****         return SX_STORAGE_ERR_IO;
 202:SynaptiX_FDK/app/user/sx_ex_storage/sx_ex_storage.c ****     }
 203:SynaptiX_FDK/app/user/sx_ex_storage/sx_ex_storage.c **** 
 204:SynaptiX_FDK/app/user/sx_ex_storage/sx_ex_storage.c ****     s_initialized = true;
 1688              		.loc 1 204 5 is_stmt 1 view .LVU393
 1689              		.loc 1 204 19 is_stmt 0 view .LVU394
 1690 0028 0A4B     		ldr	r3, .L158
 1691 002a 0122     		movs	r2, #1
 1692 002c 1A70     		strb	r2, [r3]
 205:SynaptiX_FDK/app/user/sx_ex_storage/sx_ex_storage.c ****     log_info(TAG, "Factory reset done");
 1693              		.loc 1 205 5 is_stmt 1 view .LVU395
 1694 002e 0E4A     		ldr	r2, .L158+20
 1695 0030 0A49     		ldr	r1, .L158+8
 1696 0032 0320     		movs	r0, #3
 1697 0034 FFF7FEFF 		bl	log_func
 1698              	.LVL160:
 206:SynaptiX_FDK/app/user/sx_ex_storage/sx_ex_storage.c ****     return SX_STORAGE_OK;
 1699              		.loc 1 206 5 view .LVU396
 1700              	.L153:
 207:SynaptiX_FDK/app/user/sx_ex_storage/sx_ex_storage.c **** }
 1701              		.loc 1 207 1 is_stmt 0 view .LVU397
 1702 0038 2046     		mov	r0, r4
 1703 003a 10BD     		pop	{r4, pc}
 1704              	.L157:
 200:SynaptiX_FDK/app/user/sx_ex_storage/sx_ex_storage.c ****         return SX_STORAGE_ERR_IO;
 1705              		.loc 1 200 9 is_stmt 1 view .LVU398
 1706 003c 0B4A     		ldr	r2, .L158+24
 1707 003e 0749     		ldr	r1, .L158+8
 1708 0040 0120     		movs	r0, #1
 1709 0042 FFF7FEFF 		bl	log_func
 1710              	.LVL161:
 201:SynaptiX_FDK/app/user/sx_ex_storage/sx_ex_storage.c ****     }
ARM GAS  C:\Users\LENOVO\AppData\Local\Temp\ccc7byMl.s 			page 40


 1711              		.loc 1 201 9 view .LVU399
 201:SynaptiX_FDK/app/user/sx_ex_storage/sx_ex_storage.c ****     }
 1712              		.loc 1 201 16 is_stmt 0 view .LVU400
 1713 0046 6FF00104 		mvn	r4, #1
 1714 004a F5E7     		b	.L153
 1715              	.L155:
 192:SynaptiX_FDK/app/user/sx_ex_storage/sx_ex_storage.c **** 
 1716              		.loc 1 192 48 discriminator 1 view .LVU401
 1717 004c 6FF00404 		mvn	r4, #4
 1718 0050 F2E7     		b	.L153
 1719              	.L159:
 1720 0052 00BF     		.align	2
 1721              	.L158:
 1722 0054 00000000 		.word	s_initialized
 1723 0058 00000000 		.word	.LC15
 1724 005c 10000000 		.word	.LC1
 1725 0060 00000000 		.word	s_w25q128
 1726 0064 00000000 		.word	s_flash
 1727 0068 38000000 		.word	.LC17
 1728 006c 18000000 		.word	.LC16
 1729              		.cfi_endproc
 1730              	.LFE544:
 1732              		.section	.text.sx_storage_sleep,"ax",%progbits
 1733              		.align	1
 1734              		.global	sx_storage_sleep
 1735              		.syntax unified
 1736              		.thumb
 1737              		.thumb_func
 1739              	sx_storage_sleep:
 1740              	.LFB545:
 208:SynaptiX_FDK/app/user/sx_ex_storage/sx_ex_storage.c **** 
 209:SynaptiX_FDK/app/user/sx_ex_storage/sx_ex_storage.c **** void sx_storage_sleep(void){
 1741              		.loc 1 209 28 is_stmt 1 view -0
 1742              		.cfi_startproc
 1743              		@ args = 0, pretend = 0, frame = 0
 1744              		@ frame_needed = 0, uses_anonymous_args = 0
 1745              		@ link register save eliminated.
 210:SynaptiX_FDK/app/user/sx_ex_storage/sx_ex_storage.c **** 
 211:SynaptiX_FDK/app/user/sx_ex_storage/sx_ex_storage.c **** }
 1746              		.loc 1 211 1 view .LVU403
 1747 0000 7047     		bx	lr
 1748              		.cfi_endproc
 1749              	.LFE545:
 1751              		.section	.text.sx_storage_wake,"ax",%progbits
 1752              		.align	1
 1753              		.global	sx_storage_wake
 1754              		.syntax unified
 1755              		.thumb
 1756              		.thumb_func
 1758              	sx_storage_wake:
 1759              	.LFB546:
 212:SynaptiX_FDK/app/user/sx_ex_storage/sx_ex_storage.c **** 
 213:SynaptiX_FDK/app/user/sx_ex_storage/sx_ex_storage.c **** void sx_storage_wake(void){
 1760              		.loc 1 213 27 view -0
 1761              		.cfi_startproc
 1762              		@ args = 0, pretend = 0, frame = 0
 1763              		@ frame_needed = 0, uses_anonymous_args = 0
ARM GAS  C:\Users\LENOVO\AppData\Local\Temp\ccc7byMl.s 			page 41


 1764              		@ link register save eliminated.
 214:SynaptiX_FDK/app/user/sx_ex_storage/sx_ex_storage.c ****     
 215:SynaptiX_FDK/app/user/sx_ex_storage/sx_ex_storage.c **** }...
 1765              		.loc 1 215 1 view .LVU405
 1766 0000 7047     		bx	lr
 1767              		.cfi_endproc
 1768              	.LFE546:
 1770              		.section	.bss.s_initialized,"aw",%nobits
 1773              	s_initialized:
 1774 0000 00       		.space	1
 1775              		.section	.bss.s_flash,"aw",%nobits
 1776              		.align	2
 1779              	s_flash:
 1780 0000 00000000 		.space	20
 1780      00000000 
 1780      00000000 
 1780      00000000 
 1780      00000000 
 1781              		.section	.bss.s_w25q128,"aw",%nobits
 1782              		.align	2
 1785              	s_w25q128:
 1786 0000 00000000 		.space	20
 1786      00000000 
 1786      00000000 
 1786      00000000 
 1786      00000000 
 1787              		.text
 1788              	.Letext0:
 1789              		.file 6 "C:\\ST\\STM32CubeCLT_1.20.0\\GNU-tools-for-STM32\\bin/../lib/gcc/arm-none-eabi/13.3.1/../
 1790              		.file 7 "C:\\ST\\STM32CubeCLT_1.20.0\\GNU-tools-for-STM32\\bin/../lib/gcc/arm-none-eabi/13.3.1/../
 1791              		.file 8 "C:\\ST\\STM32CubeCLT_1.20.0\\GNU-tools-for-STM32\\bin/../lib/gcc/arm-none-eabi/13.3.1/inc
 1792              		.file 9 "C:\\ST\\STM32CubeCLT_1.20.0\\GNU-tools-for-STM32\\bin/../lib/gcc/arm-none-eabi/13.3.1/../
 1793              		.file 10 "C:\\ST\\STM32CubeCLT_1.20.0\\GNU-tools-for-STM32\\bin/../lib/gcc/arm-none-eabi/13.3.1/..
 1794              		.file 11 "C:\\ST\\STM32CubeCLT_1.20.0\\GNU-tools-for-STM32\\bin/../lib/gcc/arm-none-eabi/13.3.1/..
 1795              		.file 12 "Drivers/CMSIS/Device/ST/STM32H5xx/Include/stm32h563xx.h"
 1796              		.file 13 "Drivers/STM32H5xx_HAL_Driver/Inc/stm32h5xx_hal_def.h"
 1797              		.file 14 "Drivers/STM32H5xx_HAL_Driver/Inc/stm32h5xx_hal_dma.h"
 1798              		.file 15 "Drivers/STM32H5xx_HAL_Driver/Inc/stm32h5xx_hal_dma_ex.h"
 1799              		.file 16 "Drivers/STM32H5xx_HAL_Driver/Inc/stm32h5xx_ll_lptim.h"
 1800              		.file 17 "Drivers/STM32H5xx_HAL_Driver/Inc/stm32h5xx_hal_spi.h"
 1801              		.file 18 "SynaptiX_FDK/app/user/sx_ex_storage/sx_ex_storage.h"
 1802              		.file 19 "C:\\ST\\STM32CubeCLT_1.20.0\\GNU-tools-for-STM32\\bin/../lib/gcc/arm-none-eabi/13.3.1/..
 1803              		.file 20 "SynaptiX_FDK/services/logger/logger.h"
 1804              		.file 21 "SynaptiX_FDK/components/external_flash/sx_W25Q128.h"
 1805              		.file 22 "SynaptiX_FDK/services/littlefs/lfs.h"
 1806              		.file 23 "C:\\ST\\STM32CubeCLT_1.20.0\\GNU-tools-for-STM32\\bin/../lib/gcc/arm-none-eabi/13.3.1/..
 1807              		.file 24 "SynaptiX_FDK/services/filesystem/sx_fs.h"
ARM GAS  C:\Users\LENOVO\AppData\Local\Temp\ccc7byMl.s 			page 42


DEFINED SYMBOLS
                            *ABS*:00000000 sx_ex_storage.c
C:\Users\LENOVO\AppData\Local\Temp\ccc7byMl.s:22     .text.sx_gpio_write:00000000 $t
C:\Users\LENOVO\AppData\Local\Temp\ccc7byMl.s:27     .text.sx_gpio_write:00000000 sx_gpio_write
C:\Users\LENOVO\AppData\Local\Temp\ccc7byMl.s:90     .rodata._check_init.str1.4:00000000 $d
C:\Users\LENOVO\AppData\Local\Temp\ccc7byMl.s:97     .text._check_init:00000000 $t
C:\Users\LENOVO\AppData\Local\Temp\ccc7byMl.s:102    .text._check_init:00000000 _check_init
C:\Users\LENOVO\AppData\Local\Temp\ccc7byMl.s:138    .text._check_init:0000001c $d
C:\Users\LENOVO\AppData\Local\Temp\ccc7byMl.s:1773   .bss.s_initialized:00000000 s_initialized
C:\Users\LENOVO\AppData\Local\Temp\ccc7byMl.s:145    .rodata.file_open.str1.4:00000000 $d
C:\Users\LENOVO\AppData\Local\Temp\ccc7byMl.s:161    .text.file_open:00000000 $t
C:\Users\LENOVO\AppData\Local\Temp\ccc7byMl.s:166    .text.file_open:00000000 file_open
C:\Users\LENOVO\AppData\Local\Temp\ccc7byMl.s:371    .text.file_open:000000c0 $d
C:\Users\LENOVO\AppData\Local\Temp\ccc7byMl.s:381    .rodata.sx_storage_init.str1.4:00000000 $d
C:\Users\LENOVO\AppData\Local\Temp\ccc7byMl.s:391    .text.sx_storage_init:00000000 $t
C:\Users\LENOVO\AppData\Local\Temp\ccc7byMl.s:397    .text.sx_storage_init:00000000 sx_storage_init
C:\Users\LENOVO\AppData\Local\Temp\ccc7byMl.s:571    .text.sx_storage_init:00000090 $d
C:\Users\LENOVO\AppData\Local\Temp\ccc7byMl.s:1785   .bss.s_w25q128:00000000 s_w25q128
C:\Users\LENOVO\AppData\Local\Temp\ccc7byMl.s:1779   .bss.s_flash:00000000 s_flash
C:\Users\LENOVO\AppData\Local\Temp\ccc7byMl.s:586    .rodata.sx_storage_write.str1.4:00000000 $d
C:\Users\LENOVO\AppData\Local\Temp\ccc7byMl.s:590    .text.sx_storage_write:00000000 $t
C:\Users\LENOVO\AppData\Local\Temp\ccc7byMl.s:596    .text.sx_storage_write:00000000 sx_storage_write
C:\Users\LENOVO\AppData\Local\Temp\ccc7byMl.s:706    .text.sx_storage_write:00000074 $d
C:\Users\LENOVO\AppData\Local\Temp\ccc7byMl.s:712    .rodata.sx_storage_append.str1.4:00000000 $d
C:\Users\LENOVO\AppData\Local\Temp\ccc7byMl.s:716    .text.sx_storage_append:00000000 $t
C:\Users\LENOVO\AppData\Local\Temp\ccc7byMl.s:722    .text.sx_storage_append:00000000 sx_storage_append
C:\Users\LENOVO\AppData\Local\Temp\ccc7byMl.s:832    .text.sx_storage_append:00000074 $d
C:\Users\LENOVO\AppData\Local\Temp\ccc7byMl.s:838    .rodata.sx_storage_read.str1.4:00000000 $d
C:\Users\LENOVO\AppData\Local\Temp\ccc7byMl.s:842    .text.sx_storage_read:00000000 $t
C:\Users\LENOVO\AppData\Local\Temp\ccc7byMl.s:848    .text.sx_storage_read:00000000 sx_storage_read
C:\Users\LENOVO\AppData\Local\Temp\ccc7byMl.s:958    .text.sx_storage_read:00000074 $d
C:\Users\LENOVO\AppData\Local\Temp\ccc7byMl.s:964    .text.sx_storage_read_partial:00000000 $t
C:\Users\LENOVO\AppData\Local\Temp\ccc7byMl.s:970    .text.sx_storage_read_partial:00000000 sx_storage_read_partial
C:\Users\LENOVO\AppData\Local\Temp\ccc7byMl.s:1110   .text.sx_storage_read_partial:00000098 $d
C:\Users\LENOVO\AppData\Local\Temp\ccc7byMl.s:1116   .text.sx_storage_delete:00000000 $t
C:\Users\LENOVO\AppData\Local\Temp\ccc7byMl.s:1122   .text.sx_storage_delete:00000000 sx_storage_delete
C:\Users\LENOVO\AppData\Local\Temp\ccc7byMl.s:1177   .text.sx_storage_delete:00000030 $d
C:\Users\LENOVO\AppData\Local\Temp\ccc7byMl.s:1182   .text.sx_storage_exists:00000000 $t
C:\Users\LENOVO\AppData\Local\Temp\ccc7byMl.s:1188   .text.sx_storage_exists:00000000 sx_storage_exists
C:\Users\LENOVO\AppData\Local\Temp\ccc7byMl.s:1251   .text.sx_storage_exists:00000030 $d
C:\Users\LENOVO\AppData\Local\Temp\ccc7byMl.s:1258   .text.sx_storage_size:00000000 $t
C:\Users\LENOVO\AppData\Local\Temp\ccc7byMl.s:1264   .text.sx_storage_size:00000000 sx_storage_size
C:\Users\LENOVO\AppData\Local\Temp\ccc7byMl.s:1342   .text.sx_storage_size:00000044 $d
C:\Users\LENOVO\AppData\Local\Temp\ccc7byMl.s:1349   .text.sx_storage_mkdir:00000000 $t
C:\Users\LENOVO\AppData\Local\Temp\ccc7byMl.s:1355   .text.sx_storage_mkdir:00000000 sx_storage_mkdir
C:\Users\LENOVO\AppData\Local\Temp\ccc7byMl.s:1410   .text.sx_storage_mkdir:00000030 $d
C:\Users\LENOVO\AppData\Local\Temp\ccc7byMl.s:1415   .text.sx_storage_list_dir:00000000 $t
C:\Users\LENOVO\AppData\Local\Temp\ccc7byMl.s:1421   .text.sx_storage_list_dir:00000000 sx_storage_list_dir
C:\Users\LENOVO\AppData\Local\Temp\ccc7byMl.s:1451   .text.sx_storage_list_dir:00000010 $d
C:\Users\LENOVO\AppData\Local\Temp\ccc7byMl.s:1456   .text.sx_storage_free_space:00000000 $t
C:\Users\LENOVO\AppData\Local\Temp\ccc7byMl.s:1462   .text.sx_storage_free_space:00000000 sx_storage_free_space
C:\Users\LENOVO\AppData\Local\Temp\ccc7byMl.s:1513   .text.sx_storage_free_space:00000028 $d
C:\Users\LENOVO\AppData\Local\Temp\ccc7byMl.s:1520   .text.sx_storage_total_space:00000000 $t
C:\Users\LENOVO\AppData\Local\Temp\ccc7byMl.s:1526   .text.sx_storage_total_space:00000000 sx_storage_total_space
C:\Users\LENOVO\AppData\Local\Temp\ccc7byMl.s:1541   .text.sx_storage_total_space:00000008 $d
C:\Users\LENOVO\AppData\Local\Temp\ccc7byMl.s:1546   .rodata.sx_storage_format.str1.4:00000000 $d
C:\Users\LENOVO\AppData\Local\Temp\ccc7byMl.s:1553   .text.sx_storage_format:00000000 $t
ARM GAS  C:\Users\LENOVO\AppData\Local\Temp\ccc7byMl.s 			page 43


C:\Users\LENOVO\AppData\Local\Temp\ccc7byMl.s:1559   .text.sx_storage_format:00000000 sx_storage_format
C:\Users\LENOVO\AppData\Local\Temp\ccc7byMl.s:1623   .text.sx_storage_format:00000044 $d
C:\Users\LENOVO\AppData\Local\Temp\ccc7byMl.s:1632   .rodata.sx_storage_factory_reset.str1.4:00000000 $d
C:\Users\LENOVO\AppData\Local\Temp\ccc7byMl.s:1642   .text.sx_storage_factory_reset:00000000 $t
C:\Users\LENOVO\AppData\Local\Temp\ccc7byMl.s:1648   .text.sx_storage_factory_reset:00000000 sx_storage_factory_reset
C:\Users\LENOVO\AppData\Local\Temp\ccc7byMl.s:1722   .text.sx_storage_factory_reset:00000054 $d
C:\Users\LENOVO\AppData\Local\Temp\ccc7byMl.s:1733   .text.sx_storage_sleep:00000000 $t
C:\Users\LENOVO\AppData\Local\Temp\ccc7byMl.s:1739   .text.sx_storage_sleep:00000000 sx_storage_sleep
C:\Users\LENOVO\AppData\Local\Temp\ccc7byMl.s:1752   .text.sx_storage_wake:00000000 $t
C:\Users\LENOVO\AppData\Local\Temp\ccc7byMl.s:1758   .text.sx_storage_wake:00000000 sx_storage_wake
C:\Users\LENOVO\AppData\Local\Temp\ccc7byMl.s:1774   .bss.s_initialized:00000000 $d
C:\Users\LENOVO\AppData\Local\Temp\ccc7byMl.s:1776   .bss.s_flash:00000000 $d
C:\Users\LENOVO\AppData\Local\Temp\ccc7byMl.s:1782   .bss.s_w25q128:00000000 $d

UNDEFINED SYMBOLS
log_func
malloc
free
lfs_file_open
lfs
sx_W25Q128_init
sx_fs_init
sx_gpio_ops
sx_spi_ops
sx_W25Q128_ops
sx_W25Q128_info
lfs_file_write
lfs_file_close
lfs_file_read
lfs_file_seek
lfs_remove
lfs_file_size
lfs_mkdir
fs_list_dir
lfs_fs_size
sx_W25Q128_chip_erase
