ARM GAS  C:\Users\LENOVO\AppData\Local\Temp\ccMn3tk9.s 			page 1


   1              		.cpu cortex-m33
   2              		.arch armv8-m.main
   3              		.fpu fpv5-sp-d16
   4              		.arch_extension dsp
   5              		.eabi_attribute 27, 1
   6              		.eabi_attribute 28, 1
   7              		.eabi_attribute 20, 1
   8              		.eabi_attribute 21, 1
   9              		.eabi_attribute 23, 3
  10              		.eabi_attribute 24, 1
  11              		.eabi_attribute 25, 1
  12              		.eabi_attribute 26, 1
  13              		.eabi_attribute 30, 1
  14              		.eabi_attribute 34, 1
  15              		.eabi_attribute 18, 4
  16              		.file	"sx_user_mqtt.c"
  17              		.text
  18              	.Ltext0:
  19              		.cfi_sections	.debug_frame
  20              		.file 1 "SynaptiX_FDK/app/user/sx_mqtt/sx_user_mqtt.c"
  21              		.section	.text.cb_mqtt_stop_done,"ax",%progbits
  22              		.align	1
  23              		.syntax unified
  24              		.thumb
  25              		.thumb_func
  27              	cb_mqtt_stop_done:
  28              	.LVL0:
  29              	.LFB567:
   1:SynaptiX_FDK/app/user/sx_mqtt/sx_user_mqtt.c **** #include "sx_board.h"
   2:SynaptiX_FDK/app/user/sx_mqtt/sx_user_mqtt.c **** #include "sx_user_mqtt.h"
   3:SynaptiX_FDK/app/user/sx_mqtt/sx_user_mqtt.c **** #include "sx_gpio.h"
   4:SynaptiX_FDK/app/user/sx_mqtt/sx_user_mqtt.c **** #include "sx_uart.h"
   5:SynaptiX_FDK/app/user/sx_mqtt/sx_user_mqtt.c **** #include "sx_mqtt.h"
   6:SynaptiX_FDK/app/user/sx_mqtt/sx_user_mqtt.c **** #include "usart.h"
   7:SynaptiX_FDK/app/user/sx_mqtt/sx_user_mqtt.c **** #include "logger.h"
   8:SynaptiX_FDK/app/user/sx_mqtt/sx_user_mqtt.c **** #include "string.h"
   9:SynaptiX_FDK/app/user/sx_mqtt/sx_user_mqtt.c **** #include "cqueue.h"
  10:SynaptiX_FDK/app/user/sx_mqtt/sx_user_mqtt.c **** 
  11:SynaptiX_FDK/app/user/sx_mqtt/sx_user_mqtt.c **** static const char *TAG = "USER_MQTT";
  12:SynaptiX_FDK/app/user/sx_mqtt/sx_user_mqtt.c **** 
  13:SynaptiX_FDK/app/user/sx_mqtt/sx_user_mqtt.c **** #define MQTT_QUEUE_SIZE 16
  14:SynaptiX_FDK/app/user/sx_mqtt/sx_user_mqtt.c **** #define MQTT_PUBLISH_MAX_RETRY 3
  15:SynaptiX_FDK/app/user/sx_mqtt/sx_user_mqtt.c **** 
  16:SynaptiX_FDK/app/user/sx_mqtt/sx_user_mqtt.c **** volatile sx_mqtt_t s_mqtt;
  17:SynaptiX_FDK/app/user/sx_mqtt/sx_user_mqtt.c **** 
  18:SynaptiX_FDK/app/user/sx_mqtt/sx_user_mqtt.c **** typedef struct {
  19:SynaptiX_FDK/app/user/sx_mqtt/sx_user_mqtt.c ****     char topic[128];
  20:SynaptiX_FDK/app/user/sx_mqtt/sx_user_mqtt.c ****     char message[256];
  21:SynaptiX_FDK/app/user/sx_mqtt/sx_user_mqtt.c **** } mqtt_queue_item_t;
  22:SynaptiX_FDK/app/user/sx_mqtt/sx_user_mqtt.c **** 
  23:SynaptiX_FDK/app/user/sx_mqtt/sx_user_mqtt.c **** static mqtt_queue_item_t s_queue_buf[MQTT_QUEUE_SIZE];
  24:SynaptiX_FDK/app/user/sx_mqtt/sx_user_mqtt.c **** static CQueue_t s_queue;
  25:SynaptiX_FDK/app/user/sx_mqtt/sx_user_mqtt.c **** 
  26:SynaptiX_FDK/app/user/sx_mqtt/sx_user_mqtt.c **** static mqtt_queue_item_t s_current_item;
  27:SynaptiX_FDK/app/user/sx_mqtt/sx_user_mqtt.c **** static uint8_t s_publish_retry = 0;
  28:SynaptiX_FDK/app/user/sx_mqtt/sx_user_mqtt.c **** 
  29:SynaptiX_FDK/app/user/sx_mqtt/sx_user_mqtt.c **** static sx_user_mqtt_on_connected_cb_t    s_on_connected    = NULL;
ARM GAS  C:\Users\LENOVO\AppData\Local\Temp\ccMn3tk9.s 			page 2


  30:SynaptiX_FDK/app/user/sx_mqtt/sx_user_mqtt.c **** static sx_user_mqtt_on_disconnected_cb_t s_on_disconnected = NULL;
  31:SynaptiX_FDK/app/user/sx_mqtt/sx_user_mqtt.c **** static sx_user_mqtt_on_message_cb_t      s_on_message      = NULL;
  32:SynaptiX_FDK/app/user/sx_mqtt/sx_user_mqtt.c **** static sx_user_mqtt_on_publish_cb_t      s_on_publish      = NULL;
  33:SynaptiX_FDK/app/user/sx_mqtt/sx_user_mqtt.c **** static char s_client_id_buf[32];
  34:SynaptiX_FDK/app/user/sx_mqtt/sx_user_mqtt.c **** 
  35:SynaptiX_FDK/app/user/sx_mqtt/sx_user_mqtt.c **** // Poll timing
  36:SynaptiX_FDK/app/user/sx_mqtt/sx_user_mqtt.c **** static uint32_t s_last_tick = 0;
  37:SynaptiX_FDK/app/user/sx_mqtt/sx_user_mqtt.c **** static uint8_t s_initialized = 0;
  38:SynaptiX_FDK/app/user/sx_mqtt/sx_user_mqtt.c **** static uint8_t s_publishing = 0;
  39:SynaptiX_FDK/app/user/sx_mqtt/sx_user_mqtt.c **** 
  40:SynaptiX_FDK/app/user/sx_mqtt/sx_user_mqtt.c **** static volatile uint8_t s_stop_done = 0;
  41:SynaptiX_FDK/app/user/sx_mqtt/sx_user_mqtt.c **** 
  42:SynaptiX_FDK/app/user/sx_mqtt/sx_user_mqtt.c **** static void dispatch_next(void){
  43:SynaptiX_FDK/app/user/sx_mqtt/sx_user_mqtt.c ****     if (!cqueue_is_empty(&s_queue) && sx_mqtt_is_connected(&s_mqtt)) {
  44:SynaptiX_FDK/app/user/sx_mqtt/sx_user_mqtt.c ****         if (cqueue_receive(&s_queue, &s_current_item)) {
  45:SynaptiX_FDK/app/user/sx_mqtt/sx_user_mqtt.c ****             s_publishing = 1;
  46:SynaptiX_FDK/app/user/sx_mqtt/sx_user_mqtt.c ****             sx_mqtt_publish(&s_mqtt, s_current_item.topic, s_current_item.message, 1, 0);
  47:SynaptiX_FDK/app/user/sx_mqtt/sx_user_mqtt.c ****         }
  48:SynaptiX_FDK/app/user/sx_mqtt/sx_user_mqtt.c ****     }
  49:SynaptiX_FDK/app/user/sx_mqtt/sx_user_mqtt.c **** }
  50:SynaptiX_FDK/app/user/sx_mqtt/sx_user_mqtt.c **** 
  51:SynaptiX_FDK/app/user/sx_mqtt/sx_user_mqtt.c **** static void _on_connected(sx_mqtt_t *mqtt){
  52:SynaptiX_FDK/app/user/sx_mqtt/sx_user_mqtt.c ****     (void)mqtt;
  53:SynaptiX_FDK/app/user/sx_mqtt/sx_user_mqtt.c ****     log_info(TAG, "MQTT connected");
  54:SynaptiX_FDK/app/user/sx_mqtt/sx_user_mqtt.c ****     if (s_on_connected) s_on_connected();
  55:SynaptiX_FDK/app/user/sx_mqtt/sx_user_mqtt.c **** }
  56:SynaptiX_FDK/app/user/sx_mqtt/sx_user_mqtt.c **** 
  57:SynaptiX_FDK/app/user/sx_mqtt/sx_user_mqtt.c **** static void _on_disconnected(sx_mqtt_t *mqtt){
  58:SynaptiX_FDK/app/user/sx_mqtt/sx_user_mqtt.c ****     (void)mqtt;
  59:SynaptiX_FDK/app/user/sx_mqtt/sx_user_mqtt.c ****     log_warn(TAG, "MQTT disconnected");
  60:SynaptiX_FDK/app/user/sx_mqtt/sx_user_mqtt.c ****     if (s_on_disconnected) s_on_disconnected();
  61:SynaptiX_FDK/app/user/sx_mqtt/sx_user_mqtt.c **** }
  62:SynaptiX_FDK/app/user/sx_mqtt/sx_user_mqtt.c **** 
  63:SynaptiX_FDK/app/user/sx_mqtt/sx_user_mqtt.c **** static void _on_message(sx_mqtt_t *mqtt, const char *topic, const char *message){
  64:SynaptiX_FDK/app/user/sx_mqtt/sx_user_mqtt.c ****     (void)mqtt;
  65:SynaptiX_FDK/app/user/sx_mqtt/sx_user_mqtt.c ****     log_info(TAG, "MSG [%s] = %s", topic, message);
  66:SynaptiX_FDK/app/user/sx_mqtt/sx_user_mqtt.c ****     if (s_on_message) s_on_message(topic, message);
  67:SynaptiX_FDK/app/user/sx_mqtt/sx_user_mqtt.c **** }
  68:SynaptiX_FDK/app/user/sx_mqtt/sx_user_mqtt.c **** 
  69:SynaptiX_FDK/app/user/sx_mqtt/sx_user_mqtt.c **** // static void _on_publish(sx_mqtt_t *mqtt, int success){
  70:SynaptiX_FDK/app/user/sx_mqtt/sx_user_mqtt.c **** //     (void)mqtt;
  71:SynaptiX_FDK/app/user/sx_mqtt/sx_user_mqtt.c **** //     s_publishing = 0;
  72:SynaptiX_FDK/app/user/sx_mqtt/sx_user_mqtt.c **** //     log_debug(TAG, "Publish %s", success ? "OK" : "FAIL");
  73:SynaptiX_FDK/app/user/sx_mqtt/sx_user_mqtt.c **** //     if (s_on_publish) s_on_publish(success);
  74:SynaptiX_FDK/app/user/sx_mqtt/sx_user_mqtt.c **** 
  75:SynaptiX_FDK/app/user/sx_mqtt/sx_user_mqtt.c **** //     if (!success) {
  76:SynaptiX_FDK/app/user/sx_mqtt/sx_user_mqtt.c **** //         s_publish_retry++;
  77:SynaptiX_FDK/app/user/sx_mqtt/sx_user_mqtt.c **** //         log_warn(TAG, "Publish fail %d/%d", s_publish_retry, MQTT_PUBLISH_MAX_RETRY);
  78:SynaptiX_FDK/app/user/sx_mqtt/sx_user_mqtt.c **** //         if (s_publish_retry >= MQTT_PUBLISH_MAX_RETRY) {
  79:SynaptiX_FDK/app/user/sx_mqtt/sx_user_mqtt.c **** //             log_error(TAG, "Max retry — restart modem");
  80:SynaptiX_FDK/app/user/sx_mqtt/sx_user_mqtt.c **** //             s_publish_retry = 0;
  81:SynaptiX_FDK/app/user/sx_mqtt/sx_user_mqtt.c **** //             cqueue_init_static(&s_queue, s_queue_buf, MQTT_QUEUE_SIZE, sizeof(mqtt_queue_item_t)
  82:SynaptiX_FDK/app/user/sx_mqtt/sx_user_mqtt.c **** //             sim76xx_start(&board.sim76xx);
  83:SynaptiX_FDK/app/user/sx_mqtt/sx_user_mqtt.c **** //             return;
  84:SynaptiX_FDK/app/user/sx_mqtt/sx_user_mqtt.c **** //         }
  85:SynaptiX_FDK/app/user/sx_mqtt/sx_user_mqtt.c **** //         s_publishing = 1;
  86:SynaptiX_FDK/app/user/sx_mqtt/sx_user_mqtt.c **** //         sx_mqtt_publish(&s_mqtt, s_current_item.topic, s_current_item.message, 1, 0);
ARM GAS  C:\Users\LENOVO\AppData\Local\Temp\ccMn3tk9.s 			page 3


  87:SynaptiX_FDK/app/user/sx_mqtt/sx_user_mqtt.c **** //         return;
  88:SynaptiX_FDK/app/user/sx_mqtt/sx_user_mqtt.c **** //     }
  89:SynaptiX_FDK/app/user/sx_mqtt/sx_user_mqtt.c **** 
  90:SynaptiX_FDK/app/user/sx_mqtt/sx_user_mqtt.c **** //     s_publish_retry = 0;
  91:SynaptiX_FDK/app/user/sx_mqtt/sx_user_mqtt.c **** //     dispatch_next();
  92:SynaptiX_FDK/app/user/sx_mqtt/sx_user_mqtt.c **** // }
  93:SynaptiX_FDK/app/user/sx_mqtt/sx_user_mqtt.c **** 
  94:SynaptiX_FDK/app/user/sx_mqtt/sx_user_mqtt.c **** // static void _on_publish(sx_mqtt_t *mqtt, int success){
  95:SynaptiX_FDK/app/user/sx_mqtt/sx_user_mqtt.c **** //     (void)mqtt;
  96:SynaptiX_FDK/app/user/sx_mqtt/sx_user_mqtt.c **** //     s_publishing = 0;
  97:SynaptiX_FDK/app/user/sx_mqtt/sx_user_mqtt.c **** //     log_debug(TAG, "Publish %s", success ? "OK" : "FAIL");
  98:SynaptiX_FDK/app/user/sx_mqtt/sx_user_mqtt.c **** 
  99:SynaptiX_FDK/app/user/sx_mqtt/sx_user_mqtt.c **** //     if (!success) {
 100:SynaptiX_FDK/app/user/sx_mqtt/sx_user_mqtt.c **** //         s_publish_retry++;
 101:SynaptiX_FDK/app/user/sx_mqtt/sx_user_mqtt.c **** //         log_warn(TAG, "Publish fail %d/%d", s_publish_retry, MQTT_PUBLISH_MAX_RETRY);
 102:SynaptiX_FDK/app/user/sx_mqtt/sx_user_mqtt.c **** //         if (s_publish_retry >= MQTT_PUBLISH_MAX_RETRY) {
 103:SynaptiX_FDK/app/user/sx_mqtt/sx_user_mqtt.c **** //             log_error(TAG, "Max retry — restart modem");
 104:SynaptiX_FDK/app/user/sx_mqtt/sx_user_mqtt.c **** //             s_publish_retry = 0;
 105:SynaptiX_FDK/app/user/sx_mqtt/sx_user_mqtt.c **** //             cqueue_init_static(&s_queue, s_queue_buf, MQTT_QUEUE_SIZE,
 106:SynaptiX_FDK/app/user/sx_mqtt/sx_user_mqtt.c **** //                                sizeof(mqtt_queue_item_t));
 107:SynaptiX_FDK/app/user/sx_mqtt/sx_user_mqtt.c **** //             if (s_on_publish) s_on_publish(0);
 108:SynaptiX_FDK/app/user/sx_mqtt/sx_user_mqtt.c **** //             sim76xx_start(&board.sim76xx);
 109:SynaptiX_FDK/app/user/sx_mqtt/sx_user_mqtt.c **** //             return;
 110:SynaptiX_FDK/app/user/sx_mqtt/sx_user_mqtt.c **** //         }
 111:SynaptiX_FDK/app/user/sx_mqtt/sx_user_mqtt.c **** //         s_publishing = 1;
 112:SynaptiX_FDK/app/user/sx_mqtt/sx_user_mqtt.c **** //         sx_mqtt_publish(&s_mqtt, s_current_item.topic,
 113:SynaptiX_FDK/app/user/sx_mqtt/sx_user_mqtt.c **** //                         s_current_item.message, 1, 0);
 114:SynaptiX_FDK/app/user/sx_mqtt/sx_user_mqtt.c **** //         return;
 115:SynaptiX_FDK/app/user/sx_mqtt/sx_user_mqtt.c **** //     }
 116:SynaptiX_FDK/app/user/sx_mqtt/sx_user_mqtt.c **** 
 117:SynaptiX_FDK/app/user/sx_mqtt/sx_user_mqtt.c **** //     // Success
 118:SynaptiX_FDK/app/user/sx_mqtt/sx_user_mqtt.c **** //     s_publish_retry = 0;
 119:SynaptiX_FDK/app/user/sx_mqtt/sx_user_mqtt.c **** //     if (s_on_publish) s_on_publish(1);  
 120:SynaptiX_FDK/app/user/sx_mqtt/sx_user_mqtt.c **** //     dispatch_next();
 121:SynaptiX_FDK/app/user/sx_mqtt/sx_user_mqtt.c **** // }
 122:SynaptiX_FDK/app/user/sx_mqtt/sx_user_mqtt.c **** 
 123:SynaptiX_FDK/app/user/sx_mqtt/sx_user_mqtt.c **** static void _on_publish(sx_mqtt_t *mqtt, int success)
 124:SynaptiX_FDK/app/user/sx_mqtt/sx_user_mqtt.c **** {
 125:SynaptiX_FDK/app/user/sx_mqtt/sx_user_mqtt.c ****     (void)mqtt;
 126:SynaptiX_FDK/app/user/sx_mqtt/sx_user_mqtt.c ****     s_publishing = 0;           
 127:SynaptiX_FDK/app/user/sx_mqtt/sx_user_mqtt.c ****     s_publish_retry = 0;
 128:SynaptiX_FDK/app/user/sx_mqtt/sx_user_mqtt.c **** 
 129:SynaptiX_FDK/app/user/sx_mqtt/sx_user_mqtt.c ****     log_debug(TAG, "Publish %s", success ? "OK" : "FAIL");
 130:SynaptiX_FDK/app/user/sx_mqtt/sx_user_mqtt.c **** 
 131:SynaptiX_FDK/app/user/sx_mqtt/sx_user_mqtt.c ****     if (!success) {
 132:SynaptiX_FDK/app/user/sx_mqtt/sx_user_mqtt.c ****         s_publish_retry++;
 133:SynaptiX_FDK/app/user/sx_mqtt/sx_user_mqtt.c ****         log_warn(TAG, "Publish fail %d/%d", s_publish_retry, MQTT_PUBLISH_MAX_RETRY);
 134:SynaptiX_FDK/app/user/sx_mqtt/sx_user_mqtt.c ****         if (s_publish_retry >= MQTT_PUBLISH_MAX_RETRY) {
 135:SynaptiX_FDK/app/user/sx_mqtt/sx_user_mqtt.c ****             log_error(TAG, "Max retry — restart modem");
 136:SynaptiX_FDK/app/user/sx_mqtt/sx_user_mqtt.c ****             s_publish_retry = 0;
 137:SynaptiX_FDK/app/user/sx_mqtt/sx_user_mqtt.c ****             cqueue_init_static(&s_queue, s_queue_buf, MQTT_QUEUE_SIZE,
 138:SynaptiX_FDK/app/user/sx_mqtt/sx_user_mqtt.c ****                                sizeof(mqtt_queue_item_t));
 139:SynaptiX_FDK/app/user/sx_mqtt/sx_user_mqtt.c ****             if (s_on_publish) s_on_publish(0);
 140:SynaptiX_FDK/app/user/sx_mqtt/sx_user_mqtt.c ****             sim76xx_start(&board.sim76xx);
 141:SynaptiX_FDK/app/user/sx_mqtt/sx_user_mqtt.c ****             return;
 142:SynaptiX_FDK/app/user/sx_mqtt/sx_user_mqtt.c ****         }
 143:SynaptiX_FDK/app/user/sx_mqtt/sx_user_mqtt.c ****         s_publishing = 1;
ARM GAS  C:\Users\LENOVO\AppData\Local\Temp\ccMn3tk9.s 			page 4


 144:SynaptiX_FDK/app/user/sx_mqtt/sx_user_mqtt.c ****         sx_mqtt_publish(&s_mqtt, s_current_item.topic,
 145:SynaptiX_FDK/app/user/sx_mqtt/sx_user_mqtt.c ****                         s_current_item.message, 1, 0);
 146:SynaptiX_FDK/app/user/sx_mqtt/sx_user_mqtt.c ****         return;
 147:SynaptiX_FDK/app/user/sx_mqtt/sx_user_mqtt.c ****     }
 148:SynaptiX_FDK/app/user/sx_mqtt/sx_user_mqtt.c **** 
 149:SynaptiX_FDK/app/user/sx_mqtt/sx_user_mqtt.c ****     dispatch_next();                    
 150:SynaptiX_FDK/app/user/sx_mqtt/sx_user_mqtt.c ****     if (s_on_publish) s_on_publish(1);  
 151:SynaptiX_FDK/app/user/sx_mqtt/sx_user_mqtt.c **** }
 152:SynaptiX_FDK/app/user/sx_mqtt/sx_user_mqtt.c **** 
 153:SynaptiX_FDK/app/user/sx_mqtt/sx_user_mqtt.c **** static void _on_modem_ready(sim76xx_t *dce){
 154:SynaptiX_FDK/app/user/sx_mqtt/sx_user_mqtt.c ****     const char *imei = sim76xx_get_imei(dce);
 155:SynaptiX_FDK/app/user/sx_mqtt/sx_user_mqtt.c ****     size_t imei_len = strlen(imei);
 156:SynaptiX_FDK/app/user/sx_mqtt/sx_user_mqtt.c ****     const char *imei_suffix = imei_len >= 8 ? imei + imei_len - 8 : imei;
 157:SynaptiX_FDK/app/user/sx_mqtt/sx_user_mqtt.c ****     snprintf(s_client_id_buf, sizeof(s_client_id_buf), "stm32h5_%s", imei_suffix);
 158:SynaptiX_FDK/app/user/sx_mqtt/sx_user_mqtt.c **** 
 159:SynaptiX_FDK/app/user/sx_mqtt/sx_user_mqtt.c ****     s_mqtt.config.client_id = s_client_id_buf;
 160:SynaptiX_FDK/app/user/sx_mqtt/sx_user_mqtt.c **** 
 161:SynaptiX_FDK/app/user/sx_mqtt/sx_user_mqtt.c ****     log_info(TAG, "Modem ready — IP=%s RSSI=%d client_id=%s",
 162:SynaptiX_FDK/app/user/sx_mqtt/sx_user_mqtt.c ****              sim76xx_get_ip(&board.sim76xx), sim76xx_get_rssi(&board.sim76xx), s_client_id_buf);
 163:SynaptiX_FDK/app/user/sx_mqtt/sx_user_mqtt.c ****     //sx_delay_ms(2000);
 164:SynaptiX_FDK/app/user/sx_mqtt/sx_user_mqtt.c ****     sx_mqtt_connect(&s_mqtt);
 165:SynaptiX_FDK/app/user/sx_mqtt/sx_user_mqtt.c ****     log_info(TAG, "Modem ready — IP=%s RSSI=%d", sim76xx_get_ip(&board.sim76xx), sim76xx_get_rssi
 166:SynaptiX_FDK/app/user/sx_mqtt/sx_user_mqtt.c **** }
 167:SynaptiX_FDK/app/user/sx_mqtt/sx_user_mqtt.c **** 
 168:SynaptiX_FDK/app/user/sx_mqtt/sx_user_mqtt.c **** static void _on_modem_error(sim76xx_t *dce){
 169:SynaptiX_FDK/app/user/sx_mqtt/sx_user_mqtt.c ****     (void)dce;
 170:SynaptiX_FDK/app/user/sx_mqtt/sx_user_mqtt.c ****     log_error(TAG, "Modem error");
 171:SynaptiX_FDK/app/user/sx_mqtt/sx_user_mqtt.c ****     if (s_on_disconnected) s_on_disconnected();
 172:SynaptiX_FDK/app/user/sx_mqtt/sx_user_mqtt.c **** }
 173:SynaptiX_FDK/app/user/sx_mqtt/sx_user_mqtt.c **** 
 174:SynaptiX_FDK/app/user/sx_mqtt/sx_user_mqtt.c **** static int _validate_cfg(const sx_user_mqtt_cfg_t *cfg)
 175:SynaptiX_FDK/app/user/sx_mqtt/sx_user_mqtt.c **** {
 176:SynaptiX_FDK/app/user/sx_mqtt/sx_user_mqtt.c ****     // if (!cfg->apn)       { log_error(TAG, "Missing APN");      return -1; }
 177:SynaptiX_FDK/app/user/sx_mqtt/sx_user_mqtt.c ****     if (!cfg->broker)    { log_error(TAG, "Missing broker");    return -1; }
 178:SynaptiX_FDK/app/user/sx_mqtt/sx_user_mqtt.c ****     if (!cfg->port)      { log_error(TAG, "Missing port");      return -1; }
 179:SynaptiX_FDK/app/user/sx_mqtt/sx_user_mqtt.c ****     if (!cfg->client_id) { log_error(TAG, "Missing client_id"); return -1; }
 180:SynaptiX_FDK/app/user/sx_mqtt/sx_user_mqtt.c ****     return 0;
 181:SynaptiX_FDK/app/user/sx_mqtt/sx_user_mqtt.c **** }
 182:SynaptiX_FDK/app/user/sx_mqtt/sx_user_mqtt.c **** 
 183:SynaptiX_FDK/app/user/sx_mqtt/sx_user_mqtt.c **** static int _common_init(const sx_user_mqtt_cfg_t *cfg, sx_mqtt_config_t *mqtt_cfg){
 184:SynaptiX_FDK/app/user/sx_mqtt/sx_user_mqtt.c ****     if (_validate_cfg(cfg) != 0) return -1;
 185:SynaptiX_FDK/app/user/sx_mqtt/sx_user_mqtt.c ****     /* save user callbacks */
 186:SynaptiX_FDK/app/user/sx_mqtt/sx_user_mqtt.c ****     cqueue_init_static(&s_queue, s_queue_buf, MQTT_QUEUE_SIZE, sizeof(mqtt_queue_item_t));
 187:SynaptiX_FDK/app/user/sx_mqtt/sx_user_mqtt.c ****     s_on_connected    = cfg->on_connected;
 188:SynaptiX_FDK/app/user/sx_mqtt/sx_user_mqtt.c ****     s_on_disconnected = cfg->on_disconnected;
 189:SynaptiX_FDK/app/user/sx_mqtt/sx_user_mqtt.c ****     s_on_message      = cfg->on_message;
 190:SynaptiX_FDK/app/user/sx_mqtt/sx_user_mqtt.c ****     s_on_publish      = cfg->on_publish;
 191:SynaptiX_FDK/app/user/sx_mqtt/sx_user_mqtt.c **** 
 192:SynaptiX_FDK/app/user/sx_mqtt/sx_user_mqtt.c ****     // sim76xx_init(&board.sim76xx);
 193:SynaptiX_FDK/app/user/sx_mqtt/sx_user_mqtt.c ****     // sim76xx_power_on(&board.sim76xx);
 194:SynaptiX_FDK/app/user/sx_mqtt/sx_user_mqtt.c ****     sim76xx_set_full_apn(&board.sim76xx, cfg->apn, cfg->username_apn, cfg->password_apn);
 195:SynaptiX_FDK/app/user/sx_mqtt/sx_user_mqtt.c ****     // lte_uart_it_enable();
 196:SynaptiX_FDK/app/user/sx_mqtt/sx_user_mqtt.c **** 
 197:SynaptiX_FDK/app/user/sx_mqtt/sx_user_mqtt.c ****     /* MQTT config */
 198:SynaptiX_FDK/app/user/sx_mqtt/sx_user_mqtt.c ****     mqtt_cfg->broker        = cfg->broker;
 199:SynaptiX_FDK/app/user/sx_mqtt/sx_user_mqtt.c ****     mqtt_cfg->port          = cfg->port;
 200:SynaptiX_FDK/app/user/sx_mqtt/sx_user_mqtt.c ****     mqtt_cfg->client_id     = cfg->client_id;
ARM GAS  C:\Users\LENOVO\AppData\Local\Temp\ccMn3tk9.s 			page 5


 201:SynaptiX_FDK/app/user/sx_mqtt/sx_user_mqtt.c ****     mqtt_cfg->username      = cfg->username;
 202:SynaptiX_FDK/app/user/sx_mqtt/sx_user_mqtt.c ****     mqtt_cfg->password      = cfg->password;
 203:SynaptiX_FDK/app/user/sx_mqtt/sx_user_mqtt.c ****     mqtt_cfg->keepalive     = cfg->keepalive ? cfg->keepalive : 60;
 204:SynaptiX_FDK/app/user/sx_mqtt/sx_user_mqtt.c ****     mqtt_cfg->clean_session = cfg->clean_session;
 205:SynaptiX_FDK/app/user/sx_mqtt/sx_user_mqtt.c **** 
 206:SynaptiX_FDK/app/user/sx_mqtt/sx_user_mqtt.c ****     sim76xx_set_on_ready (&board.sim76xx, _on_modem_ready);
 207:SynaptiX_FDK/app/user/sx_mqtt/sx_user_mqtt.c ****     sim76xx_set_on_error (&board.sim76xx, _on_modem_error);
 208:SynaptiX_FDK/app/user/sx_mqtt/sx_user_mqtt.c **** 
 209:SynaptiX_FDK/app/user/sx_mqtt/sx_user_mqtt.c ****     sx_mqtt_init(&s_mqtt, &board.sim76xx);
 210:SynaptiX_FDK/app/user/sx_mqtt/sx_user_mqtt.c ****     sx_mqtt_set_config(&s_mqtt, mqtt_cfg);
 211:SynaptiX_FDK/app/user/sx_mqtt/sx_user_mqtt.c ****     sx_mqtt_set_on_connected   (&s_mqtt, _on_connected);
 212:SynaptiX_FDK/app/user/sx_mqtt/sx_user_mqtt.c ****     sx_mqtt_set_on_disconnected(&s_mqtt, _on_disconnected);
 213:SynaptiX_FDK/app/user/sx_mqtt/sx_user_mqtt.c ****     sx_mqtt_set_on_message     (&s_mqtt, _on_message);
 214:SynaptiX_FDK/app/user/sx_mqtt/sx_user_mqtt.c ****     sx_mqtt_set_on_publish     (&s_mqtt, _on_publish);
 215:SynaptiX_FDK/app/user/sx_mqtt/sx_user_mqtt.c **** 
 216:SynaptiX_FDK/app/user/sx_mqtt/sx_user_mqtt.c ****     s_last_tick = sx_gettick();
 217:SynaptiX_FDK/app/user/sx_mqtt/sx_user_mqtt.c ****     sim76xx_start(&board.sim76xx);
 218:SynaptiX_FDK/app/user/sx_mqtt/sx_user_mqtt.c ****     log_info(TAG, "Init done — broker=%s:%u ssl=%d", cfg->broker, cfg->port, cfg->use_ssl);
 219:SynaptiX_FDK/app/user/sx_mqtt/sx_user_mqtt.c **** 
 220:SynaptiX_FDK/app/user/sx_mqtt/sx_user_mqtt.c ****     s_initialized = 1;   //
 221:SynaptiX_FDK/app/user/sx_mqtt/sx_user_mqtt.c ****     return 0;
 222:SynaptiX_FDK/app/user/sx_mqtt/sx_user_mqtt.c **** }
 223:SynaptiX_FDK/app/user/sx_mqtt/sx_user_mqtt.c **** 
 224:SynaptiX_FDK/app/user/sx_mqtt/sx_user_mqtt.c **** uint8_t sx_user_mqtt_is_connected(void) {
 225:SynaptiX_FDK/app/user/sx_mqtt/sx_user_mqtt.c ****     return sx_mqtt_is_connected(&s_mqtt);
 226:SynaptiX_FDK/app/user/sx_mqtt/sx_user_mqtt.c **** }
 227:SynaptiX_FDK/app/user/sx_mqtt/sx_user_mqtt.c **** 
 228:SynaptiX_FDK/app/user/sx_mqtt/sx_user_mqtt.c **** int sx_user_mqtt_nontls_init(const sx_user_mqtt_cfg_t *cfg){
 229:SynaptiX_FDK/app/user/sx_mqtt/sx_user_mqtt.c ****     static sx_mqtt_config_t mqtt_cfg;
 230:SynaptiX_FDK/app/user/sx_mqtt/sx_user_mqtt.c ****     memset(&mqtt_cfg, 0, sizeof(mqtt_cfg));
 231:SynaptiX_FDK/app/user/sx_mqtt/sx_user_mqtt.c ****     mqtt_cfg.use_ssl = 0;
 232:SynaptiX_FDK/app/user/sx_mqtt/sx_user_mqtt.c ****     return _common_init(cfg, &mqtt_cfg);
 233:SynaptiX_FDK/app/user/sx_mqtt/sx_user_mqtt.c **** }
 234:SynaptiX_FDK/app/user/sx_mqtt/sx_user_mqtt.c **** 
 235:SynaptiX_FDK/app/user/sx_mqtt/sx_user_mqtt.c **** int sx_user_mqtt_tls_init(const sx_user_mqtt_cfg_t *cfg, char *ca_cert, char *client_cert, char *cl
 236:SynaptiX_FDK/app/user/sx_mqtt/sx_user_mqtt.c ****     static sx_mqtt_config_t mqtt_cfg;
 237:SynaptiX_FDK/app/user/sx_mqtt/sx_user_mqtt.c ****     memset(&mqtt_cfg, 0, sizeof(mqtt_cfg));
 238:SynaptiX_FDK/app/user/sx_mqtt/sx_user_mqtt.c ****     mqtt_cfg.use_ssl = 1;
 239:SynaptiX_FDK/app/user/sx_mqtt/sx_user_mqtt.c **** 
 240:SynaptiX_FDK/app/user/sx_mqtt/sx_user_mqtt.c ****     if (client_cert && client_key)
 241:SynaptiX_FDK/app/user/sx_mqtt/sx_user_mqtt.c ****         mqtt_cfg.ssl_auth_mode = 2;
 242:SynaptiX_FDK/app/user/sx_mqtt/sx_user_mqtt.c ****     else if (ca_cert)
 243:SynaptiX_FDK/app/user/sx_mqtt/sx_user_mqtt.c ****         mqtt_cfg.ssl_auth_mode = 1;
 244:SynaptiX_FDK/app/user/sx_mqtt/sx_user_mqtt.c ****     else
 245:SynaptiX_FDK/app/user/sx_mqtt/sx_user_mqtt.c ****         mqtt_cfg.ssl_auth_mode = 0;
 246:SynaptiX_FDK/app/user/sx_mqtt/sx_user_mqtt.c **** 
 247:SynaptiX_FDK/app/user/sx_mqtt/sx_user_mqtt.c ****     mqtt_cfg.ca_cert     = ca_cert;
 248:SynaptiX_FDK/app/user/sx_mqtt/sx_user_mqtt.c ****     mqtt_cfg.client_cert = client_cert;
 249:SynaptiX_FDK/app/user/sx_mqtt/sx_user_mqtt.c ****     mqtt_cfg.client_key  = client_key;
 250:SynaptiX_FDK/app/user/sx_mqtt/sx_user_mqtt.c **** 
 251:SynaptiX_FDK/app/user/sx_mqtt/sx_user_mqtt.c ****     return _common_init(cfg, &mqtt_cfg);
 252:SynaptiX_FDK/app/user/sx_mqtt/sx_user_mqtt.c **** }
 253:SynaptiX_FDK/app/user/sx_mqtt/sx_user_mqtt.c **** 
 254:SynaptiX_FDK/app/user/sx_mqtt/sx_user_mqtt.c **** void sx_user_mqtt_force_disconnect(void) {
 255:SynaptiX_FDK/app/user/sx_mqtt/sx_user_mqtt.c ****     s_mqtt.state           = SX_MQTT_STATE_DISCONNECTED;
 256:SynaptiX_FDK/app/user/sx_mqtt/sx_user_mqtt.c ****     s_mqtt.reconnect_count = 0;
 257:SynaptiX_FDK/app/user/sx_mqtt/sx_user_mqtt.c ****     s_mqtt.reconnect_elapsed = 0;
ARM GAS  C:\Users\LENOVO\AppData\Local\Temp\ccMn3tk9.s 			page 6


 258:SynaptiX_FDK/app/user/sx_mqtt/sx_user_mqtt.c **** }
 259:SynaptiX_FDK/app/user/sx_mqtt/sx_user_mqtt.c **** 
 260:SynaptiX_FDK/app/user/sx_mqtt/sx_user_mqtt.c **** void sx_user_mqtt_publish(const char *topic, const char *message){
 261:SynaptiX_FDK/app/user/sx_mqtt/sx_user_mqtt.c ****     if (!sx_mqtt_is_connected(&s_mqtt)) { log_warn(TAG, "publish: not connected"); return; }
 262:SynaptiX_FDK/app/user/sx_mqtt/sx_user_mqtt.c **** 
 263:SynaptiX_FDK/app/user/sx_mqtt/sx_user_mqtt.c ****     mqtt_queue_item_t item;
 264:SynaptiX_FDK/app/user/sx_mqtt/sx_user_mqtt.c ****     strncpy(item.topic,   topic,   sizeof(item.topic)   - 1);
 265:SynaptiX_FDK/app/user/sx_mqtt/sx_user_mqtt.c ****     strncpy(item.message, message, sizeof(item.message) - 1);
 266:SynaptiX_FDK/app/user/sx_mqtt/sx_user_mqtt.c ****     item.topic  [sizeof(item.topic)   - 1] = '\0';
 267:SynaptiX_FDK/app/user/sx_mqtt/sx_user_mqtt.c ****     item.message[sizeof(item.message) - 1] = '\0';
 268:SynaptiX_FDK/app/user/sx_mqtt/sx_user_mqtt.c **** 
 269:SynaptiX_FDK/app/user/sx_mqtt/sx_user_mqtt.c ****     if (!cqueue_send(&s_queue, &item)) {
 270:SynaptiX_FDK/app/user/sx_mqtt/sx_user_mqtt.c ****         log_warn(TAG, "publish queue full, drop: %s", topic);
 271:SynaptiX_FDK/app/user/sx_mqtt/sx_user_mqtt.c ****         return;
 272:SynaptiX_FDK/app/user/sx_mqtt/sx_user_mqtt.c ****     }
 273:SynaptiX_FDK/app/user/sx_mqtt/sx_user_mqtt.c **** 
 274:SynaptiX_FDK/app/user/sx_mqtt/sx_user_mqtt.c ****     if (!s_publishing) {
 275:SynaptiX_FDK/app/user/sx_mqtt/sx_user_mqtt.c ****         if (cqueue_receive(&s_queue, &s_current_item)) {
 276:SynaptiX_FDK/app/user/sx_mqtt/sx_user_mqtt.c ****             s_publishing = 1;
 277:SynaptiX_FDK/app/user/sx_mqtt/sx_user_mqtt.c ****             sx_mqtt_publish(&s_mqtt, s_current_item.topic, s_current_item.message, 1, 0);
 278:SynaptiX_FDK/app/user/sx_mqtt/sx_user_mqtt.c ****         }
 279:SynaptiX_FDK/app/user/sx_mqtt/sx_user_mqtt.c ****     }
 280:SynaptiX_FDK/app/user/sx_mqtt/sx_user_mqtt.c **** }
 281:SynaptiX_FDK/app/user/sx_mqtt/sx_user_mqtt.c **** 
 282:SynaptiX_FDK/app/user/sx_mqtt/sx_user_mqtt.c **** void sx_user_mqtt_subscribe(const char *topic){
 283:SynaptiX_FDK/app/user/sx_mqtt/sx_user_mqtt.c ****     if (!sx_mqtt_is_connected(&s_mqtt)) { log_warn(TAG, "subscribe: not connected"); return; }
 284:SynaptiX_FDK/app/user/sx_mqtt/sx_user_mqtt.c ****     if (!topic) { log_warn(TAG, "subscribe: NULL topic"); return; }
 285:SynaptiX_FDK/app/user/sx_mqtt/sx_user_mqtt.c ****     sx_mqtt_subscribe(&s_mqtt, topic, 1);
 286:SynaptiX_FDK/app/user/sx_mqtt/sx_user_mqtt.c **** }
 287:SynaptiX_FDK/app/user/sx_mqtt/sx_user_mqtt.c **** 
 288:SynaptiX_FDK/app/user/sx_mqtt/sx_user_mqtt.c **** void sx_user_mqtt_stop(void){
 289:SynaptiX_FDK/app/user/sx_mqtt/sx_user_mqtt.c ****     if (sx_mqtt_is_connected(&s_mqtt))
 290:SynaptiX_FDK/app/user/sx_mqtt/sx_user_mqtt.c ****         sx_mqtt_disconnect(&s_mqtt);
 291:SynaptiX_FDK/app/user/sx_mqtt/sx_user_mqtt.c **** }
 292:SynaptiX_FDK/app/user/sx_mqtt/sx_user_mqtt.c **** 
 293:SynaptiX_FDK/app/user/sx_mqtt/sx_user_mqtt.c **** void sx_user_mqtt_poll(uint32_t time_stamp){
 294:SynaptiX_FDK/app/user/sx_mqtt/sx_user_mqtt.c ****     sx_mqtt_poll(&s_mqtt, time_stamp);
 295:SynaptiX_FDK/app/user/sx_mqtt/sx_user_mqtt.c **** }
 296:SynaptiX_FDK/app/user/sx_mqtt/sx_user_mqtt.c **** 
 297:SynaptiX_FDK/app/user/sx_mqtt/sx_user_mqtt.c **** uint8_t sx_user_mqtt_is_initialized(void) { return s_initialized; }
 298:SynaptiX_FDK/app/user/sx_mqtt/sx_user_mqtt.c **** 
 299:SynaptiX_FDK/app/user/sx_mqtt/sx_user_mqtt.c **** static void cb_mqtt_stop_done(modem_t *modem, const char *resp,
 300:SynaptiX_FDK/app/user/sx_mqtt/sx_user_mqtt.c ****                                modem_response_st_t res, void *arg) {
  30              		.loc 1 300 68 view -0
  31              		.cfi_startproc
  32              		@ args = 0, pretend = 0, frame = 0
  33              		@ frame_needed = 0, uses_anonymous_args = 0
  34              		@ link register save eliminated.
 301:SynaptiX_FDK/app/user/sx_mqtt/sx_user_mqtt.c ****     s_stop_done = 1;
  35              		.loc 1 301 5 view .LVU1
  36              		.loc 1 301 17 is_stmt 0 view .LVU2
  37 0000 014B     		ldr	r3, .L2
  38              	.LVL1:
  39              		.loc 1 301 17 view .LVU3
  40 0002 0122     		movs	r2, #1
  41              	.LVL2:
  42              		.loc 1 301 17 view .LVU4
ARM GAS  C:\Users\LENOVO\AppData\Local\Temp\ccMn3tk9.s 			page 7


  43 0004 1A70     		strb	r2, [r3]
 302:SynaptiX_FDK/app/user/sx_mqtt/sx_user_mqtt.c **** }
  44              		.loc 1 302 1 view .LVU5
  45 0006 7047     		bx	lr
  46              	.L3:
  47              		.align	2
  48              	.L2:
  49 0008 00000000 		.word	s_stop_done
  50              		.cfi_endproc
  51              	.LFE567:
  53              		.section	.rodata._on_message.str1.4,"aMS",%progbits,1
  54              		.align	2
  55              	.LC0:
  56 0000 4D534720 		.ascii	"MSG [%s] = %s\000"
  56      5B25735D 
  56      203D2025 
  56      7300
  57 000e 0000     		.align	2
  58              	.LC1:
  59 0010 55534552 		.ascii	"USER_MQTT\000"
  59      5F4D5154 
  59      5400
  60              		.section	.text._on_message,"ax",%progbits
  61              		.align	1
  62              		.syntax unified
  63              		.thumb
  64              		.thumb_func
  66              	_on_message:
  67              	.LVL3:
  68              	.LFB552:
  63:SynaptiX_FDK/app/user/sx_mqtt/sx_user_mqtt.c ****     (void)mqtt;
  69              		.loc 1 63 81 is_stmt 1 view -0
  70              		.cfi_startproc
  71              		@ args = 0, pretend = 0, frame = 0
  72              		@ frame_needed = 0, uses_anonymous_args = 0
  63:SynaptiX_FDK/app/user/sx_mqtt/sx_user_mqtt.c ****     (void)mqtt;
  73              		.loc 1 63 81 is_stmt 0 view .LVU7
  74 0000 30B5     		push	{r4, r5, lr}
  75              	.LCFI0:
  76              		.cfi_def_cfa_offset 12
  77              		.cfi_offset 4, -12
  78              		.cfi_offset 5, -8
  79              		.cfi_offset 14, -4
  80 0002 83B0     		sub	sp, sp, #12
  81              	.LCFI1:
  82              		.cfi_def_cfa_offset 24
  83 0004 0C46     		mov	r4, r1
  84 0006 1546     		mov	r5, r2
  64:SynaptiX_FDK/app/user/sx_mqtt/sx_user_mqtt.c ****     log_info(TAG, "MSG [%s] = %s", topic, message);
  85              		.loc 1 64 5 is_stmt 1 view .LVU8
  65:SynaptiX_FDK/app/user/sx_mqtt/sx_user_mqtt.c ****     if (s_on_message) s_on_message(topic, message);
  86              		.loc 1 65 5 view .LVU9
  87 0008 0092     		str	r2, [sp]
  88 000a 0B46     		mov	r3, r1
  89 000c 064A     		ldr	r2, .L7
  90              	.LVL4:
  65:SynaptiX_FDK/app/user/sx_mqtt/sx_user_mqtt.c ****     if (s_on_message) s_on_message(topic, message);
ARM GAS  C:\Users\LENOVO\AppData\Local\Temp\ccMn3tk9.s 			page 8


  91              		.loc 1 65 5 is_stmt 0 view .LVU10
  92 000e 0749     		ldr	r1, .L7+4
  93              	.LVL5:
  65:SynaptiX_FDK/app/user/sx_mqtt/sx_user_mqtt.c ****     if (s_on_message) s_on_message(topic, message);
  94              		.loc 1 65 5 view .LVU11
  95 0010 0320     		movs	r0, #3
  96              	.LVL6:
  65:SynaptiX_FDK/app/user/sx_mqtt/sx_user_mqtt.c ****     if (s_on_message) s_on_message(topic, message);
  97              		.loc 1 65 5 view .LVU12
  98 0012 FFF7FEFF 		bl	log_func
  99              	.LVL7:
  66:SynaptiX_FDK/app/user/sx_mqtt/sx_user_mqtt.c **** }
 100              		.loc 1 66 5 is_stmt 1 view .LVU13
  66:SynaptiX_FDK/app/user/sx_mqtt/sx_user_mqtt.c **** }
 101              		.loc 1 66 9 is_stmt 0 view .LVU14
 102 0016 064B     		ldr	r3, .L7+8
 103 0018 1B68     		ldr	r3, [r3]
  66:SynaptiX_FDK/app/user/sx_mqtt/sx_user_mqtt.c **** }
 104              		.loc 1 66 8 view .LVU15
 105 001a 13B1     		cbz	r3, .L4
  66:SynaptiX_FDK/app/user/sx_mqtt/sx_user_mqtt.c **** }
 106              		.loc 1 66 23 is_stmt 1 discriminator 1 view .LVU16
 107 001c 2946     		mov	r1, r5
 108 001e 2046     		mov	r0, r4
 109 0020 9847     		blx	r3
 110              	.LVL8:
 111              	.L4:
  67:SynaptiX_FDK/app/user/sx_mqtt/sx_user_mqtt.c **** 
 112              		.loc 1 67 1 is_stmt 0 view .LVU17
 113 0022 03B0     		add	sp, sp, #12
 114              	.LCFI2:
 115              		.cfi_def_cfa_offset 12
 116              		@ sp needed
 117 0024 30BD     		pop	{r4, r5, pc}
 118              	.LVL9:
 119              	.L8:
  67:SynaptiX_FDK/app/user/sx_mqtt/sx_user_mqtt.c **** 
 120              		.loc 1 67 1 view .LVU18
 121 0026 00BF     		.align	2
 122              	.L7:
 123 0028 00000000 		.word	.LC0
 124 002c 10000000 		.word	.LC1
 125 0030 00000000 		.word	s_on_message
 126              		.cfi_endproc
 127              	.LFE552:
 129              		.section	.rodata._on_disconnected.str1.4,"aMS",%progbits,1
 130              		.align	2
 131              	.LC2:
 132 0000 4D515454 		.ascii	"MQTT disconnected\000"
 132      20646973 
 132      636F6E6E 
 132      65637465 
 132      6400
 133              		.section	.text._on_disconnected,"ax",%progbits
 134              		.align	1
 135              		.syntax unified
 136              		.thumb
ARM GAS  C:\Users\LENOVO\AppData\Local\Temp\ccMn3tk9.s 			page 9


 137              		.thumb_func
 139              	_on_disconnected:
 140              	.LVL10:
 141              	.LFB551:
  57:SynaptiX_FDK/app/user/sx_mqtt/sx_user_mqtt.c ****     (void)mqtt;
 142              		.loc 1 57 46 is_stmt 1 view -0
 143              		.cfi_startproc
 144              		@ args = 0, pretend = 0, frame = 0
 145              		@ frame_needed = 0, uses_anonymous_args = 0
  57:SynaptiX_FDK/app/user/sx_mqtt/sx_user_mqtt.c ****     (void)mqtt;
 146              		.loc 1 57 46 is_stmt 0 view .LVU20
 147 0000 08B5     		push	{r3, lr}
 148              	.LCFI3:
 149              		.cfi_def_cfa_offset 8
 150              		.cfi_offset 3, -8
 151              		.cfi_offset 14, -4
  58:SynaptiX_FDK/app/user/sx_mqtt/sx_user_mqtt.c ****     log_warn(TAG, "MQTT disconnected");
 152              		.loc 1 58 5 is_stmt 1 view .LVU21
  59:SynaptiX_FDK/app/user/sx_mqtt/sx_user_mqtt.c ****     if (s_on_disconnected) s_on_disconnected();
 153              		.loc 1 59 5 view .LVU22
 154 0002 054A     		ldr	r2, .L12
 155 0004 0549     		ldr	r1, .L12+4
 156 0006 0220     		movs	r0, #2
 157              	.LVL11:
  59:SynaptiX_FDK/app/user/sx_mqtt/sx_user_mqtt.c ****     if (s_on_disconnected) s_on_disconnected();
 158              		.loc 1 59 5 is_stmt 0 view .LVU23
 159 0008 FFF7FEFF 		bl	log_func
 160              	.LVL12:
  60:SynaptiX_FDK/app/user/sx_mqtt/sx_user_mqtt.c **** }
 161              		.loc 1 60 5 is_stmt 1 view .LVU24
  60:SynaptiX_FDK/app/user/sx_mqtt/sx_user_mqtt.c **** }
 162              		.loc 1 60 9 is_stmt 0 view .LVU25
 163 000c 044B     		ldr	r3, .L12+8
 164 000e 1B68     		ldr	r3, [r3]
  60:SynaptiX_FDK/app/user/sx_mqtt/sx_user_mqtt.c **** }
 165              		.loc 1 60 8 view .LVU26
 166 0010 03B1     		cbz	r3, .L9
  60:SynaptiX_FDK/app/user/sx_mqtt/sx_user_mqtt.c **** }
 167              		.loc 1 60 28 is_stmt 1 discriminator 1 view .LVU27
 168 0012 9847     		blx	r3
 169              	.LVL13:
 170              	.L9:
  61:SynaptiX_FDK/app/user/sx_mqtt/sx_user_mqtt.c **** 
 171              		.loc 1 61 1 is_stmt 0 view .LVU28
 172 0014 08BD     		pop	{r3, pc}
 173              	.L13:
 174 0016 00BF     		.align	2
 175              	.L12:
 176 0018 00000000 		.word	.LC2
 177 001c 10000000 		.word	.LC1
 178 0020 00000000 		.word	s_on_disconnected
 179              		.cfi_endproc
 180              	.LFE551:
 182              		.section	.rodata._on_connected.str1.4,"aMS",%progbits,1
 183              		.align	2
 184              	.LC3:
 185 0000 4D515454 		.ascii	"MQTT connected\000"
ARM GAS  C:\Users\LENOVO\AppData\Local\Temp\ccMn3tk9.s 			page 10


 185      20636F6E 
 185      6E656374 
 185      656400
 186              		.section	.text._on_connected,"ax",%progbits
 187              		.align	1
 188              		.syntax unified
 189              		.thumb
 190              		.thumb_func
 192              	_on_connected:
 193              	.LVL14:
 194              	.LFB550:
  51:SynaptiX_FDK/app/user/sx_mqtt/sx_user_mqtt.c ****     (void)mqtt;
 195              		.loc 1 51 43 is_stmt 1 view -0
 196              		.cfi_startproc
 197              		@ args = 0, pretend = 0, frame = 0
 198              		@ frame_needed = 0, uses_anonymous_args = 0
  51:SynaptiX_FDK/app/user/sx_mqtt/sx_user_mqtt.c ****     (void)mqtt;
 199              		.loc 1 51 43 is_stmt 0 view .LVU30
 200 0000 08B5     		push	{r3, lr}
 201              	.LCFI4:
 202              		.cfi_def_cfa_offset 8
 203              		.cfi_offset 3, -8
 204              		.cfi_offset 14, -4
  52:SynaptiX_FDK/app/user/sx_mqtt/sx_user_mqtt.c ****     log_info(TAG, "MQTT connected");
 205              		.loc 1 52 5 is_stmt 1 view .LVU31
  53:SynaptiX_FDK/app/user/sx_mqtt/sx_user_mqtt.c ****     if (s_on_connected) s_on_connected();
 206              		.loc 1 53 5 view .LVU32
 207 0002 054A     		ldr	r2, .L17
 208 0004 0549     		ldr	r1, .L17+4
 209 0006 0320     		movs	r0, #3
 210              	.LVL15:
  53:SynaptiX_FDK/app/user/sx_mqtt/sx_user_mqtt.c ****     if (s_on_connected) s_on_connected();
 211              		.loc 1 53 5 is_stmt 0 view .LVU33
 212 0008 FFF7FEFF 		bl	log_func
 213              	.LVL16:
  54:SynaptiX_FDK/app/user/sx_mqtt/sx_user_mqtt.c **** }
 214              		.loc 1 54 5 is_stmt 1 view .LVU34
  54:SynaptiX_FDK/app/user/sx_mqtt/sx_user_mqtt.c **** }
 215              		.loc 1 54 9 is_stmt 0 view .LVU35
 216 000c 044B     		ldr	r3, .L17+8
 217 000e 1B68     		ldr	r3, [r3]
  54:SynaptiX_FDK/app/user/sx_mqtt/sx_user_mqtt.c **** }
 218              		.loc 1 54 8 view .LVU36
 219 0010 03B1     		cbz	r3, .L14
  54:SynaptiX_FDK/app/user/sx_mqtt/sx_user_mqtt.c **** }
 220              		.loc 1 54 25 is_stmt 1 discriminator 1 view .LVU37
 221 0012 9847     		blx	r3
 222              	.LVL17:
 223              	.L14:
  55:SynaptiX_FDK/app/user/sx_mqtt/sx_user_mqtt.c **** 
 224              		.loc 1 55 1 is_stmt 0 view .LVU38
 225 0014 08BD     		pop	{r3, pc}
 226              	.L18:
 227 0016 00BF     		.align	2
 228              	.L17:
 229 0018 00000000 		.word	.LC3
 230 001c 10000000 		.word	.LC1
ARM GAS  C:\Users\LENOVO\AppData\Local\Temp\ccMn3tk9.s 			page 11


 231 0020 00000000 		.word	s_on_connected
 232              		.cfi_endproc
 233              	.LFE550:
 235              		.section	.rodata._on_modem_error.str1.4,"aMS",%progbits,1
 236              		.align	2
 237              	.LC4:
 238 0000 4D6F6465 		.ascii	"Modem error\000"
 238      6D206572 
 238      726F7200 
 239              		.section	.text._on_modem_error,"ax",%progbits
 240              		.align	1
 241              		.syntax unified
 242              		.thumb
 243              		.thumb_func
 245              	_on_modem_error:
 246              	.LVL18:
 247              	.LFB555:
 168:SynaptiX_FDK/app/user/sx_mqtt/sx_user_mqtt.c ****     (void)dce;
 248              		.loc 1 168 44 is_stmt 1 view -0
 249              		.cfi_startproc
 250              		@ args = 0, pretend = 0, frame = 0
 251              		@ frame_needed = 0, uses_anonymous_args = 0
 168:SynaptiX_FDK/app/user/sx_mqtt/sx_user_mqtt.c ****     (void)dce;
 252              		.loc 1 168 44 is_stmt 0 view .LVU40
 253 0000 08B5     		push	{r3, lr}
 254              	.LCFI5:
 255              		.cfi_def_cfa_offset 8
 256              		.cfi_offset 3, -8
 257              		.cfi_offset 14, -4
 169:SynaptiX_FDK/app/user/sx_mqtt/sx_user_mqtt.c ****     log_error(TAG, "Modem error");
 258              		.loc 1 169 5 is_stmt 1 view .LVU41
 170:SynaptiX_FDK/app/user/sx_mqtt/sx_user_mqtt.c ****     if (s_on_disconnected) s_on_disconnected();
 259              		.loc 1 170 5 view .LVU42
 260 0002 054A     		ldr	r2, .L22
 261 0004 0549     		ldr	r1, .L22+4
 262 0006 0120     		movs	r0, #1
 263              	.LVL19:
 170:SynaptiX_FDK/app/user/sx_mqtt/sx_user_mqtt.c ****     if (s_on_disconnected) s_on_disconnected();
 264              		.loc 1 170 5 is_stmt 0 view .LVU43
 265 0008 FFF7FEFF 		bl	log_func
 266              	.LVL20:
 171:SynaptiX_FDK/app/user/sx_mqtt/sx_user_mqtt.c **** }
 267              		.loc 1 171 5 is_stmt 1 view .LVU44
 171:SynaptiX_FDK/app/user/sx_mqtt/sx_user_mqtt.c **** }
 268              		.loc 1 171 9 is_stmt 0 view .LVU45
 269 000c 044B     		ldr	r3, .L22+8
 270 000e 1B68     		ldr	r3, [r3]
 171:SynaptiX_FDK/app/user/sx_mqtt/sx_user_mqtt.c **** }
 271              		.loc 1 171 8 view .LVU46
 272 0010 03B1     		cbz	r3, .L19
 171:SynaptiX_FDK/app/user/sx_mqtt/sx_user_mqtt.c **** }
 273              		.loc 1 171 28 is_stmt 1 discriminator 1 view .LVU47
 274 0012 9847     		blx	r3
 275              	.LVL21:
 276              	.L19:
 172:SynaptiX_FDK/app/user/sx_mqtt/sx_user_mqtt.c **** 
 277              		.loc 1 172 1 is_stmt 0 view .LVU48
ARM GAS  C:\Users\LENOVO\AppData\Local\Temp\ccMn3tk9.s 			page 12


 278 0014 08BD     		pop	{r3, pc}
 279              	.L23:
 280 0016 00BF     		.align	2
 281              	.L22:
 282 0018 00000000 		.word	.LC4
 283 001c 10000000 		.word	.LC1
 284 0020 00000000 		.word	s_on_disconnected
 285              		.cfi_endproc
 286              	.LFE555:
 288              		.section	.rodata._validate_cfg.str1.4,"aMS",%progbits,1
 289              		.align	2
 290              	.LC5:
 291 0000 4D697373 		.ascii	"Missing broker\000"
 291      696E6720 
 291      62726F6B 
 291      657200
 292 000f 00       		.align	2
 293              	.LC6:
 294 0010 4D697373 		.ascii	"Missing port\000"
 294      696E6720 
 294      706F7274 
 294      00
 295 001d 000000   		.align	2
 296              	.LC7:
 297 0020 4D697373 		.ascii	"Missing client_id\000"
 297      696E6720 
 297      636C6965 
 297      6E745F69 
 297      6400
 298              		.section	.text._validate_cfg,"ax",%progbits
 299              		.align	1
 300              		.syntax unified
 301              		.thumb
 302              		.thumb_func
 304              	_validate_cfg:
 305              	.LVL22:
 306              	.LFB556:
 175:SynaptiX_FDK/app/user/sx_mqtt/sx_user_mqtt.c ****     // if (!cfg->apn)       { log_error(TAG, "Missing APN");      return -1; }
 307              		.loc 1 175 1 is_stmt 1 view -0
 308              		.cfi_startproc
 309              		@ args = 0, pretend = 0, frame = 0
 310              		@ frame_needed = 0, uses_anonymous_args = 0
 175:SynaptiX_FDK/app/user/sx_mqtt/sx_user_mqtt.c ****     // if (!cfg->apn)       { log_error(TAG, "Missing APN");      return -1; }
 311              		.loc 1 175 1 is_stmt 0 view .LVU50
 312 0000 08B5     		push	{r3, lr}
 313              	.LCFI6:
 314              		.cfi_def_cfa_offset 8
 315              		.cfi_offset 3, -8
 316              		.cfi_offset 14, -4
 177:SynaptiX_FDK/app/user/sx_mqtt/sx_user_mqtt.c ****     if (!cfg->port)      { log_error(TAG, "Missing port");      return -1; }
 317              		.loc 1 177 5 is_stmt 1 view .LVU51
 177:SynaptiX_FDK/app/user/sx_mqtt/sx_user_mqtt.c ****     if (!cfg->port)      { log_error(TAG, "Missing port");      return -1; }
 318              		.loc 1 177 13 is_stmt 0 view .LVU52
 319 0002 C36B     		ldr	r3, [r0, #60]
 177:SynaptiX_FDK/app/user/sx_mqtt/sx_user_mqtt.c ****     if (!cfg->port)      { log_error(TAG, "Missing port");      return -1; }
 320              		.loc 1 177 8 view .LVU53
 321 0004 33B1     		cbz	r3, .L30
ARM GAS  C:\Users\LENOVO\AppData\Local\Temp\ccMn3tk9.s 			page 13


 178:SynaptiX_FDK/app/user/sx_mqtt/sx_user_mqtt.c ****     if (!cfg->client_id) { log_error(TAG, "Missing client_id"); return -1; }
 322              		.loc 1 178 5 is_stmt 1 view .LVU54
 178:SynaptiX_FDK/app/user/sx_mqtt/sx_user_mqtt.c ****     if (!cfg->client_id) { log_error(TAG, "Missing client_id"); return -1; }
 323              		.loc 1 178 13 is_stmt 0 view .LVU55
 324 0006 B0F84030 		ldrh	r3, [r0, #64]
 178:SynaptiX_FDK/app/user/sx_mqtt/sx_user_mqtt.c ****     if (!cfg->client_id) { log_error(TAG, "Missing client_id"); return -1; }
 325              		.loc 1 178 8 view .LVU56
 326 000a 5BB1     		cbz	r3, .L31
 179:SynaptiX_FDK/app/user/sx_mqtt/sx_user_mqtt.c ****     return 0;
 327              		.loc 1 179 5 is_stmt 1 view .LVU57
 179:SynaptiX_FDK/app/user/sx_mqtt/sx_user_mqtt.c ****     return 0;
 328              		.loc 1 179 13 is_stmt 0 view .LVU58
 329 000c 436C     		ldr	r3, [r0, #68]
 179:SynaptiX_FDK/app/user/sx_mqtt/sx_user_mqtt.c ****     return 0;
 330              		.loc 1 179 8 view .LVU59
 331 000e 8BB1     		cbz	r3, .L32
 180:SynaptiX_FDK/app/user/sx_mqtt/sx_user_mqtt.c **** }
 332              		.loc 1 180 12 view .LVU60
 333 0010 0020     		movs	r0, #0
 334              	.LVL23:
 335              	.L24:
 181:SynaptiX_FDK/app/user/sx_mqtt/sx_user_mqtt.c **** 
 336              		.loc 1 181 1 view .LVU61
 337 0012 08BD     		pop	{r3, pc}
 338              	.LVL24:
 339              	.L30:
 177:SynaptiX_FDK/app/user/sx_mqtt/sx_user_mqtt.c ****     if (!cfg->port)      { log_error(TAG, "Missing port");      return -1; }
 340              		.loc 1 177 28 is_stmt 1 discriminator 1 view .LVU62
 341 0014 0B4A     		ldr	r2, .L33
 342 0016 0C49     		ldr	r1, .L33+4
 343 0018 0120     		movs	r0, #1
 344              	.LVL25:
 177:SynaptiX_FDK/app/user/sx_mqtt/sx_user_mqtt.c ****     if (!cfg->port)      { log_error(TAG, "Missing port");      return -1; }
 345              		.loc 1 177 28 is_stmt 0 discriminator 1 view .LVU63
 346 001a FFF7FEFF 		bl	log_func
 347              	.LVL26:
 177:SynaptiX_FDK/app/user/sx_mqtt/sx_user_mqtt.c ****     if (!cfg->port)      { log_error(TAG, "Missing port");      return -1; }
 348              		.loc 1 177 65 is_stmt 1 discriminator 1 view .LVU64
 177:SynaptiX_FDK/app/user/sx_mqtt/sx_user_mqtt.c ****     if (!cfg->port)      { log_error(TAG, "Missing port");      return -1; }
 349              		.loc 1 177 72 is_stmt 0 discriminator 1 view .LVU65
 350 001e 4FF0FF30 		mov	r0, #-1
 177:SynaptiX_FDK/app/user/sx_mqtt/sx_user_mqtt.c ****     if (!cfg->port)      { log_error(TAG, "Missing port");      return -1; }
 351              		.loc 1 177 72 view .LVU66
 352 0022 F6E7     		b	.L24
 353              	.LVL27:
 354              	.L31:
 178:SynaptiX_FDK/app/user/sx_mqtt/sx_user_mqtt.c ****     if (!cfg->client_id) { log_error(TAG, "Missing client_id"); return -1; }
 355              		.loc 1 178 28 is_stmt 1 discriminator 1 view .LVU67
 356 0024 094A     		ldr	r2, .L33+8
 357 0026 0849     		ldr	r1, .L33+4
 358 0028 0120     		movs	r0, #1
 359              	.LVL28:
 178:SynaptiX_FDK/app/user/sx_mqtt/sx_user_mqtt.c ****     if (!cfg->client_id) { log_error(TAG, "Missing client_id"); return -1; }
 360              		.loc 1 178 28 is_stmt 0 discriminator 1 view .LVU68
 361 002a FFF7FEFF 		bl	log_func
 362              	.LVL29:
 178:SynaptiX_FDK/app/user/sx_mqtt/sx_user_mqtt.c ****     if (!cfg->client_id) { log_error(TAG, "Missing client_id"); return -1; }
ARM GAS  C:\Users\LENOVO\AppData\Local\Temp\ccMn3tk9.s 			page 14


 363              		.loc 1 178 65 is_stmt 1 discriminator 1 view .LVU69
 178:SynaptiX_FDK/app/user/sx_mqtt/sx_user_mqtt.c ****     if (!cfg->client_id) { log_error(TAG, "Missing client_id"); return -1; }
 364              		.loc 1 178 72 is_stmt 0 discriminator 1 view .LVU70
 365 002e 4FF0FF30 		mov	r0, #-1
 178:SynaptiX_FDK/app/user/sx_mqtt/sx_user_mqtt.c ****     if (!cfg->client_id) { log_error(TAG, "Missing client_id"); return -1; }
 366              		.loc 1 178 72 view .LVU71
 367 0032 EEE7     		b	.L24
 368              	.LVL30:
 369              	.L32:
 179:SynaptiX_FDK/app/user/sx_mqtt/sx_user_mqtt.c ****     return 0;
 370              		.loc 1 179 28 is_stmt 1 discriminator 1 view .LVU72
 371 0034 064A     		ldr	r2, .L33+12
 372 0036 0449     		ldr	r1, .L33+4
 373 0038 0120     		movs	r0, #1
 374              	.LVL31:
 179:SynaptiX_FDK/app/user/sx_mqtt/sx_user_mqtt.c ****     return 0;
 375              		.loc 1 179 28 is_stmt 0 discriminator 1 view .LVU73
 376 003a FFF7FEFF 		bl	log_func
 377              	.LVL32:
 179:SynaptiX_FDK/app/user/sx_mqtt/sx_user_mqtt.c ****     return 0;
 378              		.loc 1 179 65 is_stmt 1 discriminator 1 view .LVU74
 179:SynaptiX_FDK/app/user/sx_mqtt/sx_user_mqtt.c ****     return 0;
 379              		.loc 1 179 72 is_stmt 0 discriminator 1 view .LVU75
 380 003e 4FF0FF30 		mov	r0, #-1
 179:SynaptiX_FDK/app/user/sx_mqtt/sx_user_mqtt.c ****     return 0;
 381              		.loc 1 179 72 view .LVU76
 382 0042 E6E7     		b	.L24
 383              	.L34:
 384              		.align	2
 385              	.L33:
 386 0044 00000000 		.word	.LC5
 387 0048 10000000 		.word	.LC1
 388 004c 10000000 		.word	.LC6
 389 0050 20000000 		.word	.LC7
 390              		.cfi_endproc
 391              	.LFE556:
 393              		.section	.rodata._common_init.str1.4,"aMS",%progbits,1
 394              		.align	2
 395              	.LC8:
 396 0000 496E6974 		.ascii	"Init done \342\200\224 broker=%s:%u ssl=%d\000"
 396      20646F6E 
 396      6520E280 
 396      94206272 
 396      6F6B6572 
 397              		.section	.text._common_init,"ax",%progbits
 398              		.align	1
 399              		.syntax unified
 400              		.thumb
 401              		.thumb_func
 403              	_common_init:
 404              	.LVL33:
 405              	.LFB557:
 183:SynaptiX_FDK/app/user/sx_mqtt/sx_user_mqtt.c ****     if (_validate_cfg(cfg) != 0) return -1;
 406              		.loc 1 183 83 is_stmt 1 view -0
 407              		.cfi_startproc
 408              		@ args = 0, pretend = 0, frame = 0
 409              		@ frame_needed = 0, uses_anonymous_args = 0
ARM GAS  C:\Users\LENOVO\AppData\Local\Temp\ccMn3tk9.s 			page 15


 183:SynaptiX_FDK/app/user/sx_mqtt/sx_user_mqtt.c ****     if (_validate_cfg(cfg) != 0) return -1;
 410              		.loc 1 183 83 is_stmt 0 view .LVU78
 411 0000 2DE9F041 		push	{r4, r5, r6, r7, r8, lr}
 412              	.LCFI7:
 413              		.cfi_def_cfa_offset 24
 414              		.cfi_offset 4, -24
 415              		.cfi_offset 5, -20
 416              		.cfi_offset 6, -16
 417              		.cfi_offset 7, -12
 418              		.cfi_offset 8, -8
 419              		.cfi_offset 14, -4
 420 0004 82B0     		sub	sp, sp, #8
 421              	.LCFI8:
 422              		.cfi_def_cfa_offset 32
 423 0006 0446     		mov	r4, r0
 424 0008 0D46     		mov	r5, r1
 184:SynaptiX_FDK/app/user/sx_mqtt/sx_user_mqtt.c ****     /* save user callbacks */
 425              		.loc 1 184 5 is_stmt 1 view .LVU79
 184:SynaptiX_FDK/app/user/sx_mqtt/sx_user_mqtt.c ****     /* save user callbacks */
 426              		.loc 1 184 9 is_stmt 0 view .LVU80
 427 000a FFF7FEFF 		bl	_validate_cfg
 428              	.LVL34:
 184:SynaptiX_FDK/app/user/sx_mqtt/sx_user_mqtt.c ****     /* save user callbacks */
 429              		.loc 1 184 8 discriminator 1 view .LVU81
 430 000e 0028     		cmp	r0, #0
 431 0010 64D1     		bne	.L38
 432 0012 8046     		mov	r8, r0
 186:SynaptiX_FDK/app/user/sx_mqtt/sx_user_mqtt.c ****     s_on_connected    = cfg->on_connected;
 433              		.loc 1 186 5 is_stmt 1 view .LVU82
 434 0014 4FF4C073 		mov	r3, #384
 435 0018 1022     		movs	r2, #16
 436 001a 3249     		ldr	r1, .L40
 437 001c 3248     		ldr	r0, .L40+4
 438 001e FFF7FEFF 		bl	cqueue_init_static
 439              	.LVL35:
 187:SynaptiX_FDK/app/user/sx_mqtt/sx_user_mqtt.c ****     s_on_disconnected = cfg->on_disconnected;
 440              		.loc 1 187 5 view .LVU83
 187:SynaptiX_FDK/app/user/sx_mqtt/sx_user_mqtt.c ****     s_on_disconnected = cfg->on_disconnected;
 441              		.loc 1 187 28 is_stmt 0 view .LVU84
 442 0022 A26D     		ldr	r2, [r4, #88]
 187:SynaptiX_FDK/app/user/sx_mqtt/sx_user_mqtt.c ****     s_on_disconnected = cfg->on_disconnected;
 443              		.loc 1 187 23 view .LVU85
 444 0024 314B     		ldr	r3, .L40+8
 445 0026 1A60     		str	r2, [r3]
 188:SynaptiX_FDK/app/user/sx_mqtt/sx_user_mqtt.c ****     s_on_message      = cfg->on_message;
 446              		.loc 1 188 5 is_stmt 1 view .LVU86
 188:SynaptiX_FDK/app/user/sx_mqtt/sx_user_mqtt.c ****     s_on_message      = cfg->on_message;
 447              		.loc 1 188 28 is_stmt 0 view .LVU87
 448 0028 E26D     		ldr	r2, [r4, #92]
 188:SynaptiX_FDK/app/user/sx_mqtt/sx_user_mqtt.c ****     s_on_message      = cfg->on_message;
 449              		.loc 1 188 23 view .LVU88
 450 002a 314B     		ldr	r3, .L40+12
 451 002c 1A60     		str	r2, [r3]
 189:SynaptiX_FDK/app/user/sx_mqtt/sx_user_mqtt.c ****     s_on_publish      = cfg->on_publish;
 452              		.loc 1 189 5 is_stmt 1 view .LVU89
 189:SynaptiX_FDK/app/user/sx_mqtt/sx_user_mqtt.c ****     s_on_publish      = cfg->on_publish;
 453              		.loc 1 189 28 is_stmt 0 view .LVU90
ARM GAS  C:\Users\LENOVO\AppData\Local\Temp\ccMn3tk9.s 			page 16


 454 002e 226E     		ldr	r2, [r4, #96]
 189:SynaptiX_FDK/app/user/sx_mqtt/sx_user_mqtt.c ****     s_on_publish      = cfg->on_publish;
 455              		.loc 1 189 23 view .LVU91
 456 0030 304B     		ldr	r3, .L40+16
 457 0032 1A60     		str	r2, [r3]
 190:SynaptiX_FDK/app/user/sx_mqtt/sx_user_mqtt.c **** 
 458              		.loc 1 190 5 is_stmt 1 view .LVU92
 190:SynaptiX_FDK/app/user/sx_mqtt/sx_user_mqtt.c **** 
 459              		.loc 1 190 28 is_stmt 0 view .LVU93
 460 0034 626E     		ldr	r2, [r4, #100]
 190:SynaptiX_FDK/app/user/sx_mqtt/sx_user_mqtt.c **** 
 461              		.loc 1 190 23 view .LVU94
 462 0036 304B     		ldr	r3, .L40+20
 463 0038 1A60     		str	r2, [r3]
 194:SynaptiX_FDK/app/user/sx_mqtt/sx_user_mqtt.c ****     // lte_uart_it_enable();
 464              		.loc 1 194 5 is_stmt 1 view .LVU95
 465 003a 04F12803 		add	r3, r4, #40
 466 003e 04F11402 		add	r2, r4, #20
 467 0042 2146     		mov	r1, r4
 468 0044 2D48     		ldr	r0, .L40+24
 469 0046 FFF7FEFF 		bl	sim76xx_set_full_apn
 470              	.LVL36:
 198:SynaptiX_FDK/app/user/sx_mqtt/sx_user_mqtt.c ****     mqtt_cfg->port          = cfg->port;
 471              		.loc 1 198 5 view .LVU96
 198:SynaptiX_FDK/app/user/sx_mqtt/sx_user_mqtt.c ****     mqtt_cfg->port          = cfg->port;
 472              		.loc 1 198 34 is_stmt 0 view .LVU97
 473 004a E36B     		ldr	r3, [r4, #60]
 198:SynaptiX_FDK/app/user/sx_mqtt/sx_user_mqtt.c ****     mqtt_cfg->port          = cfg->port;
 474              		.loc 1 198 29 view .LVU98
 475 004c 2B60     		str	r3, [r5]
 199:SynaptiX_FDK/app/user/sx_mqtt/sx_user_mqtt.c ****     mqtt_cfg->client_id     = cfg->client_id;
 476              		.loc 1 199 5 is_stmt 1 view .LVU99
 199:SynaptiX_FDK/app/user/sx_mqtt/sx_user_mqtt.c ****     mqtt_cfg->client_id     = cfg->client_id;
 477              		.loc 1 199 34 is_stmt 0 view .LVU100
 478 004e B4F84030 		ldrh	r3, [r4, #64]
 199:SynaptiX_FDK/app/user/sx_mqtt/sx_user_mqtt.c ****     mqtt_cfg->client_id     = cfg->client_id;
 479              		.loc 1 199 29 view .LVU101
 480 0052 AB80     		strh	r3, [r5, #4]	@ movhi
 200:SynaptiX_FDK/app/user/sx_mqtt/sx_user_mqtt.c ****     mqtt_cfg->username      = cfg->username;
 481              		.loc 1 200 5 is_stmt 1 view .LVU102
 200:SynaptiX_FDK/app/user/sx_mqtt/sx_user_mqtt.c ****     mqtt_cfg->username      = cfg->username;
 482              		.loc 1 200 34 is_stmt 0 view .LVU103
 483 0054 636C     		ldr	r3, [r4, #68]
 200:SynaptiX_FDK/app/user/sx_mqtt/sx_user_mqtt.c ****     mqtt_cfg->username      = cfg->username;
 484              		.loc 1 200 29 view .LVU104
 485 0056 AB60     		str	r3, [r5, #8]
 201:SynaptiX_FDK/app/user/sx_mqtt/sx_user_mqtt.c ****     mqtt_cfg->password      = cfg->password;
 486              		.loc 1 201 5 is_stmt 1 view .LVU105
 201:SynaptiX_FDK/app/user/sx_mqtt/sx_user_mqtt.c ****     mqtt_cfg->password      = cfg->password;
 487              		.loc 1 201 34 is_stmt 0 view .LVU106
 488 0058 A36C     		ldr	r3, [r4, #72]
 201:SynaptiX_FDK/app/user/sx_mqtt/sx_user_mqtt.c ****     mqtt_cfg->password      = cfg->password;
 489              		.loc 1 201 29 view .LVU107
 490 005a EB60     		str	r3, [r5, #12]
 202:SynaptiX_FDK/app/user/sx_mqtt/sx_user_mqtt.c ****     mqtt_cfg->keepalive     = cfg->keepalive ? cfg->keepalive : 60;
 491              		.loc 1 202 5 is_stmt 1 view .LVU108
 202:SynaptiX_FDK/app/user/sx_mqtt/sx_user_mqtt.c ****     mqtt_cfg->keepalive     = cfg->keepalive ? cfg->keepalive : 60;
ARM GAS  C:\Users\LENOVO\AppData\Local\Temp\ccMn3tk9.s 			page 17


 492              		.loc 1 202 34 is_stmt 0 view .LVU109
 493 005c E36C     		ldr	r3, [r4, #76]
 202:SynaptiX_FDK/app/user/sx_mqtt/sx_user_mqtt.c ****     mqtt_cfg->keepalive     = cfg->keepalive ? cfg->keepalive : 60;
 494              		.loc 1 202 29 view .LVU110
 495 005e 2B61     		str	r3, [r5, #16]
 203:SynaptiX_FDK/app/user/sx_mqtt/sx_user_mqtt.c ****     mqtt_cfg->clean_session = cfg->clean_session;
 496              		.loc 1 203 5 is_stmt 1 view .LVU111
 203:SynaptiX_FDK/app/user/sx_mqtt/sx_user_mqtt.c ****     mqtt_cfg->clean_session = cfg->clean_session;
 497              		.loc 1 203 34 is_stmt 0 view .LVU112
 498 0060 B4F85030 		ldrh	r3, [r4, #80]
 203:SynaptiX_FDK/app/user/sx_mqtt/sx_user_mqtt.c ****     mqtt_cfg->clean_session = cfg->clean_session;
 499              		.loc 1 203 29 view .LVU113
 500 0064 03B9     		cbnz	r3, .L37
 203:SynaptiX_FDK/app/user/sx_mqtt/sx_user_mqtt.c ****     mqtt_cfg->clean_session = cfg->clean_session;
 501              		.loc 1 203 29 discriminator 2 view .LVU114
 502 0066 3C23     		movs	r3, #60
 503              	.L37:
 203:SynaptiX_FDK/app/user/sx_mqtt/sx_user_mqtt.c ****     mqtt_cfg->clean_session = cfg->clean_session;
 504              		.loc 1 203 29 discriminator 4 view .LVU115
 505 0068 AB82     		strh	r3, [r5, #20]	@ movhi
 204:SynaptiX_FDK/app/user/sx_mqtt/sx_user_mqtt.c **** 
 506              		.loc 1 204 5 is_stmt 1 view .LVU116
 204:SynaptiX_FDK/app/user/sx_mqtt/sx_user_mqtt.c **** 
 507              		.loc 1 204 34 is_stmt 0 view .LVU117
 508 006a 94F85230 		ldrb	r3, [r4, #82]	@ zero_extendqisi2
 204:SynaptiX_FDK/app/user/sx_mqtt/sx_user_mqtt.c **** 
 509              		.loc 1 204 29 view .LVU118
 510 006e AB75     		strb	r3, [r5, #22]
 206:SynaptiX_FDK/app/user/sx_mqtt/sx_user_mqtt.c ****     sim76xx_set_on_error (&board.sim76xx, _on_modem_error);
 511              		.loc 1 206 5 is_stmt 1 view .LVU119
 512              	.LVL37:
 513              	.LBB36:
 514              	.LBI36:
 515              		.file 2 "SynaptiX_FDK/components/sim76xx/sim76xx.h"
   1:SynaptiX_FDK/components/sim76xx/sim76xx.h **** #ifndef SIM70XX_H
   2:SynaptiX_FDK/components/sim76xx/sim76xx.h **** #define SIM70XX_H
   3:SynaptiX_FDK/components/sim76xx/sim76xx.h **** #ifdef __cplusplus
   4:SynaptiX_FDK/components/sim76xx/sim76xx.h **** extern "C" {
   5:SynaptiX_FDK/components/sim76xx/sim76xx.h **** #endif
   6:SynaptiX_FDK/components/sim76xx/sim76xx.h **** 
   7:SynaptiX_FDK/components/sim76xx/sim76xx.h **** #include "modem.h"
   8:SynaptiX_FDK/components/sim76xx/sim76xx.h **** #include <stdint.h>
   9:SynaptiX_FDK/components/sim76xx/sim76xx.h **** 
  10:SynaptiX_FDK/components/sim76xx/sim76xx.h **** /*  Retry and timeout config  */
  11:SynaptiX_FDK/components/sim76xx/sim76xx.h **** #define SIM76XX_MAX_RETRY           3
  12:SynaptiX_FDK/components/sim76xx/sim76xx.h **** #define SIM76XX_TIMEOUT_AT          2500U
  13:SynaptiX_FDK/components/sim76xx/sim76xx.h **** #define SIM76XX_TIMEOUT_NETWORK     10000U
  14:SynaptiX_FDK/components/sim76xx/sim76xx.h **** #define SIM76XX_TIMEOUT_NETOPEN     10000U
  15:SynaptiX_FDK/components/sim76xx/sim76xx.h **** #define SIM76XX_TIMEOUT_CFUN        15000U 
  16:SynaptiX_FDK/components/sim76xx/sim76xx.h **** 
  17:SynaptiX_FDK/components/sim76xx/sim76xx.h **** /*  Init state machine  */
  18:SynaptiX_FDK/components/sim76xx/sim76xx.h **** typedef enum {
  19:SynaptiX_FDK/components/sim76xx/sim76xx.h ****     SIM76XX_STATE_IDLE = 0,
  20:SynaptiX_FDK/components/sim76xx/sim76xx.h ****     SIM76XX_STATE_AT,
  21:SynaptiX_FDK/components/sim76xx/sim76xx.h ****     SIM76XX_STATE_CGSN,
  22:SynaptiX_FDK/components/sim76xx/sim76xx.h ****     SIM76XX_STATE_COPS_QUERY,
  23:SynaptiX_FDK/components/sim76xx/sim76xx.h ****     SIM76XX_STATE_COPS_SET,
ARM GAS  C:\Users\LENOVO\AppData\Local\Temp\ccMn3tk9.s 			page 18


  24:SynaptiX_FDK/components/sim76xx/sim76xx.h ****     SIM76XX_STATE_CSQ,
  25:SynaptiX_FDK/components/sim76xx/sim76xx.h ****     SIM76XX_STATE_CFUN,
  26:SynaptiX_FDK/components/sim76xx/sim76xx.h ****     SIM76XX_STATE_CGATT,
  27:SynaptiX_FDK/components/sim76xx/sim76xx.h ****     SIM76XX_STATE_CGDCONT,
  28:SynaptiX_FDK/components/sim76xx/sim76xx.h ****     SIM76XX_STATE_CGAUTH,
  29:SynaptiX_FDK/components/sim76xx/sim76xx.h ****     SIM76XX_STATE_CGREG,
  30:SynaptiX_FDK/components/sim76xx/sim76xx.h ****     SIM76XX_STATE_NETOPEN,
  31:SynaptiX_FDK/components/sim76xx/sim76xx.h ****     SIM76XX_STATE_IPADDR,        
  32:SynaptiX_FDK/components/sim76xx/sim76xx.h ****     SIM76XX_STATE_READY,
  33:SynaptiX_FDK/components/sim76xx/sim76xx.h ****     SIM76XX_STATE_ERROR,
  34:SynaptiX_FDK/components/sim76xx/sim76xx.h ****     SIM76XX_STATE_CGDCONT_QUERY,
  35:SynaptiX_FDK/components/sim76xx/sim76xx.h **** } sim76xx_state_t;
  36:SynaptiX_FDK/components/sim76xx/sim76xx.h **** 
  37:SynaptiX_FDK/components/sim76xx/sim76xx.h **** typedef struct sim76xx sim76xx_t;
  38:SynaptiX_FDK/components/sim76xx/sim76xx.h **** 
  39:SynaptiX_FDK/components/sim76xx/sim76xx.h **** typedef void (*sim76xx_on_ready_cb_t)(sim76xx_t *dce);
  40:SynaptiX_FDK/components/sim76xx/sim76xx.h **** 
  41:SynaptiX_FDK/components/sim76xx/sim76xx.h **** typedef void (*sim76xx_on_error_cb_t)(sim76xx_t *dce);
  42:SynaptiX_FDK/components/sim76xx/sim76xx.h **** 
  43:SynaptiX_FDK/components/sim76xx/sim76xx.h **** typedef void (*sim76xx_on_urc_cb_t)(sim76xx_t *dce, const char *urc_line);
  44:SynaptiX_FDK/components/sim76xx/sim76xx.h **** 
  45:SynaptiX_FDK/components/sim76xx/sim76xx.h **** struct sim76xx
  46:SynaptiX_FDK/components/sim76xx/sim76xx.h **** {
  47:SynaptiX_FDK/components/sim76xx/sim76xx.h ****     /* data */
  48:SynaptiX_FDK/components/sim76xx/sim76xx.h ****     modem_t base;
  49:SynaptiX_FDK/components/sim76xx/sim76xx.h **** 
  50:SynaptiX_FDK/components/sim76xx/sim76xx.h ****     sim76xx_state_t state;
  51:SynaptiX_FDK/components/sim76xx/sim76xx.h ****     uint8_t retry_count;
  52:SynaptiX_FDK/components/sim76xx/sim76xx.h **** 
  53:SynaptiX_FDK/components/sim76xx/sim76xx.h ****     int rssi;
  54:SynaptiX_FDK/components/sim76xx/sim76xx.h ****     int ber;
  55:SynaptiX_FDK/components/sim76xx/sim76xx.h ****     char imei[16];
  56:SynaptiX_FDK/components/sim76xx/sim76xx.h ****     char ip[16];
  57:SynaptiX_FDK/components/sim76xx/sim76xx.h ****     char apn[32];
  58:SynaptiX_FDK/components/sim76xx/sim76xx.h **** 
  59:SynaptiX_FDK/components/sim76xx/sim76xx.h ****     char username[32];
  60:SynaptiX_FDK/components/sim76xx/sim76xx.h ****     char password[32];
  61:SynaptiX_FDK/components/sim76xx/sim76xx.h **** 
  62:SynaptiX_FDK/components/sim76xx/sim76xx.h ****     sim76xx_on_ready_cb_t on_ready;
  63:SynaptiX_FDK/components/sim76xx/sim76xx.h ****     sim76xx_on_error_cb_t on_error;
  64:SynaptiX_FDK/components/sim76xx/sim76xx.h ****     sim76xx_on_urc_cb_t   on_urc;
  65:SynaptiX_FDK/components/sim76xx/sim76xx.h **** };
  66:SynaptiX_FDK/components/sim76xx/sim76xx.h **** 
  67:SynaptiX_FDK/components/sim76xx/sim76xx.h **** void sim76xx_init(sim76xx_t *dce);
  68:SynaptiX_FDK/components/sim76xx/sim76xx.h **** void sim76xx_power_on(sim76xx_t *dce);
  69:SynaptiX_FDK/components/sim76xx/sim76xx.h **** void sim76xx_power_off(sim76xx_t *dce);
  70:SynaptiX_FDK/components/sim76xx/sim76xx.h **** void sim76xx_reset(sim76xx_t *dce);
  71:SynaptiX_FDK/components/sim76xx/sim76xx.h **** 
  72:SynaptiX_FDK/components/sim76xx/sim76xx.h **** int sim76xx_start(sim76xx_t *dce);
  73:SynaptiX_FDK/components/sim76xx/sim76xx.h **** void sim76xx_poll(sim76xx_t *dce, uint32_t ts);
  74:SynaptiX_FDK/components/sim76xx/sim76xx.h **** 
  75:SynaptiX_FDK/components/sim76xx/sim76xx.h **** int sim76xx_mqtt_stop(sim76xx_t *dce, modem_command_response_callback_t cb, uint32_t timeout_ms);
  76:SynaptiX_FDK/components/sim76xx/sim76xx.h **** 
  77:SynaptiX_FDK/components/sim76xx/sim76xx.h **** //Sleep mode
  78:SynaptiX_FDK/components/sim76xx/sim76xx.h **** int sim76xx_psm_enable(sim76xx_t *dce, uint32_t tau_sec, uint32_t active_sec);
  79:SynaptiX_FDK/components/sim76xx/sim76xx.h **** int sim76xx_psm_disable(sim76xx_t *dce);
  80:SynaptiX_FDK/components/sim76xx/sim76xx.h **** void sim76xx_wake(sim76xx_t *dce);
ARM GAS  C:\Users\LENOVO\AppData\Local\Temp\ccMn3tk9.s 			page 19


  81:SynaptiX_FDK/components/sim76xx/sim76xx.h **** void sim76xx_set_full_apn(sim76xx_t *dce, char* apn, char* user, char* pass);
  82:SynaptiX_FDK/components/sim76xx/sim76xx.h **** 
  83:SynaptiX_FDK/components/sim76xx/sim76xx.h **** static inline void sim76xx_set_on_ready(sim76xx_t *dce, sim76xx_on_ready_cb_t cb){
 516              		.loc 2 83 20 view .LVU120
 517              	.LBB37:
  84:SynaptiX_FDK/components/sim76xx/sim76xx.h ****     dce->on_ready = cb;
 518              		.loc 2 84 5 view .LVU121
 519              		.loc 2 84 19 is_stmt 0 view .LVU122
 520 0070 224F     		ldr	r7, .L40+24
 521 0072 234B     		ldr	r3, .L40+28
 522 0074 C7F8FC32 		str	r3, [r7, #764]
 523              	.LVL38:
 524              		.loc 2 84 19 view .LVU123
 525              	.LBE37:
 526              	.LBE36:
 207:SynaptiX_FDK/app/user/sx_mqtt/sx_user_mqtt.c **** 
 527              		.loc 1 207 5 is_stmt 1 view .LVU124
 528              	.LBB38:
 529              	.LBI38:
  85:SynaptiX_FDK/components/sim76xx/sim76xx.h **** }
  86:SynaptiX_FDK/components/sim76xx/sim76xx.h **** 
  87:SynaptiX_FDK/components/sim76xx/sim76xx.h **** static inline void sim76xx_set_on_error(sim76xx_t *dce, sim76xx_on_error_cb_t cb){
 530              		.loc 2 87 20 view .LVU125
 531              	.LBB39:
  88:SynaptiX_FDK/components/sim76xx/sim76xx.h ****     dce->on_error = cb;
 532              		.loc 2 88 5 view .LVU126
 533              		.loc 2 88 19 is_stmt 0 view .LVU127
 534 0078 224B     		ldr	r3, .L40+32
 535 007a C7F80033 		str	r3, [r7, #768]
 536              	.LVL39:
 537              		.loc 2 88 19 view .LVU128
 538              	.LBE39:
 539              	.LBE38:
 209:SynaptiX_FDK/app/user/sx_mqtt/sx_user_mqtt.c ****     sx_mqtt_set_config(&s_mqtt, mqtt_cfg);
 540              		.loc 1 209 5 is_stmt 1 view .LVU129
 541 007e 224E     		ldr	r6, .L40+36
 542 0080 3946     		mov	r1, r7
 543 0082 3046     		mov	r0, r6
 544 0084 FFF7FEFF 		bl	sx_mqtt_init
 545              	.LVL40:
 210:SynaptiX_FDK/app/user/sx_mqtt/sx_user_mqtt.c ****     sx_mqtt_set_on_connected   (&s_mqtt, _on_connected);
 546              		.loc 1 210 5 view .LVU130
 547 0088 2946     		mov	r1, r5
 548 008a 3046     		mov	r0, r6
 549 008c FFF7FEFF 		bl	sx_mqtt_set_config
 550              	.LVL41:
 211:SynaptiX_FDK/app/user/sx_mqtt/sx_user_mqtt.c ****     sx_mqtt_set_on_disconnected(&s_mqtt, _on_disconnected);
 551              		.loc 1 211 5 view .LVU131
 552              	.LBB40:
 553              	.LBI40:
 554              		.file 3 "SynaptiX_FDK/services/mqtt/sx_mqtt.h"
   1:SynaptiX_FDK/services/mqtt/sx_mqtt.h **** #ifndef __SX_MQTT_H
   2:SynaptiX_FDK/services/mqtt/sx_mqtt.h **** #define __SX_MQTT_H
   3:SynaptiX_FDK/services/mqtt/sx_mqtt.h **** 
   4:SynaptiX_FDK/services/mqtt/sx_mqtt.h **** #ifdef __cplusplus
   5:SynaptiX_FDK/services/mqtt/sx_mqtt.h **** extern "C"{
   6:SynaptiX_FDK/services/mqtt/sx_mqtt.h **** #endif
ARM GAS  C:\Users\LENOVO\AppData\Local\Temp\ccMn3tk9.s 			page 20


   7:SynaptiX_FDK/services/mqtt/sx_mqtt.h **** 
   8:SynaptiX_FDK/services/mqtt/sx_mqtt.h **** #include <stdint.h>
   9:SynaptiX_FDK/services/mqtt/sx_mqtt.h **** 
  10:SynaptiX_FDK/services/mqtt/sx_mqtt.h **** #define SX_MQTT_TOPIC_MAX_LEN       128U
  11:SynaptiX_FDK/services/mqtt/sx_mqtt.h **** #define SX_MQTT_MESSAGE_MAX_LEN     512U
  12:SynaptiX_FDK/services/mqtt/sx_mqtt.h **** #define SX_MQTT_TIMEOUT_CONF        2000U
  13:SynaptiX_FDK/services/mqtt/sx_mqtt.h **** #define SX_MQTT_TIMEOUT_ACCQ        2000U
  14:SynaptiX_FDK/services/mqtt/sx_mqtt.h **** #define SX_MQTT_TIMEOUT_CONN        8000U
  15:SynaptiX_FDK/services/mqtt/sx_mqtt.h **** #define SX_MQTT_TIMEOUT_DISC        5000U
  16:SynaptiX_FDK/services/mqtt/sx_mqtt.h **** #define SX_MQTT_TIMEOUT_PUB         3000U
  17:SynaptiX_FDK/services/mqtt/sx_mqtt.h **** #define SX_MQTT_TIMEOUT_SUB         5000U
  18:SynaptiX_FDK/services/mqtt/sx_mqtt.h **** 
  19:SynaptiX_FDK/services/mqtt/sx_mqtt.h **** typedef enum{
  20:SynaptiX_FDK/services/mqtt/sx_mqtt.h ****     SX_MQTT_STATE_DISCONNECTED = 0,
  21:SynaptiX_FDK/services/mqtt/sx_mqtt.h ****     SX_MQTT_STATE_CONFIGURING,   /* AT+CMQTTSTART  */
  22:SynaptiX_FDK/services/mqtt/sx_mqtt.h ****     SX_MQTT_STATE_CERT_CA,          // upload CA cert
  23:SynaptiX_FDK/services/mqtt/sx_mqtt.h ****     SX_MQTT_STATE_CERT_CLIENT,      // upload client cert
  24:SynaptiX_FDK/services/mqtt/sx_mqtt.h ****     SX_MQTT_STATE_CERT_KEY,         // upload client key
  25:SynaptiX_FDK/services/mqtt/sx_mqtt.h ****     SX_MQTT_STATE_CERT_CONTENT,
  26:SynaptiX_FDK/services/mqtt/sx_mqtt.h ****     SX_MQTT_STATE_SSL_CFG,
  27:SynaptiX_FDK/services/mqtt/sx_mqtt.h ****     SX_MQTT_STATE_ACQUIRING,     /* AT+CMQTTACCQ   */
  28:SynaptiX_FDK/services/mqtt/sx_mqtt.h ****     SX_MQTT_STATE_CONNECTING,    /* AT+CMQTTCONNECT */
  29:SynaptiX_FDK/services/mqtt/sx_mqtt.h ****     SX_MQTT_STATE_CONNECTED,
  30:SynaptiX_FDK/services/mqtt/sx_mqtt.h ****     SX_MQTT_STATE_DISCONNECTING,
  31:SynaptiX_FDK/services/mqtt/sx_mqtt.h ****     SX_MQTT_STATE_ERROR,
  32:SynaptiX_FDK/services/mqtt/sx_mqtt.h **** } sx_mqtt_state_t;
  33:SynaptiX_FDK/services/mqtt/sx_mqtt.h **** 
  34:SynaptiX_FDK/services/mqtt/sx_mqtt.h **** typedef struct sx_mqtt sx_mqtt_t;
  35:SynaptiX_FDK/services/mqtt/sx_mqtt.h **** 
  36:SynaptiX_FDK/services/mqtt/sx_mqtt.h **** typedef enum {
  37:SynaptiX_FDK/services/mqtt/sx_mqtt.h ****     URC_IDLE = 0,
  38:SynaptiX_FDK/services/mqtt/sx_mqtt.h ****     URC_GOT_START,          /* +CMQTTRXSTART received */
  39:SynaptiX_FDK/services/mqtt/sx_mqtt.h ****     URC_GOT_TOPIC_HDR,      /* +CMQTTRXTOPIC received  */
  40:SynaptiX_FDK/services/mqtt/sx_mqtt.h ****     URC_GOT_PAYLOAD_HDR,    /* +CMQTTRXPAYLOAD received */
  41:SynaptiX_FDK/services/mqtt/sx_mqtt.h **** } sx_mqtt_urc_state_t;
  42:SynaptiX_FDK/services/mqtt/sx_mqtt.h **** 
  43:SynaptiX_FDK/services/mqtt/sx_mqtt.h **** typedef void (*sx_mqtt_on_connected_cb_t) (sx_mqtt_t *mqtt);
  44:SynaptiX_FDK/services/mqtt/sx_mqtt.h **** 
  45:SynaptiX_FDK/services/mqtt/sx_mqtt.h **** typedef void (*sx_mqtt_on_disconnected_cb_t) (sx_mqtt_t *mqtt);
  46:SynaptiX_FDK/services/mqtt/sx_mqtt.h **** 
  47:SynaptiX_FDK/services/mqtt/sx_mqtt.h **** typedef void (*sx_mqtt_on_message_cb_t) (sx_mqtt_t *mqtt, const char *topic, const char *message);
  48:SynaptiX_FDK/services/mqtt/sx_mqtt.h **** 
  49:SynaptiX_FDK/services/mqtt/sx_mqtt.h **** typedef void (*sx_mqtt_on_publish_cb_t) (sx_mqtt_t *mqtt, int success);
  50:SynaptiX_FDK/services/mqtt/sx_mqtt.h **** 
  51:SynaptiX_FDK/services/mqtt/sx_mqtt.h **** typedef struct{
  52:SynaptiX_FDK/services/mqtt/sx_mqtt.h ****     const char *broker;
  53:SynaptiX_FDK/services/mqtt/sx_mqtt.h ****     uint16_t port;
  54:SynaptiX_FDK/services/mqtt/sx_mqtt.h ****     const char *client_id;
  55:SynaptiX_FDK/services/mqtt/sx_mqtt.h ****     const char *username;
  56:SynaptiX_FDK/services/mqtt/sx_mqtt.h ****     const char *password;
  57:SynaptiX_FDK/services/mqtt/sx_mqtt.h ****     uint16_t keepalive;
  58:SynaptiX_FDK/services/mqtt/sx_mqtt.h ****     uint8_t clean_session;
  59:SynaptiX_FDK/services/mqtt/sx_mqtt.h ****     uint8_t qos;
  60:SynaptiX_FDK/services/mqtt/sx_mqtt.h ****     uint8_t use_ssl;        //0 : tcp, 1: ssl
  61:SynaptiX_FDK/services/mqtt/sx_mqtt.h ****     uint8_t ssl_auth_mode; // 0 : no verify, 1 : sever cert, 2 = mutual
  62:SynaptiX_FDK/services/mqtt/sx_mqtt.h ****     char *ca_cert;        
  63:SynaptiX_FDK/services/mqtt/sx_mqtt.h ****     char *client_cert;    
ARM GAS  C:\Users\LENOVO\AppData\Local\Temp\ccMn3tk9.s 			page 21


  64:SynaptiX_FDK/services/mqtt/sx_mqtt.h ****     char *client_key;
  65:SynaptiX_FDK/services/mqtt/sx_mqtt.h **** }sx_mqtt_config_t;
  66:SynaptiX_FDK/services/mqtt/sx_mqtt.h **** 
  67:SynaptiX_FDK/services/mqtt/sx_mqtt.h **** typedef enum{
  68:SynaptiX_FDK/services/mqtt/sx_mqtt.h ****     CONF_CLIENTID = 0,
  69:SynaptiX_FDK/services/mqtt/sx_mqtt.h ****     CONF_URL,
  70:SynaptiX_FDK/services/mqtt/sx_mqtt.h ****     CONF_KEEPTIME,
  71:SynaptiX_FDK/services/mqtt/sx_mqtt.h ****     CONF_CLEANSS,
  72:SynaptiX_FDK/services/mqtt/sx_mqtt.h ****     CONF_USERNAME,
  73:SynaptiX_FDK/services/mqtt/sx_mqtt.h ****     CONF_PASSWORD,
  74:SynaptiX_FDK/services/mqtt/sx_mqtt.h ****     CONF_DONE,
  75:SynaptiX_FDK/services/mqtt/sx_mqtt.h **** } sx_mqtt_conf_step_t;
  76:SynaptiX_FDK/services/mqtt/sx_mqtt.h **** 
  77:SynaptiX_FDK/services/mqtt/sx_mqtt.h **** struct sx_mqtt{
  78:SynaptiX_FDK/services/mqtt/sx_mqtt.h ****     void *dce;
  79:SynaptiX_FDK/services/mqtt/sx_mqtt.h ****     sx_mqtt_config_t config;
  80:SynaptiX_FDK/services/mqtt/sx_mqtt.h ****     sx_mqtt_state_t state;
  81:SynaptiX_FDK/services/mqtt/sx_mqtt.h ****     
  82:SynaptiX_FDK/services/mqtt/sx_mqtt.h ****     sx_mqtt_urc_state_t urc_state;
  83:SynaptiX_FDK/services/mqtt/sx_mqtt.h ****     char urc_topic [SX_MQTT_TOPIC_MAX_LEN];
  84:SynaptiX_FDK/services/mqtt/sx_mqtt.h ****     char urc_payload [SX_MQTT_MESSAGE_MAX_LEN];
  85:SynaptiX_FDK/services/mqtt/sx_mqtt.h **** 
  86:SynaptiX_FDK/services/mqtt/sx_mqtt.h ****     uint32_t reconnect_elapsed;
  87:SynaptiX_FDK/services/mqtt/sx_mqtt.h ****     uint32_t reconnect_delay;
  88:SynaptiX_FDK/services/mqtt/sx_mqtt.h ****     uint8_t  reconnect_count;
  89:SynaptiX_FDK/services/mqtt/sx_mqtt.h **** 
  90:SynaptiX_FDK/services/mqtt/sx_mqtt.h ****     /*  Callback    */
  91:SynaptiX_FDK/services/mqtt/sx_mqtt.h ****     sx_mqtt_on_connected_cb_t on_connected;
  92:SynaptiX_FDK/services/mqtt/sx_mqtt.h ****     sx_mqtt_on_disconnected_cb_t on_disconnected;
  93:SynaptiX_FDK/services/mqtt/sx_mqtt.h ****     sx_mqtt_on_message_cb_t on_message;
  94:SynaptiX_FDK/services/mqtt/sx_mqtt.h ****     sx_mqtt_on_publish_cb_t on_publish;
  95:SynaptiX_FDK/services/mqtt/sx_mqtt.h **** };
  96:SynaptiX_FDK/services/mqtt/sx_mqtt.h **** 
  97:SynaptiX_FDK/services/mqtt/sx_mqtt.h **** /*  Status helper   */
  98:SynaptiX_FDK/services/mqtt/sx_mqtt.h **** static inline sx_mqtt_state_t sx_mqtt_get_state(sx_mqtt_t *mqtt){
  99:SynaptiX_FDK/services/mqtt/sx_mqtt.h ****     return mqtt->state;
 100:SynaptiX_FDK/services/mqtt/sx_mqtt.h **** }
 101:SynaptiX_FDK/services/mqtt/sx_mqtt.h **** 
 102:SynaptiX_FDK/services/mqtt/sx_mqtt.h **** static inline uint8_t sx_mqtt_is_connected(sx_mqtt_t *mqtt){
 103:SynaptiX_FDK/services/mqtt/sx_mqtt.h ****     return (mqtt->state == SX_MQTT_STATE_CONNECTED);
 104:SynaptiX_FDK/services/mqtt/sx_mqtt.h **** }
 105:SynaptiX_FDK/services/mqtt/sx_mqtt.h **** 
 106:SynaptiX_FDK/services/mqtt/sx_mqtt.h **** /*  Callback    */
 107:SynaptiX_FDK/services/mqtt/sx_mqtt.h **** static inline void sx_mqtt_set_on_connected(sx_mqtt_t *mqtt, sx_mqtt_on_connected_cb_t cb){
 555              		.loc 3 107 20 view .LVU132
 556              	.LBB41:
 108:SynaptiX_FDK/services/mqtt/sx_mqtt.h ****     mqtt->on_connected = cb;
 557              		.loc 3 108 5 view .LVU133
 558              		.loc 3 108 24 is_stmt 0 view .LVU134
 559 0090 1E4B     		ldr	r3, .L40+40
 560 0092 C6F8BC32 		str	r3, [r6, #700]
 561              	.LVL42:
 562              		.loc 3 108 24 view .LVU135
 563              	.LBE41:
 564              	.LBE40:
 212:SynaptiX_FDK/app/user/sx_mqtt/sx_user_mqtt.c ****     sx_mqtt_set_on_message     (&s_mqtt, _on_message);
 565              		.loc 1 212 5 is_stmt 1 view .LVU136
ARM GAS  C:\Users\LENOVO\AppData\Local\Temp\ccMn3tk9.s 			page 22


 566              	.LBB42:
 567              	.LBI42:
 109:SynaptiX_FDK/services/mqtt/sx_mqtt.h **** }
 110:SynaptiX_FDK/services/mqtt/sx_mqtt.h **** 
 111:SynaptiX_FDK/services/mqtt/sx_mqtt.h **** static inline void sx_mqtt_set_on_disconnected(sx_mqtt_t *mqtt, sx_mqtt_on_disconnected_cb_t cb){
 568              		.loc 3 111 20 view .LVU137
 569              	.LBB43:
 112:SynaptiX_FDK/services/mqtt/sx_mqtt.h ****     mqtt->on_disconnected = cb;
 570              		.loc 3 112 5 view .LVU138
 571              		.loc 3 112 27 is_stmt 0 view .LVU139
 572 0096 1E4B     		ldr	r3, .L40+44
 573 0098 C6F8C032 		str	r3, [r6, #704]
 574              	.LVL43:
 575              		.loc 3 112 27 view .LVU140
 576              	.LBE43:
 577              	.LBE42:
 213:SynaptiX_FDK/app/user/sx_mqtt/sx_user_mqtt.c ****     sx_mqtt_set_on_publish     (&s_mqtt, _on_publish);
 578              		.loc 1 213 5 is_stmt 1 view .LVU141
 579              	.LBB44:
 580              	.LBI44:
 113:SynaptiX_FDK/services/mqtt/sx_mqtt.h **** }
 114:SynaptiX_FDK/services/mqtt/sx_mqtt.h **** 
 115:SynaptiX_FDK/services/mqtt/sx_mqtt.h **** static inline void sx_mqtt_set_on_publish(sx_mqtt_t *mqtt, sx_mqtt_on_publish_cb_t cb){
 116:SynaptiX_FDK/services/mqtt/sx_mqtt.h ****     mqtt->on_publish = cb;
 117:SynaptiX_FDK/services/mqtt/sx_mqtt.h **** }
 118:SynaptiX_FDK/services/mqtt/sx_mqtt.h **** 
 119:SynaptiX_FDK/services/mqtt/sx_mqtt.h **** static inline void sx_mqtt_set_on_message(sx_mqtt_t *mqtt, sx_mqtt_on_message_cb_t cb){
 581              		.loc 3 119 20 view .LVU142
 582              	.LBB45:
 120:SynaptiX_FDK/services/mqtt/sx_mqtt.h ****     mqtt->on_message = cb;
 583              		.loc 3 120 5 view .LVU143
 584              		.loc 3 120 22 is_stmt 0 view .LVU144
 585 009c 1D4B     		ldr	r3, .L40+48
 586 009e C6F8C432 		str	r3, [r6, #708]
 587              	.LVL44:
 588              		.loc 3 120 22 view .LVU145
 589              	.LBE45:
 590              	.LBE44:
 214:SynaptiX_FDK/app/user/sx_mqtt/sx_user_mqtt.c **** 
 591              		.loc 1 214 5 is_stmt 1 view .LVU146
 592              	.LBB46:
 593              	.LBI46:
 115:SynaptiX_FDK/services/mqtt/sx_mqtt.h ****     mqtt->on_publish = cb;
 594              		.loc 3 115 20 view .LVU147
 595              	.LBB47:
 116:SynaptiX_FDK/services/mqtt/sx_mqtt.h **** }
 596              		.loc 3 116 5 view .LVU148
 116:SynaptiX_FDK/services/mqtt/sx_mqtt.h **** }
 597              		.loc 3 116 22 is_stmt 0 view .LVU149
 598 00a2 1D4B     		ldr	r3, .L40+52
 599 00a4 C6F8C832 		str	r3, [r6, #712]
 600              	.LVL45:
 116:SynaptiX_FDK/services/mqtt/sx_mqtt.h **** }
 601              		.loc 3 116 22 view .LVU150
 602              	.LBE47:
 603              	.LBE46:
 216:SynaptiX_FDK/app/user/sx_mqtt/sx_user_mqtt.c ****     sim76xx_start(&board.sim76xx);
ARM GAS  C:\Users\LENOVO\AppData\Local\Temp\ccMn3tk9.s 			page 23


 604              		.loc 1 216 5 is_stmt 1 view .LVU151
 216:SynaptiX_FDK/app/user/sx_mqtt/sx_user_mqtt.c ****     sim76xx_start(&board.sim76xx);
 605              		.loc 1 216 19 is_stmt 0 view .LVU152
 606 00a8 FFF7FEFF 		bl	sx_gettick
 607              	.LVL46:
 216:SynaptiX_FDK/app/user/sx_mqtt/sx_user_mqtt.c ****     sim76xx_start(&board.sim76xx);
 608              		.loc 1 216 17 discriminator 1 view .LVU153
 609 00ac 1B4B     		ldr	r3, .L40+56
 610 00ae 1860     		str	r0, [r3]
 217:SynaptiX_FDK/app/user/sx_mqtt/sx_user_mqtt.c ****     log_info(TAG, "Init done — broker=%s:%u ssl=%d", cfg->broker, cfg->port, cfg->use_ssl);
 611              		.loc 1 217 5 is_stmt 1 view .LVU154
 612 00b0 3846     		mov	r0, r7
 613 00b2 FFF7FEFF 		bl	sim76xx_start
 614              	.LVL47:
 218:SynaptiX_FDK/app/user/sx_mqtt/sx_user_mqtt.c **** 
 615              		.loc 1 218 5 view .LVU155
 616 00b6 B4F84030 		ldrh	r3, [r4, #64]
 617 00ba 94F85320 		ldrb	r2, [r4, #83]	@ zero_extendqisi2
 618 00be 0192     		str	r2, [sp, #4]
 619 00c0 0093     		str	r3, [sp]
 620 00c2 E36B     		ldr	r3, [r4, #60]
 621 00c4 164A     		ldr	r2, .L40+60
 622 00c6 1749     		ldr	r1, .L40+64
 623 00c8 0320     		movs	r0, #3
 624 00ca FFF7FEFF 		bl	log_func
 625              	.LVL48:
 220:SynaptiX_FDK/app/user/sx_mqtt/sx_user_mqtt.c ****     return 0;
 626              		.loc 1 220 5 view .LVU156
 220:SynaptiX_FDK/app/user/sx_mqtt/sx_user_mqtt.c ****     return 0;
 627              		.loc 1 220 19 is_stmt 0 view .LVU157
 628 00ce 164B     		ldr	r3, .L40+68
 629 00d0 0122     		movs	r2, #1
 630 00d2 1A70     		strb	r2, [r3]
 221:SynaptiX_FDK/app/user/sx_mqtt/sx_user_mqtt.c **** }
 631              		.loc 1 221 5 is_stmt 1 view .LVU158
 632              	.L35:
 222:SynaptiX_FDK/app/user/sx_mqtt/sx_user_mqtt.c **** 
 633              		.loc 1 222 1 is_stmt 0 view .LVU159
 634 00d4 4046     		mov	r0, r8
 635 00d6 02B0     		add	sp, sp, #8
 636              	.LCFI9:
 637              		.cfi_remember_state
 638              		.cfi_def_cfa_offset 24
 639              		@ sp needed
 640 00d8 BDE8F081 		pop	{r4, r5, r6, r7, r8, pc}
 641              	.LVL49:
 642              	.L38:
 643              	.LCFI10:
 644              		.cfi_restore_state
 184:SynaptiX_FDK/app/user/sx_mqtt/sx_user_mqtt.c ****     /* save user callbacks */
 645              		.loc 1 184 41 discriminator 1 view .LVU160
 646 00dc 4FF0FF38 		mov	r8, #-1
 647 00e0 F8E7     		b	.L35
 648              	.L41:
 649 00e2 00BF     		.align	2
 650              	.L40:
 651 00e4 00000000 		.word	s_queue_buf
ARM GAS  C:\Users\LENOVO\AppData\Local\Temp\ccMn3tk9.s 			page 24


 652 00e8 00000000 		.word	s_queue
 653 00ec 00000000 		.word	s_on_connected
 654 00f0 00000000 		.word	s_on_disconnected
 655 00f4 00000000 		.word	s_on_message
 656 00f8 00000000 		.word	s_on_publish
 657 00fc 00000000 		.word	board
 658 0100 00000000 		.word	_on_modem_ready
 659 0104 00000000 		.word	_on_modem_error
 660 0108 00000000 		.word	s_mqtt
 661 010c 00000000 		.word	_on_connected
 662 0110 00000000 		.word	_on_disconnected
 663 0114 00000000 		.word	_on_message
 664 0118 00000000 		.word	_on_publish
 665 011c 00000000 		.word	s_last_tick
 666 0120 00000000 		.word	.LC8
 667 0124 10000000 		.word	.LC1
 668 0128 00000000 		.word	s_initialized
 669              		.cfi_endproc
 670              	.LFE557:
 672              		.section	.text.dispatch_next,"ax",%progbits
 673              		.align	1
 674              		.syntax unified
 675              		.thumb
 676              		.thumb_func
 678              	dispatch_next:
 679              	.LFB549:
  42:SynaptiX_FDK/app/user/sx_mqtt/sx_user_mqtt.c ****     if (!cqueue_is_empty(&s_queue) && sx_mqtt_is_connected(&s_mqtt)) {
 680              		.loc 1 42 32 is_stmt 1 view -0
 681              		.cfi_startproc
 682              		@ args = 0, pretend = 0, frame = 0
 683              		@ frame_needed = 0, uses_anonymous_args = 0
 684 0000 00B5     		push	{lr}
 685              	.LCFI11:
 686              		.cfi_def_cfa_offset 4
 687              		.cfi_offset 14, -4
 688 0002 83B0     		sub	sp, sp, #12
 689              	.LCFI12:
 690              		.cfi_def_cfa_offset 16
  43:SynaptiX_FDK/app/user/sx_mqtt/sx_user_mqtt.c ****         if (cqueue_receive(&s_queue, &s_current_item)) {
 691              		.loc 1 43 5 view .LVU162
  43:SynaptiX_FDK/app/user/sx_mqtt/sx_user_mqtt.c ****         if (cqueue_receive(&s_queue, &s_current_item)) {
 692              		.loc 1 43 10 is_stmt 0 view .LVU163
 693 0004 0F48     		ldr	r0, .L46
 694 0006 FFF7FEFF 		bl	cqueue_is_empty
 695              	.LVL50:
  43:SynaptiX_FDK/app/user/sx_mqtt/sx_user_mqtt.c ****         if (cqueue_receive(&s_queue, &s_current_item)) {
 696              		.loc 1 43 8 discriminator 1 view .LVU164
 697 000a 28B9     		cbnz	r0, .L42
 698              	.LVL51:
 699              	.LBB48:
 700              	.LBI48:
 102:SynaptiX_FDK/services/mqtt/sx_mqtt.h ****     return (mqtt->state == SX_MQTT_STATE_CONNECTED);
 701              		.loc 3 102 23 is_stmt 1 view .LVU165
 702              	.LBB49:
 103:SynaptiX_FDK/services/mqtt/sx_mqtt.h **** }
 703              		.loc 3 103 5 view .LVU166
 103:SynaptiX_FDK/services/mqtt/sx_mqtt.h **** }
ARM GAS  C:\Users\LENOVO\AppData\Local\Temp\ccMn3tk9.s 			page 25


 704              		.loc 3 103 17 is_stmt 0 view .LVU167
 705 000c 0E4B     		ldr	r3, .L46+4
 706 000e 93F82C30 		ldrb	r3, [r3, #44]	@ zero_extendqisi2
 707 0012 DBB2     		uxtb	r3, r3
 708              	.LVL52:
 103:SynaptiX_FDK/services/mqtt/sx_mqtt.h **** }
 709              		.loc 3 103 17 view .LVU168
 710              	.LBE49:
 711              	.LBE48:
  43:SynaptiX_FDK/app/user/sx_mqtt/sx_user_mqtt.c ****         if (cqueue_receive(&s_queue, &s_current_item)) {
 712              		.loc 1 43 36 discriminator 1 view .LVU169
 713 0014 092B     		cmp	r3, #9
 714 0016 02D0     		beq	.L45
 715              	.L42:
  49:SynaptiX_FDK/app/user/sx_mqtt/sx_user_mqtt.c **** 
 716              		.loc 1 49 1 view .LVU170
 717 0018 03B0     		add	sp, sp, #12
 718              	.LCFI13:
 719              		.cfi_remember_state
 720              		.cfi_def_cfa_offset 4
 721              		@ sp needed
 722 001a 5DF804FB 		ldr	pc, [sp], #4
 723              	.L45:
 724              	.LCFI14:
 725              		.cfi_restore_state
  44:SynaptiX_FDK/app/user/sx_mqtt/sx_user_mqtt.c ****             s_publishing = 1;
 726              		.loc 1 44 9 is_stmt 1 view .LVU171
  44:SynaptiX_FDK/app/user/sx_mqtt/sx_user_mqtt.c ****             s_publishing = 1;
 727              		.loc 1 44 13 is_stmt 0 view .LVU172
 728 001e 0B49     		ldr	r1, .L46+8
 729 0020 0848     		ldr	r0, .L46
 730 0022 FFF7FEFF 		bl	cqueue_receive
 731              	.LVL53:
  44:SynaptiX_FDK/app/user/sx_mqtt/sx_user_mqtt.c ****             s_publishing = 1;
 732              		.loc 1 44 12 discriminator 1 view .LVU173
 733 0026 0028     		cmp	r0, #0
 734 0028 F6D0     		beq	.L42
  45:SynaptiX_FDK/app/user/sx_mqtt/sx_user_mqtt.c ****             sx_mqtt_publish(&s_mqtt, s_current_item.topic, s_current_item.message, 1, 0);
 735              		.loc 1 45 13 is_stmt 1 view .LVU174
  45:SynaptiX_FDK/app/user/sx_mqtt/sx_user_mqtt.c ****             sx_mqtt_publish(&s_mqtt, s_current_item.topic, s_current_item.message, 1, 0);
 736              		.loc 1 45 26 is_stmt 0 view .LVU175
 737 002a 0123     		movs	r3, #1
 738 002c 084A     		ldr	r2, .L46+12
 739 002e 1370     		strb	r3, [r2]
  46:SynaptiX_FDK/app/user/sx_mqtt/sx_user_mqtt.c ****         }
 740              		.loc 1 46 13 is_stmt 1 view .LVU176
 741 0030 084A     		ldr	r2, .L46+16
 742 0032 0021     		movs	r1, #0
 743 0034 0091     		str	r1, [sp]
 744 0036 A2F18001 		sub	r1, r2, #128
 745 003a 0348     		ldr	r0, .L46+4
 746 003c FFF7FEFF 		bl	sx_mqtt_publish
 747              	.LVL54:
  49:SynaptiX_FDK/app/user/sx_mqtt/sx_user_mqtt.c **** 
 748              		.loc 1 49 1 is_stmt 0 view .LVU177
 749 0040 EAE7     		b	.L42
 750              	.L47:
ARM GAS  C:\Users\LENOVO\AppData\Local\Temp\ccMn3tk9.s 			page 26


 751 0042 00BF     		.align	2
 752              	.L46:
 753 0044 00000000 		.word	s_queue
 754 0048 00000000 		.word	s_mqtt
 755 004c 00000000 		.word	s_current_item
 756 0050 00000000 		.word	s_publishing
 757 0054 80000000 		.word	s_current_item+128
 758              		.cfi_endproc
 759              	.LFE549:
 761              		.section	.rodata._on_publish.str1.4,"aMS",%progbits,1
 762              		.align	2
 763              	.LC9:
 764 0000 4F4B00   		.ascii	"OK\000"
 765 0003 00       		.align	2
 766              	.LC10:
 767 0004 4641494C 		.ascii	"FAIL\000"
 767      00
 768 0009 000000   		.align	2
 769              	.LC11:
 770 000c 5075626C 		.ascii	"Publish %s\000"
 770      69736820 
 770      257300
 771 0017 00       		.align	2
 772              	.LC12:
 773 0018 5075626C 		.ascii	"Publish fail %d/%d\000"
 773      69736820 
 773      6661696C 
 773      2025642F 
 773      256400
 774 002b 00       		.align	2
 775              	.LC13:
 776 002c 4D617820 		.ascii	"Max retry \342\200\224 restart modem\000"
 776      72657472 
 776      7920E280 
 776      94207265 
 776      73746172 
 777              		.section	.text._on_publish,"ax",%progbits
 778              		.align	1
 779              		.syntax unified
 780              		.thumb
 781              		.thumb_func
 783              	_on_publish:
 784              	.LVL55:
 785              	.LFB553:
 124:SynaptiX_FDK/app/user/sx_mqtt/sx_user_mqtt.c ****     (void)mqtt;
 786              		.loc 1 124 1 is_stmt 1 view -0
 787              		.cfi_startproc
 788              		@ args = 0, pretend = 0, frame = 0
 789              		@ frame_needed = 0, uses_anonymous_args = 0
 124:SynaptiX_FDK/app/user/sx_mqtt/sx_user_mqtt.c ****     (void)mqtt;
 790              		.loc 1 124 1 is_stmt 0 view .LVU179
 791 0000 10B5     		push	{r4, lr}
 792              	.LCFI15:
 793              		.cfi_def_cfa_offset 8
 794              		.cfi_offset 4, -8
 795              		.cfi_offset 14, -4
 796 0002 82B0     		sub	sp, sp, #8
ARM GAS  C:\Users\LENOVO\AppData\Local\Temp\ccMn3tk9.s 			page 27


 797              	.LCFI16:
 798              		.cfi_def_cfa_offset 16
 125:SynaptiX_FDK/app/user/sx_mqtt/sx_user_mqtt.c ****     s_publishing = 0;           
 799              		.loc 1 125 5 is_stmt 1 view .LVU180
 126:SynaptiX_FDK/app/user/sx_mqtt/sx_user_mqtt.c ****     s_publish_retry = 0;
 800              		.loc 1 126 5 view .LVU181
 126:SynaptiX_FDK/app/user/sx_mqtt/sx_user_mqtt.c ****     s_publish_retry = 0;
 801              		.loc 1 126 18 is_stmt 0 view .LVU182
 802 0004 0023     		movs	r3, #0
 803 0006 264A     		ldr	r2, .L56
 804 0008 1370     		strb	r3, [r2]
 127:SynaptiX_FDK/app/user/sx_mqtt/sx_user_mqtt.c **** 
 805              		.loc 1 127 5 is_stmt 1 view .LVU183
 127:SynaptiX_FDK/app/user/sx_mqtt/sx_user_mqtt.c **** 
 806              		.loc 1 127 21 is_stmt 0 view .LVU184
 807 000a 264A     		ldr	r2, .L56+4
 808 000c 1370     		strb	r3, [r2]
 129:SynaptiX_FDK/app/user/sx_mqtt/sx_user_mqtt.c **** 
 809              		.loc 1 129 5 is_stmt 1 view .LVU185
 810 000e 0C46     		mov	r4, r1
 811 0010 0029     		cmp	r1, #0
 812 0012 2DD0     		beq	.L54
 129:SynaptiX_FDK/app/user/sx_mqtt/sx_user_mqtt.c **** 
 813              		.loc 1 129 5 is_stmt 0 discriminator 1 view .LVU186
 814 0014 244B     		ldr	r3, .L56+8
 815              	.L49:
 129:SynaptiX_FDK/app/user/sx_mqtt/sx_user_mqtt.c **** 
 816              		.loc 1 129 5 discriminator 4 view .LVU187
 817 0016 254A     		ldr	r2, .L56+12
 818 0018 2549     		ldr	r1, .L56+16
 819              	.LVL56:
 129:SynaptiX_FDK/app/user/sx_mqtt/sx_user_mqtt.c **** 
 820              		.loc 1 129 5 discriminator 4 view .LVU188
 821 001a 0420     		movs	r0, #4
 822              	.LVL57:
 129:SynaptiX_FDK/app/user/sx_mqtt/sx_user_mqtt.c **** 
 823              		.loc 1 129 5 discriminator 4 view .LVU189
 824 001c FFF7FEFF 		bl	log_func
 825              	.LVL58:
 131:SynaptiX_FDK/app/user/sx_mqtt/sx_user_mqtt.c ****         s_publish_retry++;
 826              		.loc 1 131 5 is_stmt 1 view .LVU190
 131:SynaptiX_FDK/app/user/sx_mqtt/sx_user_mqtt.c ****         s_publish_retry++;
 827              		.loc 1 131 8 is_stmt 0 view .LVU191
 828 0020 002C     		cmp	r4, #0
 829 0022 33D1     		bne	.L50
 132:SynaptiX_FDK/app/user/sx_mqtt/sx_user_mqtt.c ****         log_warn(TAG, "Publish fail %d/%d", s_publish_retry, MQTT_PUBLISH_MAX_RETRY);
 830              		.loc 1 132 9 is_stmt 1 view .LVU192
 132:SynaptiX_FDK/app/user/sx_mqtt/sx_user_mqtt.c ****         log_warn(TAG, "Publish fail %d/%d", s_publish_retry, MQTT_PUBLISH_MAX_RETRY);
 831              		.loc 1 132 24 is_stmt 0 view .LVU193
 832 0024 1F4C     		ldr	r4, .L56+4
 833              	.LVL59:
 132:SynaptiX_FDK/app/user/sx_mqtt/sx_user_mqtt.c ****         log_warn(TAG, "Publish fail %d/%d", s_publish_retry, MQTT_PUBLISH_MAX_RETRY);
 834              		.loc 1 132 24 view .LVU194
 835 0026 2378     		ldrb	r3, [r4]	@ zero_extendqisi2
 836 0028 0133     		adds	r3, r3, #1
 837 002a DBB2     		uxtb	r3, r3
 838 002c 2370     		strb	r3, [r4]
ARM GAS  C:\Users\LENOVO\AppData\Local\Temp\ccMn3tk9.s 			page 28


 133:SynaptiX_FDK/app/user/sx_mqtt/sx_user_mqtt.c ****         if (s_publish_retry >= MQTT_PUBLISH_MAX_RETRY) {
 839              		.loc 1 133 9 is_stmt 1 view .LVU195
 840 002e 0322     		movs	r2, #3
 841 0030 0092     		str	r2, [sp]
 842 0032 204A     		ldr	r2, .L56+20
 843 0034 1E49     		ldr	r1, .L56+16
 844 0036 0220     		movs	r0, #2
 845 0038 FFF7FEFF 		bl	log_func
 846              	.LVL60:
 134:SynaptiX_FDK/app/user/sx_mqtt/sx_user_mqtt.c ****             log_error(TAG, "Max retry — restart modem");
 847              		.loc 1 134 9 view .LVU196
 134:SynaptiX_FDK/app/user/sx_mqtt/sx_user_mqtt.c ****             log_error(TAG, "Max retry — restart modem");
 848              		.loc 1 134 29 is_stmt 0 view .LVU197
 849 003c 2378     		ldrb	r3, [r4]	@ zero_extendqisi2
 134:SynaptiX_FDK/app/user/sx_mqtt/sx_user_mqtt.c ****             log_error(TAG, "Max retry — restart modem");
 850              		.loc 1 134 12 view .LVU198
 851 003e 022B     		cmp	r3, #2
 852 0040 18D9     		bls	.L51
 135:SynaptiX_FDK/app/user/sx_mqtt/sx_user_mqtt.c ****             s_publish_retry = 0;
 853              		.loc 1 135 13 is_stmt 1 view .LVU199
 854 0042 1D4A     		ldr	r2, .L56+24
 855 0044 1A49     		ldr	r1, .L56+16
 856 0046 0120     		movs	r0, #1
 857 0048 FFF7FEFF 		bl	log_func
 858              	.LVL61:
 136:SynaptiX_FDK/app/user/sx_mqtt/sx_user_mqtt.c ****             cqueue_init_static(&s_queue, s_queue_buf, MQTT_QUEUE_SIZE,
 859              		.loc 1 136 13 view .LVU200
 136:SynaptiX_FDK/app/user/sx_mqtt/sx_user_mqtt.c ****             cqueue_init_static(&s_queue, s_queue_buf, MQTT_QUEUE_SIZE,
 860              		.loc 1 136 29 is_stmt 0 view .LVU201
 861 004c 0022     		movs	r2, #0
 862 004e 2270     		strb	r2, [r4]
 137:SynaptiX_FDK/app/user/sx_mqtt/sx_user_mqtt.c ****                                sizeof(mqtt_queue_item_t));
 863              		.loc 1 137 13 is_stmt 1 view .LVU202
 864 0050 4FF4C073 		mov	r3, #384
 865 0054 1022     		movs	r2, #16
 866 0056 1949     		ldr	r1, .L56+28
 867 0058 1948     		ldr	r0, .L56+32
 868 005a FFF7FEFF 		bl	cqueue_init_static
 869              	.LVL62:
 139:SynaptiX_FDK/app/user/sx_mqtt/sx_user_mqtt.c ****             sim76xx_start(&board.sim76xx);
 870              		.loc 1 139 13 view .LVU203
 139:SynaptiX_FDK/app/user/sx_mqtt/sx_user_mqtt.c ****             sim76xx_start(&board.sim76xx);
 871              		.loc 1 139 17 is_stmt 0 view .LVU204
 872 005e 194B     		ldr	r3, .L56+36
 873 0060 1B68     		ldr	r3, [r3]
 139:SynaptiX_FDK/app/user/sx_mqtt/sx_user_mqtt.c ****             sim76xx_start(&board.sim76xx);
 874              		.loc 1 139 16 view .LVU205
 875 0062 0BB1     		cbz	r3, .L52
 139:SynaptiX_FDK/app/user/sx_mqtt/sx_user_mqtt.c ****             sim76xx_start(&board.sim76xx);
 876              		.loc 1 139 31 is_stmt 1 discriminator 1 view .LVU206
 877 0064 0020     		movs	r0, #0
 878 0066 9847     		blx	r3
 879              	.LVL63:
 880              	.L52:
 140:SynaptiX_FDK/app/user/sx_mqtt/sx_user_mqtt.c ****             return;
 881              		.loc 1 140 13 view .LVU207
 882 0068 1748     		ldr	r0, .L56+40
ARM GAS  C:\Users\LENOVO\AppData\Local\Temp\ccMn3tk9.s 			page 29


 883 006a FFF7FEFF 		bl	sim76xx_start
 884              	.LVL64:
 141:SynaptiX_FDK/app/user/sx_mqtt/sx_user_mqtt.c ****         }
 885              		.loc 1 141 13 view .LVU208
 886 006e 14E0     		b	.L48
 887              	.LVL65:
 888              	.L54:
 129:SynaptiX_FDK/app/user/sx_mqtt/sx_user_mqtt.c **** 
 889              		.loc 1 129 5 is_stmt 0 discriminator 2 view .LVU209
 890 0070 164B     		ldr	r3, .L56+44
 891 0072 D0E7     		b	.L49
 892              	.LVL66:
 893              	.L51:
 143:SynaptiX_FDK/app/user/sx_mqtt/sx_user_mqtt.c ****         sx_mqtt_publish(&s_mqtt, s_current_item.topic,
 894              		.loc 1 143 9 is_stmt 1 view .LVU210
 143:SynaptiX_FDK/app/user/sx_mqtt/sx_user_mqtt.c ****         sx_mqtt_publish(&s_mqtt, s_current_item.topic,
 895              		.loc 1 143 22 is_stmt 0 view .LVU211
 896 0074 0123     		movs	r3, #1
 897 0076 0A4A     		ldr	r2, .L56
 898 0078 1370     		strb	r3, [r2]
 144:SynaptiX_FDK/app/user/sx_mqtt/sx_user_mqtt.c ****                         s_current_item.message, 1, 0);
 899              		.loc 1 144 9 is_stmt 1 view .LVU212
 900 007a 154A     		ldr	r2, .L56+48
 901 007c 0021     		movs	r1, #0
 902 007e 0091     		str	r1, [sp]
 903 0080 A2F18001 		sub	r1, r2, #128
 904 0084 1348     		ldr	r0, .L56+52
 905 0086 FFF7FEFF 		bl	sx_mqtt_publish
 906              	.LVL67:
 146:SynaptiX_FDK/app/user/sx_mqtt/sx_user_mqtt.c ****     }
 907              		.loc 1 146 9 view .LVU213
 908 008a 06E0     		b	.L48
 909              	.LVL68:
 910              	.L50:
 149:SynaptiX_FDK/app/user/sx_mqtt/sx_user_mqtt.c ****     if (s_on_publish) s_on_publish(1);  
 911              		.loc 1 149 5 view .LVU214
 912 008c FFF7FEFF 		bl	dispatch_next
 913              	.LVL69:
 150:SynaptiX_FDK/app/user/sx_mqtt/sx_user_mqtt.c **** }
 914              		.loc 1 150 5 view .LVU215
 150:SynaptiX_FDK/app/user/sx_mqtt/sx_user_mqtt.c **** }
 915              		.loc 1 150 9 is_stmt 0 view .LVU216
 916 0090 0C4B     		ldr	r3, .L56+36
 917 0092 1B68     		ldr	r3, [r3]
 150:SynaptiX_FDK/app/user/sx_mqtt/sx_user_mqtt.c **** }
 918              		.loc 1 150 8 view .LVU217
 919 0094 0BB1     		cbz	r3, .L48
 150:SynaptiX_FDK/app/user/sx_mqtt/sx_user_mqtt.c **** }
 920              		.loc 1 150 23 is_stmt 1 discriminator 1 view .LVU218
 921 0096 0120     		movs	r0, #1
 922 0098 9847     		blx	r3
 923              	.LVL70:
 924              	.L48:
 151:SynaptiX_FDK/app/user/sx_mqtt/sx_user_mqtt.c **** 
 925              		.loc 1 151 1 is_stmt 0 view .LVU219
 926 009a 02B0     		add	sp, sp, #8
 927              	.LCFI17:
ARM GAS  C:\Users\LENOVO\AppData\Local\Temp\ccMn3tk9.s 			page 30


 928              		.cfi_def_cfa_offset 8
 929              		@ sp needed
 930 009c 10BD     		pop	{r4, pc}
 931              	.L57:
 932 009e 00BF     		.align	2
 933              	.L56:
 934 00a0 00000000 		.word	s_publishing
 935 00a4 00000000 		.word	s_publish_retry
 936 00a8 00000000 		.word	.LC9
 937 00ac 0C000000 		.word	.LC11
 938 00b0 10000000 		.word	.LC1
 939 00b4 18000000 		.word	.LC12
 940 00b8 2C000000 		.word	.LC13
 941 00bc 00000000 		.word	s_queue_buf
 942 00c0 00000000 		.word	s_queue
 943 00c4 00000000 		.word	s_on_publish
 944 00c8 00000000 		.word	board
 945 00cc 04000000 		.word	.LC10
 946 00d0 80000000 		.word	s_current_item+128
 947 00d4 00000000 		.word	s_mqtt
 948              		.cfi_endproc
 949              	.LFE553:
 951              		.section	.rodata._on_modem_ready.str1.4,"aMS",%progbits,1
 952              		.align	2
 953              	.LC14:
 954 0000 73746D33 		.ascii	"stm32h5_%s\000"
 954      3268355F 
 954      257300
 955 000b 00       		.align	2
 956              	.LC15:
 957 000c 4D6F6465 		.ascii	"Modem ready \342\200\224 IP=%s RSSI=%d client_id=%s"
 957      6D207265 
 957      61647920 
 957      E2809420 
 957      49503D25 
 958 0036 00       		.ascii	"\000"
 959 0037 00       		.align	2
 960              	.LC16:
 961 0038 4D6F6465 		.ascii	"Modem ready \342\200\224 IP=%s RSSI=%d\000"
 961      6D207265 
 961      61647920 
 961      E2809420 
 961      49503D25 
 962              		.section	.text._on_modem_ready,"ax",%progbits
 963              		.align	1
 964              		.syntax unified
 965              		.thumb
 966              		.thumb_func
 968              	_on_modem_ready:
 969              	.LVL71:
 970              	.LFB554:
 153:SynaptiX_FDK/app/user/sx_mqtt/sx_user_mqtt.c ****     const char *imei = sim76xx_get_imei(dce);
 971              		.loc 1 153 44 is_stmt 1 view -0
 972              		.cfi_startproc
 973              		@ args = 0, pretend = 0, frame = 0
 974              		@ frame_needed = 0, uses_anonymous_args = 0
 153:SynaptiX_FDK/app/user/sx_mqtt/sx_user_mqtt.c ****     const char *imei = sim76xx_get_imei(dce);
ARM GAS  C:\Users\LENOVO\AppData\Local\Temp\ccMn3tk9.s 			page 31


 975              		.loc 1 153 44 is_stmt 0 view .LVU221
 976 0000 2DE9F041 		push	{r4, r5, r6, r7, r8, lr}
 977              	.LCFI18:
 978              		.cfi_def_cfa_offset 24
 979              		.cfi_offset 4, -24
 980              		.cfi_offset 5, -20
 981              		.cfi_offset 6, -16
 982              		.cfi_offset 7, -12
 983              		.cfi_offset 8, -8
 984              		.cfi_offset 14, -4
 985 0004 82B0     		sub	sp, sp, #8
 986              	.LCFI19:
 987              		.cfi_def_cfa_offset 32
 154:SynaptiX_FDK/app/user/sx_mqtt/sx_user_mqtt.c ****     size_t imei_len = strlen(imei);
 988              		.loc 1 154 5 is_stmt 1 view .LVU222
 989              	.LVL72:
 990              	.LBB50:
 991              	.LBI50:
  89:SynaptiX_FDK/components/sim76xx/sim76xx.h **** }
  90:SynaptiX_FDK/components/sim76xx/sim76xx.h **** 
  91:SynaptiX_FDK/components/sim76xx/sim76xx.h **** static inline void sim76xx_set_on_urc(sim76xx_t *dce, sim76xx_on_urc_cb_t cb){
  92:SynaptiX_FDK/components/sim76xx/sim76xx.h ****     dce->on_urc = cb;
  93:SynaptiX_FDK/components/sim76xx/sim76xx.h **** }
  94:SynaptiX_FDK/components/sim76xx/sim76xx.h **** 
  95:SynaptiX_FDK/components/sim76xx/sim76xx.h **** static inline uint8_t sim76xx_is_ready(sim76xx_t *dce){
  96:SynaptiX_FDK/components/sim76xx/sim76xx.h ****     return (dce->state == SIM76XX_STATE_READY);
  97:SynaptiX_FDK/components/sim76xx/sim76xx.h **** }
  98:SynaptiX_FDK/components/sim76xx/sim76xx.h **** 
  99:SynaptiX_FDK/components/sim76xx/sim76xx.h **** static inline sim76xx_state_t sim76xx_get_state(sim76xx_t *dce){
 100:SynaptiX_FDK/components/sim76xx/sim76xx.h ****     return dce->state;
 101:SynaptiX_FDK/components/sim76xx/sim76xx.h **** }
 102:SynaptiX_FDK/components/sim76xx/sim76xx.h **** 
 103:SynaptiX_FDK/components/sim76xx/sim76xx.h **** static inline const char *sim76xx_get_imei(sim76xx_t *dce){
 992              		.loc 2 103 27 view .LVU223
 993              	.LBB51:
 104:SynaptiX_FDK/components/sim76xx/sim76xx.h ****     return dce->imei;
 994              		.loc 2 104 5 view .LVU224
 995              		.loc 2 104 12 is_stmt 0 view .LVU225
 996 0006 00F51F74 		add	r4, r0, #636
 997              	.LVL73:
 998              		.loc 2 104 12 view .LVU226
 999              	.LBE51:
 1000              	.LBE50:
 155:SynaptiX_FDK/app/user/sx_mqtt/sx_user_mqtt.c ****     const char *imei_suffix = imei_len >= 8 ? imei + imei_len - 8 : imei;
 1001              		.loc 1 155 5 is_stmt 1 view .LVU227
 155:SynaptiX_FDK/app/user/sx_mqtt/sx_user_mqtt.c ****     const char *imei_suffix = imei_len >= 8 ? imei + imei_len - 8 : imei;
 1002              		.loc 1 155 23 is_stmt 0 view .LVU228
 1003 000a 2046     		mov	r0, r4
 1004              	.LVL74:
 155:SynaptiX_FDK/app/user/sx_mqtt/sx_user_mqtt.c ****     const char *imei_suffix = imei_len >= 8 ? imei + imei_len - 8 : imei;
 1005              		.loc 1 155 23 view .LVU229
 1006 000c FFF7FEFF 		bl	strlen
 1007              	.LVL75:
 156:SynaptiX_FDK/app/user/sx_mqtt/sx_user_mqtt.c ****     snprintf(s_client_id_buf, sizeof(s_client_id_buf), "stm32h5_%s", imei_suffix);
 1008              		.loc 1 156 5 is_stmt 1 view .LVU230
 156:SynaptiX_FDK/app/user/sx_mqtt/sx_user_mqtt.c ****     snprintf(s_client_id_buf, sizeof(s_client_id_buf), "stm32h5_%s", imei_suffix);
 1009              		.loc 1 156 67 is_stmt 0 view .LVU231
ARM GAS  C:\Users\LENOVO\AppData\Local\Temp\ccMn3tk9.s 			page 32


 1010 0010 0728     		cmp	r0, #7
 1011 0012 01D9     		bls	.L59
 156:SynaptiX_FDK/app/user/sx_mqtt/sx_user_mqtt.c ****     snprintf(s_client_id_buf, sizeof(s_client_id_buf), "stm32h5_%s", imei_suffix);
 1012              		.loc 1 156 63 discriminator 1 view .LVU232
 1013 0014 0838     		subs	r0, r0, #8
 1014              	.LVL76:
 156:SynaptiX_FDK/app/user/sx_mqtt/sx_user_mqtt.c ****     snprintf(s_client_id_buf, sizeof(s_client_id_buf), "stm32h5_%s", imei_suffix);
 1015              		.loc 1 156 67 discriminator 1 view .LVU233
 1016 0016 0444     		add	r4, r4, r0
 1017              	.LVL77:
 1018              	.L59:
 157:SynaptiX_FDK/app/user/sx_mqtt/sx_user_mqtt.c **** 
 1019              		.loc 1 157 5 is_stmt 1 view .LVU234
 1020 0018 134D     		ldr	r5, .L61
 1021 001a 2346     		mov	r3, r4
 1022 001c 134A     		ldr	r2, .L61+4
 1023 001e 2021     		movs	r1, #32
 1024 0020 2846     		mov	r0, r5
 1025 0022 FFF7FEFF 		bl	snprintf
 1026              	.LVL78:
 159:SynaptiX_FDK/app/user/sx_mqtt/sx_user_mqtt.c **** 
 1027              		.loc 1 159 5 view .LVU235
 159:SynaptiX_FDK/app/user/sx_mqtt/sx_user_mqtt.c **** 
 1028              		.loc 1 159 29 is_stmt 0 view .LVU236
 1029 0026 DFF85880 		ldr	r8, .L61+24
 1030 002a C8F80C50 		str	r5, [r8, #12]
 161:SynaptiX_FDK/app/user/sx_mqtt/sx_user_mqtt.c ****              sim76xx_get_ip(&board.sim76xx), sim76xx_get_rssi(&board.sim76xx), s_client_id_buf);
 1031              		.loc 1 161 5 is_stmt 1 view .LVU237
 1032              	.LVL79:
 1033              	.LBB52:
 1034              	.LBI52:
 105:SynaptiX_FDK/components/sim76xx/sim76xx.h **** }
 106:SynaptiX_FDK/components/sim76xx/sim76xx.h **** 
 107:SynaptiX_FDK/components/sim76xx/sim76xx.h **** static inline const char *sim76xx_get_ip(sim76xx_t *dce){
 1035              		.loc 2 107 27 view .LVU238
 108:SynaptiX_FDK/components/sim76xx/sim76xx.h ****     return dce->ip;
 1036              		.loc 2 108 5 view .LVU239
 1037              		.loc 2 108 5 is_stmt 0 view .LVU240
 1038              	.LBE52:
 1039              	.LBB53:
 1040              	.LBI53:
 109:SynaptiX_FDK/components/sim76xx/sim76xx.h **** }
 110:SynaptiX_FDK/components/sim76xx/sim76xx.h **** 
 111:SynaptiX_FDK/components/sim76xx/sim76xx.h **** static inline int sim76xx_get_rssi(sim76xx_t *dce){
 1041              		.loc 2 111 19 is_stmt 1 view .LVU241
 1042              	.LBB54:
 112:SynaptiX_FDK/components/sim76xx/sim76xx.h ****     return dce->rssi;
 1043              		.loc 2 112 5 view .LVU242
 1044              		.loc 2 112 15 is_stmt 0 view .LVU243
 1045 002e 104C     		ldr	r4, .L61+8
 1046              	.LVL80:
 1047              		.loc 2 112 15 view .LVU244
 1048 0030 D4F87432 		ldr	r3, [r4, #628]
 1049              	.LVL81:
 1050              		.loc 2 112 15 view .LVU245
 1051              	.LBE54:
 1052              	.LBE53:
ARM GAS  C:\Users\LENOVO\AppData\Local\Temp\ccMn3tk9.s 			page 33


 161:SynaptiX_FDK/app/user/sx_mqtt/sx_user_mqtt.c ****              sim76xx_get_ip(&board.sim76xx), sim76xx_get_rssi(&board.sim76xx), s_client_id_buf);
 1053              		.loc 1 161 5 discriminator 2 view .LVU246
 1054 0034 04F52377 		add	r7, r4, #652
 1055 0038 0E4E     		ldr	r6, .L61+12
 1056 003a 0195     		str	r5, [sp, #4]
 1057 003c 0093     		str	r3, [sp]
 1058 003e 3B46     		mov	r3, r7
 1059 0040 0D4A     		ldr	r2, .L61+16
 1060 0042 3146     		mov	r1, r6
 1061 0044 0320     		movs	r0, #3
 1062 0046 FFF7FEFF 		bl	log_func
 1063              	.LVL82:
 164:SynaptiX_FDK/app/user/sx_mqtt/sx_user_mqtt.c ****     log_info(TAG, "Modem ready — IP=%s RSSI=%d", sim76xx_get_ip(&board.sim76xx), sim76xx_get_rssi
 1064              		.loc 1 164 5 is_stmt 1 view .LVU247
 1065 004a 4046     		mov	r0, r8
 1066 004c FFF7FEFF 		bl	sx_mqtt_connect
 1067              	.LVL83:
 165:SynaptiX_FDK/app/user/sx_mqtt/sx_user_mqtt.c **** }
 1068              		.loc 1 165 5 view .LVU248
 1069              	.LBB55:
 1070              	.LBI55:
 107:SynaptiX_FDK/components/sim76xx/sim76xx.h ****     return dce->ip;
 1071              		.loc 2 107 27 view .LVU249
 108:SynaptiX_FDK/components/sim76xx/sim76xx.h **** }
 1072              		.loc 2 108 5 view .LVU250
 108:SynaptiX_FDK/components/sim76xx/sim76xx.h **** }
 1073              		.loc 2 108 5 is_stmt 0 view .LVU251
 1074              	.LBE55:
 1075              	.LBB56:
 1076              	.LBI56:
 111:SynaptiX_FDK/components/sim76xx/sim76xx.h ****     return dce->rssi;
 1077              		.loc 2 111 19 is_stmt 1 view .LVU252
 1078              	.LBB57:
 1079              		.loc 2 112 5 view .LVU253
 1080              		.loc 2 112 15 is_stmt 0 view .LVU254
 1081 0050 D4F87432 		ldr	r3, [r4, #628]
 1082              	.LVL84:
 1083              		.loc 2 112 15 view .LVU255
 1084              	.LBE57:
 1085              	.LBE56:
 165:SynaptiX_FDK/app/user/sx_mqtt/sx_user_mqtt.c **** }
 1086              		.loc 1 165 5 discriminator 2 view .LVU256
 1087 0054 0093     		str	r3, [sp]
 1088 0056 3B46     		mov	r3, r7
 1089 0058 084A     		ldr	r2, .L61+20
 1090 005a 3146     		mov	r1, r6
 1091 005c 0320     		movs	r0, #3
 1092 005e FFF7FEFF 		bl	log_func
 1093              	.LVL85:
 166:SynaptiX_FDK/app/user/sx_mqtt/sx_user_mqtt.c **** 
 1094              		.loc 1 166 1 view .LVU257
 1095 0062 02B0     		add	sp, sp, #8
 1096              	.LCFI20:
 1097              		.cfi_def_cfa_offset 24
 1098              		@ sp needed
 1099 0064 BDE8F081 		pop	{r4, r5, r6, r7, r8, pc}
 1100              	.L62:
ARM GAS  C:\Users\LENOVO\AppData\Local\Temp\ccMn3tk9.s 			page 34


 1101              		.align	2
 1102              	.L61:
 1103 0068 00000000 		.word	s_client_id_buf
 1104 006c 00000000 		.word	.LC14
 1105 0070 00000000 		.word	board
 1106 0074 10000000 		.word	.LC1
 1107 0078 0C000000 		.word	.LC15
 1108 007c 38000000 		.word	.LC16
 1109 0080 00000000 		.word	s_mqtt
 1110              		.cfi_endproc
 1111              	.LFE554:
 1113              		.section	.text.cb_mqtt_disc_done,"ax",%progbits
 1114              		.align	1
 1115              		.syntax unified
 1116              		.thumb
 1117              		.thumb_func
 1119              	cb_mqtt_disc_done:
 1120              	.LVL86:
 1121              	.LFB568:
 303:SynaptiX_FDK/app/user/sx_mqtt/sx_user_mqtt.c **** 
 304:SynaptiX_FDK/app/user/sx_mqtt/sx_user_mqtt.c **** static void cb_mqtt_disc_done(modem_t *modem, const char *resp,
 305:SynaptiX_FDK/app/user/sx_mqtt/sx_user_mqtt.c ****                                modem_response_st_t res, void *arg) {
 1122              		.loc 1 305 68 is_stmt 1 view -0
 1123              		.cfi_startproc
 1124              		@ args = 0, pretend = 0, frame = 0
 1125              		@ frame_needed = 0, uses_anonymous_args = 0
 1126              		.loc 1 305 68 is_stmt 0 view .LVU259
 1127 0000 08B5     		push	{r3, lr}
 1128              	.LCFI21:
 1129              		.cfi_def_cfa_offset 8
 1130              		.cfi_offset 3, -8
 1131              		.cfi_offset 14, -4
 306:SynaptiX_FDK/app/user/sx_mqtt/sx_user_mqtt.c ****     sim76xx_mqtt_stop(&board.sim76xx, cb_mqtt_stop_done, 3000);
 1132              		.loc 1 306 5 is_stmt 1 view .LVU260
 1133 0002 40F6B832 		movw	r2, #3000
 1134              	.LVL87:
 1135              		.loc 1 306 5 is_stmt 0 view .LVU261
 1136 0006 0249     		ldr	r1, .L65
 1137              	.LVL88:
 1138              		.loc 1 306 5 view .LVU262
 1139 0008 0248     		ldr	r0, .L65+4
 1140              	.LVL89:
 1141              		.loc 1 306 5 view .LVU263
 1142 000a FFF7FEFF 		bl	sim76xx_mqtt_stop
 1143              	.LVL90:
 307:SynaptiX_FDK/app/user/sx_mqtt/sx_user_mqtt.c **** }
 1144              		.loc 1 307 1 view .LVU264
 1145 000e 08BD     		pop	{r3, pc}
 1146              	.L66:
 1147              		.align	2
 1148              	.L65:
 1149 0010 00000000 		.word	cb_mqtt_stop_done
 1150 0014 00000000 		.word	board
 1151              		.cfi_endproc
 1152              	.LFE568:
 1154              		.section	.text.sx_user_mqtt_is_connected,"ax",%progbits
 1155              		.align	1
ARM GAS  C:\Users\LENOVO\AppData\Local\Temp\ccMn3tk9.s 			page 35


 1156              		.global	sx_user_mqtt_is_connected
 1157              		.syntax unified
 1158              		.thumb
 1159              		.thumb_func
 1161              	sx_user_mqtt_is_connected:
 1162              	.LFB558:
 224:SynaptiX_FDK/app/user/sx_mqtt/sx_user_mqtt.c ****     return sx_mqtt_is_connected(&s_mqtt);
 1163              		.loc 1 224 41 is_stmt 1 view -0
 1164              		.cfi_startproc
 1165              		@ args = 0, pretend = 0, frame = 0
 1166              		@ frame_needed = 0, uses_anonymous_args = 0
 1167              		@ link register save eliminated.
 225:SynaptiX_FDK/app/user/sx_mqtt/sx_user_mqtt.c **** }
 1168              		.loc 1 225 5 view .LVU266
 1169              	.LVL91:
 1170              	.LBB58:
 1171              	.LBI58:
 102:SynaptiX_FDK/services/mqtt/sx_mqtt.h ****     return (mqtt->state == SX_MQTT_STATE_CONNECTED);
 1172              		.loc 3 102 23 view .LVU267
 1173              	.LBB59:
 103:SynaptiX_FDK/services/mqtt/sx_mqtt.h **** }
 1174              		.loc 3 103 5 view .LVU268
 103:SynaptiX_FDK/services/mqtt/sx_mqtt.h **** }
 1175              		.loc 3 103 17 is_stmt 0 view .LVU269
 1176 0000 044B     		ldr	r3, .L68
 1177 0002 93F82C00 		ldrb	r0, [r3, #44]	@ zero_extendqisi2
 1178 0006 C0B2     		uxtb	r0, r0
 1179              	.LVL92:
 103:SynaptiX_FDK/services/mqtt/sx_mqtt.h **** }
 1180              		.loc 3 103 17 view .LVU270
 1181              	.LBE59:
 1182              	.LBE58:
 226:SynaptiX_FDK/app/user/sx_mqtt/sx_user_mqtt.c **** 
 1183              		.loc 1 226 1 view .LVU271
 1184 0008 0928     		cmp	r0, #9
 1185 000a 14BF     		ite	ne
 1186 000c 0020     		movne	r0, #0
 1187 000e 0120     		moveq	r0, #1
 1188 0010 7047     		bx	lr
 1189              	.L69:
 1190 0012 00BF     		.align	2
 1191              	.L68:
 1192 0014 00000000 		.word	s_mqtt
 1193              		.cfi_endproc
 1194              	.LFE558:
 1196              		.section	.text.sx_user_mqtt_nontls_init,"ax",%progbits
 1197              		.align	1
 1198              		.global	sx_user_mqtt_nontls_init
 1199              		.syntax unified
 1200              		.thumb
 1201              		.thumb_func
 1203              	sx_user_mqtt_nontls_init:
 1204              	.LVL93:
 1205              	.LFB559:
 228:SynaptiX_FDK/app/user/sx_mqtt/sx_user_mqtt.c ****     static sx_mqtt_config_t mqtt_cfg;
 1206              		.loc 1 228 60 is_stmt 1 view -0
 1207              		.cfi_startproc
ARM GAS  C:\Users\LENOVO\AppData\Local\Temp\ccMn3tk9.s 			page 36


 1208              		@ args = 0, pretend = 0, frame = 0
 1209              		@ frame_needed = 0, uses_anonymous_args = 0
 228:SynaptiX_FDK/app/user/sx_mqtt/sx_user_mqtt.c ****     static sx_mqtt_config_t mqtt_cfg;
 1210              		.loc 1 228 60 is_stmt 0 view .LVU273
 1211 0000 38B5     		push	{r3, r4, r5, lr}
 1212              	.LCFI22:
 1213              		.cfi_def_cfa_offset 16
 1214              		.cfi_offset 3, -16
 1215              		.cfi_offset 4, -12
 1216              		.cfi_offset 5, -8
 1217              		.cfi_offset 14, -4
 1218 0002 0446     		mov	r4, r0
 229:SynaptiX_FDK/app/user/sx_mqtt/sx_user_mqtt.c ****     memset(&mqtt_cfg, 0, sizeof(mqtt_cfg));
 1219              		.loc 1 229 5 is_stmt 1 view .LVU274
 230:SynaptiX_FDK/app/user/sx_mqtt/sx_user_mqtt.c ****     mqtt_cfg.use_ssl = 0;
 1220              		.loc 1 230 5 view .LVU275
 1221 0004 054D     		ldr	r5, .L72
 1222 0006 2822     		movs	r2, #40
 1223 0008 0021     		movs	r1, #0
 1224 000a 2846     		mov	r0, r5
 1225              	.LVL94:
 230:SynaptiX_FDK/app/user/sx_mqtt/sx_user_mqtt.c ****     mqtt_cfg.use_ssl = 0;
 1226              		.loc 1 230 5 is_stmt 0 view .LVU276
 1227 000c FFF7FEFF 		bl	memset
 1228              	.LVL95:
 231:SynaptiX_FDK/app/user/sx_mqtt/sx_user_mqtt.c ****     return _common_init(cfg, &mqtt_cfg);
 1229              		.loc 1 231 5 is_stmt 1 view .LVU277
 232:SynaptiX_FDK/app/user/sx_mqtt/sx_user_mqtt.c **** }
 1230              		.loc 1 232 5 view .LVU278
 232:SynaptiX_FDK/app/user/sx_mqtt/sx_user_mqtt.c **** }
 1231              		.loc 1 232 12 is_stmt 0 view .LVU279
 1232 0010 2946     		mov	r1, r5
 1233 0012 2046     		mov	r0, r4
 1234 0014 FFF7FEFF 		bl	_common_init
 1235              	.LVL96:
 233:SynaptiX_FDK/app/user/sx_mqtt/sx_user_mqtt.c **** 
 1236              		.loc 1 233 1 view .LVU280
 1237 0018 38BD     		pop	{r3, r4, r5, pc}
 1238              	.LVL97:
 1239              	.L73:
 233:SynaptiX_FDK/app/user/sx_mqtt/sx_user_mqtt.c **** 
 1240              		.loc 1 233 1 view .LVU281
 1241 001a 00BF     		.align	2
 1242              	.L72:
 1243 001c 00000000 		.word	mqtt_cfg.1
 1244              		.cfi_endproc
 1245              	.LFE559:
 1247              		.section	.text.sx_user_mqtt_tls_init,"ax",%progbits
 1248              		.align	1
 1249              		.global	sx_user_mqtt_tls_init
 1250              		.syntax unified
 1251              		.thumb
 1252              		.thumb_func
 1254              	sx_user_mqtt_tls_init:
 1255              	.LVL98:
 1256              	.LFB560:
 235:SynaptiX_FDK/app/user/sx_mqtt/sx_user_mqtt.c ****     static sx_mqtt_config_t mqtt_cfg;
ARM GAS  C:\Users\LENOVO\AppData\Local\Temp\ccMn3tk9.s 			page 37


 1257              		.loc 1 235 109 is_stmt 1 view -0
 1258              		.cfi_startproc
 1259              		@ args = 0, pretend = 0, frame = 0
 1260              		@ frame_needed = 0, uses_anonymous_args = 0
 235:SynaptiX_FDK/app/user/sx_mqtt/sx_user_mqtt.c ****     static sx_mqtt_config_t mqtt_cfg;
 1261              		.loc 1 235 109 is_stmt 0 view .LVU283
 1262 0000 2DE9F041 		push	{r4, r5, r6, r7, r8, lr}
 1263              	.LCFI23:
 1264              		.cfi_def_cfa_offset 24
 1265              		.cfi_offset 4, -24
 1266              		.cfi_offset 5, -20
 1267              		.cfi_offset 6, -16
 1268              		.cfi_offset 7, -12
 1269              		.cfi_offset 8, -8
 1270              		.cfi_offset 14, -4
 1271 0004 8046     		mov	r8, r0
 1272 0006 0F46     		mov	r7, r1
 1273 0008 1446     		mov	r4, r2
 1274 000a 1D46     		mov	r5, r3
 236:SynaptiX_FDK/app/user/sx_mqtt/sx_user_mqtt.c ****     memset(&mqtt_cfg, 0, sizeof(mqtt_cfg));
 1275              		.loc 1 236 5 is_stmt 1 view .LVU284
 237:SynaptiX_FDK/app/user/sx_mqtt/sx_user_mqtt.c ****     mqtt_cfg.use_ssl = 1;
 1276              		.loc 1 237 5 view .LVU285
 1277 000c 0D4E     		ldr	r6, .L78
 1278 000e 2822     		movs	r2, #40
 1279              	.LVL99:
 237:SynaptiX_FDK/app/user/sx_mqtt/sx_user_mqtt.c ****     mqtt_cfg.use_ssl = 1;
 1280              		.loc 1 237 5 is_stmt 0 view .LVU286
 1281 0010 0021     		movs	r1, #0
 1282              	.LVL100:
 237:SynaptiX_FDK/app/user/sx_mqtt/sx_user_mqtt.c ****     mqtt_cfg.use_ssl = 1;
 1283              		.loc 1 237 5 view .LVU287
 1284 0012 3046     		mov	r0, r6
 1285              	.LVL101:
 237:SynaptiX_FDK/app/user/sx_mqtt/sx_user_mqtt.c ****     mqtt_cfg.use_ssl = 1;
 1286              		.loc 1 237 5 view .LVU288
 1287 0014 FFF7FEFF 		bl	memset
 1288              	.LVL102:
 238:SynaptiX_FDK/app/user/sx_mqtt/sx_user_mqtt.c **** 
 1289              		.loc 1 238 5 is_stmt 1 view .LVU289
 238:SynaptiX_FDK/app/user/sx_mqtt/sx_user_mqtt.c **** 
 1290              		.loc 1 238 22 is_stmt 0 view .LVU290
 1291 0018 0123     		movs	r3, #1
 1292 001a 3376     		strb	r3, [r6, #24]
 240:SynaptiX_FDK/app/user/sx_mqtt/sx_user_mqtt.c ****         mqtt_cfg.ssl_auth_mode = 2;
 1293              		.loc 1 240 5 is_stmt 1 view .LVU291
 240:SynaptiX_FDK/app/user/sx_mqtt/sx_user_mqtt.c ****         mqtt_cfg.ssl_auth_mode = 2;
 1294              		.loc 1 240 8 is_stmt 0 view .LVU292
 1295 001c 5CB1     		cbz	r4, .L75
 240:SynaptiX_FDK/app/user/sx_mqtt/sx_user_mqtt.c ****         mqtt_cfg.ssl_auth_mode = 2;
 1296              		.loc 1 240 21 discriminator 1 view .LVU293
 1297 001e 55B1     		cbz	r5, .L75
 241:SynaptiX_FDK/app/user/sx_mqtt/sx_user_mqtt.c ****     else if (ca_cert)
 1298              		.loc 1 241 9 is_stmt 1 view .LVU294
 241:SynaptiX_FDK/app/user/sx_mqtt/sx_user_mqtt.c ****     else if (ca_cert)
 1299              		.loc 1 241 32 is_stmt 0 view .LVU295
 1300 0020 0222     		movs	r2, #2
ARM GAS  C:\Users\LENOVO\AppData\Local\Temp\ccMn3tk9.s 			page 38


 1301 0022 7276     		strb	r2, [r6, #25]
 1302              	.L76:
 247:SynaptiX_FDK/app/user/sx_mqtt/sx_user_mqtt.c ****     mqtt_cfg.client_cert = client_cert;
 1303              		.loc 1 247 5 is_stmt 1 view .LVU296
 247:SynaptiX_FDK/app/user/sx_mqtt/sx_user_mqtt.c ****     mqtt_cfg.client_cert = client_cert;
 1304              		.loc 1 247 26 is_stmt 0 view .LVU297
 1305 0024 0749     		ldr	r1, .L78
 1306 0026 CF61     		str	r7, [r1, #28]
 248:SynaptiX_FDK/app/user/sx_mqtt/sx_user_mqtt.c ****     mqtt_cfg.client_key  = client_key;
 1307              		.loc 1 248 5 is_stmt 1 view .LVU298
 248:SynaptiX_FDK/app/user/sx_mqtt/sx_user_mqtt.c ****     mqtt_cfg.client_key  = client_key;
 1308              		.loc 1 248 26 is_stmt 0 view .LVU299
 1309 0028 0C62     		str	r4, [r1, #32]
 249:SynaptiX_FDK/app/user/sx_mqtt/sx_user_mqtt.c **** 
 1310              		.loc 1 249 5 is_stmt 1 view .LVU300
 249:SynaptiX_FDK/app/user/sx_mqtt/sx_user_mqtt.c **** 
 1311              		.loc 1 249 26 is_stmt 0 view .LVU301
 1312 002a 4D62     		str	r5, [r1, #36]
 251:SynaptiX_FDK/app/user/sx_mqtt/sx_user_mqtt.c **** }
 1313              		.loc 1 251 5 is_stmt 1 view .LVU302
 251:SynaptiX_FDK/app/user/sx_mqtt/sx_user_mqtt.c **** }
 1314              		.loc 1 251 12 is_stmt 0 view .LVU303
 1315 002c 4046     		mov	r0, r8
 1316 002e FFF7FEFF 		bl	_common_init
 1317              	.LVL103:
 252:SynaptiX_FDK/app/user/sx_mqtt/sx_user_mqtt.c **** 
 1318              		.loc 1 252 1 view .LVU304
 1319 0032 BDE8F081 		pop	{r4, r5, r6, r7, r8, pc}
 1320              	.LVL104:
 1321              	.L75:
 242:SynaptiX_FDK/app/user/sx_mqtt/sx_user_mqtt.c ****         mqtt_cfg.ssl_auth_mode = 1;
 1322              		.loc 1 242 10 is_stmt 1 view .LVU305
 242:SynaptiX_FDK/app/user/sx_mqtt/sx_user_mqtt.c ****         mqtt_cfg.ssl_auth_mode = 1;
 1323              		.loc 1 242 13 is_stmt 0 view .LVU306
 1324 0036 002F     		cmp	r7, #0
 1325 0038 F4D0     		beq	.L76
 243:SynaptiX_FDK/app/user/sx_mqtt/sx_user_mqtt.c ****     else
 1326              		.loc 1 243 9 is_stmt 1 view .LVU307
 243:SynaptiX_FDK/app/user/sx_mqtt/sx_user_mqtt.c ****     else
 1327              		.loc 1 243 32 is_stmt 0 view .LVU308
 1328 003a 024B     		ldr	r3, .L78
 1329 003c 0122     		movs	r2, #1
 1330 003e 5A76     		strb	r2, [r3, #25]
 1331 0040 F0E7     		b	.L76
 1332              	.L79:
 1333 0042 00BF     		.align	2
 1334              	.L78:
 1335 0044 00000000 		.word	mqtt_cfg.0
 1336              		.cfi_endproc
 1337              	.LFE560:
 1339              		.section	.text.sx_user_mqtt_force_disconnect,"ax",%progbits
 1340              		.align	1
 1341              		.global	sx_user_mqtt_force_disconnect
 1342              		.syntax unified
 1343              		.thumb
 1344              		.thumb_func
 1346              	sx_user_mqtt_force_disconnect:
ARM GAS  C:\Users\LENOVO\AppData\Local\Temp\ccMn3tk9.s 			page 39


 1347              	.LFB561:
 254:SynaptiX_FDK/app/user/sx_mqtt/sx_user_mqtt.c ****     s_mqtt.state           = SX_MQTT_STATE_DISCONNECTED;
 1348              		.loc 1 254 42 is_stmt 1 view -0
 1349              		.cfi_startproc
 1350              		@ args = 0, pretend = 0, frame = 0
 1351              		@ frame_needed = 0, uses_anonymous_args = 0
 1352              		@ link register save eliminated.
 255:SynaptiX_FDK/app/user/sx_mqtt/sx_user_mqtt.c ****     s_mqtt.reconnect_count = 0;
 1353              		.loc 1 255 5 view .LVU310
 255:SynaptiX_FDK/app/user/sx_mqtt/sx_user_mqtt.c ****     s_mqtt.reconnect_count = 0;
 1354              		.loc 1 255 28 is_stmt 0 view .LVU311
 1355 0000 044B     		ldr	r3, .L81
 1356 0002 0022     		movs	r2, #0
 1357 0004 83F82C20 		strb	r2, [r3, #44]
 256:SynaptiX_FDK/app/user/sx_mqtt/sx_user_mqtt.c ****     s_mqtt.reconnect_elapsed = 0;
 1358              		.loc 1 256 5 is_stmt 1 view .LVU312
 256:SynaptiX_FDK/app/user/sx_mqtt/sx_user_mqtt.c ****     s_mqtt.reconnect_elapsed = 0;
 1359              		.loc 1 256 28 is_stmt 0 view .LVU313
 1360 0008 83F8B822 		strb	r2, [r3, #696]
 257:SynaptiX_FDK/app/user/sx_mqtt/sx_user_mqtt.c **** }
 1361              		.loc 1 257 5 is_stmt 1 view .LVU314
 257:SynaptiX_FDK/app/user/sx_mqtt/sx_user_mqtt.c **** }
 1362              		.loc 1 257 30 is_stmt 0 view .LVU315
 1363 000c C3F8B022 		str	r2, [r3, #688]
 258:SynaptiX_FDK/app/user/sx_mqtt/sx_user_mqtt.c **** 
 1364              		.loc 1 258 1 view .LVU316
 1365 0010 7047     		bx	lr
 1366              	.L82:
 1367 0012 00BF     		.align	2
 1368              	.L81:
 1369 0014 00000000 		.word	s_mqtt
 1370              		.cfi_endproc
 1371              	.LFE561:
 1373              		.section	.rodata.sx_user_mqtt_publish.str1.4,"aMS",%progbits,1
 1374              		.align	2
 1375              	.LC17:
 1376 0000 7075626C 		.ascii	"publish: not connected\000"
 1376      6973683A 
 1376      206E6F74 
 1376      20636F6E 
 1376      6E656374 
 1377 0017 00       		.align	2
 1378              	.LC18:
 1379 0018 7075626C 		.ascii	"publish queue full, drop: %s\000"
 1379      69736820 
 1379      71756575 
 1379      65206675 
 1379      6C6C2C20 
 1380              		.section	.text.sx_user_mqtt_publish,"ax",%progbits
 1381              		.align	1
 1382              		.global	sx_user_mqtt_publish
 1383              		.syntax unified
 1384              		.thumb
 1385              		.thumb_func
 1387              	sx_user_mqtt_publish:
 1388              	.LVL105:
 1389              	.LFB562:
ARM GAS  C:\Users\LENOVO\AppData\Local\Temp\ccMn3tk9.s 			page 40


 260:SynaptiX_FDK/app/user/sx_mqtt/sx_user_mqtt.c ****     if (!sx_mqtt_is_connected(&s_mqtt)) { log_warn(TAG, "publish: not connected"); return; }
 1390              		.loc 1 260 66 is_stmt 1 view -0
 1391              		.cfi_startproc
 1392              		@ args = 0, pretend = 0, frame = 384
 1393              		@ frame_needed = 0, uses_anonymous_args = 0
 260:SynaptiX_FDK/app/user/sx_mqtt/sx_user_mqtt.c ****     if (!sx_mqtt_is_connected(&s_mqtt)) { log_warn(TAG, "publish: not connected"); return; }
 1394              		.loc 1 260 66 is_stmt 0 view .LVU318
 1395 0000 30B5     		push	{r4, r5, lr}
 1396              	.LCFI24:
 1397              		.cfi_def_cfa_offset 12
 1398              		.cfi_offset 4, -12
 1399              		.cfi_offset 5, -8
 1400              		.cfi_offset 14, -4
 1401 0002 E3B0     		sub	sp, sp, #396
 1402              	.LCFI25:
 1403              		.cfi_def_cfa_offset 408
 261:SynaptiX_FDK/app/user/sx_mqtt/sx_user_mqtt.c **** 
 1404              		.loc 1 261 5 is_stmt 1 view .LVU319
 1405              	.LVL106:
 1406              	.LBB60:
 1407              	.LBI60:
 102:SynaptiX_FDK/services/mqtt/sx_mqtt.h ****     return (mqtt->state == SX_MQTT_STATE_CONNECTED);
 1408              		.loc 3 102 23 view .LVU320
 1409              	.LBB61:
 103:SynaptiX_FDK/services/mqtt/sx_mqtt.h **** }
 1410              		.loc 3 103 5 view .LVU321
 103:SynaptiX_FDK/services/mqtt/sx_mqtt.h **** }
 1411              		.loc 3 103 17 is_stmt 0 view .LVU322
 1412 0004 1F4B     		ldr	r3, .L91
 1413 0006 93F82C20 		ldrb	r2, [r3, #44]	@ zero_extendqisi2
 1414 000a D2B2     		uxtb	r2, r2
 1415              	.LVL107:
 103:SynaptiX_FDK/services/mqtt/sx_mqtt.h **** }
 1416              		.loc 3 103 17 view .LVU323
 1417              	.LBE61:
 1418              	.LBE60:
 261:SynaptiX_FDK/app/user/sx_mqtt/sx_user_mqtt.c **** 
 1419              		.loc 1 261 8 discriminator 1 view .LVU324
 1420 000c 092A     		cmp	r2, #9
 1421 000e 06D0     		beq	.L84
 261:SynaptiX_FDK/app/user/sx_mqtt/sx_user_mqtt.c **** 
 1422              		.loc 1 261 43 is_stmt 1 discriminator 1 view .LVU325
 1423 0010 1D4A     		ldr	r2, .L91+4
 1424 0012 1E49     		ldr	r1, .L91+8
 1425              	.LVL108:
 261:SynaptiX_FDK/app/user/sx_mqtt/sx_user_mqtt.c **** 
 1426              		.loc 1 261 43 is_stmt 0 discriminator 1 view .LVU326
 1427 0014 0220     		movs	r0, #2
 1428              	.LVL109:
 261:SynaptiX_FDK/app/user/sx_mqtt/sx_user_mqtt.c **** 
 1429              		.loc 1 261 43 discriminator 1 view .LVU327
 1430 0016 FFF7FEFF 		bl	log_func
 1431              	.LVL110:
 261:SynaptiX_FDK/app/user/sx_mqtt/sx_user_mqtt.c **** 
 1432              		.loc 1 261 84 is_stmt 1 discriminator 1 view .LVU328
 1433              	.L83:
 280:SynaptiX_FDK/app/user/sx_mqtt/sx_user_mqtt.c **** 
ARM GAS  C:\Users\LENOVO\AppData\Local\Temp\ccMn3tk9.s 			page 41


 1434              		.loc 1 280 1 is_stmt 0 view .LVU329
 1435 001a 63B0     		add	sp, sp, #396
 1436              	.LCFI26:
 1437              		.cfi_remember_state
 1438              		.cfi_def_cfa_offset 12
 1439              		@ sp needed
 1440 001c 30BD     		pop	{r4, r5, pc}
 1441              	.LVL111:
 1442              	.L84:
 1443              	.LCFI27:
 1444              		.cfi_restore_state
 280:SynaptiX_FDK/app/user/sx_mqtt/sx_user_mqtt.c **** 
 1445              		.loc 1 280 1 view .LVU330
 1446 001e 0446     		mov	r4, r0
 1447 0020 0D46     		mov	r5, r1
 263:SynaptiX_FDK/app/user/sx_mqtt/sx_user_mqtt.c ****     strncpy(item.topic,   topic,   sizeof(item.topic)   - 1);
 1448              		.loc 1 263 5 is_stmt 1 view .LVU331
 264:SynaptiX_FDK/app/user/sx_mqtt/sx_user_mqtt.c ****     strncpy(item.message, message, sizeof(item.message) - 1);
 1449              		.loc 1 264 5 view .LVU332
 1450 0022 7F22     		movs	r2, #127
 1451 0024 0146     		mov	r1, r0
 1452              	.LVL112:
 264:SynaptiX_FDK/app/user/sx_mqtt/sx_user_mqtt.c ****     strncpy(item.message, message, sizeof(item.message) - 1);
 1453              		.loc 1 264 5 is_stmt 0 view .LVU333
 1454 0026 02A8     		add	r0, sp, #8
 1455              	.LVL113:
 264:SynaptiX_FDK/app/user/sx_mqtt/sx_user_mqtt.c ****     strncpy(item.message, message, sizeof(item.message) - 1);
 1456              		.loc 1 264 5 view .LVU334
 1457 0028 FFF7FEFF 		bl	strncpy
 1458              	.LVL114:
 265:SynaptiX_FDK/app/user/sx_mqtt/sx_user_mqtt.c ****     item.topic  [sizeof(item.topic)   - 1] = '\0';
 1459              		.loc 1 265 5 is_stmt 1 view .LVU335
 1460 002c FF22     		movs	r2, #255
 1461 002e 2946     		mov	r1, r5
 1462 0030 22A8     		add	r0, sp, #136
 1463 0032 FFF7FEFF 		bl	strncpy
 1464              	.LVL115:
 266:SynaptiX_FDK/app/user/sx_mqtt/sx_user_mqtt.c ****     item.message[sizeof(item.message) - 1] = '\0';
 1465              		.loc 1 266 5 view .LVU336
 266:SynaptiX_FDK/app/user/sx_mqtt/sx_user_mqtt.c ****     item.message[sizeof(item.message) - 1] = '\0';
 1466              		.loc 1 266 44 is_stmt 0 view .LVU337
 1467 0036 0023     		movs	r3, #0
 1468 0038 8DF88730 		strb	r3, [sp, #135]
 267:SynaptiX_FDK/app/user/sx_mqtt/sx_user_mqtt.c **** 
 1469              		.loc 1 267 5 is_stmt 1 view .LVU338
 267:SynaptiX_FDK/app/user/sx_mqtt/sx_user_mqtt.c **** 
 1470              		.loc 1 267 44 is_stmt 0 view .LVU339
 1471 003c 8DF88731 		strb	r3, [sp, #391]
 269:SynaptiX_FDK/app/user/sx_mqtt/sx_user_mqtt.c ****         log_warn(TAG, "publish queue full, drop: %s", topic);
 1472              		.loc 1 269 5 is_stmt 1 view .LVU340
 269:SynaptiX_FDK/app/user/sx_mqtt/sx_user_mqtt.c ****         log_warn(TAG, "publish queue full, drop: %s", topic);
 1473              		.loc 1 269 10 is_stmt 0 view .LVU341
 1474 0040 02A9     		add	r1, sp, #8
 1475 0042 1348     		ldr	r0, .L91+12
 1476 0044 FFF7FEFF 		bl	cqueue_send
 1477              	.LVL116:
 269:SynaptiX_FDK/app/user/sx_mqtt/sx_user_mqtt.c ****         log_warn(TAG, "publish queue full, drop: %s", topic);
ARM GAS  C:\Users\LENOVO\AppData\Local\Temp\ccMn3tk9.s 			page 42


 1478              		.loc 1 269 8 discriminator 1 view .LVU342
 1479 0048 A8B1     		cbz	r0, .L90
 274:SynaptiX_FDK/app/user/sx_mqtt/sx_user_mqtt.c ****         if (cqueue_receive(&s_queue, &s_current_item)) {
 1480              		.loc 1 274 5 is_stmt 1 view .LVU343
 274:SynaptiX_FDK/app/user/sx_mqtt/sx_user_mqtt.c ****         if (cqueue_receive(&s_queue, &s_current_item)) {
 1481              		.loc 1 274 9 is_stmt 0 view .LVU344
 1482 004a 124B     		ldr	r3, .L91+16
 1483 004c 1B78     		ldrb	r3, [r3]	@ zero_extendqisi2
 274:SynaptiX_FDK/app/user/sx_mqtt/sx_user_mqtt.c ****         if (cqueue_receive(&s_queue, &s_current_item)) {
 1484              		.loc 1 274 8 view .LVU345
 1485 004e 002B     		cmp	r3, #0
 1486 0050 E3D1     		bne	.L83
 275:SynaptiX_FDK/app/user/sx_mqtt/sx_user_mqtt.c ****             s_publishing = 1;
 1487              		.loc 1 275 9 is_stmt 1 view .LVU346
 275:SynaptiX_FDK/app/user/sx_mqtt/sx_user_mqtt.c ****             s_publishing = 1;
 1488              		.loc 1 275 13 is_stmt 0 view .LVU347
 1489 0052 1149     		ldr	r1, .L91+20
 1490 0054 0E48     		ldr	r0, .L91+12
 1491 0056 FFF7FEFF 		bl	cqueue_receive
 1492              	.LVL117:
 275:SynaptiX_FDK/app/user/sx_mqtt/sx_user_mqtt.c ****             s_publishing = 1;
 1493              		.loc 1 275 12 discriminator 1 view .LVU348
 1494 005a 0028     		cmp	r0, #0
 1495 005c DDD0     		beq	.L83
 276:SynaptiX_FDK/app/user/sx_mqtt/sx_user_mqtt.c ****             sx_mqtt_publish(&s_mqtt, s_current_item.topic, s_current_item.message, 1, 0);
 1496              		.loc 1 276 13 is_stmt 1 view .LVU349
 276:SynaptiX_FDK/app/user/sx_mqtt/sx_user_mqtt.c ****             sx_mqtt_publish(&s_mqtt, s_current_item.topic, s_current_item.message, 1, 0);
 1497              		.loc 1 276 26 is_stmt 0 view .LVU350
 1498 005e 0123     		movs	r3, #1
 1499 0060 0C4A     		ldr	r2, .L91+16
 1500 0062 1370     		strb	r3, [r2]
 277:SynaptiX_FDK/app/user/sx_mqtt/sx_user_mqtt.c ****         }
 1501              		.loc 1 277 13 is_stmt 1 view .LVU351
 1502 0064 0D4A     		ldr	r2, .L91+24
 1503 0066 0021     		movs	r1, #0
 1504 0068 0091     		str	r1, [sp]
 1505 006a A2F18001 		sub	r1, r2, #128
 1506 006e 0548     		ldr	r0, .L91
 1507 0070 FFF7FEFF 		bl	sx_mqtt_publish
 1508              	.LVL118:
 1509 0074 D1E7     		b	.L83
 1510              	.L90:
 270:SynaptiX_FDK/app/user/sx_mqtt/sx_user_mqtt.c ****         return;
 1511              		.loc 1 270 9 view .LVU352
 1512 0076 2346     		mov	r3, r4
 1513 0078 094A     		ldr	r2, .L91+28
 1514 007a 0449     		ldr	r1, .L91+8
 1515 007c 0220     		movs	r0, #2
 1516 007e FFF7FEFF 		bl	log_func
 1517              	.LVL119:
 271:SynaptiX_FDK/app/user/sx_mqtt/sx_user_mqtt.c ****     }
 1518              		.loc 1 271 9 view .LVU353
 1519 0082 CAE7     		b	.L83
 1520              	.L92:
 1521              		.align	2
 1522              	.L91:
 1523 0084 00000000 		.word	s_mqtt
ARM GAS  C:\Users\LENOVO\AppData\Local\Temp\ccMn3tk9.s 			page 43


 1524 0088 00000000 		.word	.LC17
 1525 008c 10000000 		.word	.LC1
 1526 0090 00000000 		.word	s_queue
 1527 0094 00000000 		.word	s_publishing
 1528 0098 00000000 		.word	s_current_item
 1529 009c 80000000 		.word	s_current_item+128
 1530 00a0 18000000 		.word	.LC18
 1531              		.cfi_endproc
 1532              	.LFE562:
 1534              		.section	.rodata.sx_user_mqtt_subscribe.str1.4,"aMS",%progbits,1
 1535              		.align	2
 1536              	.LC19:
 1537 0000 73756273 		.ascii	"subscribe: not connected\000"
 1537      63726962 
 1537      653A206E 
 1537      6F742063 
 1537      6F6E6E65 
 1538 0019 000000   		.align	2
 1539              	.LC20:
 1540 001c 73756273 		.ascii	"subscribe: NULL topic\000"
 1540      63726962 
 1540      653A204E 
 1540      554C4C20 
 1540      746F7069 
 1541              		.section	.text.sx_user_mqtt_subscribe,"ax",%progbits
 1542              		.align	1
 1543              		.global	sx_user_mqtt_subscribe
 1544              		.syntax unified
 1545              		.thumb
 1546              		.thumb_func
 1548              	sx_user_mqtt_subscribe:
 1549              	.LVL120:
 1550              	.LFB563:
 282:SynaptiX_FDK/app/user/sx_mqtt/sx_user_mqtt.c ****     if (!sx_mqtt_is_connected(&s_mqtt)) { log_warn(TAG, "subscribe: not connected"); return; }
 1551              		.loc 1 282 47 view -0
 1552              		.cfi_startproc
 1553              		@ args = 0, pretend = 0, frame = 0
 1554              		@ frame_needed = 0, uses_anonymous_args = 0
 282:SynaptiX_FDK/app/user/sx_mqtt/sx_user_mqtt.c ****     if (!sx_mqtt_is_connected(&s_mqtt)) { log_warn(TAG, "subscribe: not connected"); return; }
 1555              		.loc 1 282 47 is_stmt 0 view .LVU355
 1556 0000 08B5     		push	{r3, lr}
 1557              	.LCFI28:
 1558              		.cfi_def_cfa_offset 8
 1559              		.cfi_offset 3, -8
 1560              		.cfi_offset 14, -4
 283:SynaptiX_FDK/app/user/sx_mqtt/sx_user_mqtt.c ****     if (!topic) { log_warn(TAG, "subscribe: NULL topic"); return; }
 1561              		.loc 1 283 5 is_stmt 1 view .LVU356
 1562              	.LVL121:
 1563              	.LBB62:
 1564              	.LBI62:
 102:SynaptiX_FDK/services/mqtt/sx_mqtt.h ****     return (mqtt->state == SX_MQTT_STATE_CONNECTED);
 1565              		.loc 3 102 23 view .LVU357
 1566              	.LBB63:
 103:SynaptiX_FDK/services/mqtt/sx_mqtt.h **** }
 1567              		.loc 3 103 5 view .LVU358
 103:SynaptiX_FDK/services/mqtt/sx_mqtt.h **** }
 1568              		.loc 3 103 17 is_stmt 0 view .LVU359
ARM GAS  C:\Users\LENOVO\AppData\Local\Temp\ccMn3tk9.s 			page 44


 1569 0002 0C4B     		ldr	r3, .L100
 1570 0004 93F82C30 		ldrb	r3, [r3, #44]	@ zero_extendqisi2
 1571 0008 DBB2     		uxtb	r3, r3
 1572              	.LVL122:
 103:SynaptiX_FDK/services/mqtt/sx_mqtt.h **** }
 1573              		.loc 3 103 17 view .LVU360
 1574              	.LBE63:
 1575              	.LBE62:
 283:SynaptiX_FDK/app/user/sx_mqtt/sx_user_mqtt.c ****     if (!topic) { log_warn(TAG, "subscribe: NULL topic"); return; }
 1576              		.loc 1 283 8 discriminator 1 view .LVU361
 1577 000a 092B     		cmp	r3, #9
 1578 000c 06D1     		bne	.L98
 1579 000e 0146     		mov	r1, r0
 284:SynaptiX_FDK/app/user/sx_mqtt/sx_user_mqtt.c ****     sx_mqtt_subscribe(&s_mqtt, topic, 1);
 1580              		.loc 1 284 5 is_stmt 1 view .LVU362
 284:SynaptiX_FDK/app/user/sx_mqtt/sx_user_mqtt.c ****     sx_mqtt_subscribe(&s_mqtt, topic, 1);
 1581              		.loc 1 284 8 is_stmt 0 view .LVU363
 1582 0010 50B1     		cbz	r0, .L99
 285:SynaptiX_FDK/app/user/sx_mqtt/sx_user_mqtt.c **** }
 1583              		.loc 1 285 5 is_stmt 1 view .LVU364
 1584 0012 0122     		movs	r2, #1
 1585 0014 0748     		ldr	r0, .L100
 1586              	.LVL123:
 285:SynaptiX_FDK/app/user/sx_mqtt/sx_user_mqtt.c **** }
 1587              		.loc 1 285 5 is_stmt 0 view .LVU365
 1588 0016 FFF7FEFF 		bl	sx_mqtt_subscribe
 1589              	.LVL124:
 1590              	.L93:
 286:SynaptiX_FDK/app/user/sx_mqtt/sx_user_mqtt.c **** 
 1591              		.loc 1 286 1 view .LVU366
 1592 001a 08BD     		pop	{r3, pc}
 1593              	.LVL125:
 1594              	.L98:
 283:SynaptiX_FDK/app/user/sx_mqtt/sx_user_mqtt.c ****     if (!topic) { log_warn(TAG, "subscribe: NULL topic"); return; }
 1595              		.loc 1 283 43 is_stmt 1 discriminator 1 view .LVU367
 1596 001c 064A     		ldr	r2, .L100+4
 1597 001e 0749     		ldr	r1, .L100+8
 1598 0020 0220     		movs	r0, #2
 1599              	.LVL126:
 283:SynaptiX_FDK/app/user/sx_mqtt/sx_user_mqtt.c ****     if (!topic) { log_warn(TAG, "subscribe: NULL topic"); return; }
 1600              		.loc 1 283 43 is_stmt 0 discriminator 1 view .LVU368
 1601 0022 FFF7FEFF 		bl	log_func
 1602              	.LVL127:
 283:SynaptiX_FDK/app/user/sx_mqtt/sx_user_mqtt.c ****     if (!topic) { log_warn(TAG, "subscribe: NULL topic"); return; }
 1603              		.loc 1 283 86 is_stmt 1 discriminator 1 view .LVU369
 283:SynaptiX_FDK/app/user/sx_mqtt/sx_user_mqtt.c ****     if (!topic) { log_warn(TAG, "subscribe: NULL topic"); return; }
 1604              		.loc 1 283 86 is_stmt 0 view .LVU370
 1605 0026 F8E7     		b	.L93
 1606              	.LVL128:
 1607              	.L99:
 284:SynaptiX_FDK/app/user/sx_mqtt/sx_user_mqtt.c ****     sx_mqtt_subscribe(&s_mqtt, topic, 1);
 1608              		.loc 1 284 19 is_stmt 1 discriminator 1 view .LVU371
 1609 0028 054A     		ldr	r2, .L100+12
 1610 002a 0449     		ldr	r1, .L100+8
 1611 002c 0220     		movs	r0, #2
 1612              	.LVL129:
 284:SynaptiX_FDK/app/user/sx_mqtt/sx_user_mqtt.c ****     sx_mqtt_subscribe(&s_mqtt, topic, 1);
ARM GAS  C:\Users\LENOVO\AppData\Local\Temp\ccMn3tk9.s 			page 45


 1613              		.loc 1 284 19 is_stmt 0 discriminator 1 view .LVU372
 1614 002e FFF7FEFF 		bl	log_func
 1615              	.LVL130:
 284:SynaptiX_FDK/app/user/sx_mqtt/sx_user_mqtt.c ****     sx_mqtt_subscribe(&s_mqtt, topic, 1);
 1616              		.loc 1 284 59 is_stmt 1 discriminator 1 view .LVU373
 284:SynaptiX_FDK/app/user/sx_mqtt/sx_user_mqtt.c ****     sx_mqtt_subscribe(&s_mqtt, topic, 1);
 1617              		.loc 1 284 59 is_stmt 0 view .LVU374
 1618 0032 F2E7     		b	.L93
 1619              	.L101:
 1620              		.align	2
 1621              	.L100:
 1622 0034 00000000 		.word	s_mqtt
 1623 0038 00000000 		.word	.LC19
 1624 003c 10000000 		.word	.LC1
 1625 0040 1C000000 		.word	.LC20
 1626              		.cfi_endproc
 1627              	.LFE563:
 1629              		.section	.text.sx_user_mqtt_stop,"ax",%progbits
 1630              		.align	1
 1631              		.global	sx_user_mqtt_stop
 1632              		.syntax unified
 1633              		.thumb
 1634              		.thumb_func
 1636              	sx_user_mqtt_stop:
 1637              	.LFB564:
 288:SynaptiX_FDK/app/user/sx_mqtt/sx_user_mqtt.c ****     if (sx_mqtt_is_connected(&s_mqtt))
 1638              		.loc 1 288 29 is_stmt 1 view -0
 1639              		.cfi_startproc
 1640              		@ args = 0, pretend = 0, frame = 0
 1641              		@ frame_needed = 0, uses_anonymous_args = 0
 1642 0000 08B5     		push	{r3, lr}
 1643              	.LCFI29:
 1644              		.cfi_def_cfa_offset 8
 1645              		.cfi_offset 3, -8
 1646              		.cfi_offset 14, -4
 289:SynaptiX_FDK/app/user/sx_mqtt/sx_user_mqtt.c ****         sx_mqtt_disconnect(&s_mqtt);
 1647              		.loc 1 289 5 view .LVU376
 1648              	.LVL131:
 1649              	.LBB64:
 1650              	.LBI64:
 102:SynaptiX_FDK/services/mqtt/sx_mqtt.h ****     return (mqtt->state == SX_MQTT_STATE_CONNECTED);
 1651              		.loc 3 102 23 view .LVU377
 1652              	.LBB65:
 103:SynaptiX_FDK/services/mqtt/sx_mqtt.h **** }
 1653              		.loc 3 103 5 view .LVU378
 103:SynaptiX_FDK/services/mqtt/sx_mqtt.h **** }
 1654              		.loc 3 103 17 is_stmt 0 view .LVU379
 1655 0002 054B     		ldr	r3, .L106
 1656 0004 93F82C30 		ldrb	r3, [r3, #44]	@ zero_extendqisi2
 1657 0008 DBB2     		uxtb	r3, r3
 1658              	.LVL132:
 103:SynaptiX_FDK/services/mqtt/sx_mqtt.h **** }
 1659              		.loc 3 103 17 view .LVU380
 1660              	.LBE65:
 1661              	.LBE64:
 289:SynaptiX_FDK/app/user/sx_mqtt/sx_user_mqtt.c ****         sx_mqtt_disconnect(&s_mqtt);
 1662              		.loc 1 289 8 discriminator 1 view .LVU381
ARM GAS  C:\Users\LENOVO\AppData\Local\Temp\ccMn3tk9.s 			page 46


 1663 000a 092B     		cmp	r3, #9
 1664 000c 00D0     		beq	.L105
 1665              	.L102:
 291:SynaptiX_FDK/app/user/sx_mqtt/sx_user_mqtt.c **** 
 1666              		.loc 1 291 1 view .LVU382
 1667 000e 08BD     		pop	{r3, pc}
 1668              	.L105:
 290:SynaptiX_FDK/app/user/sx_mqtt/sx_user_mqtt.c **** }
 1669              		.loc 1 290 9 is_stmt 1 view .LVU383
 1670 0010 0148     		ldr	r0, .L106
 1671 0012 FFF7FEFF 		bl	sx_mqtt_disconnect
 1672              	.LVL133:
 291:SynaptiX_FDK/app/user/sx_mqtt/sx_user_mqtt.c **** 
 1673              		.loc 1 291 1 is_stmt 0 view .LVU384
 1674 0016 FAE7     		b	.L102
 1675              	.L107:
 1676              		.align	2
 1677              	.L106:
 1678 0018 00000000 		.word	s_mqtt
 1679              		.cfi_endproc
 1680              	.LFE564:
 1682              		.section	.text.sx_user_mqtt_poll,"ax",%progbits
 1683              		.align	1
 1684              		.global	sx_user_mqtt_poll
 1685              		.syntax unified
 1686              		.thumb
 1687              		.thumb_func
 1689              	sx_user_mqtt_poll:
 1690              	.LVL134:
 1691              	.LFB565:
 293:SynaptiX_FDK/app/user/sx_mqtt/sx_user_mqtt.c ****     sx_mqtt_poll(&s_mqtt, time_stamp);
 1692              		.loc 1 293 44 is_stmt 1 view -0
 1693              		.cfi_startproc
 1694              		@ args = 0, pretend = 0, frame = 0
 1695              		@ frame_needed = 0, uses_anonymous_args = 0
 293:SynaptiX_FDK/app/user/sx_mqtt/sx_user_mqtt.c ****     sx_mqtt_poll(&s_mqtt, time_stamp);
 1696              		.loc 1 293 44 is_stmt 0 view .LVU386
 1697 0000 08B5     		push	{r3, lr}
 1698              	.LCFI30:
 1699              		.cfi_def_cfa_offset 8
 1700              		.cfi_offset 3, -8
 1701              		.cfi_offset 14, -4
 1702 0002 0146     		mov	r1, r0
 294:SynaptiX_FDK/app/user/sx_mqtt/sx_user_mqtt.c **** }
 1703              		.loc 1 294 5 is_stmt 1 view .LVU387
 1704 0004 0148     		ldr	r0, .L110
 1705              	.LVL135:
 294:SynaptiX_FDK/app/user/sx_mqtt/sx_user_mqtt.c **** }
 1706              		.loc 1 294 5 is_stmt 0 view .LVU388
 1707 0006 FFF7FEFF 		bl	sx_mqtt_poll
 1708              	.LVL136:
 295:SynaptiX_FDK/app/user/sx_mqtt/sx_user_mqtt.c **** 
 1709              		.loc 1 295 1 view .LVU389
 1710 000a 08BD     		pop	{r3, pc}
 1711              	.L111:
 1712              		.align	2
 1713              	.L110:
ARM GAS  C:\Users\LENOVO\AppData\Local\Temp\ccMn3tk9.s 			page 47


 1714 000c 00000000 		.word	s_mqtt
 1715              		.cfi_endproc
 1716              	.LFE565:
 1718              		.section	.text.sx_user_mqtt_is_initialized,"ax",%progbits
 1719              		.align	1
 1720              		.global	sx_user_mqtt_is_initialized
 1721              		.syntax unified
 1722              		.thumb
 1723              		.thumb_func
 1725              	sx_user_mqtt_is_initialized:
 1726              	.LFB566:
 297:SynaptiX_FDK/app/user/sx_mqtt/sx_user_mqtt.c **** 
 1727              		.loc 1 297 43 is_stmt 1 view -0
 1728              		.cfi_startproc
 1729              		@ args = 0, pretend = 0, frame = 0
 1730              		@ frame_needed = 0, uses_anonymous_args = 0
 1731              		@ link register save eliminated.
 297:SynaptiX_FDK/app/user/sx_mqtt/sx_user_mqtt.c **** 
 1732              		.loc 1 297 45 view .LVU391
 297:SynaptiX_FDK/app/user/sx_mqtt/sx_user_mqtt.c **** 
 1733              		.loc 1 297 67 is_stmt 0 view .LVU392
 1734 0000 014B     		ldr	r3, .L113
 1735 0002 1878     		ldrb	r0, [r3]	@ zero_extendqisi2
 1736 0004 7047     		bx	lr
 1737              	.L114:
 1738 0006 00BF     		.align	2
 1739              	.L113:
 1740 0008 00000000 		.word	s_initialized
 1741              		.cfi_endproc
 1742              	.LFE566:
 1744              		.section	.rodata.sx_user_mqtt_stop_service.str1.4,"aMS",%progbits,1
 1745              		.align	2
 1746              	.LC21:
 1747 0000 4D515454 		.ascii	"MQTT service stopped, wait=%lu\000"
 1747      20736572 
 1747      76696365 
 1747      2073746F 
 1747      70706564 
 1748              		.section	.text.sx_user_mqtt_stop_service,"ax",%progbits
 1749              		.align	1
 1750              		.global	sx_user_mqtt_stop_service
 1751              		.syntax unified
 1752              		.thumb
 1753              		.thumb_func
 1755              	sx_user_mqtt_stop_service:
 1756              	.LFB569:
 308:SynaptiX_FDK/app/user/sx_mqtt/sx_user_mqtt.c **** 
 309:SynaptiX_FDK/app/user/sx_mqtt/sx_user_mqtt.c **** void sx_user_mqtt_stop_service(void) {
 1757              		.loc 1 309 38 is_stmt 1 view -0
 1758              		.cfi_startproc
 1759              		@ args = 0, pretend = 0, frame = 0
 1760              		@ frame_needed = 0, uses_anonymous_args = 0
 1761 0000 10B5     		push	{r4, lr}
 1762              	.LCFI31:
 1763              		.cfi_def_cfa_offset 8
 1764              		.cfi_offset 4, -8
 1765              		.cfi_offset 14, -4
ARM GAS  C:\Users\LENOVO\AppData\Local\Temp\ccMn3tk9.s 			page 48


 310:SynaptiX_FDK/app/user/sx_mqtt/sx_user_mqtt.c ****     s_stop_done = 0;
 1766              		.loc 1 310 5 view .LVU394
 1767              		.loc 1 310 17 is_stmt 0 view .LVU395
 1768 0002 1B4B     		ldr	r3, .L123
 1769 0004 0022     		movs	r2, #0
 1770 0006 1A70     		strb	r2, [r3]
 311:SynaptiX_FDK/app/user/sx_mqtt/sx_user_mqtt.c **** 
 312:SynaptiX_FDK/app/user/sx_mqtt/sx_user_mqtt.c ****     if (sx_mqtt_is_connected(&s_mqtt)) {
 1771              		.loc 1 312 5 is_stmt 1 view .LVU396
 1772              	.LVL137:
 1773              	.LBB66:
 1774              	.LBI66:
 102:SynaptiX_FDK/services/mqtt/sx_mqtt.h ****     return (mqtt->state == SX_MQTT_STATE_CONNECTED);
 1775              		.loc 3 102 23 view .LVU397
 1776              	.LBB67:
 103:SynaptiX_FDK/services/mqtt/sx_mqtt.h **** }
 1777              		.loc 3 103 5 view .LVU398
 103:SynaptiX_FDK/services/mqtt/sx_mqtt.h **** }
 1778              		.loc 3 103 17 is_stmt 0 view .LVU399
 1779 0008 1A4B     		ldr	r3, .L123+4
 1780 000a 93F82C30 		ldrb	r3, [r3, #44]	@ zero_extendqisi2
 1781 000e DBB2     		uxtb	r3, r3
 1782              	.LVL138:
 103:SynaptiX_FDK/services/mqtt/sx_mqtt.h **** }
 1783              		.loc 3 103 17 view .LVU400
 1784              	.LBE67:
 1785              	.LBE66:
 1786              		.loc 1 312 8 discriminator 1 view .LVU401
 1787 0010 092B     		cmp	r3, #9
 1788 0012 16D0     		beq	.L122
 313:SynaptiX_FDK/app/user/sx_mqtt/sx_user_mqtt.c ****         sim76xx_mqtt_disconnect(&board.sim76xx, cb_mqtt_disc_done, 5000);
 314:SynaptiX_FDK/app/user/sx_mqtt/sx_user_mqtt.c ****     } else {
 315:SynaptiX_FDK/app/user/sx_mqtt/sx_user_mqtt.c ****         sim76xx_mqtt_stop(&board.sim76xx, cb_mqtt_stop_done, 3000);
 1789              		.loc 1 315 9 is_stmt 1 view .LVU402
 1790 0014 40F6B832 		movw	r2, #3000
 1791 0018 1749     		ldr	r1, .L123+8
 1792 001a 1848     		ldr	r0, .L123+12
 1793 001c FFF7FEFF 		bl	sim76xx_mqtt_stop
 1794              	.LVL139:
 1795              	.L117:
 309:SynaptiX_FDK/app/user/sx_mqtt/sx_user_mqtt.c ****     s_stop_done = 0;
 1796              		.loc 1 309 38 is_stmt 0 view .LVU403
 1797 0020 0024     		movs	r4, #0
 1798              	.L118:
 1799              	.LVL140:
 316:SynaptiX_FDK/app/user/sx_mqtt/sx_user_mqtt.c ****     }
 317:SynaptiX_FDK/app/user/sx_mqtt/sx_user_mqtt.c **** 
 318:SynaptiX_FDK/app/user/sx_mqtt/sx_user_mqtt.c ****     uint32_t wait = 0;
 319:SynaptiX_FDK/app/user/sx_mqtt/sx_user_mqtt.c ****     while (!s_stop_done && wait < 10000) {
 1800              		.loc 1 319 25 is_stmt 1 view .LVU404
 1801              		.loc 1 319 12 is_stmt 0 view .LVU405
 1802 0022 134B     		ldr	r3, .L123
 1803 0024 1B78     		ldrb	r3, [r3]	@ zero_extendqisi2
 1804              		.loc 1 319 25 view .LVU406
 1805 0026 9BB9     		cbnz	r3, .L119
 1806              		.loc 1 319 25 discriminator 1 view .LVU407
 1807 0028 42F20F73 		movw	r3, #9999
ARM GAS  C:\Users\LENOVO\AppData\Local\Temp\ccMn3tk9.s 			page 49


 1808 002c 9C42     		cmp	r4, r3
 1809 002e 0FD8     		bhi	.L119
 320:SynaptiX_FDK/app/user/sx_mqtt/sx_user_mqtt.c ****         sim76xx_poll(&board.sim76xx, 10);  
 1810              		.loc 1 320 9 is_stmt 1 view .LVU408
 1811 0030 0A21     		movs	r1, #10
 1812 0032 1248     		ldr	r0, .L123+12
 1813 0034 FFF7FEFF 		bl	sim76xx_poll
 1814              	.LVL141:
 321:SynaptiX_FDK/app/user/sx_mqtt/sx_user_mqtt.c ****         sx_delay_ms(10);
 1815              		.loc 1 321 9 view .LVU409
 1816 0038 0A20     		movs	r0, #10
 1817 003a FFF7FEFF 		bl	sx_delay_ms
 1818              	.LVL142:
 322:SynaptiX_FDK/app/user/sx_mqtt/sx_user_mqtt.c ****         wait += 10;
 1819              		.loc 1 322 9 view .LVU410
 1820              		.loc 1 322 14 is_stmt 0 view .LVU411
 1821 003e 0A34     		adds	r4, r4, #10
 1822              	.LVL143:
 1823              		.loc 1 322 14 view .LVU412
 1824 0040 EFE7     		b	.L118
 1825              	.LVL144:
 1826              	.L122:
 313:SynaptiX_FDK/app/user/sx_mqtt/sx_user_mqtt.c ****     } else {
 1827              		.loc 1 313 9 is_stmt 1 view .LVU413
 1828 0042 41F28832 		movw	r2, #5000
 1829 0046 0E49     		ldr	r1, .L123+16
 1830 0048 0C48     		ldr	r0, .L123+12
 1831 004a FFF7FEFF 		bl	sim76xx_mqtt_disconnect
 1832              	.LVL145:
 1833 004e E7E7     		b	.L117
 1834              	.LVL146:
 1835              	.L119:
 323:SynaptiX_FDK/app/user/sx_mqtt/sx_user_mqtt.c ****     }
 324:SynaptiX_FDK/app/user/sx_mqtt/sx_user_mqtt.c **** 
 325:SynaptiX_FDK/app/user/sx_mqtt/sx_user_mqtt.c ****     s_mqtt.state             = SX_MQTT_STATE_DISCONNECTED;
 1836              		.loc 1 325 5 view .LVU414
 1837              		.loc 1 325 30 is_stmt 0 view .LVU415
 1838 0050 084B     		ldr	r3, .L123+4
 1839 0052 0022     		movs	r2, #0
 1840 0054 83F82C20 		strb	r2, [r3, #44]
 326:SynaptiX_FDK/app/user/sx_mqtt/sx_user_mqtt.c ****     s_mqtt.reconnect_count   = 0;
 1841              		.loc 1 326 5 is_stmt 1 view .LVU416
 1842              		.loc 1 326 30 is_stmt 0 view .LVU417
 1843 0058 83F8B822 		strb	r2, [r3, #696]
 327:SynaptiX_FDK/app/user/sx_mqtt/sx_user_mqtt.c ****     s_mqtt.reconnect_elapsed = 0;
 1844              		.loc 1 327 5 is_stmt 1 view .LVU418
 1845              		.loc 1 327 30 is_stmt 0 view .LVU419
 1846 005c C3F8B022 		str	r2, [r3, #688]
 328:SynaptiX_FDK/app/user/sx_mqtt/sx_user_mqtt.c **** 
 329:SynaptiX_FDK/app/user/sx_mqtt/sx_user_mqtt.c ****     log_info("USER_MQTT", "MQTT service stopped, wait=%lu", wait);
 1847              		.loc 1 329 5 is_stmt 1 view .LVU420
 1848 0060 2346     		mov	r3, r4
 1849 0062 084A     		ldr	r2, .L123+20
 1850 0064 0849     		ldr	r1, .L123+24
 1851 0066 0320     		movs	r0, #3
 1852 0068 FFF7FEFF 		bl	log_func
 1853              	.LVL147:
ARM GAS  C:\Users\LENOVO\AppData\Local\Temp\ccMn3tk9.s 			page 50


 330:SynaptiX_FDK/app/user/sx_mqtt/sx_user_mqtt.c **** }
 1854              		.loc 1 330 1 is_stmt 0 view .LVU421
 1855 006c 10BD     		pop	{r4, pc}
 1856              	.LVL148:
 1857              	.L124:
 1858              		.loc 1 330 1 view .LVU422
 1859 006e 00BF     		.align	2
 1860              	.L123:
 1861 0070 00000000 		.word	s_stop_done
 1862 0074 00000000 		.word	s_mqtt
 1863 0078 00000000 		.word	cb_mqtt_stop_done
 1864 007c 00000000 		.word	board
 1865 0080 00000000 		.word	cb_mqtt_disc_done
 1866 0084 00000000 		.word	.LC21
 1867 0088 10000000 		.word	.LC1
 1868              		.cfi_endproc
 1869              	.LFE569:
 1871              		.section	.text.sx_user_mqtt_is_publishing,"ax",%progbits
 1872              		.align	1
 1873              		.global	sx_user_mqtt_is_publishing
 1874              		.syntax unified
 1875              		.thumb
 1876              		.thumb_func
 1878              	sx_user_mqtt_is_publishing:
 1879              	.LFB570:
 331:SynaptiX_FDK/app/user/sx_mqtt/sx_user_mqtt.c **** 
 332:SynaptiX_FDK/app/user/sx_mqtt/sx_user_mqtt.c **** uint8_t sx_user_mqtt_is_publishing(void) {
 1880              		.loc 1 332 42 is_stmt 1 view -0
 1881              		.cfi_startproc
 1882              		@ args = 0, pretend = 0, frame = 0
 1883              		@ frame_needed = 0, uses_anonymous_args = 0
 1884              		@ link register save eliminated.
 333:SynaptiX_FDK/app/user/sx_mqtt/sx_user_mqtt.c ****     return s_publishing;
 1885              		.loc 1 333 5 view .LVU424
 334:SynaptiX_FDK/app/user/sx_mqtt/sx_user_mqtt.c **** }
 1886              		.loc 1 334 1 is_stmt 0 view .LVU425
 1887 0000 014B     		ldr	r3, .L126
 1888 0002 1878     		ldrb	r0, [r3]	@ zero_extendqisi2
 1889 0004 7047     		bx	lr
 1890              	.L127:
 1891 0006 00BF     		.align	2
 1892              	.L126:
 1893 0008 00000000 		.word	s_publishing
 1894              		.cfi_endproc
 1895              	.LFE570:
 1897              		.section	.text.sx_user_mqtt_queue_empty,"ax",%progbits
 1898              		.align	1
 1899              		.global	sx_user_mqtt_queue_empty
 1900              		.syntax unified
 1901              		.thumb
 1902              		.thumb_func
 1904              	sx_user_mqtt_queue_empty:
 1905              	.LFB571:
 335:SynaptiX_FDK/app/user/sx_mqtt/sx_user_mqtt.c **** 
 336:SynaptiX_FDK/app/user/sx_mqtt/sx_user_mqtt.c **** uint8_t sx_user_mqtt_queue_empty(void) {
 1906              		.loc 1 336 40 is_stmt 1 view -0
 1907              		.cfi_startproc
ARM GAS  C:\Users\LENOVO\AppData\Local\Temp\ccMn3tk9.s 			page 51


 1908              		@ args = 0, pretend = 0, frame = 0
 1909              		@ frame_needed = 0, uses_anonymous_args = 0
 1910 0000 08B5     		push	{r3, lr}
 1911              	.LCFI32:
 1912              		.cfi_def_cfa_offset 8
 1913              		.cfi_offset 3, -8
 1914              		.cfi_offset 14, -4
 337:SynaptiX_FDK/app/user/sx_mqtt/sx_user_mqtt.c ****     return cqueue_is_empty(&s_queue);
 1915              		.loc 1 337 5 view .LVU427
 1916              		.loc 1 337 12 is_stmt 0 view .LVU428
 1917 0002 0248     		ldr	r0, .L130
 1918 0004 FFF7FEFF 		bl	cqueue_is_empty
 1919              	.LVL149:
 338:SynaptiX_FDK/app/user/sx_mqtt/sx_user_mqtt.c **** }
 1920              		.loc 1 338 1 view .LVU429
 1921 0008 08BD     		pop	{r3, pc}
 1922              	.L131:
 1923 000a 00BF     		.align	2
 1924              	.L130:
 1925 000c 00000000 		.word	s_queue
 1926              		.cfi_endproc
 1927              	.LFE571:
 1929              		.section	.rodata.sx_user_mqtt_queue_flush.str1.4,"aMS",%progbits,1
 1930              		.align	2
 1931              	.LC22:
 1932 0000 51756575 		.ascii	"Queue flushed\000"
 1932      6520666C 
 1932      75736865 
 1932      6400
 1933              		.section	.text.sx_user_mqtt_queue_flush,"ax",%progbits
 1934              		.align	1
 1935              		.global	sx_user_mqtt_queue_flush
 1936              		.syntax unified
 1937              		.thumb
 1938              		.thumb_func
 1940              	sx_user_mqtt_queue_flush:
 1941              	.LFB572:
 339:SynaptiX_FDK/app/user/sx_mqtt/sx_user_mqtt.c **** 
 340:SynaptiX_FDK/app/user/sx_mqtt/sx_user_mqtt.c **** void sx_user_mqtt_queue_flush(void) {
 1942              		.loc 1 340 37 is_stmt 1 view -0
 1943              		.cfi_startproc
 1944              		@ args = 0, pretend = 0, frame = 0
 1945              		@ frame_needed = 0, uses_anonymous_args = 0
 1946 0000 08B5     		push	{r3, lr}
 1947              	.LCFI33:
 1948              		.cfi_def_cfa_offset 8
 1949              		.cfi_offset 3, -8
 1950              		.cfi_offset 14, -4
 341:SynaptiX_FDK/app/user/sx_mqtt/sx_user_mqtt.c ****     cqueue_init_static(&s_queue, s_queue_buf, MQTT_QUEUE_SIZE, sizeof(mqtt_queue_item_t));
 1951              		.loc 1 341 5 view .LVU431
 1952 0002 4FF4C073 		mov	r3, #384
 1953 0006 1022     		movs	r2, #16
 1954 0008 0749     		ldr	r1, .L134
 1955 000a 0848     		ldr	r0, .L134+4
 1956 000c FFF7FEFF 		bl	cqueue_init_static
 1957              	.LVL150:
 342:SynaptiX_FDK/app/user/sx_mqtt/sx_user_mqtt.c ****     s_publishing   = 0;
ARM GAS  C:\Users\LENOVO\AppData\Local\Temp\ccMn3tk9.s 			page 52


 1958              		.loc 1 342 5 view .LVU432
 1959              		.loc 1 342 20 is_stmt 0 view .LVU433
 1960 0010 0023     		movs	r3, #0
 1961 0012 074A     		ldr	r2, .L134+8
 1962 0014 1370     		strb	r3, [r2]
 343:SynaptiX_FDK/app/user/sx_mqtt/sx_user_mqtt.c ****     s_publish_retry = 0;
 1963              		.loc 1 343 5 is_stmt 1 view .LVU434
 1964              		.loc 1 343 21 is_stmt 0 view .LVU435
 1965 0016 074A     		ldr	r2, .L134+12
 1966 0018 1370     		strb	r3, [r2]
 344:SynaptiX_FDK/app/user/sx_mqtt/sx_user_mqtt.c ****     log_info("USER_MQTT", "Queue flushed");
 1967              		.loc 1 344 5 is_stmt 1 view .LVU436
 1968 001a 074A     		ldr	r2, .L134+16
 1969 001c 0749     		ldr	r1, .L134+20
 1970 001e 0320     		movs	r0, #3
 1971 0020 FFF7FEFF 		bl	log_func
 1972              	.LVL151:
 345:SynaptiX_FDK/app/user/sx_mqtt/sx_user_mqtt.c **** }...
 1973              		.loc 1 345 1 is_stmt 0 view .LVU437
 1974 0024 08BD     		pop	{r3, pc}
 1975              	.L135:
 1976 0026 00BF     		.align	2
 1977              	.L134:
 1978 0028 00000000 		.word	s_queue_buf
 1979 002c 00000000 		.word	s_queue
 1980 0030 00000000 		.word	s_publishing
 1981 0034 00000000 		.word	s_publish_retry
 1982 0038 00000000 		.word	.LC22
 1983 003c 10000000 		.word	.LC1
 1984              		.cfi_endproc
 1985              	.LFE572:
 1987              		.section	.bss.mqtt_cfg.0,"aw",%nobits
 1988              		.align	2
 1991              	mqtt_cfg.0:
 1992 0000 00000000 		.space	40
 1992      00000000 
 1992      00000000 
 1992      00000000 
 1992      00000000 
 1993              		.section	.bss.mqtt_cfg.1,"aw",%nobits
 1994              		.align	2
 1997              	mqtt_cfg.1:
 1998 0000 00000000 		.space	40
 1998      00000000 
 1998      00000000 
 1998      00000000 
 1998      00000000 
 1999              		.section	.bss.s_stop_done,"aw",%nobits
 2002              	s_stop_done:
 2003 0000 00       		.space	1
 2004              		.section	.bss.s_publishing,"aw",%nobits
 2007              	s_publishing:
 2008 0000 00       		.space	1
 2009              		.section	.bss.s_initialized,"aw",%nobits
 2012              	s_initialized:
 2013 0000 00       		.space	1
 2014              		.section	.bss.s_last_tick,"aw",%nobits
ARM GAS  C:\Users\LENOVO\AppData\Local\Temp\ccMn3tk9.s 			page 53


 2015              		.align	2
 2018              	s_last_tick:
 2019 0000 00000000 		.space	4
 2020              		.section	.bss.s_client_id_buf,"aw",%nobits
 2021              		.align	2
 2024              	s_client_id_buf:
 2025 0000 00000000 		.space	32
 2025      00000000 
 2025      00000000 
 2025      00000000 
 2025      00000000 
 2026              		.section	.bss.s_on_publish,"aw",%nobits
 2027              		.align	2
 2030              	s_on_publish:
 2031 0000 00000000 		.space	4
 2032              		.section	.bss.s_on_message,"aw",%nobits
 2033              		.align	2
 2036              	s_on_message:
 2037 0000 00000000 		.space	4
 2038              		.section	.bss.s_on_disconnected,"aw",%nobits
 2039              		.align	2
 2042              	s_on_disconnected:
 2043 0000 00000000 		.space	4
 2044              		.section	.bss.s_on_connected,"aw",%nobits
 2045              		.align	2
 2048              	s_on_connected:
 2049 0000 00000000 		.space	4
 2050              		.section	.bss.s_publish_retry,"aw",%nobits
 2053              	s_publish_retry:
 2054 0000 00       		.space	1
 2055              		.section	.bss.s_current_item,"aw",%nobits
 2056              		.align	2
 2059              	s_current_item:
 2060 0000 00000000 		.space	384
 2060      00000000 
 2060      00000000 
 2060      00000000 
 2060      00000000 
 2061              		.section	.bss.s_queue,"aw",%nobits
 2062              		.align	2
 2065              	s_queue:
 2066 0000 00000000 		.space	24
 2066      00000000 
 2066      00000000 
 2066      00000000 
 2066      00000000 
 2067              		.section	.bss.s_queue_buf,"aw",%nobits
 2068              		.align	2
 2071              	s_queue_buf:
 2072 0000 00000000 		.space	6144
 2072      00000000 
 2072      00000000 
 2072      00000000 
 2072      00000000 
 2073              		.global	s_mqtt
 2074              		.section	.bss.s_mqtt,"aw",%nobits
 2075              		.align	2
ARM GAS  C:\Users\LENOVO\AppData\Local\Temp\ccMn3tk9.s 			page 54


 2078              	s_mqtt:
 2079 0000 00000000 		.space	716
 2079      00000000 
 2079      00000000 
 2079      00000000 
 2079      00000000 
 2080              		.text
 2081              	.Letext0:
 2082              		.file 4 "C:\\ST\\STM32CubeCLT_1.20.0\\GNU-tools-for-STM32\\bin/../lib/gcc/arm-none-eabi/13.3.1/../
 2083              		.file 5 "C:\\ST\\STM32CubeCLT_1.20.0\\GNU-tools-for-STM32\\bin/../lib/gcc/arm-none-eabi/13.3.1/../
 2084              		.file 6 "C:\\ST\\STM32CubeCLT_1.20.0\\GNU-tools-for-STM32\\bin/../lib/gcc/arm-none-eabi/13.3.1/inc
 2085              		.file 7 "Drivers/CMSIS/Device/ST/STM32H5xx/Include/stm32h563xx.h"
 2086              		.file 8 "Drivers/STM32H5xx_HAL_Driver/Inc/stm32h5xx_hal_def.h"
 2087              		.file 9 "Drivers/STM32H5xx_HAL_Driver/Inc/stm32h5xx_hal_dma.h"
 2088              		.file 10 "Drivers/STM32H5xx_HAL_Driver/Inc/stm32h5xx_hal_dma_ex.h"
 2089              		.file 11 "Drivers/STM32H5xx_HAL_Driver/Inc/stm32h5xx_ll_lptim.h"
 2090              		.file 12 "Drivers/STM32H5xx_HAL_Driver/Inc/stm32h5xx_hal_spi.h"
 2091              		.file 13 "SynaptiX_FDK/components/gpio/sx_gpio.h"
 2092              		.file 14 "SynaptiX_FDK/components/spi/sx_spi.h"
 2093              		.file 15 "SynaptiX_FDK/utils/cqueue/cqueue.h"
 2094              		.file 16 "SynaptiX_FDK/components/uart/sx_uart.h"
 2095              		.file 17 "C:\\ST\\STM32CubeCLT_1.20.0\\GNU-tools-for-STM32\\bin/../lib/gcc/arm-none-eabi/13.3.1/..
 2096              		.file 18 "SynaptiX_FDK/components/gps/minmea.h"
 2097              		.file 19 "SynaptiX_FDK/components/gps/gps.h"
 2098              		.file 20 "SynaptiX_FDK/components/modem/modem.h"
 2099              		.file 21 "SynaptiX_FDK/services/logger/logger.h"
 2100              		.file 22 "SynaptiX_FDK/components/external_flash/sx_W25Q128.h"
 2101              		.file 23 "SynaptiX_FDK/app/user/sx_ex_storage/sx_ex_storage.h"
 2102              		.file 24 "SynaptiX_FDK/components/usb_cdc_tiny/sx_usb_tiny_cdc.h"
 2103              		.file 25 "SynaptiX_FDK/components/i2c/sx_i2c.h"
 2104              		.file 26 "SynaptiX_FDK/components/rtc/sx_ex_rtc.h"
 2105              		.file 27 "SynaptiX_FDK/components/imu/bno055.h"
 2106              		.file 28 "SynaptiX_FDK/utils/filter/sx_filter.h"
 2107              		.file 29 "SynaptiX_FDK/services/read_bat/sx_read_bat.h"
 2108              		.file 30 "SynaptiX_FDK/board/sx_board.h"
 2109              		.file 31 "SynaptiX_FDK/app/user/sx_mqtt/sx_user_mqtt.h"
 2110              		.file 32 "SynaptiX_FDK/utils/delay/sx_delay.h"
 2111              		.file 33 "C:\\ST\\STM32CubeCLT_1.20.0\\GNU-tools-for-STM32\\bin/../lib/gcc/arm-none-eabi/13.3.1/..
 2112              		.file 34 "C:\\ST\\STM32CubeCLT_1.20.0\\GNU-tools-for-STM32\\bin/../lib/gcc/arm-none-eabi/13.3.1/..
 2113              		.file 35 "<built-in>"
ARM GAS  C:\Users\LENOVO\AppData\Local\Temp\ccMn3tk9.s 			page 55

