ARM GAS  C:\Users\LENOVO\AppData\Local\Temp\ccFz3vhf.s 			page 1


   1              		.cpu cortex-m33
   2              		.arch armv8-m.main
   3              		.fpu fpv5-sp-d16
   4              		.arch_extension dsp
   5              		.eabi_attribute 27, 1
   6              		.eabi_attribute 28, 1
   7              		.eabi_attribute 20, 1
   8              		.eabi_attribute 21, 1
   9              		.eabi_attribute 23, 3
  10              		.eabi_attribute 24, 1
  11              		.eabi_attribute 25, 1
  12              		.eabi_attribute 26, 1
  13              		.eabi_attribute 30, 1
  14              		.eabi_attribute 34, 1
  15              		.eabi_attribute 18, 4
  16              		.file	"sx_W25Q128.c"
  17              		.text
  18              	.Ltext0:
  19              		.cfi_sections	.debug_frame
  20              		.file 1 "SynaptiX_FDK/components/external_flash/sx_W25Q128.c"
  21              		.section	.text.sx_gpio_write,"ax",%progbits
  22              		.align	1
  23              		.syntax unified
  24              		.thumb
  25              		.thumb_func
  27              	sx_gpio_write:
  28              	.LVL0:
  29              	.LFB1:
  30              		.file 2 "SynaptiX_FDK/components/gpio/sx_gpio.h"
   1:SynaptiX_FDK/components/gpio/sx_gpio.h **** #ifndef SX_GPIO_H
   2:SynaptiX_FDK/components/gpio/sx_gpio.h **** #define SX_GPIO_H
   3:SynaptiX_FDK/components/gpio/sx_gpio.h **** #ifdef __cplusplus
   4:SynaptiX_FDK/components/gpio/sx_gpio.h **** extern "C" {
   5:SynaptiX_FDK/components/gpio/sx_gpio.h **** #endif
   6:SynaptiX_FDK/components/gpio/sx_gpio.h **** 
   7:SynaptiX_FDK/components/gpio/sx_gpio.h **** #include <stdint.h>
   8:SynaptiX_FDK/components/gpio/sx_gpio.h **** 
   9:SynaptiX_FDK/components/gpio/sx_gpio.h **** typedef enum SX_GPIO_VALUE{
  10:SynaptiX_FDK/components/gpio/sx_gpio.h ****     SX_GPIO_LOW = 0,
  11:SynaptiX_FDK/components/gpio/sx_gpio.h ****     SX_GPIO_HIGH = 1
  12:SynaptiX_FDK/components/gpio/sx_gpio.h **** } SX_GPIO_VALUE;
  13:SynaptiX_FDK/components/gpio/sx_gpio.h **** 
  14:SynaptiX_FDK/components/gpio/sx_gpio.h **** typedef struct sx_gpio sx_gpio_t;
  15:SynaptiX_FDK/components/gpio/sx_gpio.h **** 
  16:SynaptiX_FDK/components/gpio/sx_gpio.h **** typedef struct {
  17:SynaptiX_FDK/components/gpio/sx_gpio.h ****     void    *port;
  18:SynaptiX_FDK/components/gpio/sx_gpio.h ****     uint16_t pin;
  19:SynaptiX_FDK/components/gpio/sx_gpio.h **** } sx_gpio_pin_t;
  20:SynaptiX_FDK/components/gpio/sx_gpio.h **** 
  21:SynaptiX_FDK/components/gpio/sx_gpio.h **** typedef struct sx_gpio_ops{
  22:SynaptiX_FDK/components/gpio/sx_gpio.h ****     int (*write)(sx_gpio_t *gpio, SX_GPIO_VALUE value);
  23:SynaptiX_FDK/components/gpio/sx_gpio.h ****     int (*read)(sx_gpio_t *gpio, SX_GPIO_VALUE *value);
  24:SynaptiX_FDK/components/gpio/sx_gpio.h ****     int (*toggle)(sx_gpio_t *gpio);
  25:SynaptiX_FDK/components/gpio/sx_gpio.h **** } sx_gpio_ops_t;
  26:SynaptiX_FDK/components/gpio/sx_gpio.h **** 
  27:SynaptiX_FDK/components/gpio/sx_gpio.h **** typedef struct sx_gpio{
  28:SynaptiX_FDK/components/gpio/sx_gpio.h ****     sx_gpio_ops_t *ops;
ARM GAS  C:\Users\LENOVO\AppData\Local\Temp\ccFz3vhf.s 			page 2


  29:SynaptiX_FDK/components/gpio/sx_gpio.h ****     void *pDriver;
  30:SynaptiX_FDK/components/gpio/sx_gpio.h ****     SX_GPIO_VALUE value;
  31:SynaptiX_FDK/components/gpio/sx_gpio.h **** } sx_gpio_t;
  32:SynaptiX_FDK/components/gpio/sx_gpio.h **** 
  33:SynaptiX_FDK/components/gpio/sx_gpio.h **** static inline void sx_gpio_init(sx_gpio_t *gpio, sx_gpio_ops_t *ops, void *pDriver){
  34:SynaptiX_FDK/components/gpio/sx_gpio.h ****     gpio->ops = ops;
  35:SynaptiX_FDK/components/gpio/sx_gpio.h ****     gpio->pDriver = pDriver;
  36:SynaptiX_FDK/components/gpio/sx_gpio.h ****     gpio->value = SX_GPIO_LOW;
  37:SynaptiX_FDK/components/gpio/sx_gpio.h **** }
  38:SynaptiX_FDK/components/gpio/sx_gpio.h **** 
  39:SynaptiX_FDK/components/gpio/sx_gpio.h **** static inline int sx_gpio_write(sx_gpio_t *gpio, SX_GPIO_VALUE value){
  31              		.loc 2 39 70 view -0
  32              		.cfi_startproc
  33              		@ args = 0, pretend = 0, frame = 0
  34              		@ frame_needed = 0, uses_anonymous_args = 0
  35              		.loc 2 39 70 is_stmt 0 view .LVU1
  36 0000 38B5     		push	{r3, r4, r5, lr}
  37              	.LCFI0:
  38              		.cfi_def_cfa_offset 16
  39              		.cfi_offset 3, -16
  40              		.cfi_offset 4, -12
  41              		.cfi_offset 5, -8
  42              		.cfi_offset 14, -4
  40:SynaptiX_FDK/components/gpio/sx_gpio.h ****     if(gpio->ops && gpio->ops->write){
  43              		.loc 2 40 5 is_stmt 1 view .LVU2
  44              		.loc 2 40 12 is_stmt 0 view .LVU3
  45 0002 0368     		ldr	r3, [r0]
  46              		.loc 2 40 7 view .LVU4
  47 0004 3BB1     		cbz	r3, .L4
  48 0006 0446     		mov	r4, r0
  49 0008 0D46     		mov	r5, r1
  50              		.loc 2 40 30 discriminator 1 view .LVU5
  51 000a 1B68     		ldr	r3, [r3]
  52              		.loc 2 40 18 discriminator 1 view .LVU6
  53 000c 33B1     		cbz	r3, .L5
  54              	.LBB4:
  41:SynaptiX_FDK/components/gpio/sx_gpio.h ****         int ret = gpio->ops->write(gpio, value);
  55              		.loc 2 41 9 is_stmt 1 view .LVU7
  56              		.loc 2 41 19 is_stmt 0 view .LVU8
  57 000e 9847     		blx	r3
  58              	.LVL1:
  42:SynaptiX_FDK/components/gpio/sx_gpio.h ****         if(ret == 0){
  59              		.loc 2 42 9 is_stmt 1 view .LVU9
  60              		.loc 2 42 11 is_stmt 0 view .LVU10
  61 0010 00B9     		cbnz	r0, .L1
  43:SynaptiX_FDK/components/gpio/sx_gpio.h ****             gpio->value = value;
  62              		.loc 2 43 13 is_stmt 1 view .LVU11
  63              		.loc 2 43 25 is_stmt 0 view .LVU12
  64 0012 2572     		strb	r5, [r4, #8]
  44:SynaptiX_FDK/components/gpio/sx_gpio.h ****         }
  45:SynaptiX_FDK/components/gpio/sx_gpio.h ****         return ret;
  65              		.loc 2 45 9 is_stmt 1 view .LVU13
  66              	.LVL2:
  67              	.L1:
  68              		.loc 2 45 9 is_stmt 0 view .LVU14
  69              	.LBE4:
  46:SynaptiX_FDK/components/gpio/sx_gpio.h ****     }
ARM GAS  C:\Users\LENOVO\AppData\Local\Temp\ccFz3vhf.s 			page 3


  47:SynaptiX_FDK/components/gpio/sx_gpio.h ****     return -1;
  48:SynaptiX_FDK/components/gpio/sx_gpio.h **** }
  70              		.loc 2 48 1 view .LVU15
  71 0014 38BD     		pop	{r3, r4, r5, pc}
  72              	.LVL3:
  73              	.L4:
  47:SynaptiX_FDK/components/gpio/sx_gpio.h **** }
  74              		.loc 2 47 12 view .LVU16
  75 0016 4FF0FF30 		mov	r0, #-1
  76              	.LVL4:
  47:SynaptiX_FDK/components/gpio/sx_gpio.h **** }
  77              		.loc 2 47 12 view .LVU17
  78 001a FBE7     		b	.L1
  79              	.LVL5:
  80              	.L5:
  47:SynaptiX_FDK/components/gpio/sx_gpio.h **** }
  81              		.loc 2 47 12 view .LVU18
  82 001c 4FF0FF30 		mov	r0, #-1
  83              	.LVL6:
  47:SynaptiX_FDK/components/gpio/sx_gpio.h **** }
  84              		.loc 2 47 12 view .LVU19
  85 0020 F8E7     		b	.L1
  86              		.cfi_endproc
  87              	.LFE1:
  89              		.section	.text.sx_spi_write,"ax",%progbits
  90              		.align	1
  91              		.syntax unified
  92              		.thumb
  93              		.thumb_func
  95              	sx_spi_write:
  96              	.LVL7:
  97              	.LFB506:
  98              		.file 3 "SynaptiX_FDK/components/spi/sx_spi.h"
   1:SynaptiX_FDK/components/spi/sx_spi.h **** #ifndef SX_SPI_H
   2:SynaptiX_FDK/components/spi/sx_spi.h **** #define SX_SPI_H
   3:SynaptiX_FDK/components/spi/sx_spi.h **** #ifdef __cplusplus
   4:SynaptiX_FDK/components/spi/sx_spi.h **** extern "C" {
   5:SynaptiX_FDK/components/spi/sx_spi.h **** #endif
   6:SynaptiX_FDK/components/spi/sx_spi.h **** 
   7:SynaptiX_FDK/components/spi/sx_spi.h **** #include <stdint.h>
   8:SynaptiX_FDK/components/spi/sx_spi.h **** #include "sx_gpio.h"
   9:SynaptiX_FDK/components/spi/sx_spi.h **** 
  10:SynaptiX_FDK/components/spi/sx_spi.h **** typedef struct sx_spi sx_spi_t;
  11:SynaptiX_FDK/components/spi/sx_spi.h **** 
  12:SynaptiX_FDK/components/spi/sx_spi.h **** typedef struct sx_spi_ops{
  13:SynaptiX_FDK/components/spi/sx_spi.h ****     int (*write)(sx_spi_t *spi, const uint8_t *data, uint32_t len);
  14:SynaptiX_FDK/components/spi/sx_spi.h ****     int (*read)(sx_spi_t *spi, uint8_t *data, uint32_t len);
  15:SynaptiX_FDK/components/spi/sx_spi.h ****     int (*write_read)(sx_spi_t *spi, const uint8_t *tx_buf, uint8_t *rx_buf, uint32_t len);
  16:SynaptiX_FDK/components/spi/sx_spi.h **** } sx_spi_ops_t;
  17:SynaptiX_FDK/components/spi/sx_spi.h **** 
  18:SynaptiX_FDK/components/spi/sx_spi.h **** struct sx_spi
  19:SynaptiX_FDK/components/spi/sx_spi.h **** {
  20:SynaptiX_FDK/components/spi/sx_spi.h ****     /* data */
  21:SynaptiX_FDK/components/spi/sx_spi.h ****     sx_spi_ops_t *ops;
  22:SynaptiX_FDK/components/spi/sx_spi.h ****     void *pDriver;
  23:SynaptiX_FDK/components/spi/sx_spi.h ****     sx_gpio_t *cs;
  24:SynaptiX_FDK/components/spi/sx_spi.h **** };
ARM GAS  C:\Users\LENOVO\AppData\Local\Temp\ccFz3vhf.s 			page 4


  25:SynaptiX_FDK/components/spi/sx_spi.h **** 
  26:SynaptiX_FDK/components/spi/sx_spi.h **** static inline void sx_spi_init(sx_spi_t *spi, sx_spi_ops_t *ops, void *pDriver, sx_gpio_t *cs){
  27:SynaptiX_FDK/components/spi/sx_spi.h ****     spi->ops = ops;
  28:SynaptiX_FDK/components/spi/sx_spi.h ****     spi->pDriver = pDriver;
  29:SynaptiX_FDK/components/spi/sx_spi.h ****     spi->cs = cs;
  30:SynaptiX_FDK/components/spi/sx_spi.h **** }
  31:SynaptiX_FDK/components/spi/sx_spi.h **** 
  32:SynaptiX_FDK/components/spi/sx_spi.h **** static inline int sx_spi_write(sx_spi_t *spi, const uint8_t *data, uint32_t len){
  99              		.loc 3 32 81 is_stmt 1 view -0
 100              		.cfi_startproc
 101              		@ args = 0, pretend = 0, frame = 0
 102              		@ frame_needed = 0, uses_anonymous_args = 0
 103              		.loc 3 32 81 is_stmt 0 view .LVU21
 104 0000 08B5     		push	{r3, lr}
 105              	.LCFI1:
 106              		.cfi_def_cfa_offset 8
 107              		.cfi_offset 3, -8
 108              		.cfi_offset 14, -4
  33:SynaptiX_FDK/components/spi/sx_spi.h ****     if(spi->ops && spi->ops->write){
 109              		.loc 3 33 5 is_stmt 1 view .LVU22
 110              		.loc 3 33 11 is_stmt 0 view .LVU23
 111 0002 0368     		ldr	r3, [r0]
 112              		.loc 3 33 7 view .LVU24
 113 0004 1BB1     		cbz	r3, .L9
 114              		.loc 3 33 28 discriminator 1 view .LVU25
 115 0006 1B68     		ldr	r3, [r3]
 116              		.loc 3 33 17 discriminator 1 view .LVU26
 117 0008 23B1     		cbz	r3, .L10
  34:SynaptiX_FDK/components/spi/sx_spi.h ****         return spi->ops->write(spi, data, len);
 118              		.loc 3 34 9 is_stmt 1 view .LVU27
 119              		.loc 3 34 16 is_stmt 0 view .LVU28
 120 000a 9847     		blx	r3
 121              	.LVL8:
 122              	.L7:
  35:SynaptiX_FDK/components/spi/sx_spi.h ****     }
  36:SynaptiX_FDK/components/spi/sx_spi.h ****     return -1;
  37:SynaptiX_FDK/components/spi/sx_spi.h **** }
 123              		.loc 3 37 1 view .LVU29
 124 000c 08BD     		pop	{r3, pc}
 125              	.LVL9:
 126              	.L9:
  36:SynaptiX_FDK/components/spi/sx_spi.h **** }
 127              		.loc 3 36 12 view .LVU30
 128 000e 4FF0FF30 		mov	r0, #-1
 129              	.LVL10:
  36:SynaptiX_FDK/components/spi/sx_spi.h **** }
 130              		.loc 3 36 12 view .LVU31
 131 0012 FBE7     		b	.L7
 132              	.LVL11:
 133              	.L10:
  36:SynaptiX_FDK/components/spi/sx_spi.h **** }
 134              		.loc 3 36 12 view .LVU32
 135 0014 4FF0FF30 		mov	r0, #-1
 136              	.LVL12:
  36:SynaptiX_FDK/components/spi/sx_spi.h **** }
 137              		.loc 3 36 12 view .LVU33
 138 0018 F8E7     		b	.L7
ARM GAS  C:\Users\LENOVO\AppData\Local\Temp\ccFz3vhf.s 			page 5


 139              		.cfi_endproc
 140              	.LFE506:
 142              		.section	.text.sx_spi_write_read,"ax",%progbits
 143              		.align	1
 144              		.syntax unified
 145              		.thumb
 146              		.thumb_func
 148              	sx_spi_write_read:
 149              	.LVL13:
 150              	.LFB508:
  38:SynaptiX_FDK/components/spi/sx_spi.h **** 
  39:SynaptiX_FDK/components/spi/sx_spi.h **** static inline int sx_spi_read(sx_spi_t *spi, uint8_t *data, uint32_t len){
  40:SynaptiX_FDK/components/spi/sx_spi.h ****     if(spi->ops && spi->ops->read){
  41:SynaptiX_FDK/components/spi/sx_spi.h ****         return spi->ops->read(spi, data, len);
  42:SynaptiX_FDK/components/spi/sx_spi.h ****     }
  43:SynaptiX_FDK/components/spi/sx_spi.h ****     return -1;
  44:SynaptiX_FDK/components/spi/sx_spi.h **** }
  45:SynaptiX_FDK/components/spi/sx_spi.h **** 
  46:SynaptiX_FDK/components/spi/sx_spi.h **** static inline int sx_spi_write_read(sx_spi_t *spi, const uint8_t *tx_buf, uint8_t *rx_buf, uint32_t
 151              		.loc 3 46 105 is_stmt 1 view -0
 152              		.cfi_startproc
 153              		@ args = 0, pretend = 0, frame = 0
 154              		@ frame_needed = 0, uses_anonymous_args = 0
 155              		.loc 3 46 105 is_stmt 0 view .LVU35
 156 0000 10B5     		push	{r4, lr}
 157              	.LCFI2:
 158              		.cfi_def_cfa_offset 8
 159              		.cfi_offset 4, -8
 160              		.cfi_offset 14, -4
  47:SynaptiX_FDK/components/spi/sx_spi.h ****     if(spi->ops && spi->ops->write_read){
 161              		.loc 3 47 5 is_stmt 1 view .LVU36
 162              		.loc 3 47 11 is_stmt 0 view .LVU37
 163 0002 0468     		ldr	r4, [r0]
 164              		.loc 3 47 7 view .LVU38
 165 0004 1CB1     		cbz	r4, .L14
 166              		.loc 3 47 28 discriminator 1 view .LVU39
 167 0006 A468     		ldr	r4, [r4, #8]
 168              		.loc 3 47 17 discriminator 1 view .LVU40
 169 0008 24B1     		cbz	r4, .L15
  48:SynaptiX_FDK/components/spi/sx_spi.h ****         return spi->ops->write_read(spi, tx_buf, rx_buf, len);
 170              		.loc 3 48 9 is_stmt 1 view .LVU41
 171              		.loc 3 48 16 is_stmt 0 view .LVU42
 172 000a A047     		blx	r4
 173              	.LVL14:
 174              	.L12:
  49:SynaptiX_FDK/components/spi/sx_spi.h ****     }
  50:SynaptiX_FDK/components/spi/sx_spi.h ****     return -1;
  51:SynaptiX_FDK/components/spi/sx_spi.h **** }
 175              		.loc 3 51 1 view .LVU43
 176 000c 10BD     		pop	{r4, pc}
 177              	.LVL15:
 178              	.L14:
  50:SynaptiX_FDK/components/spi/sx_spi.h **** }
 179              		.loc 3 50 12 view .LVU44
 180 000e 4FF0FF30 		mov	r0, #-1
 181              	.LVL16:
  50:SynaptiX_FDK/components/spi/sx_spi.h **** }
ARM GAS  C:\Users\LENOVO\AppData\Local\Temp\ccFz3vhf.s 			page 6


 182              		.loc 3 50 12 view .LVU45
 183 0012 FBE7     		b	.L12
 184              	.LVL17:
 185              	.L15:
  50:SynaptiX_FDK/components/spi/sx_spi.h **** }
 186              		.loc 3 50 12 view .LVU46
 187 0014 4FF0FF30 		mov	r0, #-1
 188              	.LVL18:
  50:SynaptiX_FDK/components/spi/sx_spi.h **** }
 189              		.loc 3 50 12 view .LVU47
 190 0018 F8E7     		b	.L12
 191              		.cfi_endproc
 192              	.LFE508:
 194              		.section	.text.w25q_write_enable,"ax",%progbits
 195              		.align	1
 196              		.syntax unified
 197              		.thumb
 198              		.thumb_func
 200              	w25q_write_enable:
 201              	.LFB514:
   1:SynaptiX_FDK/components/external_flash/sx_W25Q128.c **** #include "sx_external_flash.h"
   2:SynaptiX_FDK/components/external_flash/sx_W25Q128.c **** #include "sx_W25Q128.h"
   3:SynaptiX_FDK/components/external_flash/sx_W25Q128.c **** #include "sx_spi.h"
   4:SynaptiX_FDK/components/external_flash/sx_W25Q128.c **** #include "logger.h"
   5:SynaptiX_FDK/components/external_flash/sx_W25Q128.c **** #include "string.h"
   6:SynaptiX_FDK/components/external_flash/sx_W25Q128.c **** #include "sx_delay.h"
   7:SynaptiX_FDK/components/external_flash/sx_W25Q128.c **** 
   8:SynaptiX_FDK/components/external_flash/sx_W25Q128.c **** #define W25Q128_MAX_READ_LEN  256U
   9:SynaptiX_FDK/components/external_flash/sx_W25Q128.c **** 
  10:SynaptiX_FDK/components/external_flash/sx_W25Q128.c **** static const char *TAG = "W25Q128";
  11:SynaptiX_FDK/components/external_flash/sx_W25Q128.c **** static sx_W25Q128_t *s_dev = NULL;
  12:SynaptiX_FDK/components/external_flash/sx_W25Q128.c **** 
  13:SynaptiX_FDK/components/external_flash/sx_W25Q128.c **** sx_ext_flash_ops_t sx_W25Q128_ops = {
  14:SynaptiX_FDK/components/external_flash/sx_W25Q128.c ****     .read         = sx_W25Q128_read,
  15:SynaptiX_FDK/components/external_flash/sx_W25Q128.c ****     .write        = sx_W25Q128_write,
  16:SynaptiX_FDK/components/external_flash/sx_W25Q128.c ****     .erase_sector = sx_W25Q128_erase_sector,
  17:SynaptiX_FDK/components/external_flash/sx_W25Q128.c ****     .is_busy      = sx_W25Q128_is_busy,
  18:SynaptiX_FDK/components/external_flash/sx_W25Q128.c **** };
  19:SynaptiX_FDK/components/external_flash/sx_W25Q128.c **** 
  20:SynaptiX_FDK/components/external_flash/sx_W25Q128.c **** sx_ext_flash_info_t sx_W25Q128_info = {
  21:SynaptiX_FDK/components/external_flash/sx_W25Q128.c ****     .page_size   = W25Q128_PAGE_SIZE,
  22:SynaptiX_FDK/components/external_flash/sx_W25Q128.c ****     .sector_size = W25Q128_SECTOR_SIZE,
  23:SynaptiX_FDK/components/external_flash/sx_W25Q128.c ****     .block_size  = W25Q128_BLOCK_SIZE,
  24:SynaptiX_FDK/components/external_flash/sx_W25Q128.c ****     .total_bytes = W25Q128_TOTAL_BYTES,
  25:SynaptiX_FDK/components/external_flash/sx_W25Q128.c **** };
  26:SynaptiX_FDK/components/external_flash/sx_W25Q128.c **** 
  27:SynaptiX_FDK/components/external_flash/sx_W25Q128.c **** static bool w25q_write_enable(void)
  28:SynaptiX_FDK/components/external_flash/sx_W25Q128.c **** {
 202              		.loc 1 28 1 is_stmt 1 view -0
 203              		.cfi_startproc
 204              		@ args = 0, pretend = 0, frame = 8
 205              		@ frame_needed = 0, uses_anonymous_args = 0
 206 0000 00B5     		push	{lr}
 207              	.LCFI3:
 208              		.cfi_def_cfa_offset 4
 209              		.cfi_offset 14, -4
 210 0002 83B0     		sub	sp, sp, #12
ARM GAS  C:\Users\LENOVO\AppData\Local\Temp\ccFz3vhf.s 			page 7


 211              	.LCFI4:
 212              		.cfi_def_cfa_offset 16
  29:SynaptiX_FDK/components/external_flash/sx_W25Q128.c ****     uint8_t cmd = W25Q128_CMD_WRITE_ENABLE;
 213              		.loc 1 29 5 view .LVU49
 214              		.loc 1 29 13 is_stmt 0 view .LVU50
 215 0004 0623     		movs	r3, #6
 216 0006 8DF80730 		strb	r3, [sp, #7]
  30:SynaptiX_FDK/components/external_flash/sx_W25Q128.c ****     return (sx_spi_write(s_dev->spi, &cmd, 1) == 0);
 217              		.loc 1 30 5 is_stmt 1 view .LVU51
 218              		.loc 1 30 31 is_stmt 0 view .LVU52
 219 000a 074B     		ldr	r3, .L19
 220 000c 1B68     		ldr	r3, [r3]
 221              		.loc 1 30 13 view .LVU53
 222 000e 0122     		movs	r2, #1
 223 0010 0DF10701 		add	r1, sp, #7
 224 0014 1868     		ldr	r0, [r3]
 225 0016 FFF7FEFF 		bl	sx_spi_write
 226              	.LVL19:
  31:SynaptiX_FDK/components/external_flash/sx_W25Q128.c **** }
 227              		.loc 1 31 1 view .LVU54
 228 001a B0FA80F0 		clz	r0, r0
 229 001e 4009     		lsrs	r0, r0, #5
 230 0020 03B0     		add	sp, sp, #12
 231              	.LCFI5:
 232              		.cfi_def_cfa_offset 4
 233              		@ sp needed
 234 0022 5DF804FB 		ldr	pc, [sp], #4
 235              	.L20:
 236 0026 00BF     		.align	2
 237              	.L19:
 238 0028 00000000 		.word	s_dev
 239              		.cfi_endproc
 240              	.LFE514:
 242              		.section	.text.sx_W25Q128_is_busy,"ax",%progbits
 243              		.align	1
 244              		.global	sx_W25Q128_is_busy
 245              		.syntax unified
 246              		.thumb
 247              		.thumb_func
 249              	sx_W25Q128_is_busy:
 250              	.LFB518:
  32:SynaptiX_FDK/components/external_flash/sx_W25Q128.c **** 
  33:SynaptiX_FDK/components/external_flash/sx_W25Q128.c **** static void w25q_wait_busy(void)
  34:SynaptiX_FDK/components/external_flash/sx_W25Q128.c **** {
  35:SynaptiX_FDK/components/external_flash/sx_W25Q128.c ****     uint8_t tx[2] = { W25Q128_CMD_READ_STATUS1, 0xFF };
  36:SynaptiX_FDK/components/external_flash/sx_W25Q128.c ****     uint8_t rx[2];
  37:SynaptiX_FDK/components/external_flash/sx_W25Q128.c ****     uint32_t timeout = 500;
  38:SynaptiX_FDK/components/external_flash/sx_W25Q128.c ****     do {
  39:SynaptiX_FDK/components/external_flash/sx_W25Q128.c ****         sx_delay_ms(5);
  40:SynaptiX_FDK/components/external_flash/sx_W25Q128.c ****         sx_spi_write_read(s_dev->spi, tx, rx, 2);
  41:SynaptiX_FDK/components/external_flash/sx_W25Q128.c ****         if (--timeout == 0) {
  42:SynaptiX_FDK/components/external_flash/sx_W25Q128.c ****             log_error("W25Q128", "wait_busy TIMEOUT STATUS=0x%02X", rx[1]);
  43:SynaptiX_FDK/components/external_flash/sx_W25Q128.c ****             return;
  44:SynaptiX_FDK/components/external_flash/sx_W25Q128.c ****         }
  45:SynaptiX_FDK/components/external_flash/sx_W25Q128.c ****     } while (rx[1] & W25Q128_STATUS1_BUSY);
  46:SynaptiX_FDK/components/external_flash/sx_W25Q128.c **** 
  47:SynaptiX_FDK/components/external_flash/sx_W25Q128.c ****     // Read it twice :)) - DONT EDIT IT!!!!!!
ARM GAS  C:\Users\LENOVO\AppData\Local\Temp\ccFz3vhf.s 			page 8


  48:SynaptiX_FDK/components/external_flash/sx_W25Q128.c ****     sx_delay_ms(1);
  49:SynaptiX_FDK/components/external_flash/sx_W25Q128.c ****     sx_spi_write_read(s_dev->spi, tx, rx, 2);
  50:SynaptiX_FDK/components/external_flash/sx_W25Q128.c ****     if (rx[1] & W25Q128_STATUS1_BUSY) {
  51:SynaptiX_FDK/components/external_flash/sx_W25Q128.c ****         log_error("W25Q128", "still BUSY after confirm, STATUS=0x%02X", rx[1]);
  52:SynaptiX_FDK/components/external_flash/sx_W25Q128.c ****         timeout = 500;
  53:SynaptiX_FDK/components/external_flash/sx_W25Q128.c ****         do {
  54:SynaptiX_FDK/components/external_flash/sx_W25Q128.c ****             sx_delay_ms(5);
  55:SynaptiX_FDK/components/external_flash/sx_W25Q128.c ****             sx_spi_write_read(s_dev->spi, tx, rx, 2);
  56:SynaptiX_FDK/components/external_flash/sx_W25Q128.c ****             if (--timeout == 0) {
  57:SynaptiX_FDK/components/external_flash/sx_W25Q128.c ****                 log_error("W25Q128", "wait_busy TIMEOUT2 STATUS=0x%02X", rx[1]);
  58:SynaptiX_FDK/components/external_flash/sx_W25Q128.c ****                 return;
  59:SynaptiX_FDK/components/external_flash/sx_W25Q128.c ****             }
  60:SynaptiX_FDK/components/external_flash/sx_W25Q128.c ****         } while (rx[1] & W25Q128_STATUS1_BUSY);
  61:SynaptiX_FDK/components/external_flash/sx_W25Q128.c ****     }
  62:SynaptiX_FDK/components/external_flash/sx_W25Q128.c **** }
  63:SynaptiX_FDK/components/external_flash/sx_W25Q128.c **** 
  64:SynaptiX_FDK/components/external_flash/sx_W25Q128.c **** static void w25q_wait_busy_long(uint32_t timeout_ms)
  65:SynaptiX_FDK/components/external_flash/sx_W25Q128.c **** {
  66:SynaptiX_FDK/components/external_flash/sx_W25Q128.c ****     uint8_t tx[2] = { W25Q128_CMD_READ_STATUS1, 0xFF };
  67:SynaptiX_FDK/components/external_flash/sx_W25Q128.c ****     uint8_t rx[2];
  68:SynaptiX_FDK/components/external_flash/sx_W25Q128.c ****     uint32_t elapsed = 0;
  69:SynaptiX_FDK/components/external_flash/sx_W25Q128.c **** 
  70:SynaptiX_FDK/components/external_flash/sx_W25Q128.c ****     do {
  71:SynaptiX_FDK/components/external_flash/sx_W25Q128.c ****         sx_delay_ms(100);           
  72:SynaptiX_FDK/components/external_flash/sx_W25Q128.c ****         elapsed += 100;
  73:SynaptiX_FDK/components/external_flash/sx_W25Q128.c ****         sx_spi_write_read(s_dev->spi, tx, rx, 2);
  74:SynaptiX_FDK/components/external_flash/sx_W25Q128.c ****         if (elapsed >= timeout_ms) {
  75:SynaptiX_FDK/components/external_flash/sx_W25Q128.c ****             log_error("W25Q128", "wait_busy_long TIMEOUT STATUS=0x%02X", rx[1]);
  76:SynaptiX_FDK/components/external_flash/sx_W25Q128.c ****             return;
  77:SynaptiX_FDK/components/external_flash/sx_W25Q128.c ****         }
  78:SynaptiX_FDK/components/external_flash/sx_W25Q128.c ****     } while (rx[1] & W25Q128_STATUS1_BUSY);
  79:SynaptiX_FDK/components/external_flash/sx_W25Q128.c **** 
  80:SynaptiX_FDK/components/external_flash/sx_W25Q128.c ****     log_info("W25Q128", "wait_busy_long done in %lu ms", (unsigned long)elapsed);
  81:SynaptiX_FDK/components/external_flash/sx_W25Q128.c **** }
  82:SynaptiX_FDK/components/external_flash/sx_W25Q128.c **** 
  83:SynaptiX_FDK/components/external_flash/sx_W25Q128.c **** /*API*/
  84:SynaptiX_FDK/components/external_flash/sx_W25Q128.c **** 
  85:SynaptiX_FDK/components/external_flash/sx_W25Q128.c **** bool sx_W25Q128_init(sx_W25Q128_t *dev, sx_spi_t *spi, sx_gpio_ops_t *pwr_ops, sx_gpio_pin_t *pwr_p
  86:SynaptiX_FDK/components/external_flash/sx_W25Q128.c **** {
  87:SynaptiX_FDK/components/external_flash/sx_W25Q128.c ****     dev->spi         = spi;
  88:SynaptiX_FDK/components/external_flash/sx_W25Q128.c ****     dev->initialized = false;
  89:SynaptiX_FDK/components/external_flash/sx_W25Q128.c ****     s_dev            = dev;
  90:SynaptiX_FDK/components/external_flash/sx_W25Q128.c **** 
  91:SynaptiX_FDK/components/external_flash/sx_W25Q128.c ****     sx_gpio_init(&dev->power, pwr_ops, pwr_pin);
  92:SynaptiX_FDK/components/external_flash/sx_W25Q128.c ****     sx_gpio_write(&dev->power, SX_GPIO_LOW);  
  93:SynaptiX_FDK/components/external_flash/sx_W25Q128.c ****     sx_delay_ms(10);   
  94:SynaptiX_FDK/components/external_flash/sx_W25Q128.c **** 
  95:SynaptiX_FDK/components/external_flash/sx_W25Q128.c ****     /* Wake from power-down — 1 byte write, 1 lan CS */
  96:SynaptiX_FDK/components/external_flash/sx_W25Q128.c ****     uint8_t wake = W25Q128_CMD_RELEASE_POWER_DOWN;
  97:SynaptiX_FDK/components/external_flash/sx_W25Q128.c ****     sx_spi_write(dev->spi, &wake, 1);
  98:SynaptiX_FDK/components/external_flash/sx_W25Q128.c ****     sx_delay_ms(1);
  99:SynaptiX_FDK/components/external_flash/sx_W25Q128.c ****     w25q_wait_busy();
 100:SynaptiX_FDK/components/external_flash/sx_W25Q128.c **** 
 101:SynaptiX_FDK/components/external_flash/sx_W25Q128.c ****     uint8_t tx[4] = { W25Q128_CMD_JEDEC_ID, 0x00, 0x00, 0x00 };
 102:SynaptiX_FDK/components/external_flash/sx_W25Q128.c ****     uint8_t rx[4] = { 0 };
 103:SynaptiX_FDK/components/external_flash/sx_W25Q128.c ****     sx_spi_write_read(dev->spi, tx, rx, 4);
 104:SynaptiX_FDK/components/external_flash/sx_W25Q128.c **** 
ARM GAS  C:\Users\LENOVO\AppData\Local\Temp\ccFz3vhf.s 			page 9


 105:SynaptiX_FDK/components/external_flash/sx_W25Q128.c ****     if (rx[1] != 0xEF || rx[2] != 0x40 || rx[3] != 0x18) {
 106:SynaptiX_FDK/components/external_flash/sx_W25Q128.c ****         log_error(TAG, "JEDEC ID mismatch: %02X %02X %02X", rx[1], rx[2], rx[3]);
 107:SynaptiX_FDK/components/external_flash/sx_W25Q128.c ****         return false;
 108:SynaptiX_FDK/components/external_flash/sx_W25Q128.c ****     }
 109:SynaptiX_FDK/components/external_flash/sx_W25Q128.c **** 
 110:SynaptiX_FDK/components/external_flash/sx_W25Q128.c ****     dev->initialized = true;
 111:SynaptiX_FDK/components/external_flash/sx_W25Q128.c ****     log_info(TAG, "W25Q128 OK (16MB)");
 112:SynaptiX_FDK/components/external_flash/sx_W25Q128.c ****     return true;
 113:SynaptiX_FDK/components/external_flash/sx_W25Q128.c **** }
 114:SynaptiX_FDK/components/external_flash/sx_W25Q128.c **** 
 115:SynaptiX_FDK/components/external_flash/sx_W25Q128.c **** bool sx_W25Q128_is_busy(void)
 116:SynaptiX_FDK/components/external_flash/sx_W25Q128.c **** {
 251              		.loc 1 116 1 is_stmt 1 view -0
 252              		.cfi_startproc
 253              		@ args = 0, pretend = 0, frame = 8
 254              		@ frame_needed = 0, uses_anonymous_args = 0
 255 0000 10B5     		push	{r4, lr}
 256              	.LCFI6:
 257              		.cfi_def_cfa_offset 8
 258              		.cfi_offset 4, -8
 259              		.cfi_offset 14, -4
 260 0002 82B0     		sub	sp, sp, #8
 261              	.LCFI7:
 262              		.cfi_def_cfa_offset 16
 117:SynaptiX_FDK/components/external_flash/sx_W25Q128.c ****     if (!s_dev || !s_dev->initialized) return false;
 263              		.loc 1 117 5 view .LVU56
 264              		.loc 1 117 9 is_stmt 0 view .LVU57
 265 0004 0C4B     		ldr	r3, .L26
 266 0006 1C68     		ldr	r4, [r3]
 267              		.loc 1 117 8 view .LVU58
 268 0008 A4B1     		cbz	r4, .L23
 269              		.loc 1 117 25 discriminator 2 view .LVU59
 270 000a 2079     		ldrb	r0, [r4, #4]	@ zero_extendqisi2
 271              		.loc 1 117 16 discriminator 2 view .LVU60
 272 000c 08B9     		cbnz	r0, .L25
 273              	.L22:
 118:SynaptiX_FDK/components/external_flash/sx_W25Q128.c ****     uint8_t tx[2] = { W25Q128_CMD_READ_STATUS1, 0x00 };
 119:SynaptiX_FDK/components/external_flash/sx_W25Q128.c ****     uint8_t rx[2] = { 0 };
 120:SynaptiX_FDK/components/external_flash/sx_W25Q128.c ****     sx_spi_write_read(s_dev->spi, tx, rx, 2);
 121:SynaptiX_FDK/components/external_flash/sx_W25Q128.c ****     return (rx[1] & W25Q128_STATUS1_BUSY) != 0;
 122:SynaptiX_FDK/components/external_flash/sx_W25Q128.c **** }
 274              		.loc 1 122 1 view .LVU61
 275 000e 02B0     		add	sp, sp, #8
 276              	.LCFI8:
 277              		.cfi_remember_state
 278              		.cfi_def_cfa_offset 8
 279              		@ sp needed
 280 0010 10BD     		pop	{r4, pc}
 281              	.L25:
 282              	.LCFI9:
 283              		.cfi_restore_state
 118:SynaptiX_FDK/components/external_flash/sx_W25Q128.c ****     uint8_t tx[2] = { W25Q128_CMD_READ_STATUS1, 0x00 };
 284              		.loc 1 118 5 is_stmt 1 view .LVU62
 118:SynaptiX_FDK/components/external_flash/sx_W25Q128.c ****     uint8_t tx[2] = { W25Q128_CMD_READ_STATUS1, 0x00 };
 285              		.loc 1 118 13 is_stmt 0 view .LVU63
 286 0012 0523     		movs	r3, #5
 287 0014 ADF80430 		strh	r3, [sp, #4]	@ movhi
ARM GAS  C:\Users\LENOVO\AppData\Local\Temp\ccFz3vhf.s 			page 10


 119:SynaptiX_FDK/components/external_flash/sx_W25Q128.c ****     sx_spi_write_read(s_dev->spi, tx, rx, 2);
 288              		.loc 1 119 5 is_stmt 1 view .LVU64
 119:SynaptiX_FDK/components/external_flash/sx_W25Q128.c ****     sx_spi_write_read(s_dev->spi, tx, rx, 2);
 289              		.loc 1 119 13 is_stmt 0 view .LVU65
 290 0018 0023     		movs	r3, #0
 291 001a ADF80030 		strh	r3, [sp]	@ movhi
 120:SynaptiX_FDK/components/external_flash/sx_W25Q128.c ****     return (rx[1] & W25Q128_STATUS1_BUSY) != 0;
 292              		.loc 1 120 5 is_stmt 1 view .LVU66
 293 001e 0223     		movs	r3, #2
 294 0020 6A46     		mov	r2, sp
 295 0022 01A9     		add	r1, sp, #4
 296 0024 2068     		ldr	r0, [r4]
 297 0026 FFF7FEFF 		bl	sx_spi_write_read
 298              	.LVL20:
 121:SynaptiX_FDK/components/external_flash/sx_W25Q128.c **** }
 299              		.loc 1 121 5 view .LVU67
 121:SynaptiX_FDK/components/external_flash/sx_W25Q128.c **** }
 300              		.loc 1 121 15 is_stmt 0 view .LVU68
 301 002a 9DF80100 		ldrb	r0, [sp, #1]	@ zero_extendqisi2
 121:SynaptiX_FDK/components/external_flash/sx_W25Q128.c **** }
 302              		.loc 1 121 43 view .LVU69
 303 002e 00F00100 		and	r0, r0, #1
 304 0032 ECE7     		b	.L22
 305              	.L23:
 117:SynaptiX_FDK/components/external_flash/sx_W25Q128.c ****     uint8_t tx[2] = { W25Q128_CMD_READ_STATUS1, 0x00 };
 306              		.loc 1 117 47 discriminator 3 view .LVU70
 307 0034 0020     		movs	r0, #0
 308 0036 EAE7     		b	.L22
 309              	.L27:
 310              		.align	2
 311              	.L26:
 312 0038 00000000 		.word	s_dev
 313              		.cfi_endproc
 314              	.LFE518:
 316              		.section	.rodata.w25q_wait_busy.str1.4,"aMS",%progbits,1
 317              		.align	2
 318              	.LC0:
 319 0000 77616974 		.ascii	"wait_busy TIMEOUT STATUS=0x%02X\000"
 319      5F627573 
 319      79205449 
 319      4D454F55 
 319      54205354 
 320              		.align	2
 321              	.LC1:
 322 0020 57323551 		.ascii	"W25Q128\000"
 322      31323800 
 323              		.align	2
 324              	.LC2:
 325 0028 7374696C 		.ascii	"still BUSY after confirm, STATUS=0x%02X\000"
 325      6C204255 
 325      53592061 
 325      66746572 
 325      20636F6E 
 326              		.align	2
 327              	.LC3:
 328 0050 77616974 		.ascii	"wait_busy TIMEOUT2 STATUS=0x%02X\000"
 328      5F627573 
ARM GAS  C:\Users\LENOVO\AppData\Local\Temp\ccFz3vhf.s 			page 11


 328      79205449 
 328      4D454F55 
 328      54322053 
 329              		.section	.text.w25q_wait_busy,"ax",%progbits
 330              		.align	1
 331              		.syntax unified
 332              		.thumb
 333              		.thumb_func
 335              	w25q_wait_busy:
 336              	.LFB515:
  34:SynaptiX_FDK/components/external_flash/sx_W25Q128.c ****     uint8_t tx[2] = { W25Q128_CMD_READ_STATUS1, 0xFF };
 337              		.loc 1 34 1 is_stmt 1 view -0
 338              		.cfi_startproc
 339              		@ args = 0, pretend = 0, frame = 8
 340              		@ frame_needed = 0, uses_anonymous_args = 0
 341 0000 10B5     		push	{r4, lr}
 342              	.LCFI10:
 343              		.cfi_def_cfa_offset 8
 344              		.cfi_offset 4, -8
 345              		.cfi_offset 14, -4
 346 0002 82B0     		sub	sp, sp, #8
 347              	.LCFI11:
 348              		.cfi_def_cfa_offset 16
  35:SynaptiX_FDK/components/external_flash/sx_W25Q128.c ****     uint8_t rx[2];
 349              		.loc 1 35 5 view .LVU72
  35:SynaptiX_FDK/components/external_flash/sx_W25Q128.c ****     uint8_t rx[2];
 350              		.loc 1 35 13 is_stmt 0 view .LVU73
 351 0004 4FF60573 		movw	r3, #65285
 352 0008 ADF80430 		strh	r3, [sp, #4]	@ movhi
  36:SynaptiX_FDK/components/external_flash/sx_W25Q128.c ****     uint32_t timeout = 500;
 353              		.loc 1 36 5 is_stmt 1 view .LVU74
  37:SynaptiX_FDK/components/external_flash/sx_W25Q128.c ****     do {
 354              		.loc 1 37 5 view .LVU75
 355              	.LVL21:
  37:SynaptiX_FDK/components/external_flash/sx_W25Q128.c ****     do {
 356              		.loc 1 37 14 is_stmt 0 view .LVU76
 357 000c 4FF4FA74 		mov	r4, #500
 358              	.LVL22:
 359              	.L31:
  38:SynaptiX_FDK/components/external_flash/sx_W25Q128.c ****         sx_delay_ms(5);
 360              		.loc 1 38 5 is_stmt 1 view .LVU77
  39:SynaptiX_FDK/components/external_flash/sx_W25Q128.c ****         sx_spi_write_read(s_dev->spi, tx, rx, 2);
 361              		.loc 1 39 9 view .LVU78
 362 0010 0520     		movs	r0, #5
 363 0012 FFF7FEFF 		bl	sx_delay_ms
 364              	.LVL23:
  40:SynaptiX_FDK/components/external_flash/sx_W25Q128.c ****         if (--timeout == 0) {
 365              		.loc 1 40 9 view .LVU79
  40:SynaptiX_FDK/components/external_flash/sx_W25Q128.c ****         if (--timeout == 0) {
 366              		.loc 1 40 32 is_stmt 0 view .LVU80
 367 0016 254B     		ldr	r3, .L40
 368 0018 1868     		ldr	r0, [r3]
  40:SynaptiX_FDK/components/external_flash/sx_W25Q128.c ****         if (--timeout == 0) {
 369              		.loc 1 40 9 view .LVU81
 370 001a 0223     		movs	r3, #2
 371 001c 6A46     		mov	r2, sp
 372 001e 01A9     		add	r1, sp, #4
ARM GAS  C:\Users\LENOVO\AppData\Local\Temp\ccFz3vhf.s 			page 12


 373 0020 0068     		ldr	r0, [r0]
 374 0022 FFF7FEFF 		bl	sx_spi_write_read
 375              	.LVL24:
  41:SynaptiX_FDK/components/external_flash/sx_W25Q128.c ****             log_error("W25Q128", "wait_busy TIMEOUT STATUS=0x%02X", rx[1]);
 376              		.loc 1 41 9 is_stmt 1 view .LVU82
  41:SynaptiX_FDK/components/external_flash/sx_W25Q128.c ****             log_error("W25Q128", "wait_busy TIMEOUT STATUS=0x%02X", rx[1]);
 377              		.loc 1 41 12 is_stmt 0 view .LVU83
 378 0026 013C     		subs	r4, r4, #1
 379              	.LVL25:
  41:SynaptiX_FDK/components/external_flash/sx_W25Q128.c ****             log_error("W25Q128", "wait_busy TIMEOUT STATUS=0x%02X", rx[1]);
 380              		.loc 1 41 12 view .LVU84
 381 0028 16D0     		beq	.L37
  45:SynaptiX_FDK/components/external_flash/sx_W25Q128.c **** 
 382              		.loc 1 45 14 is_stmt 1 view .LVU85
  45:SynaptiX_FDK/components/external_flash/sx_W25Q128.c **** 
 383              		.loc 1 45 16 is_stmt 0 view .LVU86
 384 002a 9DF80130 		ldrb	r3, [sp, #1]	@ zero_extendqisi2
  45:SynaptiX_FDK/components/external_flash/sx_W25Q128.c **** 
 385              		.loc 1 45 14 view .LVU87
 386 002e 13F0010F 		tst	r3, #1
 387 0032 EDD1     		bne	.L31
  48:SynaptiX_FDK/components/external_flash/sx_W25Q128.c ****     sx_spi_write_read(s_dev->spi, tx, rx, 2);
 388              		.loc 1 48 5 is_stmt 1 view .LVU88
 389 0034 0120     		movs	r0, #1
 390 0036 FFF7FEFF 		bl	sx_delay_ms
 391              	.LVL26:
  49:SynaptiX_FDK/components/external_flash/sx_W25Q128.c ****     if (rx[1] & W25Q128_STATUS1_BUSY) {
 392              		.loc 1 49 5 view .LVU89
  49:SynaptiX_FDK/components/external_flash/sx_W25Q128.c ****     if (rx[1] & W25Q128_STATUS1_BUSY) {
 393              		.loc 1 49 28 is_stmt 0 view .LVU90
 394 003a 1C4B     		ldr	r3, .L40
 395 003c 1868     		ldr	r0, [r3]
  49:SynaptiX_FDK/components/external_flash/sx_W25Q128.c ****     if (rx[1] & W25Q128_STATUS1_BUSY) {
 396              		.loc 1 49 5 view .LVU91
 397 003e 0223     		movs	r3, #2
 398 0040 6A46     		mov	r2, sp
 399 0042 01A9     		add	r1, sp, #4
 400 0044 0068     		ldr	r0, [r0]
 401 0046 FFF7FEFF 		bl	sx_spi_write_read
 402              	.LVL27:
  50:SynaptiX_FDK/components/external_flash/sx_W25Q128.c ****         log_error("W25Q128", "still BUSY after confirm, STATUS=0x%02X", rx[1]);
 403              		.loc 1 50 5 is_stmt 1 view .LVU92
  50:SynaptiX_FDK/components/external_flash/sx_W25Q128.c ****         log_error("W25Q128", "still BUSY after confirm, STATUS=0x%02X", rx[1]);
 404              		.loc 1 50 11 is_stmt 0 view .LVU93
 405 004a 9DF80130 		ldrb	r3, [sp, #1]	@ zero_extendqisi2
  50:SynaptiX_FDK/components/external_flash/sx_W25Q128.c ****         log_error("W25Q128", "still BUSY after confirm, STATUS=0x%02X", rx[1]);
 406              		.loc 1 50 8 view .LVU94
 407 004e 13F0010F 		tst	r3, #1
 408 0052 09D1     		bne	.L38
 409              	.L28:
  62:SynaptiX_FDK/components/external_flash/sx_W25Q128.c **** 
 410              		.loc 1 62 1 view .LVU95
 411 0054 02B0     		add	sp, sp, #8
 412              	.LCFI12:
 413              		.cfi_remember_state
 414              		.cfi_def_cfa_offset 8
 415              		@ sp needed
ARM GAS  C:\Users\LENOVO\AppData\Local\Temp\ccFz3vhf.s 			page 13


 416 0056 10BD     		pop	{r4, pc}
 417              	.LVL28:
 418              	.L37:
 419              	.LCFI13:
 420              		.cfi_restore_state
  42:SynaptiX_FDK/components/external_flash/sx_W25Q128.c ****             return;
 421              		.loc 1 42 13 is_stmt 1 view .LVU96
 422 0058 9DF80130 		ldrb	r3, [sp, #1]	@ zero_extendqisi2
 423 005c 144A     		ldr	r2, .L40+4
 424 005e 1549     		ldr	r1, .L40+8
 425 0060 0120     		movs	r0, #1
 426 0062 FFF7FEFF 		bl	log_func
 427              	.LVL29:
  43:SynaptiX_FDK/components/external_flash/sx_W25Q128.c ****         }
 428              		.loc 1 43 13 view .LVU97
 429 0066 F5E7     		b	.L28
 430              	.L38:
  51:SynaptiX_FDK/components/external_flash/sx_W25Q128.c ****         timeout = 500;
 431              		.loc 1 51 9 view .LVU98
 432 0068 134A     		ldr	r2, .L40+12
 433 006a 1249     		ldr	r1, .L40+8
 434 006c 0120     		movs	r0, #1
 435 006e FFF7FEFF 		bl	log_func
 436              	.LVL30:
  52:SynaptiX_FDK/components/external_flash/sx_W25Q128.c ****         do {
 437              		.loc 1 52 9 view .LVU99
  52:SynaptiX_FDK/components/external_flash/sx_W25Q128.c ****         do {
 438              		.loc 1 52 17 is_stmt 0 view .LVU100
 439 0072 4FF4FA74 		mov	r4, #500
 440              	.LVL31:
 441              	.L34:
  53:SynaptiX_FDK/components/external_flash/sx_W25Q128.c ****             sx_delay_ms(5);
 442              		.loc 1 53 9 is_stmt 1 view .LVU101
  54:SynaptiX_FDK/components/external_flash/sx_W25Q128.c ****             sx_spi_write_read(s_dev->spi, tx, rx, 2);
 443              		.loc 1 54 13 view .LVU102
 444 0076 0520     		movs	r0, #5
 445 0078 FFF7FEFF 		bl	sx_delay_ms
 446              	.LVL32:
  55:SynaptiX_FDK/components/external_flash/sx_W25Q128.c ****             if (--timeout == 0) {
 447              		.loc 1 55 13 view .LVU103
  55:SynaptiX_FDK/components/external_flash/sx_W25Q128.c ****             if (--timeout == 0) {
 448              		.loc 1 55 36 is_stmt 0 view .LVU104
 449 007c 0B4B     		ldr	r3, .L40
 450 007e 1868     		ldr	r0, [r3]
  55:SynaptiX_FDK/components/external_flash/sx_W25Q128.c ****             if (--timeout == 0) {
 451              		.loc 1 55 13 view .LVU105
 452 0080 0223     		movs	r3, #2
 453 0082 6A46     		mov	r2, sp
 454 0084 01A9     		add	r1, sp, #4
 455 0086 0068     		ldr	r0, [r0]
 456 0088 FFF7FEFF 		bl	sx_spi_write_read
 457              	.LVL33:
  56:SynaptiX_FDK/components/external_flash/sx_W25Q128.c ****                 log_error("W25Q128", "wait_busy TIMEOUT2 STATUS=0x%02X", rx[1]);
 458              		.loc 1 56 13 is_stmt 1 view .LVU106
  56:SynaptiX_FDK/components/external_flash/sx_W25Q128.c ****                 log_error("W25Q128", "wait_busy TIMEOUT2 STATUS=0x%02X", rx[1]);
 459              		.loc 1 56 16 is_stmt 0 view .LVU107
 460 008c 013C     		subs	r4, r4, #1
ARM GAS  C:\Users\LENOVO\AppData\Local\Temp\ccFz3vhf.s 			page 14


 461              	.LVL34:
  56:SynaptiX_FDK/components/external_flash/sx_W25Q128.c ****                 log_error("W25Q128", "wait_busy TIMEOUT2 STATUS=0x%02X", rx[1]);
 462              		.loc 1 56 16 view .LVU108
 463 008e 05D0     		beq	.L39
  60:SynaptiX_FDK/components/external_flash/sx_W25Q128.c ****     }
 464              		.loc 1 60 18 is_stmt 1 view .LVU109
  60:SynaptiX_FDK/components/external_flash/sx_W25Q128.c ****     }
 465              		.loc 1 60 20 is_stmt 0 view .LVU110
 466 0090 9DF80130 		ldrb	r3, [sp, #1]	@ zero_extendqisi2
  60:SynaptiX_FDK/components/external_flash/sx_W25Q128.c ****     }
 467              		.loc 1 60 18 view .LVU111
 468 0094 13F0010F 		tst	r3, #1
 469 0098 EDD1     		bne	.L34
 470 009a DBE7     		b	.L28
 471              	.L39:
  57:SynaptiX_FDK/components/external_flash/sx_W25Q128.c ****                 return;
 472              		.loc 1 57 17 is_stmt 1 view .LVU112
 473 009c 9DF80130 		ldrb	r3, [sp, #1]	@ zero_extendqisi2
 474 00a0 064A     		ldr	r2, .L40+16
 475 00a2 0449     		ldr	r1, .L40+8
 476 00a4 0120     		movs	r0, #1
 477 00a6 FFF7FEFF 		bl	log_func
 478              	.LVL35:
  58:SynaptiX_FDK/components/external_flash/sx_W25Q128.c ****             }
 479              		.loc 1 58 17 view .LVU113
 480 00aa D3E7     		b	.L28
 481              	.L41:
 482              		.align	2
 483              	.L40:
 484 00ac 00000000 		.word	s_dev
 485 00b0 00000000 		.word	.LC0
 486 00b4 20000000 		.word	.LC1
 487 00b8 28000000 		.word	.LC2
 488 00bc 50000000 		.word	.LC3
 489              		.cfi_endproc
 490              	.LFE515:
 492              		.section	.rodata.sx_W25Q128_erase_sector.str1.4,"aMS",%progbits,1
 493              		.align	2
 494              	.LC4:
 495 0000 53656374 		.ascii	"Sector erased at 0x%06lX\000"
 495      6F722065 
 495      72617365 
 495      64206174 
 495      20307825 
 496              		.section	.text.sx_W25Q128_erase_sector,"ax",%progbits
 497              		.align	1
 498              		.global	sx_W25Q128_erase_sector
 499              		.syntax unified
 500              		.thumb
 501              		.thumb_func
 503              	sx_W25Q128_erase_sector:
 504              	.LVL36:
 505              	.LFB521:
 123:SynaptiX_FDK/components/external_flash/sx_W25Q128.c **** 
 124:SynaptiX_FDK/components/external_flash/sx_W25Q128.c **** int sx_W25Q128_read(uint32_t addr, uint8_t *buf, uint32_t len)
 125:SynaptiX_FDK/components/external_flash/sx_W25Q128.c **** {
 126:SynaptiX_FDK/components/external_flash/sx_W25Q128.c ****     // DEBUG: temporary trace to confirm we reach this function and don't bail out silently.
ARM GAS  C:\Users\LENOVO\AppData\Local\Temp\ccFz3vhf.s 			page 15


 127:SynaptiX_FDK/components/external_flash/sx_W25Q128.c ****     log_info(TAG, "read: enter addr=0x%06lX len=%lu s_dev=%p initialized=%d",
 128:SynaptiX_FDK/components/external_flash/sx_W25Q128.c ****       (unsigned long)addr, (unsigned long)len, (void*)s_dev, s_dev ? (int)s_dev->initialized : -1);
 129:SynaptiX_FDK/components/external_flash/sx_W25Q128.c ****     if (!s_dev || !s_dev->initialized) return -1;
 130:SynaptiX_FDK/components/external_flash/sx_W25Q128.c ****     if (buf == NULL || len == 0)        return -1;
 131:SynaptiX_FDK/components/external_flash/sx_W25Q128.c **** 
 132:SynaptiX_FDK/components/external_flash/sx_W25Q128.c ****     uint32_t offset = 0;
 133:SynaptiX_FDK/components/external_flash/sx_W25Q128.c ****     while (offset < len) {
 134:SynaptiX_FDK/components/external_flash/sx_W25Q128.c ****         uint32_t chunk = len - offset;
 135:SynaptiX_FDK/components/external_flash/sx_W25Q128.c ****         if (chunk > W25Q128_MAX_READ_LEN) chunk = W25Q128_MAX_READ_LEN;
 136:SynaptiX_FDK/components/external_flash/sx_W25Q128.c **** 
 137:SynaptiX_FDK/components/external_flash/sx_W25Q128.c ****         uint8_t tx[4 + W25Q128_MAX_READ_LEN];
 138:SynaptiX_FDK/components/external_flash/sx_W25Q128.c ****         uint8_t rx[4 + W25Q128_MAX_READ_LEN];
 139:SynaptiX_FDK/components/external_flash/sx_W25Q128.c **** 
 140:SynaptiX_FDK/components/external_flash/sx_W25Q128.c ****         uint32_t cur_addr = addr + offset;
 141:SynaptiX_FDK/components/external_flash/sx_W25Q128.c ****         tx[0] = W25Q128_CMD_READ_DATA;
 142:SynaptiX_FDK/components/external_flash/sx_W25Q128.c ****         tx[1] = (uint8_t)(cur_addr >> 16);
 143:SynaptiX_FDK/components/external_flash/sx_W25Q128.c ****         tx[2] = (uint8_t)(cur_addr >>  8);
 144:SynaptiX_FDK/components/external_flash/sx_W25Q128.c ****         tx[3] = (uint8_t)(cur_addr >>  0);
 145:SynaptiX_FDK/components/external_flash/sx_W25Q128.c ****         memset(tx + 4, 0x00, chunk);
 146:SynaptiX_FDK/components/external_flash/sx_W25Q128.c **** 
 147:SynaptiX_FDK/components/external_flash/sx_W25Q128.c ****         if (sx_spi_write_read(s_dev->spi, tx, rx, 4 + chunk) != 0) {
 148:SynaptiX_FDK/components/external_flash/sx_W25Q128.c ****             log_error(TAG, "spi_write_read failed at addr=0x%06lX chunk=%lu",
 149:SynaptiX_FDK/components/external_flash/sx_W25Q128.c ****               (unsigned long)cur_addr, (unsigned long)chunk);
 150:SynaptiX_FDK/components/external_flash/sx_W25Q128.c ****             return -1;
 151:SynaptiX_FDK/components/external_flash/sx_W25Q128.c ****         }
 152:SynaptiX_FDK/components/external_flash/sx_W25Q128.c ****         memcpy(buf + offset, rx + 4, chunk);
 153:SynaptiX_FDK/components/external_flash/sx_W25Q128.c **** 
 154:SynaptiX_FDK/components/external_flash/sx_W25Q128.c ****         offset += chunk;
 155:SynaptiX_FDK/components/external_flash/sx_W25Q128.c ****     }
 156:SynaptiX_FDK/components/external_flash/sx_W25Q128.c ****     return 0;
 157:SynaptiX_FDK/components/external_flash/sx_W25Q128.c **** }
 158:SynaptiX_FDK/components/external_flash/sx_W25Q128.c **** 
 159:SynaptiX_FDK/components/external_flash/sx_W25Q128.c **** int sx_W25Q128_write(uint32_t addr, const uint8_t *buf, uint32_t len)
 160:SynaptiX_FDK/components/external_flash/sx_W25Q128.c **** {
 161:SynaptiX_FDK/components/external_flash/sx_W25Q128.c ****     if (!s_dev || !s_dev->initialized)   return -1;
 162:SynaptiX_FDK/components/external_flash/sx_W25Q128.c ****     if (buf == NULL || len == 0)          return -1;
 163:SynaptiX_FDK/components/external_flash/sx_W25Q128.c ****     uint32_t offset = 0;
 164:SynaptiX_FDK/components/external_flash/sx_W25Q128.c ****     while (offset < len) {
 165:SynaptiX_FDK/components/external_flash/sx_W25Q128.c ****         uint32_t page_offset = (addr + offset) % W25Q128_PAGE_SIZE;
 166:SynaptiX_FDK/components/external_flash/sx_W25Q128.c ****         uint32_t chunk = W25Q128_PAGE_SIZE - page_offset;
 167:SynaptiX_FDK/components/external_flash/sx_W25Q128.c ****         if (chunk > (len - offset)) chunk = len - offset;
 168:SynaptiX_FDK/components/external_flash/sx_W25Q128.c **** 
 169:SynaptiX_FDK/components/external_flash/sx_W25Q128.c ****         if (!w25q_write_enable()) {
 170:SynaptiX_FDK/components/external_flash/sx_W25Q128.c ****             log_error(TAG, "write_enable FAILED");
 171:SynaptiX_FDK/components/external_flash/sx_W25Q128.c ****             return -1;
 172:SynaptiX_FDK/components/external_flash/sx_W25Q128.c ****         }
 173:SynaptiX_FDK/components/external_flash/sx_W25Q128.c **** 
 174:SynaptiX_FDK/components/external_flash/sx_W25Q128.c ****         uint8_t stx[2] = { W25Q128_CMD_READ_STATUS1, 0x00 };
 175:SynaptiX_FDK/components/external_flash/sx_W25Q128.c ****         uint8_t srx[2] = { 0 };
 176:SynaptiX_FDK/components/external_flash/sx_W25Q128.c ****         sx_spi_write_read(s_dev->spi, stx, srx, 2);
 177:SynaptiX_FDK/components/external_flash/sx_W25Q128.c ****         log_info(TAG, "STATUS1 before write addr=0x%06lX: 0x%02X (WEL=%d)", (unsigned long)(addr + 
 178:SynaptiX_FDK/components/external_flash/sx_W25Q128.c **** 
 179:SynaptiX_FDK/components/external_flash/sx_W25Q128.c ****         uint8_t tx[4 + W25Q128_PAGE_SIZE];
 180:SynaptiX_FDK/components/external_flash/sx_W25Q128.c ****         uint32_t cur_addr = addr + offset;
 181:SynaptiX_FDK/components/external_flash/sx_W25Q128.c ****         tx[0] = W25Q128_CMD_PAGE_PROGRAM;
 182:SynaptiX_FDK/components/external_flash/sx_W25Q128.c ****         tx[1] = (uint8_t)(cur_addr >> 16);
 183:SynaptiX_FDK/components/external_flash/sx_W25Q128.c ****         tx[2] = (uint8_t)(cur_addr >>  8);
ARM GAS  C:\Users\LENOVO\AppData\Local\Temp\ccFz3vhf.s 			page 16


 184:SynaptiX_FDK/components/external_flash/sx_W25Q128.c ****         tx[3] = (uint8_t)(cur_addr >>  0);
 185:SynaptiX_FDK/components/external_flash/sx_W25Q128.c ****         memcpy(tx + 4, buf + offset, chunk);
 186:SynaptiX_FDK/components/external_flash/sx_W25Q128.c **** 
 187:SynaptiX_FDK/components/external_flash/sx_W25Q128.c ****         uint8_t stx2[2] = { W25Q128_CMD_READ_STATUS1, 0x00 };
 188:SynaptiX_FDK/components/external_flash/sx_W25Q128.c ****         uint8_t srx2[2] = { 0 };
 189:SynaptiX_FDK/components/external_flash/sx_W25Q128.c ****         sx_spi_write_read(s_dev->spi, stx2, srx2, 2);
 190:SynaptiX_FDK/components/external_flash/sx_W25Q128.c ****         log_info(TAG, "STATUS1 JUST BEFORE page_program: 0x%02X", srx2[1]);
 191:SynaptiX_FDK/components/external_flash/sx_W25Q128.c **** 
 192:SynaptiX_FDK/components/external_flash/sx_W25Q128.c ****         if (sx_spi_write(s_dev->spi, tx, 4 + chunk) != 0) {
 193:SynaptiX_FDK/components/external_flash/sx_W25Q128.c ****             log_error(TAG, "spi_write FAILED");
 194:SynaptiX_FDK/components/external_flash/sx_W25Q128.c ****             return -1;
 195:SynaptiX_FDK/components/external_flash/sx_W25Q128.c ****         }
 196:SynaptiX_FDK/components/external_flash/sx_W25Q128.c **** 
 197:SynaptiX_FDK/components/external_flash/sx_W25Q128.c ****         w25q_wait_busy();
 198:SynaptiX_FDK/components/external_flash/sx_W25Q128.c ****         offset += chunk;
 199:SynaptiX_FDK/components/external_flash/sx_W25Q128.c ****     }
 200:SynaptiX_FDK/components/external_flash/sx_W25Q128.c ****     return 0;
 201:SynaptiX_FDK/components/external_flash/sx_W25Q128.c **** }
 202:SynaptiX_FDK/components/external_flash/sx_W25Q128.c **** 
 203:SynaptiX_FDK/components/external_flash/sx_W25Q128.c **** int sx_W25Q128_erase_sector(uint32_t addr)
 204:SynaptiX_FDK/components/external_flash/sx_W25Q128.c **** {
 506              		.loc 1 204 1 view -0
 507              		.cfi_startproc
 508              		@ args = 0, pretend = 0, frame = 8
 509              		@ frame_needed = 0, uses_anonymous_args = 0
 510              		.loc 1 204 1 is_stmt 0 view .LVU115
 511 0000 30B5     		push	{r4, r5, lr}
 512              	.LCFI14:
 513              		.cfi_def_cfa_offset 12
 514              		.cfi_offset 4, -12
 515              		.cfi_offset 5, -8
 516              		.cfi_offset 14, -4
 517 0002 83B0     		sub	sp, sp, #12
 518              	.LCFI15:
 519              		.cfi_def_cfa_offset 24
 205:SynaptiX_FDK/components/external_flash/sx_W25Q128.c ****     if (!s_dev || !s_dev->initialized) return -1;
 520              		.loc 1 205 5 is_stmt 1 view .LVU116
 521              		.loc 1 205 9 is_stmt 0 view .LVU117
 522 0004 1E4B     		ldr	r3, .L49
 523 0006 1B68     		ldr	r3, [r3]
 524              		.loc 1 205 8 view .LVU118
 525 0008 6BB3     		cbz	r3, .L44
 526              		.loc 1 205 25 discriminator 2 view .LVU119
 527 000a 1B79     		ldrb	r3, [r3, #4]	@ zero_extendqisi2
 528              		.loc 1 205 16 discriminator 2 view .LVU120
 529 000c 73B3     		cbz	r3, .L45
 206:SynaptiX_FDK/components/external_flash/sx_W25Q128.c **** 
 207:SynaptiX_FDK/components/external_flash/sx_W25Q128.c ****     addr &= ~(W25Q128_SECTOR_SIZE - 1U);
 530              		.loc 1 207 5 is_stmt 1 view .LVU121
 531              		.loc 1 207 10 is_stmt 0 view .LVU122
 532 000e 20F47F64 		bic	r4, r0, #4080
 533 0012 24F00F04 		bic	r4, r4, #15
 534              	.LVL37:
 208:SynaptiX_FDK/components/external_flash/sx_W25Q128.c **** 
 209:SynaptiX_FDK/components/external_flash/sx_W25Q128.c ****     if (!w25q_write_enable()) return -1;
 535              		.loc 1 209 5 is_stmt 1 view .LVU123
 536              		.loc 1 209 10 is_stmt 0 view .LVU124
ARM GAS  C:\Users\LENOVO\AppData\Local\Temp\ccFz3vhf.s 			page 17


 537 0016 FFF7FEFF 		bl	w25q_write_enable
 538              	.LVL38:
 539              		.loc 1 209 8 discriminator 1 view .LVU125
 540 001a 50B3     		cbz	r0, .L46
 210:SynaptiX_FDK/components/external_flash/sx_W25Q128.c **** 
 211:SynaptiX_FDK/components/external_flash/sx_W25Q128.c ****     uint8_t cmd[4] = {
 541              		.loc 1 211 5 is_stmt 1 view .LVU126
 542              		.loc 1 211 13 is_stmt 0 view .LVU127
 543 001c 2023     		movs	r3, #32
 544 001e 8DF80430 		strb	r3, [sp, #4]
 212:SynaptiX_FDK/components/external_flash/sx_W25Q128.c ****         W25Q128_CMD_SECTOR_ERASE_4K,
 213:SynaptiX_FDK/components/external_flash/sx_W25Q128.c ****         (uint8_t)(addr >> 16),
 545              		.loc 1 213 9 view .LVU128
 546 0022 C4F30743 		ubfx	r3, r4, #16, #8
 211:SynaptiX_FDK/components/external_flash/sx_W25Q128.c ****         W25Q128_CMD_SECTOR_ERASE_4K,
 547              		.loc 1 211 13 view .LVU129
 548 0026 8DF80530 		strb	r3, [sp, #5]
 214:SynaptiX_FDK/components/external_flash/sx_W25Q128.c ****         (uint8_t)(addr >>  8),
 549              		.loc 1 214 24 view .LVU130
 550 002a 230A     		lsrs	r3, r4, #8
 211:SynaptiX_FDK/components/external_flash/sx_W25Q128.c ****         W25Q128_CMD_SECTOR_ERASE_4K,
 551              		.loc 1 211 13 view .LVU131
 552 002c 8DF80630 		strb	r3, [sp, #6]
 215:SynaptiX_FDK/components/external_flash/sx_W25Q128.c ****         (uint8_t)(addr >>  0),
 553              		.loc 1 215 9 view .LVU132
 554 0030 E3B2     		uxtb	r3, r4
 211:SynaptiX_FDK/components/external_flash/sx_W25Q128.c ****         W25Q128_CMD_SECTOR_ERASE_4K,
 555              		.loc 1 211 13 view .LVU133
 556 0032 8DF80730 		strb	r3, [sp, #7]
 216:SynaptiX_FDK/components/external_flash/sx_W25Q128.c ****     };
 217:SynaptiX_FDK/components/external_flash/sx_W25Q128.c **** 
 218:SynaptiX_FDK/components/external_flash/sx_W25Q128.c ****     if (sx_spi_write(s_dev->spi, cmd, 4) != 0) return -1;
 557              		.loc 1 218 5 is_stmt 1 view .LVU134
 558              		.loc 1 218 27 is_stmt 0 view .LVU135
 559 0036 124B     		ldr	r3, .L49
 560 0038 1B68     		ldr	r3, [r3]
 561              		.loc 1 218 9 view .LVU136
 562 003a 0422     		movs	r2, #4
 563 003c 0DEB0201 		add	r1, sp, r2
 564 0040 1868     		ldr	r0, [r3]
 565 0042 FFF7FEFF 		bl	sx_spi_write
 566              	.LVL39:
 567              		.loc 1 218 8 discriminator 1 view .LVU137
 568 0046 0546     		mov	r5, r0
 569 0048 B0B9     		cbnz	r0, .L47
 219:SynaptiX_FDK/components/external_flash/sx_W25Q128.c **** 
 220:SynaptiX_FDK/components/external_flash/sx_W25Q128.c ****     w25q_wait_busy();
 570              		.loc 1 220 5 is_stmt 1 view .LVU138
 571 004a FFF7FEFF 		bl	w25q_wait_busy
 572              	.LVL40:
 221:SynaptiX_FDK/components/external_flash/sx_W25Q128.c ****     sx_delay_ms(5);
 573              		.loc 1 221 5 view .LVU139
 574 004e 0520     		movs	r0, #5
 575 0050 FFF7FEFF 		bl	sx_delay_ms
 576              	.LVL41:
 222:SynaptiX_FDK/components/external_flash/sx_W25Q128.c ****     log_info(TAG, "Sector erased at 0x%06lX", (unsigned long)addr);
 577              		.loc 1 222 5 view .LVU140
ARM GAS  C:\Users\LENOVO\AppData\Local\Temp\ccFz3vhf.s 			page 18


 578 0054 2346     		mov	r3, r4
 579 0056 0B4A     		ldr	r2, .L49+4
 580 0058 0B49     		ldr	r1, .L49+8
 581 005a 0320     		movs	r0, #3
 582 005c FFF7FEFF 		bl	log_func
 583              	.LVL42:
 223:SynaptiX_FDK/components/external_flash/sx_W25Q128.c ****     return 0;
 584              		.loc 1 223 5 view .LVU141
 585              	.L42:
 224:SynaptiX_FDK/components/external_flash/sx_W25Q128.c **** }
 586              		.loc 1 224 1 is_stmt 0 view .LVU142
 587 0060 2846     		mov	r0, r5
 588 0062 03B0     		add	sp, sp, #12
 589              	.LCFI16:
 590              		.cfi_remember_state
 591              		.cfi_def_cfa_offset 12
 592              		@ sp needed
 593 0064 30BD     		pop	{r4, r5, pc}
 594              	.LVL43:
 595              	.L44:
 596              	.LCFI17:
 597              		.cfi_restore_state
 205:SynaptiX_FDK/components/external_flash/sx_W25Q128.c **** 
 598              		.loc 1 205 47 discriminator 3 view .LVU143
 599 0066 4FF0FF35 		mov	r5, #-1
 600 006a F9E7     		b	.L42
 601              	.L45:
 602 006c 4FF0FF35 		mov	r5, #-1
 603 0070 F6E7     		b	.L42
 604              	.LVL44:
 605              	.L46:
 209:SynaptiX_FDK/components/external_flash/sx_W25Q128.c **** 
 606              		.loc 1 209 38 discriminator 1 view .LVU144
 607 0072 4FF0FF35 		mov	r5, #-1
 608 0076 F3E7     		b	.L42
 609              	.L47:
 218:SynaptiX_FDK/components/external_flash/sx_W25Q128.c **** 
 610              		.loc 1 218 55 discriminator 1 view .LVU145
 611 0078 4FF0FF35 		mov	r5, #-1
 612 007c F0E7     		b	.L42
 613              	.L50:
 614 007e 00BF     		.align	2
 615              	.L49:
 616 0080 00000000 		.word	s_dev
 617 0084 00000000 		.word	.LC4
 618 0088 20000000 		.word	.LC1
 619              		.cfi_endproc
 620              	.LFE521:
 622              		.section	.rodata.w25q_wait_busy_long.str1.4,"aMS",%progbits,1
 623              		.align	2
 624              	.LC5:
 625 0000 77616974 		.ascii	"wait_busy_long TIMEOUT STATUS=0x%02X\000"
 625      5F627573 
 625      795F6C6F 
 625      6E672054 
 625      494D454F 
 626 0025 000000   		.align	2
ARM GAS  C:\Users\LENOVO\AppData\Local\Temp\ccFz3vhf.s 			page 19


 627              	.LC6:
 628 0028 77616974 		.ascii	"wait_busy_long done in %lu ms\000"
 628      5F627573 
 628      795F6C6F 
 628      6E672064 
 628      6F6E6520 
 629              		.section	.text.w25q_wait_busy_long,"ax",%progbits
 630              		.align	1
 631              		.syntax unified
 632              		.thumb
 633              		.thumb_func
 635              	w25q_wait_busy_long:
 636              	.LVL45:
 637              	.LFB516:
  65:SynaptiX_FDK/components/external_flash/sx_W25Q128.c ****     uint8_t tx[2] = { W25Q128_CMD_READ_STATUS1, 0xFF };
 638              		.loc 1 65 1 is_stmt 1 view -0
 639              		.cfi_startproc
 640              		@ args = 0, pretend = 0, frame = 8
 641              		@ frame_needed = 0, uses_anonymous_args = 0
  65:SynaptiX_FDK/components/external_flash/sx_W25Q128.c ****     uint8_t tx[2] = { W25Q128_CMD_READ_STATUS1, 0xFF };
 642              		.loc 1 65 1 is_stmt 0 view .LVU147
 643 0000 70B5     		push	{r4, r5, r6, lr}
 644              	.LCFI18:
 645              		.cfi_def_cfa_offset 16
 646              		.cfi_offset 4, -16
 647              		.cfi_offset 5, -12
 648              		.cfi_offset 6, -8
 649              		.cfi_offset 14, -4
 650 0002 82B0     		sub	sp, sp, #8
 651              	.LCFI19:
 652              		.cfi_def_cfa_offset 24
 653 0004 0646     		mov	r6, r0
  66:SynaptiX_FDK/components/external_flash/sx_W25Q128.c ****     uint8_t rx[2];
 654              		.loc 1 66 5 is_stmt 1 view .LVU148
  66:SynaptiX_FDK/components/external_flash/sx_W25Q128.c ****     uint8_t rx[2];
 655              		.loc 1 66 13 is_stmt 0 view .LVU149
 656 0006 4FF60573 		movw	r3, #65285
 657 000a ADF80430 		strh	r3, [sp, #4]	@ movhi
  67:SynaptiX_FDK/components/external_flash/sx_W25Q128.c ****     uint32_t elapsed = 0;
 658              		.loc 1 67 5 is_stmt 1 view .LVU150
  68:SynaptiX_FDK/components/external_flash/sx_W25Q128.c **** 
 659              		.loc 1 68 5 view .LVU151
 660              	.LVL46:
  68:SynaptiX_FDK/components/external_flash/sx_W25Q128.c **** 
 661              		.loc 1 68 14 is_stmt 0 view .LVU152
 662 000e 0024     		movs	r4, #0
 663              	.LVL47:
 664              	.L54:
  70:SynaptiX_FDK/components/external_flash/sx_W25Q128.c ****         sx_delay_ms(100);           
 665              		.loc 1 70 5 is_stmt 1 view .LVU153
  71:SynaptiX_FDK/components/external_flash/sx_W25Q128.c ****         elapsed += 100;
 666              		.loc 1 71 9 view .LVU154
 667 0010 6420     		movs	r0, #100
 668 0012 FFF7FEFF 		bl	sx_delay_ms
 669              	.LVL48:
  72:SynaptiX_FDK/components/external_flash/sx_W25Q128.c ****         sx_spi_write_read(s_dev->spi, tx, rx, 2);
 670              		.loc 1 72 9 view .LVU155
ARM GAS  C:\Users\LENOVO\AppData\Local\Temp\ccFz3vhf.s 			page 20


  72:SynaptiX_FDK/components/external_flash/sx_W25Q128.c ****         sx_spi_write_read(s_dev->spi, tx, rx, 2);
 671              		.loc 1 72 17 is_stmt 0 view .LVU156
 672 0016 6434     		adds	r4, r4, #100
 673              	.LVL49:
  73:SynaptiX_FDK/components/external_flash/sx_W25Q128.c ****         if (elapsed >= timeout_ms) {
 674              		.loc 1 73 9 is_stmt 1 view .LVU157
  73:SynaptiX_FDK/components/external_flash/sx_W25Q128.c ****         if (elapsed >= timeout_ms) {
 675              		.loc 1 73 32 is_stmt 0 view .LVU158
 676 0018 0F4B     		ldr	r3, .L57
 677 001a 1D68     		ldr	r5, [r3]
  73:SynaptiX_FDK/components/external_flash/sx_W25Q128.c ****         if (elapsed >= timeout_ms) {
 678              		.loc 1 73 9 view .LVU159
 679 001c 0223     		movs	r3, #2
 680 001e 6A46     		mov	r2, sp
 681 0020 01A9     		add	r1, sp, #4
 682 0022 2868     		ldr	r0, [r5]
 683 0024 FFF7FEFF 		bl	sx_spi_write_read
 684              	.LVL50:
  74:SynaptiX_FDK/components/external_flash/sx_W25Q128.c ****             log_error("W25Q128", "wait_busy_long TIMEOUT STATUS=0x%02X", rx[1]);
 685              		.loc 1 74 9 is_stmt 1 view .LVU160
  74:SynaptiX_FDK/components/external_flash/sx_W25Q128.c ****             log_error("W25Q128", "wait_busy_long TIMEOUT STATUS=0x%02X", rx[1]);
 686              		.loc 1 74 12 is_stmt 0 view .LVU161
 687 0028 B442     		cmp	r4, r6
 688 002a 0BD2     		bcs	.L56
  78:SynaptiX_FDK/components/external_flash/sx_W25Q128.c **** 
 689              		.loc 1 78 14 is_stmt 1 view .LVU162
  78:SynaptiX_FDK/components/external_flash/sx_W25Q128.c **** 
 690              		.loc 1 78 16 is_stmt 0 view .LVU163
 691 002c 9DF80130 		ldrb	r3, [sp, #1]	@ zero_extendqisi2
  78:SynaptiX_FDK/components/external_flash/sx_W25Q128.c **** 
 692              		.loc 1 78 14 view .LVU164
 693 0030 13F0010F 		tst	r3, #1
 694 0034 ECD1     		bne	.L54
  80:SynaptiX_FDK/components/external_flash/sx_W25Q128.c **** }
 695              		.loc 1 80 5 is_stmt 1 view .LVU165
 696 0036 2346     		mov	r3, r4
 697 0038 084A     		ldr	r2, .L57+4
 698 003a 0949     		ldr	r1, .L57+8
 699 003c 0320     		movs	r0, #3
 700 003e FFF7FEFF 		bl	log_func
 701              	.LVL51:
 702 0042 06E0     		b	.L51
 703              	.L56:
  75:SynaptiX_FDK/components/external_flash/sx_W25Q128.c ****             return;
 704              		.loc 1 75 13 view .LVU166
 705 0044 9DF80130 		ldrb	r3, [sp, #1]	@ zero_extendqisi2
 706 0048 064A     		ldr	r2, .L57+12
 707 004a 0549     		ldr	r1, .L57+8
 708 004c 0120     		movs	r0, #1
 709 004e FFF7FEFF 		bl	log_func
 710              	.LVL52:
  76:SynaptiX_FDK/components/external_flash/sx_W25Q128.c ****         }
 711              		.loc 1 76 13 view .LVU167
 712              	.L51:
  81:SynaptiX_FDK/components/external_flash/sx_W25Q128.c **** 
 713              		.loc 1 81 1 is_stmt 0 view .LVU168
 714 0052 02B0     		add	sp, sp, #8
ARM GAS  C:\Users\LENOVO\AppData\Local\Temp\ccFz3vhf.s 			page 21


 715              	.LCFI20:
 716              		.cfi_def_cfa_offset 16
 717              		@ sp needed
 718 0054 70BD     		pop	{r4, r5, r6, pc}
 719              	.LVL53:
 720              	.L58:
  81:SynaptiX_FDK/components/external_flash/sx_W25Q128.c **** 
 721              		.loc 1 81 1 view .LVU169
 722 0056 00BF     		.align	2
 723              	.L57:
 724 0058 00000000 		.word	s_dev
 725 005c 28000000 		.word	.LC6
 726 0060 20000000 		.word	.LC1
 727 0064 00000000 		.word	.LC5
 728              		.cfi_endproc
 729              	.LFE516:
 731              		.section	.rodata.sx_W25Q128_read.str1.4,"aMS",%progbits,1
 732              		.align	2
 733              	.LC7:
 734 0000 72656164 		.ascii	"read: enter addr=0x%06lX len=%lu s_dev=%p initializ"
 734      3A20656E 
 734      74657220 
 734      61646472 
 734      3D307825 
 735 0033 65643D25 		.ascii	"ed=%d\000"
 735      6400
 736 0039 000000   		.align	2
 737              	.LC8:
 738 003c 7370695F 		.ascii	"spi_write_read failed at addr=0x%06lX chunk=%lu\000"
 738      77726974 
 738      655F7265 
 738      61642066 
 738      61696C65 
 739              		.section	.text.sx_W25Q128_read,"ax",%progbits
 740              		.align	1
 741              		.global	sx_W25Q128_read
 742              		.syntax unified
 743              		.thumb
 744              		.thumb_func
 746              	sx_W25Q128_read:
 747              	.LVL54:
 748              	.LFB519:
 125:SynaptiX_FDK/components/external_flash/sx_W25Q128.c ****     // DEBUG: temporary trace to confirm we reach this function and don't bail out silently.
 749              		.loc 1 125 1 is_stmt 1 view -0
 750              		.cfi_startproc
 751              		@ args = 0, pretend = 0, frame = 520
 752              		@ frame_needed = 0, uses_anonymous_args = 0
 125:SynaptiX_FDK/components/external_flash/sx_W25Q128.c ****     // DEBUG: temporary trace to confirm we reach this function and don't bail out silently.
 753              		.loc 1 125 1 is_stmt 0 view .LVU171
 754 0000 2DE9F043 		push	{r4, r5, r6, r7, r8, r9, lr}
 755              	.LCFI21:
 756              		.cfi_def_cfa_offset 28
 757              		.cfi_offset 4, -28
 758              		.cfi_offset 5, -24
 759              		.cfi_offset 6, -20
 760              		.cfi_offset 7, -16
 761              		.cfi_offset 8, -12
ARM GAS  C:\Users\LENOVO\AppData\Local\Temp\ccFz3vhf.s 			page 22


 762              		.cfi_offset 9, -8
 763              		.cfi_offset 14, -4
 764 0004 ADF5077D 		sub	sp, sp, #540
 765              	.LCFI22:
 766              		.cfi_def_cfa_offset 568
 767 0008 8046     		mov	r8, r0
 768 000a 8946     		mov	r9, r1
 769 000c 1746     		mov	r7, r2
 127:SynaptiX_FDK/components/external_flash/sx_W25Q128.c ****       (unsigned long)addr, (unsigned long)len, (void*)s_dev, s_dev ? (int)s_dev->initialized : -1);
 770              		.loc 1 127 5 is_stmt 1 view .LVU172
 771 000e 334B     		ldr	r3, .L75
 772 0010 1B68     		ldr	r3, [r3]
 773 0012 BBB1     		cbz	r3, .L66
 127:SynaptiX_FDK/components/external_flash/sx_W25Q128.c ****       (unsigned long)addr, (unsigned long)len, (void*)s_dev, s_dev ? (int)s_dev->initialized : -1);
 774              		.loc 1 127 5 is_stmt 0 discriminator 1 view .LVU173
 775 0014 1A79     		ldrb	r2, [r3, #4]	@ zero_extendqisi2
 776              	.LVL55:
 777              	.L60:
 127:SynaptiX_FDK/components/external_flash/sx_W25Q128.c ****       (unsigned long)addr, (unsigned long)len, (void*)s_dev, s_dev ? (int)s_dev->initialized : -1);
 778              		.loc 1 127 5 discriminator 4 view .LVU174
 779 0016 0292     		str	r2, [sp, #8]
 780 0018 0193     		str	r3, [sp, #4]
 781 001a 0097     		str	r7, [sp]
 782 001c 4346     		mov	r3, r8
 783 001e 304A     		ldr	r2, .L75+4
 784 0020 3049     		ldr	r1, .L75+8
 785              	.LVL56:
 127:SynaptiX_FDK/components/external_flash/sx_W25Q128.c ****       (unsigned long)addr, (unsigned long)len, (void*)s_dev, s_dev ? (int)s_dev->initialized : -1);
 786              		.loc 1 127 5 discriminator 4 view .LVU175
 787 0022 0320     		movs	r0, #3
 788              	.LVL57:
 127:SynaptiX_FDK/components/external_flash/sx_W25Q128.c ****       (unsigned long)addr, (unsigned long)len, (void*)s_dev, s_dev ? (int)s_dev->initialized : -1);
 789              		.loc 1 127 5 discriminator 4 view .LVU176
 790 0024 FFF7FEFF 		bl	log_func
 791              	.LVL58:
 129:SynaptiX_FDK/components/external_flash/sx_W25Q128.c ****     if (buf == NULL || len == 0)        return -1;
 792              		.loc 1 129 5 is_stmt 1 view .LVU177
 129:SynaptiX_FDK/components/external_flash/sx_W25Q128.c ****     if (buf == NULL || len == 0)        return -1;
 793              		.loc 1 129 9 is_stmt 0 view .LVU178
 794 0028 2C4B     		ldr	r3, .L75
 795 002a 1B68     		ldr	r3, [r3]
 129:SynaptiX_FDK/components/external_flash/sx_W25Q128.c ****     if (buf == NULL || len == 0)        return -1;
 796              		.loc 1 129 8 view .LVU179
 797 002c 002B     		cmp	r3, #0
 798 002e 48D0     		beq	.L67
 129:SynaptiX_FDK/components/external_flash/sx_W25Q128.c ****     if (buf == NULL || len == 0)        return -1;
 799              		.loc 1 129 25 discriminator 2 view .LVU180
 800 0030 1B79     		ldrb	r3, [r3, #4]	@ zero_extendqisi2
 129:SynaptiX_FDK/components/external_flash/sx_W25Q128.c ****     if (buf == NULL || len == 0)        return -1;
 801              		.loc 1 129 16 discriminator 2 view .LVU181
 802 0032 002B     		cmp	r3, #0
 803 0034 48D0     		beq	.L68
 130:SynaptiX_FDK/components/external_flash/sx_W25Q128.c **** 
 804              		.loc 1 130 5 is_stmt 1 view .LVU182
 130:SynaptiX_FDK/components/external_flash/sx_W25Q128.c **** 
 805              		.loc 1 130 8 is_stmt 0 view .LVU183
 806 0036 B9F1000F 		cmp	r9, #0
ARM GAS  C:\Users\LENOVO\AppData\Local\Temp\ccFz3vhf.s 			page 23


 807 003a 48D0     		beq	.L69
 130:SynaptiX_FDK/components/external_flash/sx_W25Q128.c **** 
 808              		.loc 1 130 21 discriminator 2 view .LVU184
 809 003c 002F     		cmp	r7, #0
 810 003e 49D0     		beq	.L70
 132:SynaptiX_FDK/components/external_flash/sx_W25Q128.c ****     while (offset < len) {
 811              		.loc 1 132 14 view .LVU185
 812 0040 0025     		movs	r5, #0
 813 0042 26E0     		b	.L62
 814              	.LVL59:
 815              	.L66:
 127:SynaptiX_FDK/components/external_flash/sx_W25Q128.c ****       (unsigned long)addr, (unsigned long)len, (void*)s_dev, s_dev ? (int)s_dev->initialized : -1);
 816              		.loc 1 127 5 discriminator 2 view .LVU186
 817 0044 4FF0FF32 		mov	r2, #-1
 818              	.LVL60:
 127:SynaptiX_FDK/components/external_flash/sx_W25Q128.c ****       (unsigned long)addr, (unsigned long)len, (void*)s_dev, s_dev ? (int)s_dev->initialized : -1);
 819              		.loc 1 127 5 discriminator 2 view .LVU187
 820 0048 E5E7     		b	.L60
 821              	.LVL61:
 822              	.L63:
 823              	.LBB5:
 137:SynaptiX_FDK/components/external_flash/sx_W25Q128.c ****         uint8_t rx[4 + W25Q128_MAX_READ_LEN];
 824              		.loc 1 137 9 is_stmt 1 view .LVU188
 138:SynaptiX_FDK/components/external_flash/sx_W25Q128.c **** 
 825              		.loc 1 138 9 view .LVU189
 140:SynaptiX_FDK/components/external_flash/sx_W25Q128.c ****         tx[0] = W25Q128_CMD_READ_DATA;
 826              		.loc 1 140 9 view .LVU190
 140:SynaptiX_FDK/components/external_flash/sx_W25Q128.c ****         tx[0] = W25Q128_CMD_READ_DATA;
 827              		.loc 1 140 18 is_stmt 0 view .LVU191
 828 004a 05EB0806 		add	r6, r5, r8
 829              	.LVL62:
 141:SynaptiX_FDK/components/external_flash/sx_W25Q128.c ****         tx[1] = (uint8_t)(cur_addr >> 16);
 830              		.loc 1 141 9 is_stmt 1 view .LVU192
 141:SynaptiX_FDK/components/external_flash/sx_W25Q128.c ****         tx[1] = (uint8_t)(cur_addr >> 16);
 831              		.loc 1 141 15 is_stmt 0 view .LVU193
 832 004e 0323     		movs	r3, #3
 833 0050 8DF81030 		strb	r3, [sp, #16]
 142:SynaptiX_FDK/components/external_flash/sx_W25Q128.c ****         tx[2] = (uint8_t)(cur_addr >>  8);
 834              		.loc 1 142 9 is_stmt 1 view .LVU194
 142:SynaptiX_FDK/components/external_flash/sx_W25Q128.c ****         tx[2] = (uint8_t)(cur_addr >>  8);
 835              		.loc 1 142 17 is_stmt 0 view .LVU195
 836 0054 C6F30743 		ubfx	r3, r6, #16, #8
 142:SynaptiX_FDK/components/external_flash/sx_W25Q128.c ****         tx[2] = (uint8_t)(cur_addr >>  8);
 837              		.loc 1 142 15 view .LVU196
 838 0058 8DF81130 		strb	r3, [sp, #17]
 143:SynaptiX_FDK/components/external_flash/sx_W25Q128.c ****         tx[3] = (uint8_t)(cur_addr >>  0);
 839              		.loc 1 143 9 is_stmt 1 view .LVU197
 143:SynaptiX_FDK/components/external_flash/sx_W25Q128.c ****         tx[3] = (uint8_t)(cur_addr >>  0);
 840              		.loc 1 143 17 is_stmt 0 view .LVU198
 841 005c C6F30723 		ubfx	r3, r6, #8, #8
 143:SynaptiX_FDK/components/external_flash/sx_W25Q128.c ****         tx[3] = (uint8_t)(cur_addr >>  0);
 842              		.loc 1 143 15 view .LVU199
 843 0060 8DF81230 		strb	r3, [sp, #18]
 144:SynaptiX_FDK/components/external_flash/sx_W25Q128.c ****         memset(tx + 4, 0x00, chunk);
 844              		.loc 1 144 9 is_stmt 1 view .LVU200
 144:SynaptiX_FDK/components/external_flash/sx_W25Q128.c ****         memset(tx + 4, 0x00, chunk);
 845              		.loc 1 144 15 is_stmt 0 view .LVU201
ARM GAS  C:\Users\LENOVO\AppData\Local\Temp\ccFz3vhf.s 			page 24


 846 0064 8DF81360 		strb	r6, [sp, #19]
 145:SynaptiX_FDK/components/external_flash/sx_W25Q128.c **** 
 847              		.loc 1 145 9 is_stmt 1 view .LVU202
 848 0068 2246     		mov	r2, r4
 849 006a 0021     		movs	r1, #0
 850 006c 05A8     		add	r0, sp, #20
 851 006e FFF7FEFF 		bl	memset
 852              	.LVL63:
 147:SynaptiX_FDK/components/external_flash/sx_W25Q128.c ****             log_error(TAG, "spi_write_read failed at addr=0x%06lX chunk=%lu",
 853              		.loc 1 147 9 view .LVU203
 147:SynaptiX_FDK/components/external_flash/sx_W25Q128.c ****             log_error(TAG, "spi_write_read failed at addr=0x%06lX chunk=%lu",
 854              		.loc 1 147 36 is_stmt 0 view .LVU204
 855 0072 1A4B     		ldr	r3, .L75
 856 0074 1868     		ldr	r0, [r3]
 147:SynaptiX_FDK/components/external_flash/sx_W25Q128.c ****             log_error(TAG, "spi_write_read failed at addr=0x%06lX chunk=%lu",
 857              		.loc 1 147 13 view .LVU205
 858 0076 231D     		adds	r3, r4, #4
 859 0078 45AA     		add	r2, sp, #276
 860 007a 04A9     		add	r1, sp, #16
 861 007c 0068     		ldr	r0, [r0]
 862 007e FFF7FEFF 		bl	sx_spi_write_read
 863              	.LVL64:
 147:SynaptiX_FDK/components/external_flash/sx_W25Q128.c ****             log_error(TAG, "spi_write_read failed at addr=0x%06lX chunk=%lu",
 864              		.loc 1 147 12 discriminator 1 view .LVU206
 865 0082 78B9     		cbnz	r0, .L73
 152:SynaptiX_FDK/components/external_flash/sx_W25Q128.c **** 
 866              		.loc 1 152 9 is_stmt 1 view .LVU207
 867 0084 2246     		mov	r2, r4
 868 0086 46A9     		add	r1, sp, #280
 869 0088 09EB0500 		add	r0, r9, r5
 870 008c FFF7FEFF 		bl	memcpy
 871              	.LVL65:
 154:SynaptiX_FDK/components/external_flash/sx_W25Q128.c ****     }
 872              		.loc 1 154 9 view .LVU208
 154:SynaptiX_FDK/components/external_flash/sx_W25Q128.c ****     }
 873              		.loc 1 154 16 is_stmt 0 view .LVU209
 874 0090 2544     		add	r5, r5, r4
 875              	.LVL66:
 876              	.L62:
 154:SynaptiX_FDK/components/external_flash/sx_W25Q128.c ****     }
 877              		.loc 1 154 16 view .LVU210
 878              	.LBE5:
 133:SynaptiX_FDK/components/external_flash/sx_W25Q128.c ****         uint32_t chunk = len - offset;
 879              		.loc 1 133 19 is_stmt 1 view .LVU211
 880 0092 BD42     		cmp	r5, r7
 881 0094 10D2     		bcs	.L74
 882              	.LBB6:
 134:SynaptiX_FDK/components/external_flash/sx_W25Q128.c ****         if (chunk > W25Q128_MAX_READ_LEN) chunk = W25Q128_MAX_READ_LEN;
 883              		.loc 1 134 9 view .LVU212
 134:SynaptiX_FDK/components/external_flash/sx_W25Q128.c ****         if (chunk > W25Q128_MAX_READ_LEN) chunk = W25Q128_MAX_READ_LEN;
 884              		.loc 1 134 18 is_stmt 0 view .LVU213
 885 0096 7C1B     		subs	r4, r7, r5
 886              	.LVL67:
 135:SynaptiX_FDK/components/external_flash/sx_W25Q128.c **** 
 887              		.loc 1 135 9 is_stmt 1 view .LVU214
 135:SynaptiX_FDK/components/external_flash/sx_W25Q128.c **** 
 888              		.loc 1 135 12 is_stmt 0 view .LVU215
ARM GAS  C:\Users\LENOVO\AppData\Local\Temp\ccFz3vhf.s 			page 25


 889 0098 B4F5807F 		cmp	r4, #256
 890 009c D5D9     		bls	.L63
 135:SynaptiX_FDK/components/external_flash/sx_W25Q128.c **** 
 891              		.loc 1 135 49 discriminator 1 view .LVU216
 892 009e 4FF48074 		mov	r4, #256
 893              	.LVL68:
 135:SynaptiX_FDK/components/external_flash/sx_W25Q128.c **** 
 894              		.loc 1 135 49 discriminator 1 view .LVU217
 895 00a2 D2E7     		b	.L63
 896              	.LVL69:
 897              	.L73:
 148:SynaptiX_FDK/components/external_flash/sx_W25Q128.c ****               (unsigned long)cur_addr, (unsigned long)chunk);
 898              		.loc 1 148 13 is_stmt 1 view .LVU218
 899 00a4 0094     		str	r4, [sp]
 900 00a6 3346     		mov	r3, r6
 901 00a8 0F4A     		ldr	r2, .L75+12
 902 00aa 0E49     		ldr	r1, .L75+8
 903 00ac 0120     		movs	r0, #1
 904 00ae FFF7FEFF 		bl	log_func
 905              	.LVL70:
 150:SynaptiX_FDK/components/external_flash/sx_W25Q128.c ****         }
 906              		.loc 1 150 13 view .LVU219
 150:SynaptiX_FDK/components/external_flash/sx_W25Q128.c ****         }
 907              		.loc 1 150 20 is_stmt 0 view .LVU220
 908 00b2 4FF0FF30 		mov	r0, #-1
 909 00b6 00E0     		b	.L59
 910              	.LVL71:
 911              	.L74:
 150:SynaptiX_FDK/components/external_flash/sx_W25Q128.c ****         }
 912              		.loc 1 150 20 view .LVU221
 913              	.LBE6:
 156:SynaptiX_FDK/components/external_flash/sx_W25Q128.c **** }
 914              		.loc 1 156 12 view .LVU222
 915 00b8 0020     		movs	r0, #0
 916              	.LVL72:
 917              	.L59:
 157:SynaptiX_FDK/components/external_flash/sx_W25Q128.c **** 
 918              		.loc 1 157 1 view .LVU223
 919 00ba 0DF5077D 		add	sp, sp, #540
 920              	.LCFI23:
 921              		.cfi_remember_state
 922              		.cfi_def_cfa_offset 28
 923              		@ sp needed
 924 00be BDE8F083 		pop	{r4, r5, r6, r7, r8, r9, pc}
 925              	.LVL73:
 926              	.L67:
 927              	.LCFI24:
 928              		.cfi_restore_state
 129:SynaptiX_FDK/components/external_flash/sx_W25Q128.c ****     if (buf == NULL || len == 0)        return -1;
 929              		.loc 1 129 47 discriminator 3 view .LVU224
 930 00c2 4FF0FF30 		mov	r0, #-1
 931 00c6 F8E7     		b	.L59
 932              	.L68:
 933 00c8 4FF0FF30 		mov	r0, #-1
 934 00cc F5E7     		b	.L59
 935              	.L69:
 130:SynaptiX_FDK/components/external_flash/sx_W25Q128.c **** 
ARM GAS  C:\Users\LENOVO\AppData\Local\Temp\ccFz3vhf.s 			page 26


 936              		.loc 1 130 48 discriminator 3 view .LVU225
 937 00ce 4FF0FF30 		mov	r0, #-1
 938 00d2 F2E7     		b	.L59
 939              	.L70:
 940 00d4 4FF0FF30 		mov	r0, #-1
 941 00d8 EFE7     		b	.L59
 942              	.L76:
 943 00da 00BF     		.align	2
 944              	.L75:
 945 00dc 00000000 		.word	s_dev
 946 00e0 00000000 		.word	.LC7
 947 00e4 20000000 		.word	.LC1
 948 00e8 3C000000 		.word	.LC8
 949              		.cfi_endproc
 950              	.LFE519:
 952              		.section	.rodata.sx_W25Q128_write.str1.4,"aMS",%progbits,1
 953              		.align	2
 954              	.LC9:
 955 0000 77726974 		.ascii	"write_enable FAILED\000"
 955      655F656E 
 955      61626C65 
 955      20464149 
 955      4C454400 
 956              		.align	2
 957              	.LC10:
 958 0014 53544154 		.ascii	"STATUS1 before write addr=0x%06lX: 0x%02X (WEL=%d)\000"
 958      55533120 
 958      6265666F 
 958      72652077 
 958      72697465 
 959 0047 00       		.align	2
 960              	.LC11:
 961 0048 53544154 		.ascii	"STATUS1 JUST BEFORE page_program: 0x%02X\000"
 961      55533120 
 961      4A555354 
 961      20424546 
 961      4F524520 
 962 0071 000000   		.align	2
 963              	.LC12:
 964 0074 7370695F 		.ascii	"spi_write FAILED\000"
 964      77726974 
 964      65204641 
 964      494C4544 
 964      00
 965              		.section	.text.sx_W25Q128_write,"ax",%progbits
 966              		.align	1
 967              		.global	sx_W25Q128_write
 968              		.syntax unified
 969              		.thumb
 970              		.thumb_func
 972              	sx_W25Q128_write:
 973              	.LVL74:
 974              	.LFB520:
 160:SynaptiX_FDK/components/external_flash/sx_W25Q128.c ****     if (!s_dev || !s_dev->initialized)   return -1;
 975              		.loc 1 160 1 is_stmt 1 view -0
 976              		.cfi_startproc
 977              		@ args = 0, pretend = 0, frame = 288
ARM GAS  C:\Users\LENOVO\AppData\Local\Temp\ccFz3vhf.s 			page 27


 978              		@ frame_needed = 0, uses_anonymous_args = 0
 160:SynaptiX_FDK/components/external_flash/sx_W25Q128.c ****     if (!s_dev || !s_dev->initialized)   return -1;
 979              		.loc 1 160 1 is_stmt 0 view .LVU227
 980 0000 2DE9F04F 		push	{r4, r5, r6, r7, r8, r9, r10, fp, lr}
 981              	.LCFI25:
 982              		.cfi_def_cfa_offset 36
 983              		.cfi_offset 4, -36
 984              		.cfi_offset 5, -32
 985              		.cfi_offset 6, -28
 986              		.cfi_offset 7, -24
 987              		.cfi_offset 8, -20
 988              		.cfi_offset 9, -16
 989              		.cfi_offset 10, -12
 990              		.cfi_offset 11, -8
 991              		.cfi_offset 14, -4
 992 0004 CBB0     		sub	sp, sp, #300
 993              	.LCFI26:
 994              		.cfi_def_cfa_offset 336
 995 0006 0290     		str	r0, [sp, #8]
 161:SynaptiX_FDK/components/external_flash/sx_W25Q128.c ****     if (buf == NULL || len == 0)          return -1;
 996              		.loc 1 161 5 is_stmt 1 view .LVU228
 161:SynaptiX_FDK/components/external_flash/sx_W25Q128.c ****     if (buf == NULL || len == 0)          return -1;
 997              		.loc 1 161 9 is_stmt 0 view .LVU229
 998 0008 444B     		ldr	r3, .L93
 999 000a 1B68     		ldr	r3, [r3]
 161:SynaptiX_FDK/components/external_flash/sx_W25Q128.c ****     if (buf == NULL || len == 0)          return -1;
 1000              		.loc 1 161 8 view .LVU230
 1001 000c 002B     		cmp	r3, #0
 1002 000e 79D0     		beq	.L85
 1003 0010 9046     		mov	r8, r2
 161:SynaptiX_FDK/components/external_flash/sx_W25Q128.c ****     if (buf == NULL || len == 0)          return -1;
 1004              		.loc 1 161 25 discriminator 2 view .LVU231
 1005 0012 1B79     		ldrb	r3, [r3, #4]	@ zero_extendqisi2
 161:SynaptiX_FDK/components/external_flash/sx_W25Q128.c ****     if (buf == NULL || len == 0)          return -1;
 1006              		.loc 1 161 16 discriminator 2 view .LVU232
 1007 0014 002B     		cmp	r3, #0
 1008 0016 78D0     		beq	.L86
 162:SynaptiX_FDK/components/external_flash/sx_W25Q128.c ****     uint32_t offset = 0;
 1009              		.loc 1 162 5 is_stmt 1 view .LVU233
 162:SynaptiX_FDK/components/external_flash/sx_W25Q128.c ****     uint32_t offset = 0;
 1010              		.loc 1 162 8 is_stmt 0 view .LVU234
 1011 0018 0029     		cmp	r1, #0
 1012 001a 79D0     		beq	.L87
 162:SynaptiX_FDK/components/external_flash/sx_W25Q128.c ****     uint32_t offset = 0;
 1013              		.loc 1 162 21 discriminator 2 view .LVU235
 1014 001c 002A     		cmp	r2, #0
 1015 001e 7AD0     		beq	.L88
 163:SynaptiX_FDK/components/external_flash/sx_W25Q128.c ****     while (offset < len) {
 1016              		.loc 1 163 14 view .LVU236
 1017 0020 0024     		movs	r4, #0
 1018 0022 0391     		str	r1, [sp, #12]
 1019 0024 4FE0     		b	.L79
 1020              	.LVL75:
 1021              	.L80:
 1022              	.LBB7:
 169:SynaptiX_FDK/components/external_flash/sx_W25Q128.c ****             log_error(TAG, "write_enable FAILED");
 1023              		.loc 1 169 9 is_stmt 1 view .LVU237
ARM GAS  C:\Users\LENOVO\AppData\Local\Temp\ccFz3vhf.s 			page 28


 169:SynaptiX_FDK/components/external_flash/sx_W25Q128.c ****             log_error(TAG, "write_enable FAILED");
 1024              		.loc 1 169 14 is_stmt 0 view .LVU238
 1025 0026 FFF7FEFF 		bl	w25q_write_enable
 1026              	.LVL76:
 169:SynaptiX_FDK/components/external_flash/sx_W25Q128.c ****             log_error(TAG, "write_enable FAILED");
 1027              		.loc 1 169 12 discriminator 1 view .LVU239
 1028 002a 0028     		cmp	r0, #0
 1029 002c 58D0     		beq	.L90
 174:SynaptiX_FDK/components/external_flash/sx_W25Q128.c ****         uint8_t srx[2] = { 0 };
 1030              		.loc 1 174 9 is_stmt 1 view .LVU240
 174:SynaptiX_FDK/components/external_flash/sx_W25Q128.c ****         uint8_t srx[2] = { 0 };
 1031              		.loc 1 174 17 is_stmt 0 view .LVU241
 1032 002e 4FF0050B 		mov	fp, #5
 1033 0032 ADF814B0 		strh	fp, [sp, #20]	@ movhi
 175:SynaptiX_FDK/components/external_flash/sx_W25Q128.c ****         sx_spi_write_read(s_dev->spi, stx, srx, 2);
 1034              		.loc 1 175 9 is_stmt 1 view .LVU242
 175:SynaptiX_FDK/components/external_flash/sx_W25Q128.c ****         sx_spi_write_read(s_dev->spi, stx, srx, 2);
 1035              		.loc 1 175 17 is_stmt 0 view .LVU243
 1036 0036 4FF0000A 		mov	r10, #0
 1037 003a ADF818A0 		strh	r10, [sp, #24]	@ movhi
 176:SynaptiX_FDK/components/external_flash/sx_W25Q128.c ****         log_info(TAG, "STATUS1 before write addr=0x%06lX: 0x%02X (WEL=%d)", (unsigned long)(addr + 
 1038              		.loc 1 176 9 is_stmt 1 view .LVU244
 176:SynaptiX_FDK/components/external_flash/sx_W25Q128.c ****         log_info(TAG, "STATUS1 before write addr=0x%06lX: 0x%02X (WEL=%d)", (unsigned long)(addr + 
 1039              		.loc 1 176 32 is_stmt 0 view .LVU245
 1040 003e 374F     		ldr	r7, .L93
 1041 0040 3868     		ldr	r0, [r7]
 176:SynaptiX_FDK/components/external_flash/sx_W25Q128.c ****         log_info(TAG, "STATUS1 before write addr=0x%06lX: 0x%02X (WEL=%d)", (unsigned long)(addr + 
 1042              		.loc 1 176 9 view .LVU246
 1043 0042 0223     		movs	r3, #2
 1044 0044 06AA     		add	r2, sp, #24
 1045 0046 05A9     		add	r1, sp, #20
 1046 0048 0068     		ldr	r0, [r0]
 1047 004a FFF7FEFF 		bl	sx_spi_write_read
 1048              	.LVL77:
 177:SynaptiX_FDK/components/external_flash/sx_W25Q128.c **** 
 1049              		.loc 1 177 9 is_stmt 1 view .LVU247
 1050 004e 9DF81930 		ldrb	r3, [sp, #25]	@ zero_extendqisi2
 1051 0052 C3F34002 		ubfx	r2, r3, #1, #1
 1052 0056 0192     		str	r2, [sp, #4]
 1053 0058 0093     		str	r3, [sp]
 1054 005a 2B46     		mov	r3, r5
 1055 005c 304A     		ldr	r2, .L93+4
 1056 005e 3149     		ldr	r1, .L93+8
 1057 0060 0320     		movs	r0, #3
 1058 0062 FFF7FEFF 		bl	log_func
 1059              	.LVL78:
 179:SynaptiX_FDK/components/external_flash/sx_W25Q128.c ****         uint32_t cur_addr = addr + offset;
 1060              		.loc 1 179 9 view .LVU248
 180:SynaptiX_FDK/components/external_flash/sx_W25Q128.c ****         tx[0] = W25Q128_CMD_PAGE_PROGRAM;
 1061              		.loc 1 180 9 view .LVU249
 181:SynaptiX_FDK/components/external_flash/sx_W25Q128.c ****         tx[1] = (uint8_t)(cur_addr >> 16);
 1062              		.loc 1 181 9 view .LVU250
 181:SynaptiX_FDK/components/external_flash/sx_W25Q128.c ****         tx[1] = (uint8_t)(cur_addr >> 16);
 1063              		.loc 1 181 15 is_stmt 0 view .LVU251
 1064 0066 4FF00209 		mov	r9, #2
 1065 006a 8DF82490 		strb	r9, [sp, #36]
 182:SynaptiX_FDK/components/external_flash/sx_W25Q128.c ****         tx[2] = (uint8_t)(cur_addr >>  8);
ARM GAS  C:\Users\LENOVO\AppData\Local\Temp\ccFz3vhf.s 			page 29


 1066              		.loc 1 182 9 is_stmt 1 view .LVU252
 182:SynaptiX_FDK/components/external_flash/sx_W25Q128.c ****         tx[2] = (uint8_t)(cur_addr >>  8);
 1067              		.loc 1 182 17 is_stmt 0 view .LVU253
 1068 006e C5F30743 		ubfx	r3, r5, #16, #8
 182:SynaptiX_FDK/components/external_flash/sx_W25Q128.c ****         tx[2] = (uint8_t)(cur_addr >>  8);
 1069              		.loc 1 182 15 view .LVU254
 1070 0072 8DF82530 		strb	r3, [sp, #37]
 183:SynaptiX_FDK/components/external_flash/sx_W25Q128.c ****         tx[3] = (uint8_t)(cur_addr >>  0);
 1071              		.loc 1 183 9 is_stmt 1 view .LVU255
 183:SynaptiX_FDK/components/external_flash/sx_W25Q128.c ****         tx[3] = (uint8_t)(cur_addr >>  0);
 1072              		.loc 1 183 17 is_stmt 0 view .LVU256
 1073 0076 C5F30723 		ubfx	r3, r5, #8, #8
 183:SynaptiX_FDK/components/external_flash/sx_W25Q128.c ****         tx[3] = (uint8_t)(cur_addr >>  0);
 1074              		.loc 1 183 15 view .LVU257
 1075 007a 8DF82630 		strb	r3, [sp, #38]
 184:SynaptiX_FDK/components/external_flash/sx_W25Q128.c ****         memcpy(tx + 4, buf + offset, chunk);
 1076              		.loc 1 184 9 is_stmt 1 view .LVU258
 184:SynaptiX_FDK/components/external_flash/sx_W25Q128.c ****         memcpy(tx + 4, buf + offset, chunk);
 1077              		.loc 1 184 15 is_stmt 0 view .LVU259
 1078 007e 8DF82750 		strb	r5, [sp, #39]
 185:SynaptiX_FDK/components/external_flash/sx_W25Q128.c **** 
 1079              		.loc 1 185 9 is_stmt 1 view .LVU260
 1080 0082 3246     		mov	r2, r6
 1081 0084 039B     		ldr	r3, [sp, #12]
 1082 0086 1919     		adds	r1, r3, r4
 1083 0088 0AA8     		add	r0, sp, #40
 1084 008a FFF7FEFF 		bl	memcpy
 1085              	.LVL79:
 187:SynaptiX_FDK/components/external_flash/sx_W25Q128.c ****         uint8_t srx2[2] = { 0 };
 1086              		.loc 1 187 9 view .LVU261
 187:SynaptiX_FDK/components/external_flash/sx_W25Q128.c ****         uint8_t srx2[2] = { 0 };
 1087              		.loc 1 187 17 is_stmt 0 view .LVU262
 1088 008e ADF81CB0 		strh	fp, [sp, #28]	@ movhi
 188:SynaptiX_FDK/components/external_flash/sx_W25Q128.c ****         sx_spi_write_read(s_dev->spi, stx2, srx2, 2);
 1089              		.loc 1 188 9 is_stmt 1 view .LVU263
 188:SynaptiX_FDK/components/external_flash/sx_W25Q128.c ****         sx_spi_write_read(s_dev->spi, stx2, srx2, 2);
 1090              		.loc 1 188 17 is_stmt 0 view .LVU264
 1091 0092 ADF820A0 		strh	r10, [sp, #32]	@ movhi
 189:SynaptiX_FDK/components/external_flash/sx_W25Q128.c ****         log_info(TAG, "STATUS1 JUST BEFORE page_program: 0x%02X", srx2[1]);
 1092              		.loc 1 189 9 is_stmt 1 view .LVU265
 189:SynaptiX_FDK/components/external_flash/sx_W25Q128.c ****         log_info(TAG, "STATUS1 JUST BEFORE page_program: 0x%02X", srx2[1]);
 1093              		.loc 1 189 32 is_stmt 0 view .LVU266
 1094 0096 3868     		ldr	r0, [r7]
 189:SynaptiX_FDK/components/external_flash/sx_W25Q128.c ****         log_info(TAG, "STATUS1 JUST BEFORE page_program: 0x%02X", srx2[1]);
 1095              		.loc 1 189 9 view .LVU267
 1096 0098 4B46     		mov	r3, r9
 1097 009a 08AA     		add	r2, sp, #32
 1098 009c 07A9     		add	r1, sp, #28
 1099 009e 0068     		ldr	r0, [r0]
 1100 00a0 FFF7FEFF 		bl	sx_spi_write_read
 1101              	.LVL80:
 190:SynaptiX_FDK/components/external_flash/sx_W25Q128.c **** 
 1102              		.loc 1 190 9 is_stmt 1 view .LVU268
 1103 00a4 9DF82130 		ldrb	r3, [sp, #33]	@ zero_extendqisi2
 1104 00a8 1F4A     		ldr	r2, .L93+12
 1105 00aa 1E49     		ldr	r1, .L93+8
 1106 00ac 0320     		movs	r0, #3
ARM GAS  C:\Users\LENOVO\AppData\Local\Temp\ccFz3vhf.s 			page 30


 1107 00ae FFF7FEFF 		bl	log_func
 1108              	.LVL81:
 192:SynaptiX_FDK/components/external_flash/sx_W25Q128.c ****             log_error(TAG, "spi_write FAILED");
 1109              		.loc 1 192 9 view .LVU269
 192:SynaptiX_FDK/components/external_flash/sx_W25Q128.c ****             log_error(TAG, "spi_write FAILED");
 1110              		.loc 1 192 31 is_stmt 0 view .LVU270
 1111 00b2 3B68     		ldr	r3, [r7]
 192:SynaptiX_FDK/components/external_flash/sx_W25Q128.c ****             log_error(TAG, "spi_write FAILED");
 1112              		.loc 1 192 13 view .LVU271
 1113 00b4 321D     		adds	r2, r6, #4
 1114 00b6 09A9     		add	r1, sp, #36
 1115 00b8 1868     		ldr	r0, [r3]
 1116 00ba FFF7FEFF 		bl	sx_spi_write
 1117              	.LVL82:
 192:SynaptiX_FDK/components/external_flash/sx_W25Q128.c ****             log_error(TAG, "spi_write FAILED");
 1118              		.loc 1 192 12 discriminator 1 view .LVU272
 1119 00be C8B9     		cbnz	r0, .L91
 197:SynaptiX_FDK/components/external_flash/sx_W25Q128.c ****         offset += chunk;
 1120              		.loc 1 197 9 is_stmt 1 view .LVU273
 1121 00c0 FFF7FEFF 		bl	w25q_wait_busy
 1122              	.LVL83:
 198:SynaptiX_FDK/components/external_flash/sx_W25Q128.c ****     }
 1123              		.loc 1 198 9 view .LVU274
 198:SynaptiX_FDK/components/external_flash/sx_W25Q128.c ****     }
 1124              		.loc 1 198 16 is_stmt 0 view .LVU275
 1125 00c4 3444     		add	r4, r4, r6
 1126              	.LVL84:
 1127              	.L79:
 198:SynaptiX_FDK/components/external_flash/sx_W25Q128.c ****     }
 1128              		.loc 1 198 16 view .LVU276
 1129              	.LBE7:
 164:SynaptiX_FDK/components/external_flash/sx_W25Q128.c ****         uint32_t page_offset = (addr + offset) % W25Q128_PAGE_SIZE;
 1130              		.loc 1 164 19 is_stmt 1 view .LVU277
 1131 00c6 4445     		cmp	r4, r8
 1132 00c8 1AD2     		bcs	.L92
 1133              	.LBB8:
 165:SynaptiX_FDK/components/external_flash/sx_W25Q128.c ****         uint32_t chunk = W25Q128_PAGE_SIZE - page_offset;
 1134              		.loc 1 165 9 view .LVU278
 165:SynaptiX_FDK/components/external_flash/sx_W25Q128.c ****         uint32_t chunk = W25Q128_PAGE_SIZE - page_offset;
 1135              		.loc 1 165 38 is_stmt 0 view .LVU279
 1136 00ca 029B     		ldr	r3, [sp, #8]
 1137 00cc E518     		adds	r5, r4, r3
 165:SynaptiX_FDK/components/external_flash/sx_W25Q128.c ****         uint32_t chunk = W25Q128_PAGE_SIZE - page_offset;
 1138              		.loc 1 165 18 view .LVU280
 1139 00ce EBB2     		uxtb	r3, r5
 1140              	.LVL85:
 166:SynaptiX_FDK/components/external_flash/sx_W25Q128.c ****         if (chunk > (len - offset)) chunk = len - offset;
 1141              		.loc 1 166 9 is_stmt 1 view .LVU281
 166:SynaptiX_FDK/components/external_flash/sx_W25Q128.c ****         if (chunk > (len - offset)) chunk = len - offset;
 1142              		.loc 1 166 18 is_stmt 0 view .LVU282
 1143 00d0 C3F58073 		rsb	r3, r3, #256
 1144              	.LVL86:
 167:SynaptiX_FDK/components/external_flash/sx_W25Q128.c **** 
 1145              		.loc 1 167 9 is_stmt 1 view .LVU283
 167:SynaptiX_FDK/components/external_flash/sx_W25Q128.c **** 
 1146              		.loc 1 167 26 is_stmt 0 view .LVU284
 1147 00d4 A8EB0406 		sub	r6, r8, r4
ARM GAS  C:\Users\LENOVO\AppData\Local\Temp\ccFz3vhf.s 			page 31


 167:SynaptiX_FDK/components/external_flash/sx_W25Q128.c **** 
 1148              		.loc 1 167 12 view .LVU285
 1149 00d8 9E42     		cmp	r6, r3
 1150 00da A4D3     		bcc	.L80
 166:SynaptiX_FDK/components/external_flash/sx_W25Q128.c ****         if (chunk > (len - offset)) chunk = len - offset;
 1151              		.loc 1 166 18 view .LVU286
 1152 00dc 1E46     		mov	r6, r3
 1153 00de A2E7     		b	.L80
 1154              	.LVL87:
 1155              	.L90:
 170:SynaptiX_FDK/components/external_flash/sx_W25Q128.c ****             return -1;
 1156              		.loc 1 170 13 is_stmt 1 view .LVU287
 1157 00e0 124A     		ldr	r2, .L93+16
 1158 00e2 1049     		ldr	r1, .L93+8
 1159 00e4 0120     		movs	r0, #1
 1160 00e6 FFF7FEFF 		bl	log_func
 1161              	.LVL88:
 171:SynaptiX_FDK/components/external_flash/sx_W25Q128.c ****         }
 1162              		.loc 1 171 13 view .LVU288
 1163              	.L82:
 171:SynaptiX_FDK/components/external_flash/sx_W25Q128.c ****         }
 1164              		.loc 1 171 20 is_stmt 0 discriminator 1 view .LVU289
 1165 00ea 4FF0FF30 		mov	r0, #-1
 1166              	.LVL89:
 1167              	.L77:
 171:SynaptiX_FDK/components/external_flash/sx_W25Q128.c ****         }
 1168              		.loc 1 171 20 discriminator 1 view .LVU290
 1169              	.LBE8:
 201:SynaptiX_FDK/components/external_flash/sx_W25Q128.c **** 
 1170              		.loc 1 201 1 view .LVU291
 1171 00ee 4BB0     		add	sp, sp, #300
 1172              	.LCFI27:
 1173              		.cfi_remember_state
 1174              		.cfi_def_cfa_offset 36
 1175              		@ sp needed
 1176 00f0 BDE8F08F 		pop	{r4, r5, r6, r7, r8, r9, r10, fp, pc}
 1177              	.LVL90:
 1178              	.L91:
 1179              	.LCFI28:
 1180              		.cfi_restore_state
 1181              	.LBB9:
 193:SynaptiX_FDK/components/external_flash/sx_W25Q128.c ****             return -1;
 1182              		.loc 1 193 13 is_stmt 1 view .LVU292
 1183 00f4 0E4A     		ldr	r2, .L93+20
 1184 00f6 0B49     		ldr	r1, .L93+8
 1185 00f8 0120     		movs	r0, #1
 1186 00fa FFF7FEFF 		bl	log_func
 1187              	.LVL91:
 194:SynaptiX_FDK/components/external_flash/sx_W25Q128.c ****         }
 1188              		.loc 1 194 13 view .LVU293
 194:SynaptiX_FDK/components/external_flash/sx_W25Q128.c ****         }
 1189              		.loc 1 194 20 is_stmt 0 view .LVU294
 1190 00fe F4E7     		b	.L82
 1191              	.LVL92:
 1192              	.L92:
 194:SynaptiX_FDK/components/external_flash/sx_W25Q128.c ****         }
 1193              		.loc 1 194 20 view .LVU295
ARM GAS  C:\Users\LENOVO\AppData\Local\Temp\ccFz3vhf.s 			page 32


 1194              	.LBE9:
 200:SynaptiX_FDK/components/external_flash/sx_W25Q128.c **** }
 1195              		.loc 1 200 12 view .LVU296
 1196 0100 0020     		movs	r0, #0
 1197 0102 F4E7     		b	.L77
 1198              	.LVL93:
 1199              	.L85:
 161:SynaptiX_FDK/components/external_flash/sx_W25Q128.c ****     if (buf == NULL || len == 0)          return -1;
 1200              		.loc 1 161 49 discriminator 3 view .LVU297
 1201 0104 4FF0FF30 		mov	r0, #-1
 1202              	.LVL94:
 161:SynaptiX_FDK/components/external_flash/sx_W25Q128.c ****     if (buf == NULL || len == 0)          return -1;
 1203              		.loc 1 161 49 discriminator 3 view .LVU298
 1204 0108 F1E7     		b	.L77
 1205              	.LVL95:
 1206              	.L86:
 161:SynaptiX_FDK/components/external_flash/sx_W25Q128.c ****     if (buf == NULL || len == 0)          return -1;
 1207              		.loc 1 161 49 discriminator 3 view .LVU299
 1208 010a 4FF0FF30 		mov	r0, #-1
 1209              	.LVL96:
 161:SynaptiX_FDK/components/external_flash/sx_W25Q128.c ****     if (buf == NULL || len == 0)          return -1;
 1210              		.loc 1 161 49 discriminator 3 view .LVU300
 1211 010e EEE7     		b	.L77
 1212              	.LVL97:
 1213              	.L87:
 162:SynaptiX_FDK/components/external_flash/sx_W25Q128.c ****     uint32_t offset = 0;
 1214              		.loc 1 162 50 discriminator 3 view .LVU301
 1215 0110 4FF0FF30 		mov	r0, #-1
 1216              	.LVL98:
 162:SynaptiX_FDK/components/external_flash/sx_W25Q128.c ****     uint32_t offset = 0;
 1217              		.loc 1 162 50 discriminator 3 view .LVU302
 1218 0114 EBE7     		b	.L77
 1219              	.LVL99:
 1220              	.L88:
 162:SynaptiX_FDK/components/external_flash/sx_W25Q128.c ****     uint32_t offset = 0;
 1221              		.loc 1 162 50 discriminator 3 view .LVU303
 1222 0116 4FF0FF30 		mov	r0, #-1
 1223              	.LVL100:
 162:SynaptiX_FDK/components/external_flash/sx_W25Q128.c ****     uint32_t offset = 0;
 1224              		.loc 1 162 50 discriminator 3 view .LVU304
 1225 011a E8E7     		b	.L77
 1226              	.L94:
 1227              		.align	2
 1228              	.L93:
 1229 011c 00000000 		.word	s_dev
 1230 0120 14000000 		.word	.LC10
 1231 0124 20000000 		.word	.LC1
 1232 0128 48000000 		.word	.LC11
 1233 012c 00000000 		.word	.LC9
 1234 0130 74000000 		.word	.LC12
 1235              		.cfi_endproc
 1236              	.LFE520:
 1238              		.section	.rodata.sx_W25Q128_init.str1.4,"aMS",%progbits,1
 1239              		.align	2
 1240              	.LC13:
 1241 0000 4A454445 		.ascii	"JEDEC ID mismatch: %02X %02X %02X\000"
 1241      43204944 
ARM GAS  C:\Users\LENOVO\AppData\Local\Temp\ccFz3vhf.s 			page 33


 1241      206D6973 
 1241      6D617463 
 1241      683A2025 
 1242 0022 0000     		.align	2
 1243              	.LC14:
 1244 0024 57323551 		.ascii	"W25Q128 OK (16MB)\000"
 1244      31323820 
 1244      4F4B2028 
 1244      31364D42 
 1244      2900
 1245              		.section	.text.sx_W25Q128_init,"ax",%progbits
 1246              		.align	1
 1247              		.global	sx_W25Q128_init
 1248              		.syntax unified
 1249              		.thumb
 1250              		.thumb_func
 1252              	sx_W25Q128_init:
 1253              	.LVL101:
 1254              	.LFB517:
  86:SynaptiX_FDK/components/external_flash/sx_W25Q128.c ****     dev->spi         = spi;
 1255              		.loc 1 86 1 is_stmt 1 view -0
 1256              		.cfi_startproc
 1257              		@ args = 0, pretend = 0, frame = 16
 1258              		@ frame_needed = 0, uses_anonymous_args = 0
  86:SynaptiX_FDK/components/external_flash/sx_W25Q128.c ****     dev->spi         = spi;
 1259              		.loc 1 86 1 is_stmt 0 view .LVU306
 1260 0000 30B5     		push	{r4, r5, lr}
 1261              	.LCFI29:
 1262              		.cfi_def_cfa_offset 12
 1263              		.cfi_offset 4, -12
 1264              		.cfi_offset 5, -8
 1265              		.cfi_offset 14, -4
 1266 0002 87B0     		sub	sp, sp, #28
 1267              	.LCFI30:
 1268              		.cfi_def_cfa_offset 40
 1269 0004 0446     		mov	r4, r0
  87:SynaptiX_FDK/components/external_flash/sx_W25Q128.c ****     dev->initialized = false;
 1270              		.loc 1 87 5 is_stmt 1 view .LVU307
  87:SynaptiX_FDK/components/external_flash/sx_W25Q128.c ****     dev->initialized = false;
 1271              		.loc 1 87 22 is_stmt 0 view .LVU308
 1272 0006 0160     		str	r1, [r0]
  88:SynaptiX_FDK/components/external_flash/sx_W25Q128.c ****     s_dev            = dev;
 1273              		.loc 1 88 5 is_stmt 1 view .LVU309
  88:SynaptiX_FDK/components/external_flash/sx_W25Q128.c ****     s_dev            = dev;
 1274              		.loc 1 88 22 is_stmt 0 view .LVU310
 1275 0008 0025     		movs	r5, #0
 1276 000a 0571     		strb	r5, [r0, #4]
  89:SynaptiX_FDK/components/external_flash/sx_W25Q128.c **** 
 1277              		.loc 1 89 5 is_stmt 1 view .LVU311
  89:SynaptiX_FDK/components/external_flash/sx_W25Q128.c **** 
 1278              		.loc 1 89 22 is_stmt 0 view .LVU312
 1279 000c 2249     		ldr	r1, .L100
 1280              	.LVL102:
  89:SynaptiX_FDK/components/external_flash/sx_W25Q128.c **** 
 1281              		.loc 1 89 22 view .LVU313
 1282 000e 0860     		str	r0, [r1]
  91:SynaptiX_FDK/components/external_flash/sx_W25Q128.c ****     sx_gpio_write(&dev->power, SX_GPIO_LOW);  
ARM GAS  C:\Users\LENOVO\AppData\Local\Temp\ccFz3vhf.s 			page 34


 1283              		.loc 1 91 5 is_stmt 1 view .LVU314
 1284              	.LVL103:
 1285              	.LBB10:
 1286              	.LBI10:
  33:SynaptiX_FDK/components/gpio/sx_gpio.h ****     gpio->ops = ops;
 1287              		.loc 2 33 20 view .LVU315
 1288              	.LBB11:
  34:SynaptiX_FDK/components/gpio/sx_gpio.h ****     gpio->pDriver = pDriver;
 1289              		.loc 2 34 5 view .LVU316
  34:SynaptiX_FDK/components/gpio/sx_gpio.h ****     gpio->pDriver = pDriver;
 1290              		.loc 2 34 15 is_stmt 0 view .LVU317
 1291 0010 8260     		str	r2, [r0, #8]
  35:SynaptiX_FDK/components/gpio/sx_gpio.h ****     gpio->value = SX_GPIO_LOW;
 1292              		.loc 2 35 5 is_stmt 1 view .LVU318
  35:SynaptiX_FDK/components/gpio/sx_gpio.h ****     gpio->value = SX_GPIO_LOW;
 1293              		.loc 2 35 19 is_stmt 0 view .LVU319
 1294 0012 C360     		str	r3, [r0, #12]
  36:SynaptiX_FDK/components/gpio/sx_gpio.h **** }
 1295              		.loc 2 36 5 is_stmt 1 view .LVU320
  36:SynaptiX_FDK/components/gpio/sx_gpio.h **** }
 1296              		.loc 2 36 17 is_stmt 0 view .LVU321
 1297 0014 0574     		strb	r5, [r0, #16]
 1298              	.LVL104:
  36:SynaptiX_FDK/components/gpio/sx_gpio.h **** }
 1299              		.loc 2 36 17 view .LVU322
 1300              	.LBE11:
 1301              	.LBE10:
  92:SynaptiX_FDK/components/external_flash/sx_W25Q128.c ****     sx_delay_ms(10);   
 1302              		.loc 1 92 5 is_stmt 1 view .LVU323
 1303 0016 2946     		mov	r1, r5
 1304 0018 0830     		adds	r0, r0, #8
 1305              	.LVL105:
  92:SynaptiX_FDK/components/external_flash/sx_W25Q128.c ****     sx_delay_ms(10);   
 1306              		.loc 1 92 5 is_stmt 0 view .LVU324
 1307 001a FFF7FEFF 		bl	sx_gpio_write
 1308              	.LVL106:
  93:SynaptiX_FDK/components/external_flash/sx_W25Q128.c **** 
 1309              		.loc 1 93 5 is_stmt 1 view .LVU325
 1310 001e 0A20     		movs	r0, #10
 1311 0020 FFF7FEFF 		bl	sx_delay_ms
 1312              	.LVL107:
  96:SynaptiX_FDK/components/external_flash/sx_W25Q128.c ****     sx_spi_write(dev->spi, &wake, 1);
 1313              		.loc 1 96 5 view .LVU326
  96:SynaptiX_FDK/components/external_flash/sx_W25Q128.c ****     sx_spi_write(dev->spi, &wake, 1);
 1314              		.loc 1 96 13 is_stmt 0 view .LVU327
 1315 0024 AB23     		movs	r3, #171
 1316 0026 8DF81730 		strb	r3, [sp, #23]
  97:SynaptiX_FDK/components/external_flash/sx_W25Q128.c ****     sx_delay_ms(1);
 1317              		.loc 1 97 5 is_stmt 1 view .LVU328
 1318 002a 0122     		movs	r2, #1
 1319 002c 0DF11701 		add	r1, sp, #23
 1320 0030 2068     		ldr	r0, [r4]
 1321 0032 FFF7FEFF 		bl	sx_spi_write
 1322              	.LVL108:
  98:SynaptiX_FDK/components/external_flash/sx_W25Q128.c ****     w25q_wait_busy();
 1323              		.loc 1 98 5 view .LVU329
 1324 0036 0120     		movs	r0, #1
ARM GAS  C:\Users\LENOVO\AppData\Local\Temp\ccFz3vhf.s 			page 35


 1325 0038 FFF7FEFF 		bl	sx_delay_ms
 1326              	.LVL109:
  99:SynaptiX_FDK/components/external_flash/sx_W25Q128.c **** 
 1327              		.loc 1 99 5 view .LVU330
 1328 003c FFF7FEFF 		bl	w25q_wait_busy
 1329              	.LVL110:
 101:SynaptiX_FDK/components/external_flash/sx_W25Q128.c ****     uint8_t rx[4] = { 0 };
 1330              		.loc 1 101 5 view .LVU331
 101:SynaptiX_FDK/components/external_flash/sx_W25Q128.c ****     uint8_t rx[4] = { 0 };
 1331              		.loc 1 101 13 is_stmt 0 view .LVU332
 1332 0040 9F23     		movs	r3, #159
 1333 0042 0493     		str	r3, [sp, #16]
 102:SynaptiX_FDK/components/external_flash/sx_W25Q128.c ****     sx_spi_write_read(dev->spi, tx, rx, 4);
 1334              		.loc 1 102 5 is_stmt 1 view .LVU333
 102:SynaptiX_FDK/components/external_flash/sx_W25Q128.c ****     sx_spi_write_read(dev->spi, tx, rx, 4);
 1335              		.loc 1 102 13 is_stmt 0 view .LVU334
 1336 0044 0395     		str	r5, [sp, #12]
 103:SynaptiX_FDK/components/external_flash/sx_W25Q128.c **** 
 1337              		.loc 1 103 5 is_stmt 1 view .LVU335
 1338 0046 0423     		movs	r3, #4
 1339 0048 03AA     		add	r2, sp, #12
 1340 004a 04A9     		add	r1, sp, #16
 1341 004c 2068     		ldr	r0, [r4]
 1342 004e FFF7FEFF 		bl	sx_spi_write_read
 1343              	.LVL111:
 105:SynaptiX_FDK/components/external_flash/sx_W25Q128.c ****         log_error(TAG, "JEDEC ID mismatch: %02X %02X %02X", rx[1], rx[2], rx[3]);
 1344              		.loc 1 105 5 view .LVU336
 105:SynaptiX_FDK/components/external_flash/sx_W25Q128.c ****         log_error(TAG, "JEDEC ID mismatch: %02X %02X %02X", rx[1], rx[2], rx[3]);
 1345              		.loc 1 105 11 is_stmt 0 view .LVU337
 1346 0052 9DF80D30 		ldrb	r3, [sp, #13]	@ zero_extendqisi2
 105:SynaptiX_FDK/components/external_flash/sx_W25Q128.c ****         log_error(TAG, "JEDEC ID mismatch: %02X %02X %02X", rx[1], rx[2], rx[3]);
 1347              		.loc 1 105 8 view .LVU338
 1348 0056 EF2B     		cmp	r3, #239
 1349 0058 07D1     		bne	.L96
 105:SynaptiX_FDK/components/external_flash/sx_W25Q128.c ****         log_error(TAG, "JEDEC ID mismatch: %02X %02X %02X", rx[1], rx[2], rx[3]);
 1350              		.loc 1 105 28 discriminator 1 view .LVU339
 1351 005a 9DF80E20 		ldrb	r2, [sp, #14]	@ zero_extendqisi2
 105:SynaptiX_FDK/components/external_flash/sx_W25Q128.c ****         log_error(TAG, "JEDEC ID mismatch: %02X %02X %02X", rx[1], rx[2], rx[3]);
 1352              		.loc 1 105 23 discriminator 1 view .LVU340
 1353 005e 402A     		cmp	r2, #64
 1354 0060 03D1     		bne	.L96
 105:SynaptiX_FDK/components/external_flash/sx_W25Q128.c ****         log_error(TAG, "JEDEC ID mismatch: %02X %02X %02X", rx[1], rx[2], rx[3]);
 1355              		.loc 1 105 45 discriminator 2 view .LVU341
 1356 0062 9DF80F20 		ldrb	r2, [sp, #15]	@ zero_extendqisi2
 105:SynaptiX_FDK/components/external_flash/sx_W25Q128.c ****         log_error(TAG, "JEDEC ID mismatch: %02X %02X %02X", rx[1], rx[2], rx[3]);
 1357              		.loc 1 105 40 discriminator 2 view .LVU342
 1358 0066 182A     		cmp	r2, #24
 1359 0068 0DD0     		beq	.L97
 1360              	.L96:
 106:SynaptiX_FDK/components/external_flash/sx_W25Q128.c ****         return false;
 1361              		.loc 1 106 9 is_stmt 1 view .LVU343
 1362 006a 9DF80E20 		ldrb	r2, [sp, #14]	@ zero_extendqisi2
 1363 006e 9DF80F10 		ldrb	r1, [sp, #15]	@ zero_extendqisi2
 1364 0072 0191     		str	r1, [sp, #4]
 1365 0074 0092     		str	r2, [sp]
 1366 0076 094A     		ldr	r2, .L100+4
 1367 0078 0949     		ldr	r1, .L100+8
ARM GAS  C:\Users\LENOVO\AppData\Local\Temp\ccFz3vhf.s 			page 36


 1368 007a 0120     		movs	r0, #1
 1369 007c FFF7FEFF 		bl	log_func
 1370              	.LVL112:
 107:SynaptiX_FDK/components/external_flash/sx_W25Q128.c ****     }
 1371              		.loc 1 107 9 view .LVU344
 107:SynaptiX_FDK/components/external_flash/sx_W25Q128.c ****     }
 1372              		.loc 1 107 16 is_stmt 0 view .LVU345
 1373 0080 0020     		movs	r0, #0
 1374              	.L98:
 113:SynaptiX_FDK/components/external_flash/sx_W25Q128.c **** 
 1375              		.loc 1 113 1 view .LVU346
 1376 0082 07B0     		add	sp, sp, #28
 1377              	.LCFI31:
 1378              		.cfi_remember_state
 1379              		.cfi_def_cfa_offset 12
 1380              		@ sp needed
 1381 0084 30BD     		pop	{r4, r5, pc}
 1382              	.LVL113:
 1383              	.L97:
 1384              	.LCFI32:
 1385              		.cfi_restore_state
 110:SynaptiX_FDK/components/external_flash/sx_W25Q128.c ****     log_info(TAG, "W25Q128 OK (16MB)");
 1386              		.loc 1 110 5 is_stmt 1 view .LVU347
 110:SynaptiX_FDK/components/external_flash/sx_W25Q128.c ****     log_info(TAG, "W25Q128 OK (16MB)");
 1387              		.loc 1 110 22 is_stmt 0 view .LVU348
 1388 0086 0125     		movs	r5, #1
 1389 0088 2571     		strb	r5, [r4, #4]
 111:SynaptiX_FDK/components/external_flash/sx_W25Q128.c ****     return true;
 1390              		.loc 1 111 5 is_stmt 1 view .LVU349
 1391 008a 064A     		ldr	r2, .L100+12
 1392 008c 0449     		ldr	r1, .L100+8
 1393 008e 0320     		movs	r0, #3
 1394 0090 FFF7FEFF 		bl	log_func
 1395              	.LVL114:
 112:SynaptiX_FDK/components/external_flash/sx_W25Q128.c **** }
 1396              		.loc 1 112 5 view .LVU350
 112:SynaptiX_FDK/components/external_flash/sx_W25Q128.c **** }
 1397              		.loc 1 112 12 is_stmt 0 view .LVU351
 1398 0094 2846     		mov	r0, r5
 1399 0096 F4E7     		b	.L98
 1400              	.L101:
 1401              		.align	2
 1402              	.L100:
 1403 0098 00000000 		.word	s_dev
 1404 009c 00000000 		.word	.LC13
 1405 00a0 20000000 		.word	.LC1
 1406 00a4 24000000 		.word	.LC14
 1407              		.cfi_endproc
 1408              	.LFE517:
 1410              		.section	.rodata.sx_W25Q128_chip_erase.str1.4,"aMS",%progbits,1
 1411              		.align	2
 1412              	.LC15:
 1413 0000 43686970 		.ascii	"Chip erase done\000"
 1413      20657261 
 1413      73652064 
 1413      6F6E6500 
 1414              		.section	.text.sx_W25Q128_chip_erase,"ax",%progbits
ARM GAS  C:\Users\LENOVO\AppData\Local\Temp\ccFz3vhf.s 			page 37


 1415              		.align	1
 1416              		.global	sx_W25Q128_chip_erase
 1417              		.syntax unified
 1418              		.thumb
 1419              		.thumb_func
 1421              	sx_W25Q128_chip_erase:
 1422              	.LVL115:
 1423              	.LFB522:
 225:SynaptiX_FDK/components/external_flash/sx_W25Q128.c **** 
 226:SynaptiX_FDK/components/external_flash/sx_W25Q128.c **** void sx_W25Q128_chip_erase(sx_W25Q128_t *dev)
 227:SynaptiX_FDK/components/external_flash/sx_W25Q128.c **** {
 1424              		.loc 1 227 1 is_stmt 1 view -0
 1425              		.cfi_startproc
 1426              		@ args = 0, pretend = 0, frame = 8
 1427              		@ frame_needed = 0, uses_anonymous_args = 0
 1428              		.loc 1 227 1 is_stmt 0 view .LVU353
 1429 0000 10B5     		push	{r4, lr}
 1430              	.LCFI33:
 1431              		.cfi_def_cfa_offset 8
 1432              		.cfi_offset 4, -8
 1433              		.cfi_offset 14, -4
 1434 0002 82B0     		sub	sp, sp, #8
 1435              	.LCFI34:
 1436              		.cfi_def_cfa_offset 16
 1437 0004 0446     		mov	r4, r0
 228:SynaptiX_FDK/components/external_flash/sx_W25Q128.c ****     s_dev = dev;
 1438              		.loc 1 228 5 is_stmt 1 view .LVU354
 1439              		.loc 1 228 11 is_stmt 0 view .LVU355
 1440 0006 0B4B     		ldr	r3, .L104
 1441 0008 1860     		str	r0, [r3]
 229:SynaptiX_FDK/components/external_flash/sx_W25Q128.c ****     w25q_write_enable();
 1442              		.loc 1 229 5 is_stmt 1 view .LVU356
 1443 000a FFF7FEFF 		bl	w25q_write_enable
 1444              	.LVL116:
 230:SynaptiX_FDK/components/external_flash/sx_W25Q128.c ****     uint8_t cmd = W25Q128_CMD_CHIP_ERASE;
 1445              		.loc 1 230 5 view .LVU357
 1446              		.loc 1 230 13 is_stmt 0 view .LVU358
 1447 000e C723     		movs	r3, #199
 1448 0010 8DF80730 		strb	r3, [sp, #7]
 231:SynaptiX_FDK/components/external_flash/sx_W25Q128.c ****     sx_spi_write(dev->spi, &cmd, 1);
 1449              		.loc 1 231 5 is_stmt 1 view .LVU359
 1450 0014 0122     		movs	r2, #1
 1451 0016 0DF10701 		add	r1, sp, #7
 1452 001a 2068     		ldr	r0, [r4]
 1453 001c FFF7FEFF 		bl	sx_spi_write
 1454              	.LVL117:
 232:SynaptiX_FDK/components/external_flash/sx_W25Q128.c ****     w25q_wait_busy_long(200000);    
 1455              		.loc 1 232 5 view .LVU360
 1456 0020 0548     		ldr	r0, .L104+4
 1457 0022 FFF7FEFF 		bl	w25q_wait_busy_long
 1458              	.LVL118:
 233:SynaptiX_FDK/components/external_flash/sx_W25Q128.c ****     log_info("W25Q128", "Chip erase done");
 1459              		.loc 1 233 5 view .LVU361
 1460 0026 054A     		ldr	r2, .L104+8
 1461 0028 0549     		ldr	r1, .L104+12
 1462 002a 0320     		movs	r0, #3
 1463 002c FFF7FEFF 		bl	log_func
ARM GAS  C:\Users\LENOVO\AppData\Local\Temp\ccFz3vhf.s 			page 38


 1464              	.LVL119:
 234:SynaptiX_FDK/components/external_flash/sx_W25Q128.c **** }
 1465              		.loc 1 234 1 is_stmt 0 view .LVU362
 1466 0030 02B0     		add	sp, sp, #8
 1467              	.LCFI35:
 1468              		.cfi_def_cfa_offset 8
 1469              		@ sp needed
 1470 0032 10BD     		pop	{r4, pc}
 1471              	.LVL120:
 1472              	.L105:
 1473              		.loc 1 234 1 view .LVU363
 1474              		.align	2
 1475              	.L104:
 1476 0034 00000000 		.word	s_dev
 1477 0038 400D0300 		.word	200000
 1478 003c 00000000 		.word	.LC15
 1479 0040 20000000 		.word	.LC1
 1480              		.cfi_endproc
 1481              	.LFE522:
 1483              		.section	.text.sx_W25Q128_power_down,"ax",%progbits
 1484              		.align	1
 1485              		.global	sx_W25Q128_power_down
 1486              		.syntax unified
 1487              		.thumb
 1488              		.thumb_func
 1490              	sx_W25Q128_power_down:
 1491              	.LVL121:
 1492              	.LFB523:
 235:SynaptiX_FDK/components/external_flash/sx_W25Q128.c **** 
 236:SynaptiX_FDK/components/external_flash/sx_W25Q128.c **** void sx_W25Q128_power_down(sx_W25Q128_t *dev){
 1493              		.loc 1 236 46 is_stmt 1 view -0
 1494              		.cfi_startproc
 1495              		@ args = 0, pretend = 0, frame = 0
 1496              		@ frame_needed = 0, uses_anonymous_args = 0
 1497              		.loc 1 236 46 is_stmt 0 view .LVU365
 1498 0000 08B5     		push	{r3, lr}
 1499              	.LCFI36:
 1500              		.cfi_def_cfa_offset 8
 1501              		.cfi_offset 3, -8
 1502              		.cfi_offset 14, -4
 237:SynaptiX_FDK/components/external_flash/sx_W25Q128.c ****     sx_gpio_write(&dev->power, SX_GPIO_HIGH);
 1503              		.loc 1 237 5 is_stmt 1 view .LVU366
 1504 0002 0121     		movs	r1, #1
 1505 0004 0830     		adds	r0, r0, #8
 1506              	.LVL122:
 1507              		.loc 1 237 5 is_stmt 0 view .LVU367
 1508 0006 FFF7FEFF 		bl	sx_gpio_write
 1509              	.LVL123:
 238:SynaptiX_FDK/components/external_flash/sx_W25Q128.c **** }
 1510              		.loc 1 238 1 view .LVU368
 1511 000a 08BD     		pop	{r3, pc}
 1512              		.cfi_endproc
 1513              	.LFE523:
 1515              		.section	.text.sx_W25Q128_power_up,"ax",%progbits
 1516              		.align	1
 1517              		.global	sx_W25Q128_power_up
 1518              		.syntax unified
ARM GAS  C:\Users\LENOVO\AppData\Local\Temp\ccFz3vhf.s 			page 39


 1519              		.thumb
 1520              		.thumb_func
 1522              	sx_W25Q128_power_up:
 1523              	.LVL124:
 1524              	.LFB524:
 239:SynaptiX_FDK/components/external_flash/sx_W25Q128.c **** 
 240:SynaptiX_FDK/components/external_flash/sx_W25Q128.c **** void sx_W25Q128_power_up(sx_W25Q128_t *dev){
 1525              		.loc 1 240 44 is_stmt 1 view -0
 1526              		.cfi_startproc
 1527              		@ args = 0, pretend = 0, frame = 0
 1528              		@ frame_needed = 0, uses_anonymous_args = 0
 1529              		.loc 1 240 44 is_stmt 0 view .LVU370
 1530 0000 08B5     		push	{r3, lr}
 1531              	.LCFI37:
 1532              		.cfi_def_cfa_offset 8
 1533              		.cfi_offset 3, -8
 1534              		.cfi_offset 14, -4
 241:SynaptiX_FDK/components/external_flash/sx_W25Q128.c ****     sx_gpio_write(&dev->power, SX_GPIO_LOW);
 1535              		.loc 1 241 5 is_stmt 1 view .LVU371
 1536 0002 0021     		movs	r1, #0
 1537 0004 0830     		adds	r0, r0, #8
 1538              	.LVL125:
 1539              		.loc 1 241 5 is_stmt 0 view .LVU372
 1540 0006 FFF7FEFF 		bl	sx_gpio_write
 1541              	.LVL126:
 242:SynaptiX_FDK/components/external_flash/sx_W25Q128.c **** }
 1542              		.loc 1 242 1 view .LVU373
 1543 000a 08BD     		pop	{r3, pc}
 1544              		.cfi_endproc
 1545              	.LFE524:
 1547              		.section	.text.sx_W25Q128_sleep_on,"ax",%progbits
 1548              		.align	1
 1549              		.global	sx_W25Q128_sleep_on
 1550              		.syntax unified
 1551              		.thumb
 1552              		.thumb_func
 1554              	sx_W25Q128_sleep_on:
 1555              	.LVL127:
 1556              	.LFB525:
 243:SynaptiX_FDK/components/external_flash/sx_W25Q128.c **** 
 244:SynaptiX_FDK/components/external_flash/sx_W25Q128.c **** void sx_W25Q128_sleep_on(sx_W25Q128_t *dev){
 1557              		.loc 1 244 44 is_stmt 1 view -0
 1558              		.cfi_startproc
 1559              		@ args = 0, pretend = 0, frame = 8
 1560              		@ frame_needed = 0, uses_anonymous_args = 0
 1561              		.loc 1 244 44 is_stmt 0 view .LVU375
 1562 0000 10B5     		push	{r4, lr}
 1563              	.LCFI38:
 1564              		.cfi_def_cfa_offset 8
 1565              		.cfi_offset 4, -8
 1566              		.cfi_offset 14, -4
 1567 0002 82B0     		sub	sp, sp, #8
 1568              	.LCFI39:
 1569              		.cfi_def_cfa_offset 16
 1570 0004 0446     		mov	r4, r0
 245:SynaptiX_FDK/components/external_flash/sx_W25Q128.c ****     uint8_t cmd = W25Q128_CMD_POWER_DOWN;
 1571              		.loc 1 245 5 is_stmt 1 view .LVU376
ARM GAS  C:\Users\LENOVO\AppData\Local\Temp\ccFz3vhf.s 			page 40


 1572              		.loc 1 245 13 is_stmt 0 view .LVU377
 1573 0006 B923     		movs	r3, #185
 1574 0008 8DF80730 		strb	r3, [sp, #7]
 246:SynaptiX_FDK/components/external_flash/sx_W25Q128.c ****     sx_spi_write(dev->spi, &cmd, 1);
 1575              		.loc 1 246 5 is_stmt 1 view .LVU378
 1576 000c 0122     		movs	r2, #1
 1577 000e 0DF10701 		add	r1, sp, #7
 1578 0012 0068     		ldr	r0, [r0]
 1579              	.LVL128:
 1580              		.loc 1 246 5 is_stmt 0 view .LVU379
 1581 0014 FFF7FEFF 		bl	sx_spi_write
 1582              	.LVL129:
 247:SynaptiX_FDK/components/external_flash/sx_W25Q128.c ****     dev->initialized = false;
 1583              		.loc 1 247 5 is_stmt 1 view .LVU380
 1584              		.loc 1 247 22 is_stmt 0 view .LVU381
 1585 0018 0023     		movs	r3, #0
 1586 001a 2371     		strb	r3, [r4, #4]
 248:SynaptiX_FDK/components/external_flash/sx_W25Q128.c **** }
 1587              		.loc 1 248 1 view .LVU382
 1588 001c 02B0     		add	sp, sp, #8
 1589              	.LCFI40:
 1590              		.cfi_def_cfa_offset 8
 1591              		@ sp needed
 1592 001e 10BD     		pop	{r4, pc}
 1593              		.loc 1 248 1 view .LVU383
 1594              		.cfi_endproc
 1595              	.LFE525:
 1597              		.section	.text.sx_W25Q128_sleep_off,"ax",%progbits
 1598              		.align	1
 1599              		.global	sx_W25Q128_sleep_off
 1600              		.syntax unified
 1601              		.thumb
 1602              		.thumb_func
 1604              	sx_W25Q128_sleep_off:
 1605              	.LVL130:
 1606              	.LFB526:
 249:SynaptiX_FDK/components/external_flash/sx_W25Q128.c **** 
 250:SynaptiX_FDK/components/external_flash/sx_W25Q128.c **** void sx_W25Q128_sleep_off(sx_W25Q128_t *dev){
 1607              		.loc 1 250 45 is_stmt 1 view -0
 1608              		.cfi_startproc
 1609              		@ args = 0, pretend = 0, frame = 8
 1610              		@ frame_needed = 0, uses_anonymous_args = 0
 1611              		.loc 1 250 45 is_stmt 0 view .LVU385
 1612 0000 10B5     		push	{r4, lr}
 1613              	.LCFI41:
 1614              		.cfi_def_cfa_offset 8
 1615              		.cfi_offset 4, -8
 1616              		.cfi_offset 14, -4
 1617 0002 82B0     		sub	sp, sp, #8
 1618              	.LCFI42:
 1619              		.cfi_def_cfa_offset 16
 1620 0004 0446     		mov	r4, r0
 251:SynaptiX_FDK/components/external_flash/sx_W25Q128.c ****     uint8_t cmd = W25Q128_CMD_RELEASE_POWER_DOWN;
 1621              		.loc 1 251 5 is_stmt 1 view .LVU386
 1622              		.loc 1 251 13 is_stmt 0 view .LVU387
 1623 0006 AB23     		movs	r3, #171
 1624 0008 8DF80730 		strb	r3, [sp, #7]
ARM GAS  C:\Users\LENOVO\AppData\Local\Temp\ccFz3vhf.s 			page 41


 252:SynaptiX_FDK/components/external_flash/sx_W25Q128.c ****     sx_spi_write(dev->spi, &cmd, 1);
 1625              		.loc 1 252 5 is_stmt 1 view .LVU388
 1626 000c 0122     		movs	r2, #1
 1627 000e 0DF10701 		add	r1, sp, #7
 1628 0012 0068     		ldr	r0, [r0]
 1629              	.LVL131:
 1630              		.loc 1 252 5 is_stmt 0 view .LVU389
 1631 0014 FFF7FEFF 		bl	sx_spi_write
 1632              	.LVL132:
 253:SynaptiX_FDK/components/external_flash/sx_W25Q128.c ****     sx_delay_ms(5);
 1633              		.loc 1 253 5 is_stmt 1 view .LVU390
 1634 0018 0520     		movs	r0, #5
 1635 001a FFF7FEFF 		bl	sx_delay_ms
 1636              	.LVL133:
 254:SynaptiX_FDK/components/external_flash/sx_W25Q128.c ****     dev->initialized = true;
 1637              		.loc 1 254 5 view .LVU391
 1638              		.loc 1 254 22 is_stmt 0 view .LVU392
 1639 001e 0123     		movs	r3, #1
 1640 0020 2371     		strb	r3, [r4, #4]
 255:SynaptiX_FDK/components/external_flash/sx_W25Q128.c **** }...
 1641              		.loc 1 255 1 view .LVU393
 1642 0022 02B0     		add	sp, sp, #8
 1643              	.LCFI43:
 1644              		.cfi_def_cfa_offset 8
 1645              		@ sp needed
 1646 0024 10BD     		pop	{r4, pc}
 1647              		.loc 1 255 1 view .LVU394
 1648              		.cfi_endproc
 1649              	.LFE526:
 1651              		.global	sx_W25Q128_info
 1652              		.section	.data.sx_W25Q128_info,"aw"
 1653              		.align	2
 1656              	sx_W25Q128_info:
 1657 0000 00010000 		.word	256
 1658 0004 00100000 		.word	4096
 1659 0008 00000100 		.word	65536
 1660 000c 00000001 		.word	16777216
 1661              		.global	sx_W25Q128_ops
 1662              		.section	.data.sx_W25Q128_ops,"aw"
 1663              		.align	2
 1666              	sx_W25Q128_ops:
 1667 0000 00000000 		.word	sx_W25Q128_read
 1668 0004 00000000 		.word	sx_W25Q128_write
 1669 0008 00000000 		.word	sx_W25Q128_erase_sector
 1670 000c 00000000 		.word	sx_W25Q128_is_busy
 1671              		.section	.bss.s_dev,"aw",%nobits
 1672              		.align	2
 1675              	s_dev:
 1676 0000 00000000 		.space	4
 1677              		.text
 1678              	.Letext0:
 1679              		.file 4 "C:\\ST\\STM32CubeCLT_1.20.0\\GNU-tools-for-STM32\\bin/../lib/gcc/arm-none-eabi/13.3.1/../
 1680              		.file 5 "C:\\ST\\STM32CubeCLT_1.20.0\\GNU-tools-for-STM32\\bin/../lib/gcc/arm-none-eabi/13.3.1/../
 1681              		.file 6 "C:\\ST\\STM32CubeCLT_1.20.0\\GNU-tools-for-STM32\\bin/../lib/gcc/arm-none-eabi/13.3.1/inc
 1682              		.file 7 "SynaptiX_FDK/services/logger/logger.h"
 1683              		.file 8 "Drivers/STM32H5xx_HAL_Driver/Inc/stm32h5xx_ll_lptim.h"
 1684              		.file 9 "SynaptiX_FDK/components/external_flash/sx_external_flash.h"
ARM GAS  C:\Users\LENOVO\AppData\Local\Temp\ccFz3vhf.s 			page 42


 1685              		.file 10 "SynaptiX_FDK/components/external_flash/sx_W25Q128.h"
 1686              		.file 11 "C:\\ST\\STM32CubeCLT_1.20.0\\GNU-tools-for-STM32\\bin/../lib/gcc/arm-none-eabi/13.3.1/..
 1687              		.file 12 "SynaptiX_FDK/utils/delay/sx_delay.h"
 1688              		.file 13 "<built-in>"
ARM GAS  C:\Users\LENOVO\AppData\Local\Temp\ccFz3vhf.s 			page 43


DEFINED SYMBOLS
                            *ABS*:00000000 sx_W25Q128.c
C:\Users\LENOVO\AppData\Local\Temp\ccFz3vhf.s:22     .text.sx_gpio_write:00000000 $t
C:\Users\LENOVO\AppData\Local\Temp\ccFz3vhf.s:27     .text.sx_gpio_write:00000000 sx_gpio_write
C:\Users\LENOVO\AppData\Local\Temp\ccFz3vhf.s:90     .text.sx_spi_write:00000000 $t
C:\Users\LENOVO\AppData\Local\Temp\ccFz3vhf.s:95     .text.sx_spi_write:00000000 sx_spi_write
C:\Users\LENOVO\AppData\Local\Temp\ccFz3vhf.s:143    .text.sx_spi_write_read:00000000 $t
C:\Users\LENOVO\AppData\Local\Temp\ccFz3vhf.s:148    .text.sx_spi_write_read:00000000 sx_spi_write_read
C:\Users\LENOVO\AppData\Local\Temp\ccFz3vhf.s:195    .text.w25q_write_enable:00000000 $t
C:\Users\LENOVO\AppData\Local\Temp\ccFz3vhf.s:200    .text.w25q_write_enable:00000000 w25q_write_enable
C:\Users\LENOVO\AppData\Local\Temp\ccFz3vhf.s:238    .text.w25q_write_enable:00000028 $d
C:\Users\LENOVO\AppData\Local\Temp\ccFz3vhf.s:1675   .bss.s_dev:00000000 s_dev
C:\Users\LENOVO\AppData\Local\Temp\ccFz3vhf.s:243    .text.sx_W25Q128_is_busy:00000000 $t
C:\Users\LENOVO\AppData\Local\Temp\ccFz3vhf.s:249    .text.sx_W25Q128_is_busy:00000000 sx_W25Q128_is_busy
C:\Users\LENOVO\AppData\Local\Temp\ccFz3vhf.s:312    .text.sx_W25Q128_is_busy:00000038 $d
C:\Users\LENOVO\AppData\Local\Temp\ccFz3vhf.s:317    .rodata.w25q_wait_busy.str1.4:00000000 $d
C:\Users\LENOVO\AppData\Local\Temp\ccFz3vhf.s:330    .text.w25q_wait_busy:00000000 $t
C:\Users\LENOVO\AppData\Local\Temp\ccFz3vhf.s:335    .text.w25q_wait_busy:00000000 w25q_wait_busy
C:\Users\LENOVO\AppData\Local\Temp\ccFz3vhf.s:484    .text.w25q_wait_busy:000000ac $d
C:\Users\LENOVO\AppData\Local\Temp\ccFz3vhf.s:493    .rodata.sx_W25Q128_erase_sector.str1.4:00000000 $d
C:\Users\LENOVO\AppData\Local\Temp\ccFz3vhf.s:497    .text.sx_W25Q128_erase_sector:00000000 $t
C:\Users\LENOVO\AppData\Local\Temp\ccFz3vhf.s:503    .text.sx_W25Q128_erase_sector:00000000 sx_W25Q128_erase_sector
C:\Users\LENOVO\AppData\Local\Temp\ccFz3vhf.s:616    .text.sx_W25Q128_erase_sector:00000080 $d
C:\Users\LENOVO\AppData\Local\Temp\ccFz3vhf.s:623    .rodata.w25q_wait_busy_long.str1.4:00000000 $d
C:\Users\LENOVO\AppData\Local\Temp\ccFz3vhf.s:630    .text.w25q_wait_busy_long:00000000 $t
C:\Users\LENOVO\AppData\Local\Temp\ccFz3vhf.s:635    .text.w25q_wait_busy_long:00000000 w25q_wait_busy_long
C:\Users\LENOVO\AppData\Local\Temp\ccFz3vhf.s:724    .text.w25q_wait_busy_long:00000058 $d
C:\Users\LENOVO\AppData\Local\Temp\ccFz3vhf.s:732    .rodata.sx_W25Q128_read.str1.4:00000000 $d
C:\Users\LENOVO\AppData\Local\Temp\ccFz3vhf.s:740    .text.sx_W25Q128_read:00000000 $t
C:\Users\LENOVO\AppData\Local\Temp\ccFz3vhf.s:746    .text.sx_W25Q128_read:00000000 sx_W25Q128_read
C:\Users\LENOVO\AppData\Local\Temp\ccFz3vhf.s:945    .text.sx_W25Q128_read:000000dc $d
C:\Users\LENOVO\AppData\Local\Temp\ccFz3vhf.s:953    .rodata.sx_W25Q128_write.str1.4:00000000 $d
C:\Users\LENOVO\AppData\Local\Temp\ccFz3vhf.s:966    .text.sx_W25Q128_write:00000000 $t
C:\Users\LENOVO\AppData\Local\Temp\ccFz3vhf.s:972    .text.sx_W25Q128_write:00000000 sx_W25Q128_write
C:\Users\LENOVO\AppData\Local\Temp\ccFz3vhf.s:1229   .text.sx_W25Q128_write:0000011c $d
C:\Users\LENOVO\AppData\Local\Temp\ccFz3vhf.s:1239   .rodata.sx_W25Q128_init.str1.4:00000000 $d
C:\Users\LENOVO\AppData\Local\Temp\ccFz3vhf.s:1246   .text.sx_W25Q128_init:00000000 $t
C:\Users\LENOVO\AppData\Local\Temp\ccFz3vhf.s:1252   .text.sx_W25Q128_init:00000000 sx_W25Q128_init
C:\Users\LENOVO\AppData\Local\Temp\ccFz3vhf.s:1403   .text.sx_W25Q128_init:00000098 $d
C:\Users\LENOVO\AppData\Local\Temp\ccFz3vhf.s:1411   .rodata.sx_W25Q128_chip_erase.str1.4:00000000 $d
C:\Users\LENOVO\AppData\Local\Temp\ccFz3vhf.s:1415   .text.sx_W25Q128_chip_erase:00000000 $t
C:\Users\LENOVO\AppData\Local\Temp\ccFz3vhf.s:1421   .text.sx_W25Q128_chip_erase:00000000 sx_W25Q128_chip_erase
C:\Users\LENOVO\AppData\Local\Temp\ccFz3vhf.s:1476   .text.sx_W25Q128_chip_erase:00000034 $d
C:\Users\LENOVO\AppData\Local\Temp\ccFz3vhf.s:1484   .text.sx_W25Q128_power_down:00000000 $t
C:\Users\LENOVO\AppData\Local\Temp\ccFz3vhf.s:1490   .text.sx_W25Q128_power_down:00000000 sx_W25Q128_power_down
C:\Users\LENOVO\AppData\Local\Temp\ccFz3vhf.s:1516   .text.sx_W25Q128_power_up:00000000 $t
C:\Users\LENOVO\AppData\Local\Temp\ccFz3vhf.s:1522   .text.sx_W25Q128_power_up:00000000 sx_W25Q128_power_up
C:\Users\LENOVO\AppData\Local\Temp\ccFz3vhf.s:1548   .text.sx_W25Q128_sleep_on:00000000 $t
C:\Users\LENOVO\AppData\Local\Temp\ccFz3vhf.s:1554   .text.sx_W25Q128_sleep_on:00000000 sx_W25Q128_sleep_on
C:\Users\LENOVO\AppData\Local\Temp\ccFz3vhf.s:1598   .text.sx_W25Q128_sleep_off:00000000 $t
C:\Users\LENOVO\AppData\Local\Temp\ccFz3vhf.s:1604   .text.sx_W25Q128_sleep_off:00000000 sx_W25Q128_sleep_off
C:\Users\LENOVO\AppData\Local\Temp\ccFz3vhf.s:1656   .data.sx_W25Q128_info:00000000 sx_W25Q128_info
C:\Users\LENOVO\AppData\Local\Temp\ccFz3vhf.s:1653   .data.sx_W25Q128_info:00000000 $d
C:\Users\LENOVO\AppData\Local\Temp\ccFz3vhf.s:1666   .data.sx_W25Q128_ops:00000000 sx_W25Q128_ops
C:\Users\LENOVO\AppData\Local\Temp\ccFz3vhf.s:1663   .data.sx_W25Q128_ops:00000000 $d
C:\Users\LENOVO\AppData\Local\Temp\ccFz3vhf.s:1672   .bss.s_dev:00000000 $d

ARM GAS  C:\Users\LENOVO\AppData\Local\Temp\ccFz3vhf.s 			page 44


UNDEFINED SYMBOLS
sx_delay_ms
log_func
memset
memcpy
