ARM GAS  C:\Users\LENOVO\AppData\Local\Temp\ccS5HLDf.s 			page 1


   1              		.cpu cortex-m33
   2              		.arch armv8-m.main
   3              		.fpu fpv5-sp-d16
   4              		.arch_extension dsp
   5              		.eabi_attribute 27, 1
   6              		.eabi_attribute 28, 1
   7              		.eabi_attribute 20, 1
   8              		.eabi_attribute 21, 1
   9              		.eabi_attribute 23, 3
  10              		.eabi_attribute 24, 1
  11              		.eabi_attribute 25, 1
  12              		.eabi_attribute 26, 1
  13              		.eabi_attribute 30, 1
  14              		.eabi_attribute 34, 1
  15              		.eabi_attribute 18, 4
  16              		.file	"system_stm32h5xx.c"
  17              		.text
  18              	.Ltext0:
  19              		.cfi_sections	.debug_frame
  20              		.file 1 "Core/Src/system_stm32h5xx.c"
  21              		.section	.text.SystemInit,"ax",%progbits
  22              		.align	1
  23              		.global	SystemInit
  24              		.syntax unified
  25              		.thumb
  26              		.thumb_func
  28              	SystemInit:
  29              	.LFB496:
   1:Core/Src/system_stm32h5xx.c **** /**
   2:Core/Src/system_stm32h5xx.c ****   ******************************************************************************
   3:Core/Src/system_stm32h5xx.c ****   * @file    system_stm32h5xx.c
   4:Core/Src/system_stm32h5xx.c ****   * @author  MCD Application Team
   5:Core/Src/system_stm32h5xx.c ****   * @brief   CMSIS Cortex-M33 Device Peripheral Access Layer System Source File
   6:Core/Src/system_stm32h5xx.c ****   *
   7:Core/Src/system_stm32h5xx.c ****   ******************************************************************************
   8:Core/Src/system_stm32h5xx.c ****   * @attention
   9:Core/Src/system_stm32h5xx.c ****   *
  10:Core/Src/system_stm32h5xx.c ****   * Copyright (c) 2023 STMicroelectronics.
  11:Core/Src/system_stm32h5xx.c ****   * All rights reserved.
  12:Core/Src/system_stm32h5xx.c ****   *
  13:Core/Src/system_stm32h5xx.c ****   * This software is licensed under terms that can be found in the LICENSE file
  14:Core/Src/system_stm32h5xx.c ****   * in the root directory of this software component.
  15:Core/Src/system_stm32h5xx.c ****   * If no LICENSE file comes with this software, it is provided AS-IS.
  16:Core/Src/system_stm32h5xx.c ****   *
  17:Core/Src/system_stm32h5xx.c ****   ******************************************************************************
  18:Core/Src/system_stm32h5xx.c ****   *   This file provides two functions and one global variable to be called from
  19:Core/Src/system_stm32h5xx.c ****   *   user application:
  20:Core/Src/system_stm32h5xx.c ****   *      - SystemInit(): This function is called at startup just after reset and
  21:Core/Src/system_stm32h5xx.c ****   *                      before branch to main program. This call is made inside
  22:Core/Src/system_stm32h5xx.c ****   *                      the "startup_stm32h5xx.s" file.
  23:Core/Src/system_stm32h5xx.c ****   *
  24:Core/Src/system_stm32h5xx.c ****   *      - SystemCoreClock variable: Contains the core clock (HCLK), it can be used
  25:Core/Src/system_stm32h5xx.c ****   *                                  by the user application to setup the SysTick
  26:Core/Src/system_stm32h5xx.c ****   *                                  timer or configure other parameters.
  27:Core/Src/system_stm32h5xx.c ****   *
  28:Core/Src/system_stm32h5xx.c ****   *      - SystemCoreClockUpdate(): Updates the variable SystemCoreClock and must
  29:Core/Src/system_stm32h5xx.c ****   *                                 be called whenever the core clock is changed
ARM GAS  C:\Users\LENOVO\AppData\Local\Temp\ccS5HLDf.s 			page 2


  30:Core/Src/system_stm32h5xx.c ****   *                                 during program execution.
  31:Core/Src/system_stm32h5xx.c ****   *
  32:Core/Src/system_stm32h5xx.c ****   *   After each device reset the HSI (64 MHz) is used as system clock source.
  33:Core/Src/system_stm32h5xx.c ****   *   Then SystemInit() function is called, in "startup_stm32h5xx.s" file, to
  34:Core/Src/system_stm32h5xx.c ****   *   configure the system clock before to branch to main program.
  35:Core/Src/system_stm32h5xx.c ****   *
  36:Core/Src/system_stm32h5xx.c ****   *   This file configures the system clock as follows:
  37:Core/Src/system_stm32h5xx.c ****   *=============================================================================
  38:Core/Src/system_stm32h5xx.c ****   *-----------------------------------------------------------------------------
  39:Core/Src/system_stm32h5xx.c ****   *        System Clock source                     | HSI
  40:Core/Src/system_stm32h5xx.c ****   *-----------------------------------------------------------------------------
  41:Core/Src/system_stm32h5xx.c ****   *        SYSCLK(Hz)                              | 64000000
  42:Core/Src/system_stm32h5xx.c ****   *-----------------------------------------------------------------------------
  43:Core/Src/system_stm32h5xx.c ****   *        HCLK(Hz)                                | 64000000
  44:Core/Src/system_stm32h5xx.c ****   *-----------------------------------------------------------------------------
  45:Core/Src/system_stm32h5xx.c ****   *        AHB Prescaler                           | 1
  46:Core/Src/system_stm32h5xx.c ****   *-----------------------------------------------------------------------------
  47:Core/Src/system_stm32h5xx.c ****   *        APB1 Prescaler                          | 1
  48:Core/Src/system_stm32h5xx.c ****   *-----------------------------------------------------------------------------
  49:Core/Src/system_stm32h5xx.c ****   *        APB2 Prescaler                          | 1
  50:Core/Src/system_stm32h5xx.c ****   *-----------------------------------------------------------------------------
  51:Core/Src/system_stm32h5xx.c ****   *        APB3 Prescaler                          | 1
  52:Core/Src/system_stm32h5xx.c ****   *-----------------------------------------------------------------------------
  53:Core/Src/system_stm32h5xx.c ****   *        HSI Division factor                     | 1
  54:Core/Src/system_stm32h5xx.c ****   *-----------------------------------------------------------------------------
  55:Core/Src/system_stm32h5xx.c ****   *        PLL1_SRC                                | No clock
  56:Core/Src/system_stm32h5xx.c ****   *-----------------------------------------------------------------------------
  57:Core/Src/system_stm32h5xx.c ****   *        PLL1_M                                  | Prescaler disabled
  58:Core/Src/system_stm32h5xx.c ****   *-----------------------------------------------------------------------------
  59:Core/Src/system_stm32h5xx.c ****   *        PLL1_N                                  | 129
  60:Core/Src/system_stm32h5xx.c ****   *-----------------------------------------------------------------------------
  61:Core/Src/system_stm32h5xx.c ****   *        PLL1_P                                  | 2
  62:Core/Src/system_stm32h5xx.c ****   *-----------------------------------------------------------------------------
  63:Core/Src/system_stm32h5xx.c ****   *        PLL1_Q                                  | 2
  64:Core/Src/system_stm32h5xx.c ****   *-----------------------------------------------------------------------------
  65:Core/Src/system_stm32h5xx.c ****   *        PLL1_R                                  | 2
  66:Core/Src/system_stm32h5xx.c ****   *-----------------------------------------------------------------------------
  67:Core/Src/system_stm32h5xx.c ****   *        PLL1_FRACN                              | 0
  68:Core/Src/system_stm32h5xx.c ****   *-----------------------------------------------------------------------------
  69:Core/Src/system_stm32h5xx.c ****   *        PLL2_SRC                                | No clock
  70:Core/Src/system_stm32h5xx.c ****   *-----------------------------------------------------------------------------
  71:Core/Src/system_stm32h5xx.c ****   *        PLL2_M                                  | Prescaler disabled
  72:Core/Src/system_stm32h5xx.c ****   *-----------------------------------------------------------------------------
  73:Core/Src/system_stm32h5xx.c ****   *        PLL2_N                                  | 129
  74:Core/Src/system_stm32h5xx.c ****   *-----------------------------------------------------------------------------
  75:Core/Src/system_stm32h5xx.c ****   *        PLL2_P                                  | 2
  76:Core/Src/system_stm32h5xx.c ****   *-----------------------------------------------------------------------------
  77:Core/Src/system_stm32h5xx.c ****   *        PLL2_Q                                  | 2
  78:Core/Src/system_stm32h5xx.c ****   *-----------------------------------------------------------------------------
  79:Core/Src/system_stm32h5xx.c ****   *        PLL2_R                                  | 2
  80:Core/Src/system_stm32h5xx.c ****   *-----------------------------------------------------------------------------
  81:Core/Src/system_stm32h5xx.c ****   *        PLL2_FRACN                              | 0
  82:Core/Src/system_stm32h5xx.c ****   *-----------------------------------------------------------------------------
  83:Core/Src/system_stm32h5xx.c ****   *        PLL3_SRC                                | No clock
  84:Core/Src/system_stm32h5xx.c ****   *-----------------------------------------------------------------------------
  85:Core/Src/system_stm32h5xx.c ****   *        PLL3_M                                  | Prescaler disabled
  86:Core/Src/system_stm32h5xx.c ****   *-----------------------------------------------------------------------------
ARM GAS  C:\Users\LENOVO\AppData\Local\Temp\ccS5HLDf.s 			page 3


  87:Core/Src/system_stm32h5xx.c ****   *        PLL3_N                                  | 129
  88:Core/Src/system_stm32h5xx.c ****   *-----------------------------------------------------------------------------
  89:Core/Src/system_stm32h5xx.c ****   *        PLL3_P                                  | 2
  90:Core/Src/system_stm32h5xx.c ****   *-----------------------------------------------------------------------------
  91:Core/Src/system_stm32h5xx.c ****   *        PLL3_Q                                  | 2
  92:Core/Src/system_stm32h5xx.c ****   *-----------------------------------------------------------------------------
  93:Core/Src/system_stm32h5xx.c ****   *        PLL3_R                                  | 2
  94:Core/Src/system_stm32h5xx.c ****   *-----------------------------------------------------------------------------
  95:Core/Src/system_stm32h5xx.c ****   *        PLL3_FRACN                              | 0
  96:Core/Src/system_stm32h5xx.c ****   *-----------------------------------------------------------------------------
  97:Core/Src/system_stm32h5xx.c ****   *=============================================================================
  98:Core/Src/system_stm32h5xx.c ****   */
  99:Core/Src/system_stm32h5xx.c **** 
 100:Core/Src/system_stm32h5xx.c **** /** @addtogroup CMSIS
 101:Core/Src/system_stm32h5xx.c ****   * @{
 102:Core/Src/system_stm32h5xx.c ****   */
 103:Core/Src/system_stm32h5xx.c **** 
 104:Core/Src/system_stm32h5xx.c **** /** @addtogroup STM32H5xx_system
 105:Core/Src/system_stm32h5xx.c ****   * @{
 106:Core/Src/system_stm32h5xx.c ****   */
 107:Core/Src/system_stm32h5xx.c **** 
 108:Core/Src/system_stm32h5xx.c **** /** @addtogroup STM32H5xx_System_Private_Includes
 109:Core/Src/system_stm32h5xx.c ****   * @{
 110:Core/Src/system_stm32h5xx.c ****   */
 111:Core/Src/system_stm32h5xx.c **** 
 112:Core/Src/system_stm32h5xx.c **** #include "stm32h5xx.h"
 113:Core/Src/system_stm32h5xx.c **** 
 114:Core/Src/system_stm32h5xx.c **** /**
 115:Core/Src/system_stm32h5xx.c ****   * @}
 116:Core/Src/system_stm32h5xx.c ****   */
 117:Core/Src/system_stm32h5xx.c **** 
 118:Core/Src/system_stm32h5xx.c **** /** @addtogroup STM32H5xx_System_Private_TypesDefinitions
 119:Core/Src/system_stm32h5xx.c ****   * @{
 120:Core/Src/system_stm32h5xx.c ****   */
 121:Core/Src/system_stm32h5xx.c **** 
 122:Core/Src/system_stm32h5xx.c **** /**
 123:Core/Src/system_stm32h5xx.c ****   * @}
 124:Core/Src/system_stm32h5xx.c ****   */
 125:Core/Src/system_stm32h5xx.c **** 
 126:Core/Src/system_stm32h5xx.c **** /** @addtogroup STM32H5xx_System_Private_Defines
 127:Core/Src/system_stm32h5xx.c ****   * @{
 128:Core/Src/system_stm32h5xx.c ****   */
 129:Core/Src/system_stm32h5xx.c **** 
 130:Core/Src/system_stm32h5xx.c **** #if !defined  (HSE_VALUE)
 131:Core/Src/system_stm32h5xx.c ****   #define HSE_VALUE    (25000000UL) /*!< Value of the External oscillator in Hz */
 132:Core/Src/system_stm32h5xx.c **** #endif /* HSE_VALUE */
 133:Core/Src/system_stm32h5xx.c **** 
 134:Core/Src/system_stm32h5xx.c **** #if !defined  (CSI_VALUE)
 135:Core/Src/system_stm32h5xx.c ****   #define CSI_VALUE    (4000000UL)  /*!< Value of the Internal oscillator in Hz*/
 136:Core/Src/system_stm32h5xx.c **** #endif /* CSI_VALUE */
 137:Core/Src/system_stm32h5xx.c **** 
 138:Core/Src/system_stm32h5xx.c **** #if !defined  (HSI_VALUE)
 139:Core/Src/system_stm32h5xx.c ****   #define HSI_VALUE    (64000000UL) /*!< Value of the Internal oscillator in Hz */
 140:Core/Src/system_stm32h5xx.c **** #endif /* HSI_VALUE */
 141:Core/Src/system_stm32h5xx.c **** 
 142:Core/Src/system_stm32h5xx.c **** /************************* Miscellaneous Configuration ************************/
 143:Core/Src/system_stm32h5xx.c **** /*!< Uncomment the following line if you need to relocate your vector Table in
ARM GAS  C:\Users\LENOVO\AppData\Local\Temp\ccS5HLDf.s 			page 4


 144:Core/Src/system_stm32h5xx.c ****      Internal SRAM. */
 145:Core/Src/system_stm32h5xx.c **** /* #define VECT_TAB_SRAM */
 146:Core/Src/system_stm32h5xx.c **** #define VECT_TAB_OFFSET  0x00U /*!< Vector Table base offset field.
 147:Core/Src/system_stm32h5xx.c ****                                    This value must be a multiple of 0x200. */
 148:Core/Src/system_stm32h5xx.c **** /******************************************************************************/
 149:Core/Src/system_stm32h5xx.c **** 
 150:Core/Src/system_stm32h5xx.c **** /**
 151:Core/Src/system_stm32h5xx.c ****   * @}
 152:Core/Src/system_stm32h5xx.c ****   */
 153:Core/Src/system_stm32h5xx.c **** 
 154:Core/Src/system_stm32h5xx.c **** /** @addtogroup STM32H5xx_System_Private_Macros
 155:Core/Src/system_stm32h5xx.c ****   * @{
 156:Core/Src/system_stm32h5xx.c ****   */
 157:Core/Src/system_stm32h5xx.c **** 
 158:Core/Src/system_stm32h5xx.c **** /**
 159:Core/Src/system_stm32h5xx.c ****   * @}
 160:Core/Src/system_stm32h5xx.c ****   */
 161:Core/Src/system_stm32h5xx.c **** 
 162:Core/Src/system_stm32h5xx.c **** /** @addtogroup STM32H5xx_System_Private_Variables
 163:Core/Src/system_stm32h5xx.c ****   * @{
 164:Core/Src/system_stm32h5xx.c ****   */
 165:Core/Src/system_stm32h5xx.c ****   /* The SystemCoreClock variable is updated in three ways:
 166:Core/Src/system_stm32h5xx.c ****       1) by calling CMSIS function SystemCoreClockUpdate()
 167:Core/Src/system_stm32h5xx.c ****       2) by calling HAL API function HAL_RCC_GetHCLKFreq()
 168:Core/Src/system_stm32h5xx.c ****       3) each time HAL_RCC_ClockConfig() is called to configure the system clock frequency
 169:Core/Src/system_stm32h5xx.c ****          Note: If you use this function to configure the system clock; then there
 170:Core/Src/system_stm32h5xx.c ****                is no need to call the 2 first functions listed above, since SystemCoreClock
 171:Core/Src/system_stm32h5xx.c ****                variable is updated automatically.
 172:Core/Src/system_stm32h5xx.c ****   */
 173:Core/Src/system_stm32h5xx.c ****   uint32_t SystemCoreClock = 64000000U;
 174:Core/Src/system_stm32h5xx.c **** 
 175:Core/Src/system_stm32h5xx.c ****   const uint8_t  AHBPrescTable[16] = {0U, 0U, 0U, 0U, 0U, 0U, 0U, 0U, 1U, 2U, 3U, 4U, 6U, 7U, 8U, 9
 176:Core/Src/system_stm32h5xx.c ****   const uint8_t  APBPrescTable[8] =  {0U, 0U, 0U, 0U, 1U, 2U, 3U, 4U};
 177:Core/Src/system_stm32h5xx.c **** /**
 178:Core/Src/system_stm32h5xx.c ****   * @}
 179:Core/Src/system_stm32h5xx.c ****   */
 180:Core/Src/system_stm32h5xx.c **** 
 181:Core/Src/system_stm32h5xx.c **** /** @addtogroup STM32H5xx_System_Private_FunctionPrototypes
 182:Core/Src/system_stm32h5xx.c ****   * @{
 183:Core/Src/system_stm32h5xx.c ****   */
 184:Core/Src/system_stm32h5xx.c **** 
 185:Core/Src/system_stm32h5xx.c **** /**
 186:Core/Src/system_stm32h5xx.c ****   * @}
 187:Core/Src/system_stm32h5xx.c ****   */
 188:Core/Src/system_stm32h5xx.c **** 
 189:Core/Src/system_stm32h5xx.c **** /** @addtogroup STM32H5xx_System_Private_Functions
 190:Core/Src/system_stm32h5xx.c ****   * @{
 191:Core/Src/system_stm32h5xx.c ****   */
 192:Core/Src/system_stm32h5xx.c **** 
 193:Core/Src/system_stm32h5xx.c **** /**
 194:Core/Src/system_stm32h5xx.c ****   * @brief  Setup the microcontroller system.
 195:Core/Src/system_stm32h5xx.c ****   * @param  None
 196:Core/Src/system_stm32h5xx.c ****   * @retval None
 197:Core/Src/system_stm32h5xx.c ****   */
 198:Core/Src/system_stm32h5xx.c **** 
 199:Core/Src/system_stm32h5xx.c **** void SystemInit(void)
 200:Core/Src/system_stm32h5xx.c **** {
ARM GAS  C:\Users\LENOVO\AppData\Local\Temp\ccS5HLDf.s 			page 5


  30              		.loc 1 200 1 view -0
  31              		.cfi_startproc
  32              		@ args = 0, pretend = 0, frame = 0
  33              		@ frame_needed = 0, uses_anonymous_args = 0
  34              		@ link register save eliminated.
 201:Core/Src/system_stm32h5xx.c ****   uint32_t reg_opsr;
  35              		.loc 1 201 3 view .LVU1
 202:Core/Src/system_stm32h5xx.c **** 
 203:Core/Src/system_stm32h5xx.c ****   /* FPU settings ------------------------------------------------------------*/
 204:Core/Src/system_stm32h5xx.c ****   #if (__FPU_PRESENT == 1) && (__FPU_USED == 1)
 205:Core/Src/system_stm32h5xx.c ****    SCB->CPACR |= ((3UL << 20U)|(3UL << 22U));  /* set CP10 and CP11 Full Access */
  36              		.loc 1 205 4 view .LVU2
  37              		.loc 1 205 7 is_stmt 0 view .LVU3
  38 0000 1F4A     		ldr	r2, .L5
  39 0002 D2F88830 		ldr	r3, [r2, #136]
  40              		.loc 1 205 15 view .LVU4
  41 0006 43F47003 		orr	r3, r3, #15728640
  42 000a C2F88830 		str	r3, [r2, #136]
 206:Core/Src/system_stm32h5xx.c ****   #endif
 207:Core/Src/system_stm32h5xx.c **** 
 208:Core/Src/system_stm32h5xx.c ****   /* Reset the RCC clock configuration to the default reset state ------------*/
 209:Core/Src/system_stm32h5xx.c ****   /* Set HSION bit */
 210:Core/Src/system_stm32h5xx.c ****   RCC->CR = RCC_CR_HSION;
  43              		.loc 1 210 3 is_stmt 1 view .LVU5
  44              		.loc 1 210 11 is_stmt 0 view .LVU6
  45 000e 1D4B     		ldr	r3, .L5+4
  46 0010 0122     		movs	r2, #1
  47 0012 1A60     		str	r2, [r3]
 211:Core/Src/system_stm32h5xx.c **** 
 212:Core/Src/system_stm32h5xx.c ****   /* Reset CFGR register */
 213:Core/Src/system_stm32h5xx.c ****   RCC->CFGR1 = 0U;
  48              		.loc 1 213 3 is_stmt 1 view .LVU7
  49              		.loc 1 213 14 is_stmt 0 view .LVU8
  50 0014 0022     		movs	r2, #0
  51 0016 DA61     		str	r2, [r3, #28]
 214:Core/Src/system_stm32h5xx.c ****   RCC->CFGR2 = 0U;
  52              		.loc 1 214 3 is_stmt 1 view .LVU9
  53              		.loc 1 214 14 is_stmt 0 view .LVU10
  54 0018 1A62     		str	r2, [r3, #32]
 215:Core/Src/system_stm32h5xx.c **** 
 216:Core/Src/system_stm32h5xx.c ****   /* Reset HSEON, HSECSSON, HSEBYP, HSEEXT, HSIDIV, HSIKERON, CSION, CSIKERON, HSI48 and PLLxON bit
 217:Core/Src/system_stm32h5xx.c **** #if defined(RCC_CR_PLL3ON)
 218:Core/Src/system_stm32h5xx.c ****   RCC->CR &= ~(RCC_CR_HSEON | RCC_CR_HSECSSON | RCC_CR_HSEBYP | RCC_CR_HSEEXT | RCC_CR_HSIDIV | RCC
  55              		.loc 1 218 3 is_stmt 1 view .LVU11
  56              		.loc 1 218 6 is_stmt 0 view .LVU12
  57 001a 1868     		ldr	r0, [r3]
  58              		.loc 1 218 11 view .LVU13
  59 001c 1A49     		ldr	r1, .L5+8
  60 001e 0140     		ands	r1, r1, r0
  61 0020 1960     		str	r1, [r3]
 219:Core/Src/system_stm32h5xx.c ****                RCC_CR_CSION | RCC_CR_CSIKERON |RCC_CR_HSI48ON | RCC_CR_PLL1ON | RCC_CR_PLL2ON | RCC
 220:Core/Src/system_stm32h5xx.c **** #else
 221:Core/Src/system_stm32h5xx.c ****   RCC->CR &= ~(RCC_CR_HSEON | RCC_CR_HSECSSON | RCC_CR_HSEBYP | RCC_CR_HSEEXT | RCC_CR_HSIDIV | RCC
 222:Core/Src/system_stm32h5xx.c ****                RCC_CR_CSION | RCC_CR_CSIKERON |RCC_CR_HSI48ON | RCC_CR_PLL1ON | RCC_CR_PLL2ON);
 223:Core/Src/system_stm32h5xx.c **** #endif
 224:Core/Src/system_stm32h5xx.c **** 
 225:Core/Src/system_stm32h5xx.c ****   /* Reset PLLxCFGR register */
ARM GAS  C:\Users\LENOVO\AppData\Local\Temp\ccS5HLDf.s 			page 6


 226:Core/Src/system_stm32h5xx.c ****   RCC->PLL1CFGR = 0U;
  62              		.loc 1 226 3 is_stmt 1 view .LVU14
  63              		.loc 1 226 17 is_stmt 0 view .LVU15
  64 0022 9A62     		str	r2, [r3, #40]
 227:Core/Src/system_stm32h5xx.c ****   RCC->PLL2CFGR = 0U;
  65              		.loc 1 227 3 is_stmt 1 view .LVU16
  66              		.loc 1 227 17 is_stmt 0 view .LVU17
  67 0024 DA62     		str	r2, [r3, #44]
 228:Core/Src/system_stm32h5xx.c **** #if defined(RCC_CR_PLL3ON)
 229:Core/Src/system_stm32h5xx.c ****   RCC->PLL3CFGR = 0U;
  68              		.loc 1 229 3 is_stmt 1 view .LVU18
  69              		.loc 1 229 17 is_stmt 0 view .LVU19
  70 0026 1A63     		str	r2, [r3, #48]
 230:Core/Src/system_stm32h5xx.c **** #endif /* RCC_CR_PLL3ON */
 231:Core/Src/system_stm32h5xx.c **** 
 232:Core/Src/system_stm32h5xx.c ****   /* Reset PLL1DIVR register */
 233:Core/Src/system_stm32h5xx.c ****   RCC->PLL1DIVR = 0x01010280U;
  71              		.loc 1 233 3 is_stmt 1 view .LVU20
  72              		.loc 1 233 17 is_stmt 0 view .LVU21
  73 0028 1849     		ldr	r1, .L5+12
  74 002a 5963     		str	r1, [r3, #52]
 234:Core/Src/system_stm32h5xx.c ****   /* Reset PLL1FRACR register */
 235:Core/Src/system_stm32h5xx.c ****   RCC->PLL1FRACR = 0x00000000U;
  75              		.loc 1 235 3 is_stmt 1 view .LVU22
  76              		.loc 1 235 18 is_stmt 0 view .LVU23
  77 002c 9A63     		str	r2, [r3, #56]
 236:Core/Src/system_stm32h5xx.c ****   /* Reset PLL2DIVR register */
 237:Core/Src/system_stm32h5xx.c ****   RCC->PLL2DIVR = 0x01010280U;
  78              		.loc 1 237 3 is_stmt 1 view .LVU24
  79              		.loc 1 237 17 is_stmt 0 view .LVU25
  80 002e D963     		str	r1, [r3, #60]
 238:Core/Src/system_stm32h5xx.c ****   /* Reset PLL2FRACR register */
 239:Core/Src/system_stm32h5xx.c ****   RCC->PLL2FRACR = 0x00000000U;
  81              		.loc 1 239 3 is_stmt 1 view .LVU26
  82              		.loc 1 239 18 is_stmt 0 view .LVU27
  83 0030 1A64     		str	r2, [r3, #64]
 240:Core/Src/system_stm32h5xx.c **** #if defined(RCC_CR_PLL3ON)
 241:Core/Src/system_stm32h5xx.c ****   /* Reset PLL3DIVR register */
 242:Core/Src/system_stm32h5xx.c ****   RCC->PLL3DIVR = 0x01010280U;
  84              		.loc 1 242 3 is_stmt 1 view .LVU28
  85              		.loc 1 242 17 is_stmt 0 view .LVU29
  86 0032 5964     		str	r1, [r3, #68]
 243:Core/Src/system_stm32h5xx.c ****   /* Reset PLL3FRACR register */
 244:Core/Src/system_stm32h5xx.c ****   RCC->PLL3FRACR = 0x00000000U;
  87              		.loc 1 244 3 is_stmt 1 view .LVU30
  88              		.loc 1 244 18 is_stmt 0 view .LVU31
  89 0034 9A64     		str	r2, [r3, #72]
 245:Core/Src/system_stm32h5xx.c **** #endif /* RCC_CR_PLL3ON */
 246:Core/Src/system_stm32h5xx.c **** 
 247:Core/Src/system_stm32h5xx.c ****   /* Reset HSEBYP bit */
 248:Core/Src/system_stm32h5xx.c ****   RCC->CR &= ~(RCC_CR_HSEBYP);
  90              		.loc 1 248 3 is_stmt 1 view .LVU32
  91              		.loc 1 248 6 is_stmt 0 view .LVU33
  92 0036 1968     		ldr	r1, [r3]
  93              		.loc 1 248 11 view .LVU34
  94 0038 21F48021 		bic	r1, r1, #262144
  95 003c 1960     		str	r1, [r3]
ARM GAS  C:\Users\LENOVO\AppData\Local\Temp\ccS5HLDf.s 			page 7


 249:Core/Src/system_stm32h5xx.c **** 
 250:Core/Src/system_stm32h5xx.c ****   /* Disable all interrupts */
 251:Core/Src/system_stm32h5xx.c ****   RCC->CIER = 0U;
  96              		.loc 1 251 3 is_stmt 1 view .LVU35
  97              		.loc 1 251 13 is_stmt 0 view .LVU36
  98 003e 1A65     		str	r2, [r3, #80]
 252:Core/Src/system_stm32h5xx.c **** 
 253:Core/Src/system_stm32h5xx.c ****   /* Configure the Vector Table location add offset address ------------------*/
 254:Core/Src/system_stm32h5xx.c ****   #ifdef VECT_TAB_SRAM
 255:Core/Src/system_stm32h5xx.c ****     SCB->VTOR = SRAM1_BASE | VECT_TAB_OFFSET; /* Vector Table Relocation in Internal SRAM */
 256:Core/Src/system_stm32h5xx.c ****   #else
 257:Core/Src/system_stm32h5xx.c ****     // SCB->VTOR = FLASH_BASE | VECT_TAB_OFFSET; /* Vector Table Relocation in Internal FLASH */
 258:Core/Src/system_stm32h5xx.c ****   #endif /* VECT_TAB_SRAM */
 259:Core/Src/system_stm32h5xx.c **** 
 260:Core/Src/system_stm32h5xx.c ****   /* Check OPSR register to verify if there is an ongoing swap or option bytes update interrupted b
 261:Core/Src/system_stm32h5xx.c ****   reg_opsr = FLASH->OPSR & FLASH_OPSR_CODE_OP;
  99              		.loc 1 261 3 is_stmt 1 view .LVU37
 100              		.loc 1 261 19 is_stmt 0 view .LVU38
 101 0040 134B     		ldr	r3, .L5+16
 102 0042 9B69     		ldr	r3, [r3, #24]
 103              		.loc 1 261 12 view .LVU39
 104 0044 03F06043 		and	r3, r3, #-536870912
 105              	.LVL0:
 262:Core/Src/system_stm32h5xx.c ****   if ((reg_opsr == FLASH_OPSR_CODE_OP) || (reg_opsr == (FLASH_OPSR_CODE_OP_2 | FLASH_OPSR_CODE_OP_1
 106              		.loc 1 262 3 is_stmt 1 view .LVU40
 107              		.loc 1 262 6 is_stmt 0 view .LVU41
 108 0048 B3F1604F 		cmp	r3, #-536870912
 109 004c 02D0     		beq	.L2
 110              		.loc 1 262 40 discriminator 1 view .LVU42
 111 004e B3F1404F 		cmp	r3, #-1073741824
 112 0052 13D1     		bne	.L1
 113              	.L2:
 263:Core/Src/system_stm32h5xx.c ****   {
 264:Core/Src/system_stm32h5xx.c ****     /* Check FLASH Option Control Register access */
 265:Core/Src/system_stm32h5xx.c ****     if ((FLASH->OPTCR & FLASH_OPTCR_OPTLOCK) != 0U)
 114              		.loc 1 265 5 is_stmt 1 view .LVU43
 115              		.loc 1 265 15 is_stmt 0 view .LVU44
 116 0054 0E4B     		ldr	r3, .L5+16
 117              	.LVL1:
 118              		.loc 1 265 15 view .LVU45
 119 0056 DB69     		ldr	r3, [r3, #28]
 120              		.loc 1 265 8 view .LVU46
 121 0058 13F0010F 		tst	r3, #1
 122 005c 05D0     		beq	.L4
 266:Core/Src/system_stm32h5xx.c ****     {
 267:Core/Src/system_stm32h5xx.c ****       /* Authorizes the Option Byte registers programming */
 268:Core/Src/system_stm32h5xx.c ****       FLASH->OPTKEYR = 0x08192A3BU;
 123              		.loc 1 268 7 is_stmt 1 view .LVU47
 124              		.loc 1 268 22 is_stmt 0 view .LVU48
 125 005e 0C4B     		ldr	r3, .L5+16
 126 0060 0C4A     		ldr	r2, .L5+20
 127 0062 DA60     		str	r2, [r3, #12]
 269:Core/Src/system_stm32h5xx.c ****       FLASH->OPTKEYR = 0x4C5D6E7FU;
 128              		.loc 1 269 7 is_stmt 1 view .LVU49
 129              		.loc 1 269 22 is_stmt 0 view .LVU50
 130 0064 02F14432 		add	r2, r2, #1145324612
 131 0068 DA60     		str	r2, [r3, #12]
ARM GAS  C:\Users\LENOVO\AppData\Local\Temp\ccS5HLDf.s 			page 8


 132              	.L4:
 270:Core/Src/system_stm32h5xx.c ****     }
 271:Core/Src/system_stm32h5xx.c ****     /* Launch the option bytes change operation */
 272:Core/Src/system_stm32h5xx.c ****     FLASH->OPTCR |= FLASH_OPTCR_OPTSTART;
 133              		.loc 1 272 5 is_stmt 1 view .LVU51
 134              		.loc 1 272 10 is_stmt 0 view .LVU52
 135 006a 094B     		ldr	r3, .L5+16
 136 006c DA69     		ldr	r2, [r3, #28]
 137              		.loc 1 272 18 view .LVU53
 138 006e 42F00202 		orr	r2, r2, #2
 139 0072 DA61     		str	r2, [r3, #28]
 273:Core/Src/system_stm32h5xx.c **** 
 274:Core/Src/system_stm32h5xx.c ****     /* Lock the FLASH Option Control Register access */
 275:Core/Src/system_stm32h5xx.c ****     FLASH->OPTCR |= FLASH_OPTCR_OPTLOCK;
 140              		.loc 1 275 5 is_stmt 1 view .LVU54
 141              		.loc 1 275 10 is_stmt 0 view .LVU55
 142 0074 DA69     		ldr	r2, [r3, #28]
 143              		.loc 1 275 18 view .LVU56
 144 0076 42F00102 		orr	r2, r2, #1
 145 007a DA61     		str	r2, [r3, #28]
 146              	.L1:
 276:Core/Src/system_stm32h5xx.c ****   }
 277:Core/Src/system_stm32h5xx.c **** }
 147              		.loc 1 277 1 view .LVU57
 148 007c 7047     		bx	lr
 149              	.L6:
 150 007e 00BF     		.align	2
 151              	.L5:
 152 0080 00ED00E0 		.word	-536810240
 153 0084 000C0244 		.word	1140984832
 154 0088 E3EAE2EA 		.word	-354227485
 155 008c 80020101 		.word	16843392
 156 0090 00200240 		.word	1073881088
 157 0094 3B2A1908 		.word	135866939
 158              		.cfi_endproc
 159              	.LFE496:
 161              		.section	.text.SystemCoreClockUpdate,"ax",%progbits
 162              		.align	1
 163              		.global	SystemCoreClockUpdate
 164              		.syntax unified
 165              		.thumb
 166              		.thumb_func
 168              	SystemCoreClockUpdate:
 169              	.LFB497:
 278:Core/Src/system_stm32h5xx.c **** 
 279:Core/Src/system_stm32h5xx.c **** /**
 280:Core/Src/system_stm32h5xx.c ****   * @brief  Update SystemCoreClock variable according to Clock Register Values.
 281:Core/Src/system_stm32h5xx.c ****   *         The SystemCoreClock variable contains the core clock (HCLK), it can
 282:Core/Src/system_stm32h5xx.c ****   *         be used by the user application to setup the SysTick timer or configure
 283:Core/Src/system_stm32h5xx.c ****   *         other parameters.
 284:Core/Src/system_stm32h5xx.c ****   *
 285:Core/Src/system_stm32h5xx.c ****   * @note   Each time the core clock (HCLK) changes, this function must be called
 286:Core/Src/system_stm32h5xx.c ****   *         to update SystemCoreClock variable value. Otherwise, any configuration
 287:Core/Src/system_stm32h5xx.c ****   *         based on this variable will be incorrect.
 288:Core/Src/system_stm32h5xx.c ****   *
 289:Core/Src/system_stm32h5xx.c ****   * @note   - The system frequency computed by this function is not the real
 290:Core/Src/system_stm32h5xx.c ****   *           frequency in the chip. It is calculated based on the predefined
ARM GAS  C:\Users\LENOVO\AppData\Local\Temp\ccS5HLDf.s 			page 9


 291:Core/Src/system_stm32h5xx.c ****   *           constant and the selected clock source:
 292:Core/Src/system_stm32h5xx.c ****   *
 293:Core/Src/system_stm32h5xx.c ****   *           - If SYSCLK source is CSI, SystemCoreClock will contain the CSI_VALUE(*)
 294:Core/Src/system_stm32h5xx.c ****   *
 295:Core/Src/system_stm32h5xx.c ****   *           - If SYSCLK source is HSI, SystemCoreClock will contain the HSI_VALUE(**)
 296:Core/Src/system_stm32h5xx.c ****   *
 297:Core/Src/system_stm32h5xx.c ****   *           - If SYSCLK source is HSE, SystemCoreClock will contain the HSE_VALUE(***)
 298:Core/Src/system_stm32h5xx.c ****   *
 299:Core/Src/system_stm32h5xx.c ****   *           - If SYSCLK source is PLL, SystemCoreClock will contain the HSE_VALUE(***)
 300:Core/Src/system_stm32h5xx.c ****   *             or HSI_VALUE(**) or CSI_VALUE(*) multiplied/divided by the PLL factors.
 301:Core/Src/system_stm32h5xx.c ****   *
 302:Core/Src/system_stm32h5xx.c ****   *         (*) CSI_VALUE is a constant defined in stm32h5xx_hal.h file (default value
 303:Core/Src/system_stm32h5xx.c ****   *             4 MHz) but the real value may vary depending on the variations
 304:Core/Src/system_stm32h5xx.c ****   *             in voltage and temperature.
 305:Core/Src/system_stm32h5xx.c ****   *
 306:Core/Src/system_stm32h5xx.c ****   *         (**) HSI_VALUE is a constant defined in stm32h5xx_hal.h file (default value
 307:Core/Src/system_stm32h5xx.c ****   *              64 MHz) but the real value may vary depending on the variations
 308:Core/Src/system_stm32h5xx.c ****   *              in voltage and temperature.
 309:Core/Src/system_stm32h5xx.c ****   *
 310:Core/Src/system_stm32h5xx.c ****   *         (***) HSE_VALUE is a constant defined in stm32h5xx_hal.h file (default value
 311:Core/Src/system_stm32h5xx.c ****   *              25 MHz), user has to ensure that HSE_VALUE is same as the real
 312:Core/Src/system_stm32h5xx.c ****   *              frequency of the crystal used. Otherwise, this function may
 313:Core/Src/system_stm32h5xx.c ****   *              have wrong result.
 314:Core/Src/system_stm32h5xx.c ****   *
 315:Core/Src/system_stm32h5xx.c ****   *         - The result of this function could be not correct when using fractional
 316:Core/Src/system_stm32h5xx.c ****   *           value for HSE crystal.
 317:Core/Src/system_stm32h5xx.c ****   *
 318:Core/Src/system_stm32h5xx.c ****   * @param  None
 319:Core/Src/system_stm32h5xx.c ****   * @retval None
 320:Core/Src/system_stm32h5xx.c ****   */
 321:Core/Src/system_stm32h5xx.c **** void SystemCoreClockUpdate(void)
 322:Core/Src/system_stm32h5xx.c **** {
 170              		.loc 1 322 1 is_stmt 1 view -0
 171              		.cfi_startproc
 172              		@ args = 0, pretend = 0, frame = 0
 173              		@ frame_needed = 0, uses_anonymous_args = 0
 174              		@ link register save eliminated.
 323:Core/Src/system_stm32h5xx.c ****   uint32_t pllp, pllsource, pllm, pllfracen, hsivalue, tmp;
 175              		.loc 1 323 3 view .LVU59
 324:Core/Src/system_stm32h5xx.c ****   float_t fracn1, pllvco;
 176              		.loc 1 324 3 view .LVU60
 325:Core/Src/system_stm32h5xx.c **** 
 326:Core/Src/system_stm32h5xx.c ****   /* Get SYSCLK source -------------------------------------------------------*/
 327:Core/Src/system_stm32h5xx.c ****   switch (RCC->CFGR1 & RCC_CFGR1_SWS)
 177              		.loc 1 327 3 view .LVU61
 178              		.loc 1 327 14 is_stmt 0 view .LVU62
 179 0000 5E4B     		ldr	r3, .L19
 180 0002 DB69     		ldr	r3, [r3, #28]
 181              		.loc 1 327 22 view .LVU63
 182 0004 03F01803 		and	r3, r3, #24
 183              		.loc 1 327 3 view .LVU64
 184 0008 182B     		cmp	r3, #24
 185 000a 00F2B380 		bhi	.L8
 186 000e DFE803F0 		tbb	[pc, r3]
 187              	.L10:
 188 0012 0D       		.byte	(.L13-.L10)/2
 189 0013 B1       		.byte	(.L8-.L10)/2
ARM GAS  C:\Users\LENOVO\AppData\Local\Temp\ccS5HLDf.s 			page 10


 190 0014 B1       		.byte	(.L8-.L10)/2
 191 0015 B1       		.byte	(.L8-.L10)/2
 192 0016 B1       		.byte	(.L8-.L10)/2
 193 0017 B1       		.byte	(.L8-.L10)/2
 194 0018 B1       		.byte	(.L8-.L10)/2
 195 0019 B1       		.byte	(.L8-.L10)/2
 196 001a 20       		.byte	(.L12-.L10)/2
 197 001b B1       		.byte	(.L8-.L10)/2
 198 001c B1       		.byte	(.L8-.L10)/2
 199 001d B1       		.byte	(.L8-.L10)/2
 200 001e B1       		.byte	(.L8-.L10)/2
 201 001f B1       		.byte	(.L8-.L10)/2
 202 0020 B1       		.byte	(.L8-.L10)/2
 203 0021 B1       		.byte	(.L8-.L10)/2
 204 0022 24       		.byte	(.L11-.L10)/2
 205 0023 B1       		.byte	(.L8-.L10)/2
 206 0024 B1       		.byte	(.L8-.L10)/2
 207 0025 B1       		.byte	(.L8-.L10)/2
 208 0026 B1       		.byte	(.L8-.L10)/2
 209 0027 B1       		.byte	(.L8-.L10)/2
 210 0028 B1       		.byte	(.L8-.L10)/2
 211 0029 B1       		.byte	(.L8-.L10)/2
 212 002a 28       		.byte	(.L9-.L10)/2
 213 002b 00       		.p2align 1
 214              	.L13:
 328:Core/Src/system_stm32h5xx.c ****   {
 329:Core/Src/system_stm32h5xx.c ****   case 0x00UL:  /* HSI used as system clock source */
 330:Core/Src/system_stm32h5xx.c ****     SystemCoreClock = (uint32_t) (HSI_VALUE >> ((RCC->CR & RCC_CR_HSIDIV)>> 3));
 215              		.loc 1 330 5 is_stmt 1 view .LVU65
 216              		.loc 1 330 53 is_stmt 0 view .LVU66
 217 002c 534B     		ldr	r3, .L19
 218 002e 1A68     		ldr	r2, [r3]
 219              		.loc 1 330 74 view .LVU67
 220 0030 C2F3C102 		ubfx	r2, r2, #3, #2
 221              		.loc 1 330 23 view .LVU68
 222 0034 524B     		ldr	r3, .L19+4
 223 0036 D340     		lsrs	r3, r3, r2
 224              		.loc 1 330 21 view .LVU69
 225 0038 524A     		ldr	r2, .L19+8
 226 003a 1360     		str	r3, [r2]
 331:Core/Src/system_stm32h5xx.c ****     break;
 227              		.loc 1 331 5 is_stmt 1 view .LVU70
 228              	.L14:
 332:Core/Src/system_stm32h5xx.c **** 
 333:Core/Src/system_stm32h5xx.c ****   case 0x08UL:  /* CSI used as system clock  source */
 334:Core/Src/system_stm32h5xx.c ****     SystemCoreClock = CSI_VALUE;
 335:Core/Src/system_stm32h5xx.c ****     break;
 336:Core/Src/system_stm32h5xx.c **** 
 337:Core/Src/system_stm32h5xx.c ****   case 0x10UL:  /* HSE used as system clock  source */
 338:Core/Src/system_stm32h5xx.c ****     SystemCoreClock = HSE_VALUE;
 339:Core/Src/system_stm32h5xx.c ****     break;
 340:Core/Src/system_stm32h5xx.c **** 
 341:Core/Src/system_stm32h5xx.c ****   case 0x18UL:  /* PLL1 used as system clock source */
 342:Core/Src/system_stm32h5xx.c ****     /* PLL_VCO = (HSE_VALUE or HSI_VALUE or CSI_VALUE/ PLLM) * PLLN
 343:Core/Src/system_stm32h5xx.c ****     SYSCLK = PLL_VCO / PLLR
 344:Core/Src/system_stm32h5xx.c ****     */
 345:Core/Src/system_stm32h5xx.c ****     pllsource = (RCC->PLL1CFGR & RCC_PLL1CFGR_PLL1SRC);
ARM GAS  C:\Users\LENOVO\AppData\Local\Temp\ccS5HLDf.s 			page 11


 346:Core/Src/system_stm32h5xx.c ****     pllm = ((RCC->PLL1CFGR & RCC_PLL1CFGR_PLL1M)>> RCC_PLL1CFGR_PLL1M_Pos);
 347:Core/Src/system_stm32h5xx.c ****     pllfracen = ((RCC->PLL1CFGR & RCC_PLL1CFGR_PLL1FRACEN)>>RCC_PLL1CFGR_PLL1FRACEN_Pos);
 348:Core/Src/system_stm32h5xx.c ****     fracn1 = (float_t)(uint32_t)(pllfracen* ((RCC->PLL1FRACR & RCC_PLL1FRACR_PLL1FRACN)>> RCC_PLL1F
 349:Core/Src/system_stm32h5xx.c **** 
 350:Core/Src/system_stm32h5xx.c ****     switch (pllsource)
 351:Core/Src/system_stm32h5xx.c ****     {
 352:Core/Src/system_stm32h5xx.c ****     case 0x01UL:  /* HSI used as PLL clock source */
 353:Core/Src/system_stm32h5xx.c ****       hsivalue = (HSI_VALUE >> ((RCC->CR & RCC_CR_HSIDIV)>> 3)) ;
 354:Core/Src/system_stm32h5xx.c ****       pllvco = ((float_t)hsivalue / (float_t)pllm) * ((float_t)(uint32_t)(RCC->PLL1DIVR & RCC_PLL1D
 355:Core/Src/system_stm32h5xx.c ****                 (fracn1/(float_t)0x2000) +(float_t)1 );
 356:Core/Src/system_stm32h5xx.c ****       break;
 357:Core/Src/system_stm32h5xx.c **** 
 358:Core/Src/system_stm32h5xx.c ****     case 0x02UL:  /* CSI used as PLL clock source */
 359:Core/Src/system_stm32h5xx.c ****       pllvco = ((float_t)CSI_VALUE / (float_t)pllm) * ((float_t)(uint32_t)(RCC->PLL1DIVR & RCC_PLL1
 360:Core/Src/system_stm32h5xx.c ****                 (fracn1/(float_t)0x2000) +(float_t)1 );
 361:Core/Src/system_stm32h5xx.c ****       break;
 362:Core/Src/system_stm32h5xx.c **** 
 363:Core/Src/system_stm32h5xx.c ****     case 0x03UL:  /* HSE used as PLL clock source */
 364:Core/Src/system_stm32h5xx.c ****       pllvco = ((float_t)HSE_VALUE / (float_t)pllm) * ((float_t)(uint32_t)(RCC->PLL1DIVR & RCC_PLL1
 365:Core/Src/system_stm32h5xx.c ****                 (fracn1/(float_t)0x2000) +(float_t)1 );
 366:Core/Src/system_stm32h5xx.c ****       break;
 367:Core/Src/system_stm32h5xx.c **** 
 368:Core/Src/system_stm32h5xx.c ****     default:  /* No clock sent to PLL*/
 369:Core/Src/system_stm32h5xx.c ****       pllvco = (float_t) 0U;
 370:Core/Src/system_stm32h5xx.c ****       break;
 371:Core/Src/system_stm32h5xx.c ****     }
 372:Core/Src/system_stm32h5xx.c **** 
 373:Core/Src/system_stm32h5xx.c ****     pllp = (((RCC->PLL1DIVR & RCC_PLL1DIVR_PLL1P) >>RCC_PLL1DIVR_PLL1P_Pos) + 1U ) ;
 374:Core/Src/system_stm32h5xx.c ****     SystemCoreClock =  (uint32_t)(float_t)(pllvco/(float_t)pllp);
 375:Core/Src/system_stm32h5xx.c **** 
 376:Core/Src/system_stm32h5xx.c ****     break;
 377:Core/Src/system_stm32h5xx.c **** 
 378:Core/Src/system_stm32h5xx.c ****   default:
 379:Core/Src/system_stm32h5xx.c ****     SystemCoreClock = HSI_VALUE;
 380:Core/Src/system_stm32h5xx.c ****     break;
 381:Core/Src/system_stm32h5xx.c ****   }
 382:Core/Src/system_stm32h5xx.c ****   /* Compute HCLK clock frequency --------------------------------------------*/
 383:Core/Src/system_stm32h5xx.c ****   /* Get HCLK prescaler */
 384:Core/Src/system_stm32h5xx.c ****   tmp = AHBPrescTable[((RCC->CFGR2 & RCC_CFGR2_HPRE) >> RCC_CFGR2_HPRE_Pos)];
 229              		.loc 1 384 3 view .LVU71
 230              		.loc 1 384 28 is_stmt 0 view .LVU72
 231 003c 4F4B     		ldr	r3, .L19
 232 003e 1B6A     		ldr	r3, [r3, #32]
 233              		.loc 1 384 54 view .LVU73
 234 0040 03F00F03 		and	r3, r3, #15
 235              		.loc 1 384 22 view .LVU74
 236 0044 504A     		ldr	r2, .L19+12
 237 0046 D15C     		ldrb	r1, [r2, r3]	@ zero_extendqisi2
 238              	.LVL2:
 385:Core/Src/system_stm32h5xx.c ****   /* HCLK clock frequency */
 386:Core/Src/system_stm32h5xx.c ****   SystemCoreClock >>= tmp;
 239              		.loc 1 386 3 is_stmt 1 view .LVU75
 240              		.loc 1 386 19 is_stmt 0 view .LVU76
 241 0048 4E4A     		ldr	r2, .L19+8
 242 004a 1368     		ldr	r3, [r2]
 243 004c CB40     		lsrs	r3, r3, r1
 244 004e 1360     		str	r3, [r2]
ARM GAS  C:\Users\LENOVO\AppData\Local\Temp\ccS5HLDf.s 			page 12


 387:Core/Src/system_stm32h5xx.c **** }
 245              		.loc 1 387 1 view .LVU77
 246 0050 7047     		bx	lr
 247              	.LVL3:
 248              	.L12:
 334:Core/Src/system_stm32h5xx.c ****     break;
 249              		.loc 1 334 5 is_stmt 1 view .LVU78
 334:Core/Src/system_stm32h5xx.c ****     break;
 250              		.loc 1 334 21 is_stmt 0 view .LVU79
 251 0052 4C4B     		ldr	r3, .L19+8
 252 0054 4D4A     		ldr	r2, .L19+16
 253 0056 1A60     		str	r2, [r3]
 335:Core/Src/system_stm32h5xx.c **** 
 254              		.loc 1 335 5 is_stmt 1 view .LVU80
 255 0058 F0E7     		b	.L14
 256              	.L11:
 338:Core/Src/system_stm32h5xx.c ****     break;
 257              		.loc 1 338 5 view .LVU81
 338:Core/Src/system_stm32h5xx.c ****     break;
 258              		.loc 1 338 21 is_stmt 0 view .LVU82
 259 005a 4A4B     		ldr	r3, .L19+8
 260 005c 4C4A     		ldr	r2, .L19+20
 261 005e 1A60     		str	r2, [r3]
 339:Core/Src/system_stm32h5xx.c **** 
 262              		.loc 1 339 5 is_stmt 1 view .LVU83
 263 0060 ECE7     		b	.L14
 264              	.L9:
 345:Core/Src/system_stm32h5xx.c ****     pllm = ((RCC->PLL1CFGR & RCC_PLL1CFGR_PLL1M)>> RCC_PLL1CFGR_PLL1M_Pos);
 265              		.loc 1 345 5 view .LVU84
 345:Core/Src/system_stm32h5xx.c ****     pllm = ((RCC->PLL1CFGR & RCC_PLL1CFGR_PLL1M)>> RCC_PLL1CFGR_PLL1M_Pos);
 266              		.loc 1 345 21 is_stmt 0 view .LVU85
 267 0062 4648     		ldr	r0, .L19
 268 0064 816A     		ldr	r1, [r0, #40]
 345:Core/Src/system_stm32h5xx.c ****     pllm = ((RCC->PLL1CFGR & RCC_PLL1CFGR_PLL1M)>> RCC_PLL1CFGR_PLL1M_Pos);
 269              		.loc 1 345 15 view .LVU86
 270 0066 01F00301 		and	r1, r1, #3
 271              	.LVL4:
 346:Core/Src/system_stm32h5xx.c ****     pllfracen = ((RCC->PLL1CFGR & RCC_PLL1CFGR_PLL1FRACEN)>>RCC_PLL1CFGR_PLL1FRACEN_Pos);
 272              		.loc 1 346 5 is_stmt 1 view .LVU87
 346:Core/Src/system_stm32h5xx.c ****     pllfracen = ((RCC->PLL1CFGR & RCC_PLL1CFGR_PLL1FRACEN)>>RCC_PLL1CFGR_PLL1FRACEN_Pos);
 273              		.loc 1 346 17 is_stmt 0 view .LVU88
 274 006a 826A     		ldr	r2, [r0, #40]
 346:Core/Src/system_stm32h5xx.c ****     pllfracen = ((RCC->PLL1CFGR & RCC_PLL1CFGR_PLL1FRACEN)>>RCC_PLL1CFGR_PLL1FRACEN_Pos);
 275              		.loc 1 346 10 view .LVU89
 276 006c C2F30522 		ubfx	r2, r2, #8, #6
 277              	.LVL5:
 347:Core/Src/system_stm32h5xx.c ****     fracn1 = (float_t)(uint32_t)(pllfracen* ((RCC->PLL1FRACR & RCC_PLL1FRACR_PLL1FRACN)>> RCC_PLL1F
 278              		.loc 1 347 5 is_stmt 1 view .LVU90
 347:Core/Src/system_stm32h5xx.c ****     fracn1 = (float_t)(uint32_t)(pllfracen* ((RCC->PLL1FRACR & RCC_PLL1FRACR_PLL1FRACN)>> RCC_PLL1F
 279              		.loc 1 347 22 is_stmt 0 view .LVU91
 280 0070 836A     		ldr	r3, [r0, #40]
 347:Core/Src/system_stm32h5xx.c ****     fracn1 = (float_t)(uint32_t)(pllfracen* ((RCC->PLL1FRACR & RCC_PLL1FRACR_PLL1FRACN)>> RCC_PLL1F
 281              		.loc 1 347 15 view .LVU92
 282 0072 C3F3001C 		ubfx	ip, r3, #4, #1
 283              	.LVL6:
 348:Core/Src/system_stm32h5xx.c **** 
 284              		.loc 1 348 5 is_stmt 1 view .LVU93
ARM GAS  C:\Users\LENOVO\AppData\Local\Temp\ccS5HLDf.s 			page 13


 348:Core/Src/system_stm32h5xx.c **** 
 285              		.loc 1 348 50 is_stmt 0 view .LVU94
 286 0076 836B     		ldr	r3, [r0, #56]
 348:Core/Src/system_stm32h5xx.c **** 
 287              		.loc 1 348 88 view .LVU95
 288 0078 C3F3CC03 		ubfx	r3, r3, #3, #13
 348:Core/Src/system_stm32h5xx.c **** 
 289              		.loc 1 348 23 view .LVU96
 290 007c 0CFB03F3 		mul	r3, ip, r3
 348:Core/Src/system_stm32h5xx.c **** 
 291              		.loc 1 348 12 view .LVU97
 292 0080 07EE903A 		vmov	s15, r3	@ int
 293 0084 F8EE677A 		vcvt.f32.u32	s15, s15
 294              	.LVL7:
 350:Core/Src/system_stm32h5xx.c ****     {
 295              		.loc 1 350 5 is_stmt 1 view .LVU98
 296 0088 0229     		cmp	r1, #2
 297 008a 36D0     		beq	.L15
 298 008c 0329     		cmp	r1, #3
 299 008e 51D0     		beq	.L16
 300 0090 0129     		cmp	r1, #1
 301 0092 6CD1     		bne	.L18
 353:Core/Src/system_stm32h5xx.c ****       pllvco = ((float_t)hsivalue / (float_t)pllm) * ((float_t)(uint32_t)(RCC->PLL1DIVR & RCC_PLL1D
 302              		.loc 1 353 7 view .LVU99
 353:Core/Src/system_stm32h5xx.c ****       pllvco = ((float_t)hsivalue / (float_t)pllm) * ((float_t)(uint32_t)(RCC->PLL1DIVR & RCC_PLL1D
 303              		.loc 1 353 37 is_stmt 0 view .LVU100
 304 0094 0168     		ldr	r1, [r0]
 305              	.LVL8:
 353:Core/Src/system_stm32h5xx.c ****       pllvco = ((float_t)hsivalue / (float_t)pllm) * ((float_t)(uint32_t)(RCC->PLL1DIVR & RCC_PLL1D
 306              		.loc 1 353 58 view .LVU101
 307 0096 C1F3C101 		ubfx	r1, r1, #3, #2
 353:Core/Src/system_stm32h5xx.c ****       pllvco = ((float_t)hsivalue / (float_t)pllm) * ((float_t)(uint32_t)(RCC->PLL1DIVR & RCC_PLL1D
 308              		.loc 1 353 16 view .LVU102
 309 009a 394B     		ldr	r3, .L19+4
 310 009c CB40     		lsrs	r3, r3, r1
 311              	.LVL9:
 354:Core/Src/system_stm32h5xx.c ****                 (fracn1/(float_t)0x2000) +(float_t)1 );
 312              		.loc 1 354 7 is_stmt 1 view .LVU103
 354:Core/Src/system_stm32h5xx.c ****                 (fracn1/(float_t)0x2000) +(float_t)1 );
 313              		.loc 1 354 17 is_stmt 0 view .LVU104
 314 009e 07EE103A 		vmov	s14, r3	@ int
 315 00a2 B8EE476A 		vcvt.f32.u32	s12, s14
 354:Core/Src/system_stm32h5xx.c ****                 (fracn1/(float_t)0x2000) +(float_t)1 );
 316              		.loc 1 354 37 view .LVU105
 317 00a6 07EE102A 		vmov	s14, r2	@ int
 318 00aa B8EE477A 		vcvt.f32.u32	s14, s14
 354:Core/Src/system_stm32h5xx.c ****                 (fracn1/(float_t)0x2000) +(float_t)1 );
 319              		.loc 1 354 35 view .LVU106
 320 00ae C6EE076A 		vdiv.f32	s13, s12, s14
 354:Core/Src/system_stm32h5xx.c ****                 (fracn1/(float_t)0x2000) +(float_t)1 );
 321              		.loc 1 354 78 view .LVU107
 322 00b2 436B     		ldr	r3, [r0, #52]
 323              	.LVL10:
 354:Core/Src/system_stm32h5xx.c ****                 (fracn1/(float_t)0x2000) +(float_t)1 );
 324              		.loc 1 354 64 view .LVU108
 325 00b4 C3F30803 		ubfx	r3, r3, #0, #9
 354:Core/Src/system_stm32h5xx.c ****                 (fracn1/(float_t)0x2000) +(float_t)1 );
ARM GAS  C:\Users\LENOVO\AppData\Local\Temp\ccS5HLDf.s 			page 14


 326              		.loc 1 354 55 view .LVU109
 327 00b8 07EE103A 		vmov	s14, r3	@ int
 328 00bc B8EE477A 		vcvt.f32.u32	s14, s14
 355:Core/Src/system_stm32h5xx.c ****       break;
 329              		.loc 1 355 24 view .LVU110
 330 00c0 9FED346A 		vldr.32	s12, .L19+24
 331 00c4 67EE867A 		vmul.f32	s15, s15, s12
 332              	.LVL11:
 354:Core/Src/system_stm32h5xx.c ****                 (fracn1/(float_t)0x2000) +(float_t)1 );
 333              		.loc 1 354 111 view .LVU111
 334 00c8 77EE277A 		vadd.f32	s15, s14, s15
 355:Core/Src/system_stm32h5xx.c ****       break;
 335              		.loc 1 355 42 view .LVU112
 336 00cc B7EE007A 		vmov.f32	s14, #1.0e+0
 337 00d0 77EE877A 		vadd.f32	s15, s15, s14
 354:Core/Src/system_stm32h5xx.c ****                 (fracn1/(float_t)0x2000) +(float_t)1 );
 338              		.loc 1 354 14 view .LVU113
 339 00d4 66EEA76A 		vmul.f32	s13, s13, s15
 340              	.LVL12:
 356:Core/Src/system_stm32h5xx.c **** 
 341              		.loc 1 356 7 is_stmt 1 view .LVU114
 342              	.L17:
 373:Core/Src/system_stm32h5xx.c ****     SystemCoreClock =  (uint32_t)(float_t)(pllvco/(float_t)pllp);
 343              		.loc 1 373 5 view .LVU115
 373:Core/Src/system_stm32h5xx.c ****     SystemCoreClock =  (uint32_t)(float_t)(pllvco/(float_t)pllp);
 344              		.loc 1 373 18 is_stmt 0 view .LVU116
 345 00d8 284B     		ldr	r3, .L19
 346 00da 5B6B     		ldr	r3, [r3, #52]
 373:Core/Src/system_stm32h5xx.c ****     SystemCoreClock =  (uint32_t)(float_t)(pllvco/(float_t)pllp);
 347              		.loc 1 373 51 view .LVU117
 348 00dc C3F34623 		ubfx	r3, r3, #9, #7
 373:Core/Src/system_stm32h5xx.c ****     SystemCoreClock =  (uint32_t)(float_t)(pllvco/(float_t)pllp);
 349              		.loc 1 373 10 view .LVU118
 350 00e0 0133     		adds	r3, r3, #1
 351              	.LVL13:
 374:Core/Src/system_stm32h5xx.c **** 
 352              		.loc 1 374 5 is_stmt 1 view .LVU119
 374:Core/Src/system_stm32h5xx.c **** 
 353              		.loc 1 374 51 is_stmt 0 view .LVU120
 354 00e2 07EE903A 		vmov	s15, r3	@ int
 355 00e6 F8EE677A 		vcvt.f32.u32	s15, s15
 374:Core/Src/system_stm32h5xx.c **** 
 356              		.loc 1 374 34 view .LVU121
 357 00ea 86EEA77A 		vdiv.f32	s14, s13, s15
 374:Core/Src/system_stm32h5xx.c **** 
 358              		.loc 1 374 24 view .LVU122
 359 00ee BCEEC77A 		vcvt.u32.f32	s14, s14
 374:Core/Src/system_stm32h5xx.c **** 
 360              		.loc 1 374 21 view .LVU123
 361 00f2 244B     		ldr	r3, .L19+8
 362              	.LVL14:
 374:Core/Src/system_stm32h5xx.c **** 
 363              		.loc 1 374 21 view .LVU124
 364 00f4 83ED007A 		vstr.32	s14, [r3]	@ int
 376:Core/Src/system_stm32h5xx.c **** 
 365              		.loc 1 376 5 is_stmt 1 view .LVU125
 366 00f8 A0E7     		b	.L14
ARM GAS  C:\Users\LENOVO\AppData\Local\Temp\ccS5HLDf.s 			page 15


 367              	.LVL15:
 368              	.L15:
 359:Core/Src/system_stm32h5xx.c ****                 (fracn1/(float_t)0x2000) +(float_t)1 );
 369              		.loc 1 359 7 view .LVU126
 359:Core/Src/system_stm32h5xx.c ****                 (fracn1/(float_t)0x2000) +(float_t)1 );
 370              		.loc 1 359 38 is_stmt 0 view .LVU127
 371 00fa 07EE102A 		vmov	s14, r2	@ int
 372 00fe B8EE477A 		vcvt.f32.u32	s14, s14
 359:Core/Src/system_stm32h5xx.c ****                 (fracn1/(float_t)0x2000) +(float_t)1 );
 373              		.loc 1 359 36 view .LVU128
 374 0102 9FED256A 		vldr.32	s12, .L19+28
 375 0106 C6EE076A 		vdiv.f32	s13, s12, s14
 359:Core/Src/system_stm32h5xx.c ****                 (fracn1/(float_t)0x2000) +(float_t)1 );
 376              		.loc 1 359 79 view .LVU129
 377 010a 1C4B     		ldr	r3, .L19
 378 010c 5B6B     		ldr	r3, [r3, #52]
 359:Core/Src/system_stm32h5xx.c ****                 (fracn1/(float_t)0x2000) +(float_t)1 );
 379              		.loc 1 359 65 view .LVU130
 380 010e C3F30803 		ubfx	r3, r3, #0, #9
 359:Core/Src/system_stm32h5xx.c ****                 (fracn1/(float_t)0x2000) +(float_t)1 );
 381              		.loc 1 359 56 view .LVU131
 382 0112 07EE103A 		vmov	s14, r3	@ int
 383 0116 B8EE477A 		vcvt.f32.u32	s14, s14
 360:Core/Src/system_stm32h5xx.c ****       break;
 384              		.loc 1 360 24 view .LVU132
 385 011a 9FED1E6A 		vldr.32	s12, .L19+24
 386 011e 67EE867A 		vmul.f32	s15, s15, s12
 387              	.LVL16:
 359:Core/Src/system_stm32h5xx.c ****                 (fracn1/(float_t)0x2000) +(float_t)1 );
 388              		.loc 1 359 112 view .LVU133
 389 0122 77EE277A 		vadd.f32	s15, s14, s15
 360:Core/Src/system_stm32h5xx.c ****       break;
 390              		.loc 1 360 42 view .LVU134
 391 0126 B7EE007A 		vmov.f32	s14, #1.0e+0
 392 012a 77EE877A 		vadd.f32	s15, s15, s14
 359:Core/Src/system_stm32h5xx.c ****                 (fracn1/(float_t)0x2000) +(float_t)1 );
 393              		.loc 1 359 14 view .LVU135
 394 012e 66EEA76A 		vmul.f32	s13, s13, s15
 395              	.LVL17:
 361:Core/Src/system_stm32h5xx.c **** 
 396              		.loc 1 361 7 is_stmt 1 view .LVU136
 397 0132 D1E7     		b	.L17
 398              	.LVL18:
 399              	.L16:
 364:Core/Src/system_stm32h5xx.c ****                 (fracn1/(float_t)0x2000) +(float_t)1 );
 400              		.loc 1 364 7 view .LVU137
 364:Core/Src/system_stm32h5xx.c ****                 (fracn1/(float_t)0x2000) +(float_t)1 );
 401              		.loc 1 364 38 is_stmt 0 view .LVU138
 402 0134 07EE102A 		vmov	s14, r2	@ int
 403 0138 B8EE477A 		vcvt.f32.u32	s14, s14
 364:Core/Src/system_stm32h5xx.c ****                 (fracn1/(float_t)0x2000) +(float_t)1 );
 404              		.loc 1 364 36 view .LVU139
 405 013c 9FED176A 		vldr.32	s12, .L19+32
 406 0140 C6EE076A 		vdiv.f32	s13, s12, s14
 364:Core/Src/system_stm32h5xx.c ****                 (fracn1/(float_t)0x2000) +(float_t)1 );
 407              		.loc 1 364 79 view .LVU140
 408 0144 0D4B     		ldr	r3, .L19
ARM GAS  C:\Users\LENOVO\AppData\Local\Temp\ccS5HLDf.s 			page 16


 409 0146 5B6B     		ldr	r3, [r3, #52]
 364:Core/Src/system_stm32h5xx.c ****                 (fracn1/(float_t)0x2000) +(float_t)1 );
 410              		.loc 1 364 65 view .LVU141
 411 0148 C3F30803 		ubfx	r3, r3, #0, #9
 364:Core/Src/system_stm32h5xx.c ****                 (fracn1/(float_t)0x2000) +(float_t)1 );
 412              		.loc 1 364 56 view .LVU142
 413 014c 07EE103A 		vmov	s14, r3	@ int
 414 0150 B8EE477A 		vcvt.f32.u32	s14, s14
 365:Core/Src/system_stm32h5xx.c ****       break;
 415              		.loc 1 365 24 view .LVU143
 416 0154 9FED0F6A 		vldr.32	s12, .L19+24
 417 0158 67EE867A 		vmul.f32	s15, s15, s12
 418              	.LVL19:
 364:Core/Src/system_stm32h5xx.c ****                 (fracn1/(float_t)0x2000) +(float_t)1 );
 419              		.loc 1 364 112 view .LVU144
 420 015c 77EE277A 		vadd.f32	s15, s14, s15
 365:Core/Src/system_stm32h5xx.c ****       break;
 421              		.loc 1 365 42 view .LVU145
 422 0160 B7EE007A 		vmov.f32	s14, #1.0e+0
 423 0164 77EE877A 		vadd.f32	s15, s15, s14
 364:Core/Src/system_stm32h5xx.c ****                 (fracn1/(float_t)0x2000) +(float_t)1 );
 424              		.loc 1 364 14 view .LVU146
 425 0168 66EEA76A 		vmul.f32	s13, s13, s15
 426              	.LVL20:
 366:Core/Src/system_stm32h5xx.c **** 
 427              		.loc 1 366 7 is_stmt 1 view .LVU147
 428 016c B4E7     		b	.L17
 429              	.LVL21:
 430              	.L18:
 350:Core/Src/system_stm32h5xx.c ****     {
 431              		.loc 1 350 5 is_stmt 0 view .LVU148
 432 016e DFED0C6A 		vldr.32	s13, .L19+36
 433 0172 B1E7     		b	.L17
 434              	.LVL22:
 435              	.L8:
 379:Core/Src/system_stm32h5xx.c ****     break;
 436              		.loc 1 379 5 is_stmt 1 view .LVU149
 379:Core/Src/system_stm32h5xx.c ****     break;
 437              		.loc 1 379 21 is_stmt 0 view .LVU150
 438 0174 034B     		ldr	r3, .L19+8
 439 0176 024A     		ldr	r2, .L19+4
 440 0178 1A60     		str	r2, [r3]
 380:Core/Src/system_stm32h5xx.c ****   }
 441              		.loc 1 380 5 is_stmt 1 view .LVU151
 442 017a 5FE7     		b	.L14
 443              	.L20:
 444              		.align	2
 445              	.L19:
 446 017c 000C0244 		.word	1140984832
 447 0180 0090D003 		.word	64000000
 448 0184 00000000 		.word	SystemCoreClock
 449 0188 00000000 		.word	AHBPrescTable
 450 018c 00093D00 		.word	4000000
 451 0190 00127A00 		.word	8000000
 452 0194 00000039 		.word	956301312
 453 0198 0024744A 		.word	1249125376
 454 019c 0024F44A 		.word	1257513984
ARM GAS  C:\Users\LENOVO\AppData\Local\Temp\ccS5HLDf.s 			page 17


 455 01a0 00000000 		.word	0
 456              		.cfi_endproc
 457              	.LFE497:
 459              		.global	APBPrescTable
 460              		.section	.rodata.APBPrescTable,"a"
 461              		.align	2
 464              	APBPrescTable:
 465 0000 00000000 		.ascii	"\000\000\000\000\001\002\003\004"
 465      01020304 
 466              		.global	AHBPrescTable
 467              		.section	.rodata.AHBPrescTable,"a"
 468              		.align	2
 471              	AHBPrescTable:
 472 0000 00000000 		.ascii	"\000\000\000\000\000\000\000\000\001\002\003\004\006"
 472      00000000 
 472      01020304 
 472      06
 473 000d 070809   		.ascii	"\007\010\011"
 474              		.global	SystemCoreClock
 475              		.section	.data.SystemCoreClock,"aw"
 476              		.align	2
 479              	SystemCoreClock:
 480 0000 0090D003 		.word	64000000
 481              		.text
 482              	.Letext0:
 483              		.file 2 "C:\\ST\\STM32CubeCLT_1.20.0\\GNU-tools-for-STM32\\bin/../lib/gcc/arm-none-eabi/13.3.1/../
 484              		.file 3 "C:\\ST\\STM32CubeCLT_1.20.0\\GNU-tools-for-STM32\\bin/../lib/gcc/arm-none-eabi/13.3.1/../
 485              		.file 4 "C:\\ST\\STM32CubeCLT_1.20.0\\GNU-tools-for-STM32\\bin/../lib/gcc/arm-none-eabi/13.3.1/../
 486              		.file 5 "Drivers/CMSIS/Include/core_cm33.h"
 487              		.file 6 "Drivers/CMSIS/Device/ST/STM32H5xx/Include/system_stm32h5xx.h"
 488              		.file 7 "Drivers/CMSIS/Device/ST/STM32H5xx/Include/stm32h563xx.h"
 489              		.file 8 "Drivers/STM32H5xx_HAL_Driver/Inc/stm32h5xx_ll_lptim.h"
ARM GAS  C:\Users\LENOVO\AppData\Local\Temp\ccS5HLDf.s 			page 18


DEFINED SYMBOLS
                            *ABS*:00000000 system_stm32h5xx.c
C:\Users\LENOVO\AppData\Local\Temp\ccS5HLDf.s:22     .text.SystemInit:00000000 $t
C:\Users\LENOVO\AppData\Local\Temp\ccS5HLDf.s:28     .text.SystemInit:00000000 SystemInit
C:\Users\LENOVO\AppData\Local\Temp\ccS5HLDf.s:152    .text.SystemInit:00000080 $d
C:\Users\LENOVO\AppData\Local\Temp\ccS5HLDf.s:162    .text.SystemCoreClockUpdate:00000000 $t
C:\Users\LENOVO\AppData\Local\Temp\ccS5HLDf.s:168    .text.SystemCoreClockUpdate:00000000 SystemCoreClockUpdate
C:\Users\LENOVO\AppData\Local\Temp\ccS5HLDf.s:188    .text.SystemCoreClockUpdate:00000012 $d
C:\Users\LENOVO\AppData\Local\Temp\ccS5HLDf.s:446    .text.SystemCoreClockUpdate:0000017c $d
C:\Users\LENOVO\AppData\Local\Temp\ccS5HLDf.s:479    .data.SystemCoreClock:00000000 SystemCoreClock
C:\Users\LENOVO\AppData\Local\Temp\ccS5HLDf.s:471    .rodata.AHBPrescTable:00000000 AHBPrescTable
C:\Users\LENOVO\AppData\Local\Temp\ccS5HLDf.s:464    .rodata.APBPrescTable:00000000 APBPrescTable
C:\Users\LENOVO\AppData\Local\Temp\ccS5HLDf.s:461    .rodata.APBPrescTable:00000000 $d
C:\Users\LENOVO\AppData\Local\Temp\ccS5HLDf.s:468    .rodata.AHBPrescTable:00000000 $d
C:\Users\LENOVO\AppData\Local\Temp\ccS5HLDf.s:476    .data.SystemCoreClock:00000000 $d
C:\Users\LENOVO\AppData\Local\Temp\ccS5HLDf.s:213    .text.SystemCoreClockUpdate:0000002b $d
C:\Users\LENOVO\AppData\Local\Temp\ccS5HLDf.s:213    .text.SystemCoreClockUpdate:0000002c $t

NO UNDEFINED SYMBOLS
