ARM GAS  C:\Users\LENOVO\AppData\Local\Temp\cczxaMVa.s 			page 1


   1              		.cpu cortex-m33
   2              		.arch armv8-m.main
   3              		.fpu fpv5-sp-d16
   4              		.arch_extension dsp
   5              		.eabi_attribute 27, 1
   6              		.eabi_attribute 28, 1
   7              		.eabi_attribute 20, 1
   8              		.eabi_attribute 21, 1
   9              		.eabi_attribute 23, 3
  10              		.eabi_attribute 24, 1
  11              		.eabi_attribute 25, 1
  12              		.eabi_attribute 26, 1
  13              		.eabi_attribute 30, 1
  14              		.eabi_attribute 34, 1
  15              		.eabi_attribute 18, 4
  16              		.file	"tim.c"
  17              		.text
  18              	.Ltext0:
  19              		.cfi_sections	.debug_frame
  20              		.file 1 "Core/Src/tim.c"
  21              		.section	.text.MX_TIM1_Init,"ax",%progbits
  22              		.align	1
  23              		.global	MX_TIM1_Init
  24              		.syntax unified
  25              		.thumb
  26              		.thumb_func
  28              	MX_TIM1_Init:
  29              	.LFB496:
   1:Core/Src/tim.c **** /* USER CODE BEGIN Header */
   2:Core/Src/tim.c **** /**
   3:Core/Src/tim.c ****   ******************************************************************************
   4:Core/Src/tim.c ****   * @file    tim.c
   5:Core/Src/tim.c ****   * @brief   This file provides code for the configuration
   6:Core/Src/tim.c ****   *          of the TIM instances.
   7:Core/Src/tim.c ****   ******************************************************************************
   8:Core/Src/tim.c ****   * @attention
   9:Core/Src/tim.c ****   *
  10:Core/Src/tim.c ****   * Copyright (c) 2026 STMicroelectronics.
  11:Core/Src/tim.c ****   * All rights reserved.
  12:Core/Src/tim.c ****   *
  13:Core/Src/tim.c ****   * This software is licensed under terms that can be found in the LICENSE file
  14:Core/Src/tim.c ****   * in the root directory of this software component.
  15:Core/Src/tim.c ****   * If no LICENSE file comes with this software, it is provided AS-IS.
  16:Core/Src/tim.c ****   *
  17:Core/Src/tim.c ****   ******************************************************************************
  18:Core/Src/tim.c ****   */
  19:Core/Src/tim.c **** /* USER CODE END Header */
  20:Core/Src/tim.c **** /* Includes ------------------------------------------------------------------*/
  21:Core/Src/tim.c **** #include "tim.h"
  22:Core/Src/tim.c **** 
  23:Core/Src/tim.c **** /* USER CODE BEGIN 0 */
  24:Core/Src/tim.c **** 
  25:Core/Src/tim.c **** /* USER CODE END 0 */
  26:Core/Src/tim.c **** 
  27:Core/Src/tim.c **** TIM_HandleTypeDef htim1;
  28:Core/Src/tim.c **** TIM_HandleTypeDef htim2;
  29:Core/Src/tim.c **** TIM_HandleTypeDef htim3;
ARM GAS  C:\Users\LENOVO\AppData\Local\Temp\cczxaMVa.s 			page 2


  30:Core/Src/tim.c **** 
  31:Core/Src/tim.c **** /* TIM1 init function */
  32:Core/Src/tim.c **** void MX_TIM1_Init(void)
  33:Core/Src/tim.c **** {
  30              		.loc 1 33 1 view -0
  31              		.cfi_startproc
  32              		@ args = 0, pretend = 0, frame = 32
  33              		@ frame_needed = 0, uses_anonymous_args = 0
  34 0000 00B5     		push	{lr}
  35              	.LCFI0:
  36              		.cfi_def_cfa_offset 4
  37              		.cfi_offset 14, -4
  38 0002 89B0     		sub	sp, sp, #36
  39              	.LCFI1:
  40              		.cfi_def_cfa_offset 40
  34:Core/Src/tim.c **** 
  35:Core/Src/tim.c ****   /* USER CODE BEGIN TIM1_Init 0 */
  36:Core/Src/tim.c **** 
  37:Core/Src/tim.c ****   /* USER CODE END TIM1_Init 0 */
  38:Core/Src/tim.c **** 
  39:Core/Src/tim.c ****   TIM_ClockConfigTypeDef sClockSourceConfig = {0};
  41              		.loc 1 39 3 view .LVU1
  42              		.loc 1 39 26 is_stmt 0 view .LVU2
  43 0004 0023     		movs	r3, #0
  44 0006 0493     		str	r3, [sp, #16]
  45 0008 0593     		str	r3, [sp, #20]
  46 000a 0693     		str	r3, [sp, #24]
  47 000c 0793     		str	r3, [sp, #28]
  40:Core/Src/tim.c ****   TIM_MasterConfigTypeDef sMasterConfig = {0};
  48              		.loc 1 40 3 is_stmt 1 view .LVU3
  49              		.loc 1 40 27 is_stmt 0 view .LVU4
  50 000e 0193     		str	r3, [sp, #4]
  51 0010 0293     		str	r3, [sp, #8]
  52 0012 0393     		str	r3, [sp, #12]
  41:Core/Src/tim.c **** 
  42:Core/Src/tim.c ****   /* USER CODE BEGIN TIM1_Init 1 */
  43:Core/Src/tim.c **** 
  44:Core/Src/tim.c ****   /* USER CODE END TIM1_Init 1 */
  45:Core/Src/tim.c ****   htim1.Instance = TIM1;
  53              		.loc 1 45 3 is_stmt 1 view .LVU5
  54              		.loc 1 45 18 is_stmt 0 view .LVU6
  55 0014 1548     		ldr	r0, .L9
  56 0016 164A     		ldr	r2, .L9+4
  57 0018 0260     		str	r2, [r0]
  46:Core/Src/tim.c ****   htim1.Init.Prescaler = 0;
  58              		.loc 1 46 3 is_stmt 1 view .LVU7
  59              		.loc 1 46 24 is_stmt 0 view .LVU8
  60 001a 4360     		str	r3, [r0, #4]
  47:Core/Src/tim.c ****   htim1.Init.CounterMode = TIM_COUNTERMODE_UP;
  61              		.loc 1 47 3 is_stmt 1 view .LVU9
  62              		.loc 1 47 26 is_stmt 0 view .LVU10
  63 001c 8360     		str	r3, [r0, #8]
  48:Core/Src/tim.c ****   htim1.Init.Period = 65535;
  64              		.loc 1 48 3 is_stmt 1 view .LVU11
  65              		.loc 1 48 21 is_stmt 0 view .LVU12
  66 001e 4FF6FF72 		movw	r2, #65535
  67 0022 C260     		str	r2, [r0, #12]
ARM GAS  C:\Users\LENOVO\AppData\Local\Temp\cczxaMVa.s 			page 3


  49:Core/Src/tim.c ****   htim1.Init.ClockDivision = TIM_CLOCKDIVISION_DIV1;
  68              		.loc 1 49 3 is_stmt 1 view .LVU13
  69              		.loc 1 49 28 is_stmt 0 view .LVU14
  70 0024 0361     		str	r3, [r0, #16]
  50:Core/Src/tim.c ****   htim1.Init.RepetitionCounter = 0;
  71              		.loc 1 50 3 is_stmt 1 view .LVU15
  72              		.loc 1 50 32 is_stmt 0 view .LVU16
  73 0026 4361     		str	r3, [r0, #20]
  51:Core/Src/tim.c ****   htim1.Init.AutoReloadPreload = TIM_AUTORELOAD_PRELOAD_DISABLE;
  74              		.loc 1 51 3 is_stmt 1 view .LVU17
  75              		.loc 1 51 32 is_stmt 0 view .LVU18
  76 0028 8361     		str	r3, [r0, #24]
  52:Core/Src/tim.c ****   if (HAL_TIM_Base_Init(&htim1) != HAL_OK)
  77              		.loc 1 52 3 is_stmt 1 view .LVU19
  78              		.loc 1 52 7 is_stmt 0 view .LVU20
  79 002a FFF7FEFF 		bl	HAL_TIM_Base_Init
  80              	.LVL0:
  81              		.loc 1 52 6 discriminator 1 view .LVU21
  82 002e 98B9     		cbnz	r0, .L6
  83              	.L2:
  53:Core/Src/tim.c ****   {
  54:Core/Src/tim.c ****     Error_Handler();
  55:Core/Src/tim.c ****   }
  56:Core/Src/tim.c ****   sClockSourceConfig.ClockSource = TIM_CLOCKSOURCE_INTERNAL;
  84              		.loc 1 56 3 is_stmt 1 view .LVU22
  85              		.loc 1 56 34 is_stmt 0 view .LVU23
  86 0030 4FF48053 		mov	r3, #4096
  87 0034 0493     		str	r3, [sp, #16]
  57:Core/Src/tim.c ****   if (HAL_TIM_ConfigClockSource(&htim1, &sClockSourceConfig) != HAL_OK)
  88              		.loc 1 57 3 is_stmt 1 view .LVU24
  89              		.loc 1 57 7 is_stmt 0 view .LVU25
  90 0036 04A9     		add	r1, sp, #16
  91 0038 0C48     		ldr	r0, .L9
  92 003a FFF7FEFF 		bl	HAL_TIM_ConfigClockSource
  93              	.LVL1:
  94              		.loc 1 57 6 discriminator 1 view .LVU26
  95 003e 70B9     		cbnz	r0, .L7
  96              	.L3:
  58:Core/Src/tim.c ****   {
  59:Core/Src/tim.c ****     Error_Handler();
  60:Core/Src/tim.c ****   }
  61:Core/Src/tim.c ****   sMasterConfig.MasterOutputTrigger = TIM_TRGO_RESET;
  97              		.loc 1 61 3 is_stmt 1 view .LVU27
  98              		.loc 1 61 37 is_stmt 0 view .LVU28
  99 0040 0023     		movs	r3, #0
 100 0042 0193     		str	r3, [sp, #4]
  62:Core/Src/tim.c ****   sMasterConfig.MasterOutputTrigger2 = TIM_TRGO2_RESET;
 101              		.loc 1 62 3 is_stmt 1 view .LVU29
 102              		.loc 1 62 38 is_stmt 0 view .LVU30
 103 0044 0293     		str	r3, [sp, #8]
  63:Core/Src/tim.c ****   sMasterConfig.MasterSlaveMode = TIM_MASTERSLAVEMODE_DISABLE;
 104              		.loc 1 63 3 is_stmt 1 view .LVU31
 105              		.loc 1 63 33 is_stmt 0 view .LVU32
 106 0046 0393     		str	r3, [sp, #12]
  64:Core/Src/tim.c ****   if (HAL_TIMEx_MasterConfigSynchronization(&htim1, &sMasterConfig) != HAL_OK)
 107              		.loc 1 64 3 is_stmt 1 view .LVU33
 108              		.loc 1 64 7 is_stmt 0 view .LVU34
ARM GAS  C:\Users\LENOVO\AppData\Local\Temp\cczxaMVa.s 			page 4


 109 0048 01A9     		add	r1, sp, #4
 110 004a 0848     		ldr	r0, .L9
 111 004c FFF7FEFF 		bl	HAL_TIMEx_MasterConfigSynchronization
 112              	.LVL2:
 113              		.loc 1 64 6 discriminator 1 view .LVU35
 114 0050 40B9     		cbnz	r0, .L8
 115              	.L1:
  65:Core/Src/tim.c ****   {
  66:Core/Src/tim.c ****     Error_Handler();
  67:Core/Src/tim.c ****   }
  68:Core/Src/tim.c ****   /* USER CODE BEGIN TIM1_Init 2 */
  69:Core/Src/tim.c **** 
  70:Core/Src/tim.c ****   /* USER CODE END TIM1_Init 2 */
  71:Core/Src/tim.c **** 
  72:Core/Src/tim.c **** }
 116              		.loc 1 72 1 view .LVU36
 117 0052 09B0     		add	sp, sp, #36
 118              	.LCFI2:
 119              		.cfi_remember_state
 120              		.cfi_def_cfa_offset 4
 121              		@ sp needed
 122 0054 5DF804FB 		ldr	pc, [sp], #4
 123              	.L6:
 124              	.LCFI3:
 125              		.cfi_restore_state
  54:Core/Src/tim.c ****   }
 126              		.loc 1 54 5 is_stmt 1 view .LVU37
 127 0058 FFF7FEFF 		bl	Error_Handler
 128              	.LVL3:
 129 005c E8E7     		b	.L2
 130              	.L7:
  59:Core/Src/tim.c ****   }
 131              		.loc 1 59 5 view .LVU38
 132 005e FFF7FEFF 		bl	Error_Handler
 133              	.LVL4:
 134 0062 EDE7     		b	.L3
 135              	.L8:
  66:Core/Src/tim.c ****   }
 136              		.loc 1 66 5 view .LVU39
 137 0064 FFF7FEFF 		bl	Error_Handler
 138              	.LVL5:
 139              		.loc 1 72 1 is_stmt 0 view .LVU40
 140 0068 F3E7     		b	.L1
 141              	.L10:
 142 006a 00BF     		.align	2
 143              	.L9:
 144 006c 00000000 		.word	htim1
 145 0070 002C0140 		.word	1073818624
 146              		.cfi_endproc
 147              	.LFE496:
 149              		.section	.text.MX_TIM2_Init,"ax",%progbits
 150              		.align	1
 151              		.global	MX_TIM2_Init
 152              		.syntax unified
 153              		.thumb
 154              		.thumb_func
 156              	MX_TIM2_Init:
ARM GAS  C:\Users\LENOVO\AppData\Local\Temp\cczxaMVa.s 			page 5


 157              	.LFB497:
  73:Core/Src/tim.c **** /* TIM2 init function */
  74:Core/Src/tim.c **** void MX_TIM2_Init(void)
  75:Core/Src/tim.c **** {
 158              		.loc 1 75 1 is_stmt 1 view -0
 159              		.cfi_startproc
 160              		@ args = 0, pretend = 0, frame = 32
 161              		@ frame_needed = 0, uses_anonymous_args = 0
 162 0000 00B5     		push	{lr}
 163              	.LCFI4:
 164              		.cfi_def_cfa_offset 4
 165              		.cfi_offset 14, -4
 166 0002 89B0     		sub	sp, sp, #36
 167              	.LCFI5:
 168              		.cfi_def_cfa_offset 40
  76:Core/Src/tim.c **** 
  77:Core/Src/tim.c ****   /* USER CODE BEGIN TIM2_Init 0 */
  78:Core/Src/tim.c **** 
  79:Core/Src/tim.c ****   /* USER CODE END TIM2_Init 0 */
  80:Core/Src/tim.c **** 
  81:Core/Src/tim.c ****   TIM_ClockConfigTypeDef sClockSourceConfig = {0};
 169              		.loc 1 81 3 view .LVU42
 170              		.loc 1 81 26 is_stmt 0 view .LVU43
 171 0004 0023     		movs	r3, #0
 172 0006 0493     		str	r3, [sp, #16]
 173 0008 0593     		str	r3, [sp, #20]
 174 000a 0693     		str	r3, [sp, #24]
 175 000c 0793     		str	r3, [sp, #28]
  82:Core/Src/tim.c ****   TIM_MasterConfigTypeDef sMasterConfig = {0};
 176              		.loc 1 82 3 is_stmt 1 view .LVU44
 177              		.loc 1 82 27 is_stmt 0 view .LVU45
 178 000e 0193     		str	r3, [sp, #4]
 179 0010 0293     		str	r3, [sp, #8]
 180 0012 0393     		str	r3, [sp, #12]
  83:Core/Src/tim.c **** 
  84:Core/Src/tim.c ****   /* USER CODE BEGIN TIM2_Init 1 */
  85:Core/Src/tim.c **** 
  86:Core/Src/tim.c ****   /* USER CODE END TIM2_Init 1 */
  87:Core/Src/tim.c ****   htim2.Instance = TIM2;
 181              		.loc 1 87 3 is_stmt 1 view .LVU46
 182              		.loc 1 87 18 is_stmt 0 view .LVU47
 183 0014 1448     		ldr	r0, .L19
 184 0016 4FF08042 		mov	r2, #1073741824
 185 001a 0260     		str	r2, [r0]
  88:Core/Src/tim.c ****   htim2.Init.Prescaler = 0;
 186              		.loc 1 88 3 is_stmt 1 view .LVU48
 187              		.loc 1 88 24 is_stmt 0 view .LVU49
 188 001c 4360     		str	r3, [r0, #4]
  89:Core/Src/tim.c ****   htim2.Init.CounterMode = TIM_COUNTERMODE_UP;
 189              		.loc 1 89 3 is_stmt 1 view .LVU50
 190              		.loc 1 89 26 is_stmt 0 view .LVU51
 191 001e 8360     		str	r3, [r0, #8]
  90:Core/Src/tim.c ****   htim2.Init.Period = 4294967295;
 192              		.loc 1 90 3 is_stmt 1 view .LVU52
 193              		.loc 1 90 21 is_stmt 0 view .LVU53
 194 0020 4FF0FF32 		mov	r2, #-1
 195 0024 C260     		str	r2, [r0, #12]
ARM GAS  C:\Users\LENOVO\AppData\Local\Temp\cczxaMVa.s 			page 6


  91:Core/Src/tim.c ****   htim2.Init.ClockDivision = TIM_CLOCKDIVISION_DIV1;
 196              		.loc 1 91 3 is_stmt 1 view .LVU54
 197              		.loc 1 91 28 is_stmt 0 view .LVU55
 198 0026 0361     		str	r3, [r0, #16]
  92:Core/Src/tim.c ****   htim2.Init.AutoReloadPreload = TIM_AUTORELOAD_PRELOAD_DISABLE;
 199              		.loc 1 92 3 is_stmt 1 view .LVU56
 200              		.loc 1 92 32 is_stmt 0 view .LVU57
 201 0028 8361     		str	r3, [r0, #24]
  93:Core/Src/tim.c ****   if (HAL_TIM_Base_Init(&htim2) != HAL_OK)
 202              		.loc 1 93 3 is_stmt 1 view .LVU58
 203              		.loc 1 93 7 is_stmt 0 view .LVU59
 204 002a FFF7FEFF 		bl	HAL_TIM_Base_Init
 205              	.LVL6:
 206              		.loc 1 93 6 discriminator 1 view .LVU60
 207 002e 90B9     		cbnz	r0, .L16
 208              	.L12:
  94:Core/Src/tim.c ****   {
  95:Core/Src/tim.c ****     Error_Handler();
  96:Core/Src/tim.c ****   }
  97:Core/Src/tim.c ****   sClockSourceConfig.ClockSource = TIM_CLOCKSOURCE_INTERNAL;
 209              		.loc 1 97 3 is_stmt 1 view .LVU61
 210              		.loc 1 97 34 is_stmt 0 view .LVU62
 211 0030 4FF48053 		mov	r3, #4096
 212 0034 0493     		str	r3, [sp, #16]
  98:Core/Src/tim.c ****   if (HAL_TIM_ConfigClockSource(&htim2, &sClockSourceConfig) != HAL_OK)
 213              		.loc 1 98 3 is_stmt 1 view .LVU63
 214              		.loc 1 98 7 is_stmt 0 view .LVU64
 215 0036 04A9     		add	r1, sp, #16
 216 0038 0B48     		ldr	r0, .L19
 217 003a FFF7FEFF 		bl	HAL_TIM_ConfigClockSource
 218              	.LVL7:
 219              		.loc 1 98 6 discriminator 1 view .LVU65
 220 003e 68B9     		cbnz	r0, .L17
 221              	.L13:
  99:Core/Src/tim.c ****   {
 100:Core/Src/tim.c ****     Error_Handler();
 101:Core/Src/tim.c ****   }
 102:Core/Src/tim.c ****   sMasterConfig.MasterOutputTrigger = TIM_TRGO_RESET;
 222              		.loc 1 102 3 is_stmt 1 view .LVU66
 223              		.loc 1 102 37 is_stmt 0 view .LVU67
 224 0040 0023     		movs	r3, #0
 225 0042 0193     		str	r3, [sp, #4]
 103:Core/Src/tim.c ****   sMasterConfig.MasterSlaveMode = TIM_MASTERSLAVEMODE_DISABLE;
 226              		.loc 1 103 3 is_stmt 1 view .LVU68
 227              		.loc 1 103 33 is_stmt 0 view .LVU69
 228 0044 0393     		str	r3, [sp, #12]
 104:Core/Src/tim.c ****   if (HAL_TIMEx_MasterConfigSynchronization(&htim2, &sMasterConfig) != HAL_OK)
 229              		.loc 1 104 3 is_stmt 1 view .LVU70
 230              		.loc 1 104 7 is_stmt 0 view .LVU71
 231 0046 01A9     		add	r1, sp, #4
 232 0048 0748     		ldr	r0, .L19
 233 004a FFF7FEFF 		bl	HAL_TIMEx_MasterConfigSynchronization
 234              	.LVL8:
 235              		.loc 1 104 6 discriminator 1 view .LVU72
 236 004e 40B9     		cbnz	r0, .L18
 237              	.L11:
 105:Core/Src/tim.c ****   {
ARM GAS  C:\Users\LENOVO\AppData\Local\Temp\cczxaMVa.s 			page 7


 106:Core/Src/tim.c ****     Error_Handler();
 107:Core/Src/tim.c ****   }
 108:Core/Src/tim.c ****   /* USER CODE BEGIN TIM2_Init 2 */
 109:Core/Src/tim.c **** 
 110:Core/Src/tim.c ****   /* USER CODE END TIM2_Init 2 */
 111:Core/Src/tim.c **** 
 112:Core/Src/tim.c **** }
 238              		.loc 1 112 1 view .LVU73
 239 0050 09B0     		add	sp, sp, #36
 240              	.LCFI6:
 241              		.cfi_remember_state
 242              		.cfi_def_cfa_offset 4
 243              		@ sp needed
 244 0052 5DF804FB 		ldr	pc, [sp], #4
 245              	.L16:
 246              	.LCFI7:
 247              		.cfi_restore_state
  95:Core/Src/tim.c ****   }
 248              		.loc 1 95 5 is_stmt 1 view .LVU74
 249 0056 FFF7FEFF 		bl	Error_Handler
 250              	.LVL9:
 251 005a E9E7     		b	.L12
 252              	.L17:
 100:Core/Src/tim.c ****   }
 253              		.loc 1 100 5 view .LVU75
 254 005c FFF7FEFF 		bl	Error_Handler
 255              	.LVL10:
 256 0060 EEE7     		b	.L13
 257              	.L18:
 106:Core/Src/tim.c ****   }
 258              		.loc 1 106 5 view .LVU76
 259 0062 FFF7FEFF 		bl	Error_Handler
 260              	.LVL11:
 261              		.loc 1 112 1 is_stmt 0 view .LVU77
 262 0066 F3E7     		b	.L11
 263              	.L20:
 264              		.align	2
 265              	.L19:
 266 0068 00000000 		.word	htim2
 267              		.cfi_endproc
 268              	.LFE497:
 270              		.section	.text.MX_TIM3_Init,"ax",%progbits
 271              		.align	1
 272              		.global	MX_TIM3_Init
 273              		.syntax unified
 274              		.thumb
 275              		.thumb_func
 277              	MX_TIM3_Init:
 278              	.LFB498:
 113:Core/Src/tim.c **** /* TIM3 init function */
 114:Core/Src/tim.c **** void MX_TIM3_Init(void)
 115:Core/Src/tim.c **** {
 279              		.loc 1 115 1 is_stmt 1 view -0
 280              		.cfi_startproc
 281              		@ args = 0, pretend = 0, frame = 32
 282              		@ frame_needed = 0, uses_anonymous_args = 0
 283 0000 00B5     		push	{lr}
ARM GAS  C:\Users\LENOVO\AppData\Local\Temp\cczxaMVa.s 			page 8


 284              	.LCFI8:
 285              		.cfi_def_cfa_offset 4
 286              		.cfi_offset 14, -4
 287 0002 89B0     		sub	sp, sp, #36
 288              	.LCFI9:
 289              		.cfi_def_cfa_offset 40
 116:Core/Src/tim.c **** 
 117:Core/Src/tim.c ****   /* USER CODE BEGIN TIM3_Init 0 */
 118:Core/Src/tim.c **** 
 119:Core/Src/tim.c ****   /* USER CODE END TIM3_Init 0 */
 120:Core/Src/tim.c **** 
 121:Core/Src/tim.c ****   TIM_ClockConfigTypeDef sClockSourceConfig = {0};
 290              		.loc 1 121 3 view .LVU79
 291              		.loc 1 121 26 is_stmt 0 view .LVU80
 292 0004 0023     		movs	r3, #0
 293 0006 0493     		str	r3, [sp, #16]
 294 0008 0593     		str	r3, [sp, #20]
 295 000a 0693     		str	r3, [sp, #24]
 296 000c 0793     		str	r3, [sp, #28]
 122:Core/Src/tim.c ****   TIM_MasterConfigTypeDef sMasterConfig = {0};
 297              		.loc 1 122 3 is_stmt 1 view .LVU81
 298              		.loc 1 122 27 is_stmt 0 view .LVU82
 299 000e 0193     		str	r3, [sp, #4]
 300 0010 0293     		str	r3, [sp, #8]
 301 0012 0393     		str	r3, [sp, #12]
 123:Core/Src/tim.c **** 
 124:Core/Src/tim.c ****   /* USER CODE BEGIN TIM3_Init 1 */
 125:Core/Src/tim.c **** 
 126:Core/Src/tim.c ****   /* USER CODE END TIM3_Init 1 */
 127:Core/Src/tim.c ****   htim3.Instance = TIM3;
 302              		.loc 1 127 3 is_stmt 1 view .LVU83
 303              		.loc 1 127 18 is_stmt 0 view .LVU84
 304 0014 1448     		ldr	r0, .L29
 305 0016 154A     		ldr	r2, .L29+4
 306 0018 0260     		str	r2, [r0]
 128:Core/Src/tim.c ****   htim3.Init.Prescaler = 0;
 307              		.loc 1 128 3 is_stmt 1 view .LVU85
 308              		.loc 1 128 24 is_stmt 0 view .LVU86
 309 001a 4360     		str	r3, [r0, #4]
 129:Core/Src/tim.c ****   htim3.Init.CounterMode = TIM_COUNTERMODE_UP;
 310              		.loc 1 129 3 is_stmt 1 view .LVU87
 311              		.loc 1 129 26 is_stmt 0 view .LVU88
 312 001c 8360     		str	r3, [r0, #8]
 130:Core/Src/tim.c ****   htim3.Init.Period = 65535;
 313              		.loc 1 130 3 is_stmt 1 view .LVU89
 314              		.loc 1 130 21 is_stmt 0 view .LVU90
 315 001e 4FF6FF72 		movw	r2, #65535
 316 0022 C260     		str	r2, [r0, #12]
 131:Core/Src/tim.c ****   htim3.Init.ClockDivision = TIM_CLOCKDIVISION_DIV1;
 317              		.loc 1 131 3 is_stmt 1 view .LVU91
 318              		.loc 1 131 28 is_stmt 0 view .LVU92
 319 0024 0361     		str	r3, [r0, #16]
 132:Core/Src/tim.c ****   htim3.Init.AutoReloadPreload = TIM_AUTORELOAD_PRELOAD_DISABLE;
 320              		.loc 1 132 3 is_stmt 1 view .LVU93
 321              		.loc 1 132 32 is_stmt 0 view .LVU94
 322 0026 8361     		str	r3, [r0, #24]
 133:Core/Src/tim.c ****   if (HAL_TIM_Base_Init(&htim3) != HAL_OK)
ARM GAS  C:\Users\LENOVO\AppData\Local\Temp\cczxaMVa.s 			page 9


 323              		.loc 1 133 3 is_stmt 1 view .LVU95
 324              		.loc 1 133 7 is_stmt 0 view .LVU96
 325 0028 FFF7FEFF 		bl	HAL_TIM_Base_Init
 326              	.LVL12:
 327              		.loc 1 133 6 discriminator 1 view .LVU97
 328 002c 90B9     		cbnz	r0, .L26
 329              	.L22:
 134:Core/Src/tim.c ****   {
 135:Core/Src/tim.c ****     Error_Handler();
 136:Core/Src/tim.c ****   }
 137:Core/Src/tim.c ****   sClockSourceConfig.ClockSource = TIM_CLOCKSOURCE_INTERNAL;
 330              		.loc 1 137 3 is_stmt 1 view .LVU98
 331              		.loc 1 137 34 is_stmt 0 view .LVU99
 332 002e 4FF48053 		mov	r3, #4096
 333 0032 0493     		str	r3, [sp, #16]
 138:Core/Src/tim.c ****   if (HAL_TIM_ConfigClockSource(&htim3, &sClockSourceConfig) != HAL_OK)
 334              		.loc 1 138 3 is_stmt 1 view .LVU100
 335              		.loc 1 138 7 is_stmt 0 view .LVU101
 336 0034 04A9     		add	r1, sp, #16
 337 0036 0C48     		ldr	r0, .L29
 338 0038 FFF7FEFF 		bl	HAL_TIM_ConfigClockSource
 339              	.LVL13:
 340              		.loc 1 138 6 discriminator 1 view .LVU102
 341 003c 68B9     		cbnz	r0, .L27
 342              	.L23:
 139:Core/Src/tim.c ****   {
 140:Core/Src/tim.c ****     Error_Handler();
 141:Core/Src/tim.c ****   }
 142:Core/Src/tim.c ****   sMasterConfig.MasterOutputTrigger = TIM_TRGO_RESET;
 343              		.loc 1 142 3 is_stmt 1 view .LVU103
 344              		.loc 1 142 37 is_stmt 0 view .LVU104
 345 003e 0023     		movs	r3, #0
 346 0040 0193     		str	r3, [sp, #4]
 143:Core/Src/tim.c ****   sMasterConfig.MasterSlaveMode = TIM_MASTERSLAVEMODE_DISABLE;
 347              		.loc 1 143 3 is_stmt 1 view .LVU105
 348              		.loc 1 143 33 is_stmt 0 view .LVU106
 349 0042 0393     		str	r3, [sp, #12]
 144:Core/Src/tim.c ****   if (HAL_TIMEx_MasterConfigSynchronization(&htim3, &sMasterConfig) != HAL_OK)
 350              		.loc 1 144 3 is_stmt 1 view .LVU107
 351              		.loc 1 144 7 is_stmt 0 view .LVU108
 352 0044 01A9     		add	r1, sp, #4
 353 0046 0848     		ldr	r0, .L29
 354 0048 FFF7FEFF 		bl	HAL_TIMEx_MasterConfigSynchronization
 355              	.LVL14:
 356              		.loc 1 144 6 discriminator 1 view .LVU109
 357 004c 40B9     		cbnz	r0, .L28
 358              	.L21:
 145:Core/Src/tim.c ****   {
 146:Core/Src/tim.c ****     Error_Handler();
 147:Core/Src/tim.c ****   }
 148:Core/Src/tim.c ****   /* USER CODE BEGIN TIM3_Init 2 */
 149:Core/Src/tim.c **** 
 150:Core/Src/tim.c ****   /* USER CODE END TIM3_Init 2 */
 151:Core/Src/tim.c **** 
 152:Core/Src/tim.c **** }
 359              		.loc 1 152 1 view .LVU110
 360 004e 09B0     		add	sp, sp, #36
ARM GAS  C:\Users\LENOVO\AppData\Local\Temp\cczxaMVa.s 			page 10


 361              	.LCFI10:
 362              		.cfi_remember_state
 363              		.cfi_def_cfa_offset 4
 364              		@ sp needed
 365 0050 5DF804FB 		ldr	pc, [sp], #4
 366              	.L26:
 367              	.LCFI11:
 368              		.cfi_restore_state
 135:Core/Src/tim.c ****   }
 369              		.loc 1 135 5 is_stmt 1 view .LVU111
 370 0054 FFF7FEFF 		bl	Error_Handler
 371              	.LVL15:
 372 0058 E9E7     		b	.L22
 373              	.L27:
 140:Core/Src/tim.c ****   }
 374              		.loc 1 140 5 view .LVU112
 375 005a FFF7FEFF 		bl	Error_Handler
 376              	.LVL16:
 377 005e EEE7     		b	.L23
 378              	.L28:
 146:Core/Src/tim.c ****   }
 379              		.loc 1 146 5 view .LVU113
 380 0060 FFF7FEFF 		bl	Error_Handler
 381              	.LVL17:
 382              		.loc 1 152 1 is_stmt 0 view .LVU114
 383 0064 F3E7     		b	.L21
 384              	.L30:
 385 0066 00BF     		.align	2
 386              	.L29:
 387 0068 00000000 		.word	htim3
 388 006c 00040040 		.word	1073742848
 389              		.cfi_endproc
 390              	.LFE498:
 392              		.section	.text.HAL_TIM_Base_MspInit,"ax",%progbits
 393              		.align	1
 394              		.global	HAL_TIM_Base_MspInit
 395              		.syntax unified
 396              		.thumb
 397              		.thumb_func
 399              	HAL_TIM_Base_MspInit:
 400              	.LVL18:
 401              	.LFB499:
 153:Core/Src/tim.c **** 
 154:Core/Src/tim.c **** void HAL_TIM_Base_MspInit(TIM_HandleTypeDef* tim_baseHandle)
 155:Core/Src/tim.c **** {
 402              		.loc 1 155 1 is_stmt 1 view -0
 403              		.cfi_startproc
 404              		@ args = 0, pretend = 0, frame = 16
 405              		@ frame_needed = 0, uses_anonymous_args = 0
 406              		.loc 1 155 1 is_stmt 0 view .LVU116
 407 0000 00B5     		push	{lr}
 408              	.LCFI12:
 409              		.cfi_def_cfa_offset 4
 410              		.cfi_offset 14, -4
 411 0002 85B0     		sub	sp, sp, #20
 412              	.LCFI13:
 413              		.cfi_def_cfa_offset 24
ARM GAS  C:\Users\LENOVO\AppData\Local\Temp\cczxaMVa.s 			page 11


 156:Core/Src/tim.c **** 
 157:Core/Src/tim.c ****   if(tim_baseHandle->Instance==TIM1)
 414              		.loc 1 157 3 is_stmt 1 view .LVU117
 415              		.loc 1 157 20 is_stmt 0 view .LVU118
 416 0004 0368     		ldr	r3, [r0]
 417              		.loc 1 157 5 view .LVU119
 418 0006 334A     		ldr	r2, .L39
 419 0008 9342     		cmp	r3, r2
 420 000a 08D0     		beq	.L36
 158:Core/Src/tim.c ****   {
 159:Core/Src/tim.c ****   /* USER CODE BEGIN TIM1_MspInit 0 */
 160:Core/Src/tim.c **** 
 161:Core/Src/tim.c ****   /* USER CODE END TIM1_MspInit 0 */
 162:Core/Src/tim.c ****     /* TIM1 clock enable */
 163:Core/Src/tim.c ****     __HAL_RCC_TIM1_CLK_ENABLE();
 164:Core/Src/tim.c **** 
 165:Core/Src/tim.c ****     /* TIM1 interrupt Init */
 166:Core/Src/tim.c ****     HAL_NVIC_SetPriority(TIM1_BRK_IRQn, 0, 0);
 167:Core/Src/tim.c ****     HAL_NVIC_EnableIRQ(TIM1_BRK_IRQn);
 168:Core/Src/tim.c ****     HAL_NVIC_SetPriority(TIM1_UP_IRQn, 0, 0);
 169:Core/Src/tim.c ****     HAL_NVIC_EnableIRQ(TIM1_UP_IRQn);
 170:Core/Src/tim.c ****     HAL_NVIC_SetPriority(TIM1_TRG_COM_IRQn, 0, 0);
 171:Core/Src/tim.c ****     HAL_NVIC_EnableIRQ(TIM1_TRG_COM_IRQn);
 172:Core/Src/tim.c ****     HAL_NVIC_SetPriority(TIM1_CC_IRQn, 0, 0);
 173:Core/Src/tim.c ****     HAL_NVIC_EnableIRQ(TIM1_CC_IRQn);
 174:Core/Src/tim.c ****   /* USER CODE BEGIN TIM1_MspInit 1 */
 175:Core/Src/tim.c **** 
 176:Core/Src/tim.c ****   /* USER CODE END TIM1_MspInit 1 */
 177:Core/Src/tim.c ****   }
 178:Core/Src/tim.c ****   else if(tim_baseHandle->Instance==TIM2)
 421              		.loc 1 178 8 is_stmt 1 view .LVU120
 422              		.loc 1 178 10 is_stmt 0 view .LVU121
 423 000c B3F1804F 		cmp	r3, #1073741824
 424 0010 33D0     		beq	.L37
 179:Core/Src/tim.c ****   {
 180:Core/Src/tim.c ****   /* USER CODE BEGIN TIM2_MspInit 0 */
 181:Core/Src/tim.c **** 
 182:Core/Src/tim.c ****   /* USER CODE END TIM2_MspInit 0 */
 183:Core/Src/tim.c ****     /* TIM2 clock enable */
 184:Core/Src/tim.c ****     __HAL_RCC_TIM2_CLK_ENABLE();
 185:Core/Src/tim.c **** 
 186:Core/Src/tim.c ****     /* TIM2 interrupt Init */
 187:Core/Src/tim.c ****     HAL_NVIC_SetPriority(TIM2_IRQn, 0, 0);
 188:Core/Src/tim.c ****     HAL_NVIC_EnableIRQ(TIM2_IRQn);
 189:Core/Src/tim.c ****   /* USER CODE BEGIN TIM2_MspInit 1 */
 190:Core/Src/tim.c **** 
 191:Core/Src/tim.c ****   /* USER CODE END TIM2_MspInit 1 */
 192:Core/Src/tim.c ****   }
 193:Core/Src/tim.c ****   else if(tim_baseHandle->Instance==TIM3)
 425              		.loc 1 193 8 is_stmt 1 view .LVU122
 426              		.loc 1 193 10 is_stmt 0 view .LVU123
 427 0012 314A     		ldr	r2, .L39+4
 428 0014 9342     		cmp	r3, r2
 429 0016 46D0     		beq	.L38
 430              	.LVL19:
 431              	.L31:
 194:Core/Src/tim.c ****   {
ARM GAS  C:\Users\LENOVO\AppData\Local\Temp\cczxaMVa.s 			page 12


 195:Core/Src/tim.c ****   /* USER CODE BEGIN TIM3_MspInit 0 */
 196:Core/Src/tim.c **** 
 197:Core/Src/tim.c ****   /* USER CODE END TIM3_MspInit 0 */
 198:Core/Src/tim.c ****     /* TIM3 clock enable */
 199:Core/Src/tim.c ****     __HAL_RCC_TIM3_CLK_ENABLE();
 200:Core/Src/tim.c **** 
 201:Core/Src/tim.c ****     /* TIM3 interrupt Init */
 202:Core/Src/tim.c ****     HAL_NVIC_SetPriority(TIM3_IRQn, 0, 0);
 203:Core/Src/tim.c ****     HAL_NVIC_EnableIRQ(TIM3_IRQn);
 204:Core/Src/tim.c ****   /* USER CODE BEGIN TIM3_MspInit 1 */
 205:Core/Src/tim.c **** 
 206:Core/Src/tim.c ****   /* USER CODE END TIM3_MspInit 1 */
 207:Core/Src/tim.c ****   }
 208:Core/Src/tim.c **** }
 432              		.loc 1 208 1 view .LVU124
 433 0018 05B0     		add	sp, sp, #20
 434              	.LCFI14:
 435              		.cfi_remember_state
 436              		.cfi_def_cfa_offset 4
 437              		@ sp needed
 438 001a 5DF804FB 		ldr	pc, [sp], #4
 439              	.LVL20:
 440              	.L36:
 441              	.LCFI15:
 442              		.cfi_restore_state
 163:Core/Src/tim.c **** 
 443              		.loc 1 163 5 is_stmt 1 view .LVU125
 444              	.LBB2:
 163:Core/Src/tim.c **** 
 445              		.loc 1 163 5 view .LVU126
 163:Core/Src/tim.c **** 
 446              		.loc 1 163 5 view .LVU127
 447 001e 2F4B     		ldr	r3, .L39+8
 448 0020 D3F8A420 		ldr	r2, [r3, #164]
 449 0024 42F40062 		orr	r2, r2, #2048
 450 0028 C3F8A420 		str	r2, [r3, #164]
 163:Core/Src/tim.c **** 
 451              		.loc 1 163 5 view .LVU128
 452 002c D3F8A430 		ldr	r3, [r3, #164]
 453 0030 03F40063 		and	r3, r3, #2048
 454 0034 0193     		str	r3, [sp, #4]
 163:Core/Src/tim.c **** 
 455              		.loc 1 163 5 view .LVU129
 456 0036 019B     		ldr	r3, [sp, #4]
 457              	.LBE2:
 163:Core/Src/tim.c **** 
 458              		.loc 1 163 5 view .LVU130
 166:Core/Src/tim.c ****     HAL_NVIC_EnableIRQ(TIM1_BRK_IRQn);
 459              		.loc 1 166 5 view .LVU131
 460 0038 0022     		movs	r2, #0
 461 003a 1146     		mov	r1, r2
 462 003c 2920     		movs	r0, #41
 463              	.LVL21:
 166:Core/Src/tim.c ****     HAL_NVIC_EnableIRQ(TIM1_BRK_IRQn);
 464              		.loc 1 166 5 is_stmt 0 view .LVU132
 465 003e FFF7FEFF 		bl	HAL_NVIC_SetPriority
 466              	.LVL22:
ARM GAS  C:\Users\LENOVO\AppData\Local\Temp\cczxaMVa.s 			page 13


 167:Core/Src/tim.c ****     HAL_NVIC_SetPriority(TIM1_UP_IRQn, 0, 0);
 467              		.loc 1 167 5 is_stmt 1 view .LVU133
 468 0042 2920     		movs	r0, #41
 469 0044 FFF7FEFF 		bl	HAL_NVIC_EnableIRQ
 470              	.LVL23:
 168:Core/Src/tim.c ****     HAL_NVIC_EnableIRQ(TIM1_UP_IRQn);
 471              		.loc 1 168 5 view .LVU134
 472 0048 0022     		movs	r2, #0
 473 004a 1146     		mov	r1, r2
 474 004c 2A20     		movs	r0, #42
 475 004e FFF7FEFF 		bl	HAL_NVIC_SetPriority
 476              	.LVL24:
 169:Core/Src/tim.c ****     HAL_NVIC_SetPriority(TIM1_TRG_COM_IRQn, 0, 0);
 477              		.loc 1 169 5 view .LVU135
 478 0052 2A20     		movs	r0, #42
 479 0054 FFF7FEFF 		bl	HAL_NVIC_EnableIRQ
 480              	.LVL25:
 170:Core/Src/tim.c ****     HAL_NVIC_EnableIRQ(TIM1_TRG_COM_IRQn);
 481              		.loc 1 170 5 view .LVU136
 482 0058 0022     		movs	r2, #0
 483 005a 1146     		mov	r1, r2
 484 005c 2B20     		movs	r0, #43
 485 005e FFF7FEFF 		bl	HAL_NVIC_SetPriority
 486              	.LVL26:
 171:Core/Src/tim.c ****     HAL_NVIC_SetPriority(TIM1_CC_IRQn, 0, 0);
 487              		.loc 1 171 5 view .LVU137
 488 0062 2B20     		movs	r0, #43
 489 0064 FFF7FEFF 		bl	HAL_NVIC_EnableIRQ
 490              	.LVL27:
 172:Core/Src/tim.c ****     HAL_NVIC_EnableIRQ(TIM1_CC_IRQn);
 491              		.loc 1 172 5 view .LVU138
 492 0068 0022     		movs	r2, #0
 493 006a 1146     		mov	r1, r2
 494 006c 2C20     		movs	r0, #44
 495 006e FFF7FEFF 		bl	HAL_NVIC_SetPriority
 496              	.LVL28:
 173:Core/Src/tim.c ****   /* USER CODE BEGIN TIM1_MspInit 1 */
 497              		.loc 1 173 5 view .LVU139
 498 0072 2C20     		movs	r0, #44
 499 0074 FFF7FEFF 		bl	HAL_NVIC_EnableIRQ
 500              	.LVL29:
 501 0078 CEE7     		b	.L31
 502              	.LVL30:
 503              	.L37:
 184:Core/Src/tim.c **** 
 504              		.loc 1 184 5 view .LVU140
 505              	.LBB3:
 184:Core/Src/tim.c **** 
 506              		.loc 1 184 5 view .LVU141
 184:Core/Src/tim.c **** 
 507              		.loc 1 184 5 view .LVU142
 508 007a 184B     		ldr	r3, .L39+8
 509 007c D3F89C20 		ldr	r2, [r3, #156]
 510 0080 42F00102 		orr	r2, r2, #1
 511 0084 C3F89C20 		str	r2, [r3, #156]
 184:Core/Src/tim.c **** 
 512              		.loc 1 184 5 view .LVU143
ARM GAS  C:\Users\LENOVO\AppData\Local\Temp\cczxaMVa.s 			page 14


 513 0088 D3F89C30 		ldr	r3, [r3, #156]
 514 008c 03F00103 		and	r3, r3, #1
 515 0090 0293     		str	r3, [sp, #8]
 184:Core/Src/tim.c **** 
 516              		.loc 1 184 5 view .LVU144
 517 0092 029B     		ldr	r3, [sp, #8]
 518              	.LBE3:
 184:Core/Src/tim.c **** 
 519              		.loc 1 184 5 view .LVU145
 187:Core/Src/tim.c ****     HAL_NVIC_EnableIRQ(TIM2_IRQn);
 520              		.loc 1 187 5 view .LVU146
 521 0094 0022     		movs	r2, #0
 522 0096 1146     		mov	r1, r2
 523 0098 2D20     		movs	r0, #45
 524              	.LVL31:
 187:Core/Src/tim.c ****     HAL_NVIC_EnableIRQ(TIM2_IRQn);
 525              		.loc 1 187 5 is_stmt 0 view .LVU147
 526 009a FFF7FEFF 		bl	HAL_NVIC_SetPriority
 527              	.LVL32:
 188:Core/Src/tim.c ****   /* USER CODE BEGIN TIM2_MspInit 1 */
 528              		.loc 1 188 5 is_stmt 1 view .LVU148
 529 009e 2D20     		movs	r0, #45
 530 00a0 FFF7FEFF 		bl	HAL_NVIC_EnableIRQ
 531              	.LVL33:
 532 00a4 B8E7     		b	.L31
 533              	.LVL34:
 534              	.L38:
 199:Core/Src/tim.c **** 
 535              		.loc 1 199 5 view .LVU149
 536              	.LBB4:
 199:Core/Src/tim.c **** 
 537              		.loc 1 199 5 view .LVU150
 199:Core/Src/tim.c **** 
 538              		.loc 1 199 5 view .LVU151
 539 00a6 0D4B     		ldr	r3, .L39+8
 540 00a8 D3F89C20 		ldr	r2, [r3, #156]
 541 00ac 42F00202 		orr	r2, r2, #2
 542 00b0 C3F89C20 		str	r2, [r3, #156]
 199:Core/Src/tim.c **** 
 543              		.loc 1 199 5 view .LVU152
 544 00b4 D3F89C30 		ldr	r3, [r3, #156]
 545 00b8 03F00203 		and	r3, r3, #2
 546 00bc 0393     		str	r3, [sp, #12]
 199:Core/Src/tim.c **** 
 547              		.loc 1 199 5 view .LVU153
 548 00be 039B     		ldr	r3, [sp, #12]
 549              	.LBE4:
 199:Core/Src/tim.c **** 
 550              		.loc 1 199 5 view .LVU154
 202:Core/Src/tim.c ****     HAL_NVIC_EnableIRQ(TIM3_IRQn);
 551              		.loc 1 202 5 view .LVU155
 552 00c0 0022     		movs	r2, #0
 553 00c2 1146     		mov	r1, r2
 554 00c4 2E20     		movs	r0, #46
 555              	.LVL35:
 202:Core/Src/tim.c ****     HAL_NVIC_EnableIRQ(TIM3_IRQn);
 556              		.loc 1 202 5 is_stmt 0 view .LVU156
ARM GAS  C:\Users\LENOVO\AppData\Local\Temp\cczxaMVa.s 			page 15


 557 00c6 FFF7FEFF 		bl	HAL_NVIC_SetPriority
 558              	.LVL36:
 203:Core/Src/tim.c ****   /* USER CODE BEGIN TIM3_MspInit 1 */
 559              		.loc 1 203 5 is_stmt 1 view .LVU157
 560 00ca 2E20     		movs	r0, #46
 561 00cc FFF7FEFF 		bl	HAL_NVIC_EnableIRQ
 562              	.LVL37:
 563              		.loc 1 208 1 is_stmt 0 view .LVU158
 564 00d0 A2E7     		b	.L31
 565              	.L40:
 566 00d2 00BF     		.align	2
 567              	.L39:
 568 00d4 002C0140 		.word	1073818624
 569 00d8 00040040 		.word	1073742848
 570 00dc 000C0244 		.word	1140984832
 571              		.cfi_endproc
 572              	.LFE499:
 574              		.section	.text.HAL_TIM_Base_MspDeInit,"ax",%progbits
 575              		.align	1
 576              		.global	HAL_TIM_Base_MspDeInit
 577              		.syntax unified
 578              		.thumb
 579              		.thumb_func
 581              	HAL_TIM_Base_MspDeInit:
 582              	.LVL38:
 583              	.LFB500:
 209:Core/Src/tim.c **** 
 210:Core/Src/tim.c **** void HAL_TIM_Base_MspDeInit(TIM_HandleTypeDef* tim_baseHandle)
 211:Core/Src/tim.c **** {
 584              		.loc 1 211 1 is_stmt 1 view -0
 585              		.cfi_startproc
 586              		@ args = 0, pretend = 0, frame = 0
 587              		@ frame_needed = 0, uses_anonymous_args = 0
 588              		.loc 1 211 1 is_stmt 0 view .LVU160
 589 0000 08B5     		push	{r3, lr}
 590              	.LCFI16:
 591              		.cfi_def_cfa_offset 8
 592              		.cfi_offset 3, -8
 593              		.cfi_offset 14, -4
 212:Core/Src/tim.c **** 
 213:Core/Src/tim.c ****   if(tim_baseHandle->Instance==TIM1)
 594              		.loc 1 213 3 is_stmt 1 view .LVU161
 595              		.loc 1 213 20 is_stmt 0 view .LVU162
 596 0002 0368     		ldr	r3, [r0]
 597              		.loc 1 213 5 view .LVU163
 598 0004 194A     		ldr	r2, .L49
 599 0006 9342     		cmp	r3, r2
 600 0008 06D0     		beq	.L46
 214:Core/Src/tim.c ****   {
 215:Core/Src/tim.c ****   /* USER CODE BEGIN TIM1_MspDeInit 0 */
 216:Core/Src/tim.c **** 
 217:Core/Src/tim.c ****   /* USER CODE END TIM1_MspDeInit 0 */
 218:Core/Src/tim.c ****     /* Peripheral clock disable */
 219:Core/Src/tim.c ****     __HAL_RCC_TIM1_CLK_DISABLE();
 220:Core/Src/tim.c **** 
 221:Core/Src/tim.c ****     /* TIM1 interrupt Deinit */
 222:Core/Src/tim.c ****     HAL_NVIC_DisableIRQ(TIM1_BRK_IRQn);
ARM GAS  C:\Users\LENOVO\AppData\Local\Temp\cczxaMVa.s 			page 16


 223:Core/Src/tim.c ****     HAL_NVIC_DisableIRQ(TIM1_UP_IRQn);
 224:Core/Src/tim.c ****     HAL_NVIC_DisableIRQ(TIM1_TRG_COM_IRQn);
 225:Core/Src/tim.c ****     HAL_NVIC_DisableIRQ(TIM1_CC_IRQn);
 226:Core/Src/tim.c ****   /* USER CODE BEGIN TIM1_MspDeInit 1 */
 227:Core/Src/tim.c **** 
 228:Core/Src/tim.c ****   /* USER CODE END TIM1_MspDeInit 1 */
 229:Core/Src/tim.c ****   }
 230:Core/Src/tim.c ****   else if(tim_baseHandle->Instance==TIM2)
 601              		.loc 1 230 8 is_stmt 1 view .LVU164
 602              		.loc 1 230 10 is_stmt 0 view .LVU165
 603 000a B3F1804F 		cmp	r3, #1073741824
 604 000e 17D0     		beq	.L47
 231:Core/Src/tim.c ****   {
 232:Core/Src/tim.c ****   /* USER CODE BEGIN TIM2_MspDeInit 0 */
 233:Core/Src/tim.c **** 
 234:Core/Src/tim.c ****   /* USER CODE END TIM2_MspDeInit 0 */
 235:Core/Src/tim.c ****     /* Peripheral clock disable */
 236:Core/Src/tim.c ****     __HAL_RCC_TIM2_CLK_DISABLE();
 237:Core/Src/tim.c **** 
 238:Core/Src/tim.c ****     /* TIM2 interrupt Deinit */
 239:Core/Src/tim.c ****     HAL_NVIC_DisableIRQ(TIM2_IRQn);
 240:Core/Src/tim.c ****   /* USER CODE BEGIN TIM2_MspDeInit 1 */
 241:Core/Src/tim.c **** 
 242:Core/Src/tim.c ****   /* USER CODE END TIM2_MspDeInit 1 */
 243:Core/Src/tim.c ****   }
 244:Core/Src/tim.c ****   else if(tim_baseHandle->Instance==TIM3)
 605              		.loc 1 244 8 is_stmt 1 view .LVU166
 606              		.loc 1 244 10 is_stmt 0 view .LVU167
 607 0010 174A     		ldr	r2, .L49+4
 608 0012 9342     		cmp	r3, r2
 609 0014 1FD0     		beq	.L48
 610              	.LVL39:
 611              	.L41:
 245:Core/Src/tim.c ****   {
 246:Core/Src/tim.c ****   /* USER CODE BEGIN TIM3_MspDeInit 0 */
 247:Core/Src/tim.c **** 
 248:Core/Src/tim.c ****   /* USER CODE END TIM3_MspDeInit 0 */
 249:Core/Src/tim.c ****     /* Peripheral clock disable */
 250:Core/Src/tim.c ****     __HAL_RCC_TIM3_CLK_DISABLE();
 251:Core/Src/tim.c **** 
 252:Core/Src/tim.c ****     /* TIM3 interrupt Deinit */
 253:Core/Src/tim.c ****     HAL_NVIC_DisableIRQ(TIM3_IRQn);
 254:Core/Src/tim.c ****   /* USER CODE BEGIN TIM3_MspDeInit 1 */
 255:Core/Src/tim.c **** 
 256:Core/Src/tim.c ****   /* USER CODE END TIM3_MspDeInit 1 */
 257:Core/Src/tim.c ****   }
 258:Core/Src/tim.c **** }
 612              		.loc 1 258 1 view .LVU168
 613 0016 08BD     		pop	{r3, pc}
 614              	.LVL40:
 615              	.L46:
 219:Core/Src/tim.c **** 
 616              		.loc 1 219 5 is_stmt 1 view .LVU169
 617 0018 164A     		ldr	r2, .L49+8
 618 001a D2F8A430 		ldr	r3, [r2, #164]
 619 001e 23F40063 		bic	r3, r3, #2048
 620 0022 C2F8A430 		str	r3, [r2, #164]
ARM GAS  C:\Users\LENOVO\AppData\Local\Temp\cczxaMVa.s 			page 17


 222:Core/Src/tim.c ****     HAL_NVIC_DisableIRQ(TIM1_UP_IRQn);
 621              		.loc 1 222 5 view .LVU170
 622 0026 2920     		movs	r0, #41
 623              	.LVL41:
 222:Core/Src/tim.c ****     HAL_NVIC_DisableIRQ(TIM1_UP_IRQn);
 624              		.loc 1 222 5 is_stmt 0 view .LVU171
 625 0028 FFF7FEFF 		bl	HAL_NVIC_DisableIRQ
 626              	.LVL42:
 223:Core/Src/tim.c ****     HAL_NVIC_DisableIRQ(TIM1_TRG_COM_IRQn);
 627              		.loc 1 223 5 is_stmt 1 view .LVU172
 628 002c 2A20     		movs	r0, #42
 629 002e FFF7FEFF 		bl	HAL_NVIC_DisableIRQ
 630              	.LVL43:
 224:Core/Src/tim.c ****     HAL_NVIC_DisableIRQ(TIM1_CC_IRQn);
 631              		.loc 1 224 5 view .LVU173
 632 0032 2B20     		movs	r0, #43
 633 0034 FFF7FEFF 		bl	HAL_NVIC_DisableIRQ
 634              	.LVL44:
 225:Core/Src/tim.c ****   /* USER CODE BEGIN TIM1_MspDeInit 1 */
 635              		.loc 1 225 5 view .LVU174
 636 0038 2C20     		movs	r0, #44
 637 003a FFF7FEFF 		bl	HAL_NVIC_DisableIRQ
 638              	.LVL45:
 639 003e EAE7     		b	.L41
 640              	.LVL46:
 641              	.L47:
 236:Core/Src/tim.c **** 
 642              		.loc 1 236 5 view .LVU175
 643 0040 0C4A     		ldr	r2, .L49+8
 644 0042 D2F89C30 		ldr	r3, [r2, #156]
 645 0046 23F00103 		bic	r3, r3, #1
 646 004a C2F89C30 		str	r3, [r2, #156]
 239:Core/Src/tim.c ****   /* USER CODE BEGIN TIM2_MspDeInit 1 */
 647              		.loc 1 239 5 view .LVU176
 648 004e 2D20     		movs	r0, #45
 649              	.LVL47:
 239:Core/Src/tim.c ****   /* USER CODE BEGIN TIM2_MspDeInit 1 */
 650              		.loc 1 239 5 is_stmt 0 view .LVU177
 651 0050 FFF7FEFF 		bl	HAL_NVIC_DisableIRQ
 652              	.LVL48:
 653 0054 DFE7     		b	.L41
 654              	.LVL49:
 655              	.L48:
 250:Core/Src/tim.c **** 
 656              		.loc 1 250 5 is_stmt 1 view .LVU178
 657 0056 074A     		ldr	r2, .L49+8
 658 0058 D2F89C30 		ldr	r3, [r2, #156]
 659 005c 23F00203 		bic	r3, r3, #2
 660 0060 C2F89C30 		str	r3, [r2, #156]
 253:Core/Src/tim.c ****   /* USER CODE BEGIN TIM3_MspDeInit 1 */
 661              		.loc 1 253 5 view .LVU179
 662 0064 2E20     		movs	r0, #46
 663              	.LVL50:
 253:Core/Src/tim.c ****   /* USER CODE BEGIN TIM3_MspDeInit 1 */
 664              		.loc 1 253 5 is_stmt 0 view .LVU180
 665 0066 FFF7FEFF 		bl	HAL_NVIC_DisableIRQ
 666              	.LVL51:
ARM GAS  C:\Users\LENOVO\AppData\Local\Temp\cczxaMVa.s 			page 18


 667              		.loc 1 258 1 view .LVU181
 668 006a D4E7     		b	.L41
 669              	.L50:
 670              		.align	2
 671              	.L49:
 672 006c 002C0140 		.word	1073818624
 673 0070 00040040 		.word	1073742848
 674 0074 000C0244 		.word	1140984832
 675              		.cfi_endproc
 676              	.LFE500:
 678              		.global	htim3
 679              		.section	.bss.htim3,"aw",%nobits
 680              		.align	2
 683              	htim3:
 684 0000 00000000 		.space	76
 684      00000000 
 684      00000000 
 684      00000000 
 684      00000000 
 685              		.global	htim2
 686              		.section	.bss.htim2,"aw",%nobits
 687              		.align	2
 690              	htim2:
 691 0000 00000000 		.space	76
 691      00000000 
 691      00000000 
 691      00000000 
 691      00000000 
 692              		.global	htim1
 693              		.section	.bss.htim1,"aw",%nobits
 694              		.align	2
 697              	htim1:
 698 0000 00000000 		.space	76
 698      00000000 
 698      00000000 
 698      00000000 
 698      00000000 
 699              		.text
 700              	.Letext0:
 701              		.file 2 "C:\\ST\\STM32CubeCLT_1.20.0\\GNU-tools-for-STM32\\bin/../lib/gcc/arm-none-eabi/13.3.1/../
 702              		.file 3 "Drivers/CMSIS/Device/ST/STM32H5xx/Include/stm32h563xx.h"
 703              		.file 4 "C:\\ST\\STM32CubeCLT_1.20.0\\GNU-tools-for-STM32\\bin/../lib/gcc/arm-none-eabi/13.3.1/../
 704              		.file 5 "Drivers/STM32H5xx_HAL_Driver/Inc/stm32h5xx_hal_def.h"
 705              		.file 6 "Drivers/STM32H5xx_HAL_Driver/Inc/stm32h5xx_hal_dma.h"
 706              		.file 7 "Drivers/STM32H5xx_HAL_Driver/Inc/stm32h5xx_hal_dma_ex.h"
 707              		.file 8 "Drivers/STM32H5xx_HAL_Driver/Inc/stm32h5xx_ll_lptim.h"
 708              		.file 9 "Drivers/STM32H5xx_HAL_Driver/Inc/stm32h5xx_hal_tim.h"
 709              		.file 10 "Core/Inc/tim.h"
 710              		.file 11 "Drivers/STM32H5xx_HAL_Driver/Inc/stm32h5xx_hal_cortex.h"
 711              		.file 12 "Drivers/STM32H5xx_HAL_Driver/Inc/stm32h5xx_hal_tim_ex.h"
 712              		.file 13 "Core/Inc/main.h"
ARM GAS  C:\Users\LENOVO\AppData\Local\Temp\cczxaMVa.s 			page 19

