ARM GAS  C:\Users\LENOVO\AppData\Local\Temp\ccUTPkkl.s 			page 1


   1              		.cpu cortex-m33
   2              		.arch armv8-m.main
   3              		.fpu fpv5-sp-d16
   4              		.arch_extension dsp
   5              		.eabi_attribute 27, 1
   6              		.eabi_attribute 28, 1
   7              		.eabi_attribute 20, 1
   8              		.eabi_attribute 21, 1
   9              		.eabi_attribute 23, 3
  10              		.eabi_attribute 24, 1
  11              		.eabi_attribute 25, 1
  12              		.eabi_attribute 26, 1
  13              		.eabi_attribute 30, 1
  14              		.eabi_attribute 34, 1
  15              		.eabi_attribute 18, 4
  16              		.file	"tusb.c"
  17              		.text
  18              	.Ltext0:
  19              		.cfi_sections	.debug_frame
  20              		.file 1 "SynaptiX_FDK/lib/tinyusb/src/tusb.c"
  21              		.section	.text.stream_claim,"ax",%progbits
  22              		.align	1
  23              		.syntax unified
  24              		.thumb
  25              		.thumb_func
  27              	stream_claim:
  28              	.LVL0:
  29              	.LFB664:
   1:SynaptiX_FDK/lib/tinyusb/src/tusb.c **** /*
   2:SynaptiX_FDK/lib/tinyusb/src/tusb.c ****  * The MIT License (MIT)
   3:SynaptiX_FDK/lib/tinyusb/src/tusb.c ****  *
   4:SynaptiX_FDK/lib/tinyusb/src/tusb.c ****  * Copyright (c) 2019 Ha Thach (tinyusb.org)
   5:SynaptiX_FDK/lib/tinyusb/src/tusb.c ****  *
   6:SynaptiX_FDK/lib/tinyusb/src/tusb.c ****  * Permission is hereby granted, free of charge, to any person obtaining a copy
   7:SynaptiX_FDK/lib/tinyusb/src/tusb.c ****  * of this software and associated documentation files (the "Software"), to deal
   8:SynaptiX_FDK/lib/tinyusb/src/tusb.c ****  * in the Software without restriction, including without limitation the rights
   9:SynaptiX_FDK/lib/tinyusb/src/tusb.c ****  * to use, copy, modify, merge, publish, distribute, sublicense, and/or sell
  10:SynaptiX_FDK/lib/tinyusb/src/tusb.c ****  * copies of the Software, and to permit persons to whom the Software is
  11:SynaptiX_FDK/lib/tinyusb/src/tusb.c ****  * furnished to do so, subject to the following conditions:
  12:SynaptiX_FDK/lib/tinyusb/src/tusb.c ****  *
  13:SynaptiX_FDK/lib/tinyusb/src/tusb.c ****  * The above copyright notice and this permission notice shall be included in
  14:SynaptiX_FDK/lib/tinyusb/src/tusb.c ****  * all copies or substantial portions of the Software.
  15:SynaptiX_FDK/lib/tinyusb/src/tusb.c ****  *
  16:SynaptiX_FDK/lib/tinyusb/src/tusb.c ****  * THE SOFTWARE IS PROVIDED "AS IS", WITHOUT WARRANTY OF ANY KIND, EXPRESS OR
  17:SynaptiX_FDK/lib/tinyusb/src/tusb.c ****  * IMPLIED, INCLUDING BUT NOT LIMITED TO THE WARRANTIES OF MERCHANTABILITY,
  18:SynaptiX_FDK/lib/tinyusb/src/tusb.c ****  * FITNESS FOR A PARTICULAR PURPOSE AND NONINFRINGEMENT. IN NO EVENT SHALL THE
  19:SynaptiX_FDK/lib/tinyusb/src/tusb.c ****  * AUTHORS OR COPYRIGHT HOLDERS BE LIABLE FOR ANY CLAIM, DAMAGES OR OTHER
  20:SynaptiX_FDK/lib/tinyusb/src/tusb.c ****  * LIABILITY, WHETHER IN AN ACTION OF CONTRACT, TORT OR OTHERWISE, ARISING FROM,
  21:SynaptiX_FDK/lib/tinyusb/src/tusb.c ****  * OUT OF OR IN CONNECTION WITH THE SOFTWARE OR THE USE OR OTHER DEALINGS IN
  22:SynaptiX_FDK/lib/tinyusb/src/tusb.c ****  * THE SOFTWARE.
  23:SynaptiX_FDK/lib/tinyusb/src/tusb.c ****  *
  24:SynaptiX_FDK/lib/tinyusb/src/tusb.c ****  * This file is part of the TinyUSB stack.
  25:SynaptiX_FDK/lib/tinyusb/src/tusb.c ****  */
  26:SynaptiX_FDK/lib/tinyusb/src/tusb.c **** 
  27:SynaptiX_FDK/lib/tinyusb/src/tusb.c **** #include "tusb_option.h"
  28:SynaptiX_FDK/lib/tinyusb/src/tusb.c **** 
  29:SynaptiX_FDK/lib/tinyusb/src/tusb.c **** #if CFG_TUH_ENABLED || CFG_TUD_ENABLED
ARM GAS  C:\Users\LENOVO\AppData\Local\Temp\ccUTPkkl.s 			page 2


  30:SynaptiX_FDK/lib/tinyusb/src/tusb.c **** 
  31:SynaptiX_FDK/lib/tinyusb/src/tusb.c **** #include "tusb.h"
  32:SynaptiX_FDK/lib/tinyusb/src/tusb.c **** #include "common/tusb_private.h"
  33:SynaptiX_FDK/lib/tinyusb/src/tusb.c **** 
  34:SynaptiX_FDK/lib/tinyusb/src/tusb.c **** #if CFG_TUD_ENABLED
  35:SynaptiX_FDK/lib/tinyusb/src/tusb.c **** #include "device/usbd_pvt.h"
  36:SynaptiX_FDK/lib/tinyusb/src/tusb.c **** #endif
  37:SynaptiX_FDK/lib/tinyusb/src/tusb.c **** 
  38:SynaptiX_FDK/lib/tinyusb/src/tusb.c **** #if CFG_TUH_ENABLED
  39:SynaptiX_FDK/lib/tinyusb/src/tusb.c **** #include "host/usbh_pvt.h"
  40:SynaptiX_FDK/lib/tinyusb/src/tusb.c **** #endif
  41:SynaptiX_FDK/lib/tinyusb/src/tusb.c **** 
  42:SynaptiX_FDK/lib/tinyusb/src/tusb.c **** // Suppress IAR warning
  43:SynaptiX_FDK/lib/tinyusb/src/tusb.c **** // Warning[Pe111]: statement is unreachable
  44:SynaptiX_FDK/lib/tinyusb/src/tusb.c **** #if defined(__ICCARM__)
  45:SynaptiX_FDK/lib/tinyusb/src/tusb.c **** #pragma diag_suppress = Pe111
  46:SynaptiX_FDK/lib/tinyusb/src/tusb.c **** #endif
  47:SynaptiX_FDK/lib/tinyusb/src/tusb.c **** 
  48:SynaptiX_FDK/lib/tinyusb/src/tusb.c **** tusb_role_t _tusb_rhport_role[TUP_USBIP_CONTROLLER_NUM] = { TUSB_ROLE_INVALID };
  49:SynaptiX_FDK/lib/tinyusb/src/tusb.c **** 
  50:SynaptiX_FDK/lib/tinyusb/src/tusb.c **** //--------------------------------------------------------------------
  51:SynaptiX_FDK/lib/tinyusb/src/tusb.c **** // Weak/Default API, can be overwritten by Application
  52:SynaptiX_FDK/lib/tinyusb/src/tusb.c **** //--------------------------------------------------------------------
  53:SynaptiX_FDK/lib/tinyusb/src/tusb.c **** 
  54:SynaptiX_FDK/lib/tinyusb/src/tusb.c **** #if CFG_TUSB_OS != OPT_OS_NONE
  55:SynaptiX_FDK/lib/tinyusb/src/tusb.c **** TU_ATTR_WEAK uint32_t tusb_time_millis_api(void) {
  56:SynaptiX_FDK/lib/tinyusb/src/tusb.c ****   return osal_time_millis();
  57:SynaptiX_FDK/lib/tinyusb/src/tusb.c **** }
  58:SynaptiX_FDK/lib/tinyusb/src/tusb.c **** 
  59:SynaptiX_FDK/lib/tinyusb/src/tusb.c **** TU_ATTR_WEAK void tusb_time_delay_ms_api(uint32_t ms) {
  60:SynaptiX_FDK/lib/tinyusb/src/tusb.c ****   osal_task_delay(ms);
  61:SynaptiX_FDK/lib/tinyusb/src/tusb.c **** }
  62:SynaptiX_FDK/lib/tinyusb/src/tusb.c **** 
  63:SynaptiX_FDK/lib/tinyusb/src/tusb.c **** #else
  64:SynaptiX_FDK/lib/tinyusb/src/tusb.c **** // tusb_time_millis_api() must be implemented by user application.
  65:SynaptiX_FDK/lib/tinyusb/src/tusb.c **** 
  66:SynaptiX_FDK/lib/tinyusb/src/tusb.c **** TU_ATTR_WEAK void tusb_time_delay_ms_api(uint32_t ms) {
  67:SynaptiX_FDK/lib/tinyusb/src/tusb.c ****   // delay using millis()
  68:SynaptiX_FDK/lib/tinyusb/src/tusb.c ****   const uint32_t time_ms = tusb_time_millis_api();
  69:SynaptiX_FDK/lib/tinyusb/src/tusb.c ****   while ((tusb_time_millis_api() - time_ms) < ms) {}
  70:SynaptiX_FDK/lib/tinyusb/src/tusb.c **** }
  71:SynaptiX_FDK/lib/tinyusb/src/tusb.c **** #endif
  72:SynaptiX_FDK/lib/tinyusb/src/tusb.c **** 
  73:SynaptiX_FDK/lib/tinyusb/src/tusb.c **** TU_ATTR_WEAK void *tusb_app_virt_to_phys(void *virt_addr) {
  74:SynaptiX_FDK/lib/tinyusb/src/tusb.c ****   return virt_addr;
  75:SynaptiX_FDK/lib/tinyusb/src/tusb.c **** }
  76:SynaptiX_FDK/lib/tinyusb/src/tusb.c **** 
  77:SynaptiX_FDK/lib/tinyusb/src/tusb.c **** TU_ATTR_WEAK void* tusb_app_phys_to_virt(void *phys_addr) {
  78:SynaptiX_FDK/lib/tinyusb/src/tusb.c ****   return phys_addr;
  79:SynaptiX_FDK/lib/tinyusb/src/tusb.c **** }
  80:SynaptiX_FDK/lib/tinyusb/src/tusb.c **** 
  81:SynaptiX_FDK/lib/tinyusb/src/tusb.c **** //--------------------------------------------------------------------+
  82:SynaptiX_FDK/lib/tinyusb/src/tusb.c **** // Public API
  83:SynaptiX_FDK/lib/tinyusb/src/tusb.c **** //--------------------------------------------------------------------+
  84:SynaptiX_FDK/lib/tinyusb/src/tusb.c **** bool tusb_rhport_init(uint8_t rhport, const tusb_rhport_init_t* rh_init) {
  85:SynaptiX_FDK/lib/tinyusb/src/tusb.c ****   //  backward compatible called with tusb_init(void)
  86:SynaptiX_FDK/lib/tinyusb/src/tusb.c ****   #if defined(TUD_OPT_RHPORT) || defined(TUH_OPT_RHPORT)
ARM GAS  C:\Users\LENOVO\AppData\Local\Temp\ccUTPkkl.s 			page 3


  87:SynaptiX_FDK/lib/tinyusb/src/tusb.c ****   if (rh_init == NULL) {
  88:SynaptiX_FDK/lib/tinyusb/src/tusb.c ****     #if CFG_TUD_ENABLED && defined(TUD_OPT_RHPORT)
  89:SynaptiX_FDK/lib/tinyusb/src/tusb.c ****     // init device stack CFG_TUSB_RHPORTx_MODE must be defined
  90:SynaptiX_FDK/lib/tinyusb/src/tusb.c ****     const tusb_rhport_init_t dev_init = {
  91:SynaptiX_FDK/lib/tinyusb/src/tusb.c ****       .role = TUSB_ROLE_DEVICE,
  92:SynaptiX_FDK/lib/tinyusb/src/tusb.c ****       .speed = TUD_OPT_HIGH_SPEED ? TUSB_SPEED_HIGH : TUSB_SPEED_FULL
  93:SynaptiX_FDK/lib/tinyusb/src/tusb.c ****     };
  94:SynaptiX_FDK/lib/tinyusb/src/tusb.c ****     TU_ASSERT ( tud_rhport_init(TUD_OPT_RHPORT, &dev_init) );
  95:SynaptiX_FDK/lib/tinyusb/src/tusb.c ****     _tusb_rhport_role[TUD_OPT_RHPORT] = TUSB_ROLE_DEVICE;
  96:SynaptiX_FDK/lib/tinyusb/src/tusb.c ****     #endif
  97:SynaptiX_FDK/lib/tinyusb/src/tusb.c **** 
  98:SynaptiX_FDK/lib/tinyusb/src/tusb.c ****     #if CFG_TUH_ENABLED && defined(TUH_OPT_RHPORT)
  99:SynaptiX_FDK/lib/tinyusb/src/tusb.c ****     // init host stack CFG_TUSB_RHPORTx_MODE must be defined
 100:SynaptiX_FDK/lib/tinyusb/src/tusb.c ****     const tusb_rhport_init_t host_init = {
 101:SynaptiX_FDK/lib/tinyusb/src/tusb.c ****       .role = TUSB_ROLE_HOST,
 102:SynaptiX_FDK/lib/tinyusb/src/tusb.c ****       .speed = TUH_OPT_HIGH_SPEED ? TUSB_SPEED_HIGH : TUSB_SPEED_FULL
 103:SynaptiX_FDK/lib/tinyusb/src/tusb.c ****     };
 104:SynaptiX_FDK/lib/tinyusb/src/tusb.c ****     TU_ASSERT( tuh_rhport_init(TUH_OPT_RHPORT, &host_init) );
 105:SynaptiX_FDK/lib/tinyusb/src/tusb.c ****     _tusb_rhport_role[TUH_OPT_RHPORT] = TUSB_ROLE_HOST;
 106:SynaptiX_FDK/lib/tinyusb/src/tusb.c ****     #endif
 107:SynaptiX_FDK/lib/tinyusb/src/tusb.c **** 
 108:SynaptiX_FDK/lib/tinyusb/src/tusb.c ****     return true;
 109:SynaptiX_FDK/lib/tinyusb/src/tusb.c ****   }
 110:SynaptiX_FDK/lib/tinyusb/src/tusb.c ****   #endif
 111:SynaptiX_FDK/lib/tinyusb/src/tusb.c **** 
 112:SynaptiX_FDK/lib/tinyusb/src/tusb.c ****   // new API with explicit rhport and role
 113:SynaptiX_FDK/lib/tinyusb/src/tusb.c ****   TU_ASSERT(rhport < TUP_USBIP_CONTROLLER_NUM && rh_init->role != TUSB_ROLE_INVALID);
 114:SynaptiX_FDK/lib/tinyusb/src/tusb.c ****   _tusb_rhport_role[rhport] = rh_init->role;
 115:SynaptiX_FDK/lib/tinyusb/src/tusb.c **** 
 116:SynaptiX_FDK/lib/tinyusb/src/tusb.c ****   #if CFG_TUD_ENABLED
 117:SynaptiX_FDK/lib/tinyusb/src/tusb.c ****   if (rh_init->role == TUSB_ROLE_DEVICE) {
 118:SynaptiX_FDK/lib/tinyusb/src/tusb.c ****     TU_ASSERT(tud_rhport_init(rhport, rh_init));
 119:SynaptiX_FDK/lib/tinyusb/src/tusb.c ****   }
 120:SynaptiX_FDK/lib/tinyusb/src/tusb.c ****   #endif
 121:SynaptiX_FDK/lib/tinyusb/src/tusb.c **** 
 122:SynaptiX_FDK/lib/tinyusb/src/tusb.c ****   #if CFG_TUH_ENABLED
 123:SynaptiX_FDK/lib/tinyusb/src/tusb.c ****   if (rh_init->role == TUSB_ROLE_HOST) {
 124:SynaptiX_FDK/lib/tinyusb/src/tusb.c ****     TU_ASSERT(tuh_rhport_init(rhport, rh_init));
 125:SynaptiX_FDK/lib/tinyusb/src/tusb.c ****   }
 126:SynaptiX_FDK/lib/tinyusb/src/tusb.c ****   #endif
 127:SynaptiX_FDK/lib/tinyusb/src/tusb.c **** 
 128:SynaptiX_FDK/lib/tinyusb/src/tusb.c ****   return true;
 129:SynaptiX_FDK/lib/tinyusb/src/tusb.c **** }
 130:SynaptiX_FDK/lib/tinyusb/src/tusb.c **** 
 131:SynaptiX_FDK/lib/tinyusb/src/tusb.c **** bool tusb_inited(void) {
 132:SynaptiX_FDK/lib/tinyusb/src/tusb.c ****   bool ret = false;
 133:SynaptiX_FDK/lib/tinyusb/src/tusb.c **** 
 134:SynaptiX_FDK/lib/tinyusb/src/tusb.c ****   #if CFG_TUD_ENABLED
 135:SynaptiX_FDK/lib/tinyusb/src/tusb.c ****   if (tud_inited()) {
 136:SynaptiX_FDK/lib/tinyusb/src/tusb.c ****     ret = true;
 137:SynaptiX_FDK/lib/tinyusb/src/tusb.c ****   }
 138:SynaptiX_FDK/lib/tinyusb/src/tusb.c ****   #endif
 139:SynaptiX_FDK/lib/tinyusb/src/tusb.c **** 
 140:SynaptiX_FDK/lib/tinyusb/src/tusb.c ****   #if CFG_TUH_ENABLED
 141:SynaptiX_FDK/lib/tinyusb/src/tusb.c ****   if (tuh_inited()) {
 142:SynaptiX_FDK/lib/tinyusb/src/tusb.c ****     ret = true;
 143:SynaptiX_FDK/lib/tinyusb/src/tusb.c ****   }
ARM GAS  C:\Users\LENOVO\AppData\Local\Temp\ccUTPkkl.s 			page 4


 144:SynaptiX_FDK/lib/tinyusb/src/tusb.c ****   #endif
 145:SynaptiX_FDK/lib/tinyusb/src/tusb.c **** 
 146:SynaptiX_FDK/lib/tinyusb/src/tusb.c ****   return ret;
 147:SynaptiX_FDK/lib/tinyusb/src/tusb.c **** }
 148:SynaptiX_FDK/lib/tinyusb/src/tusb.c **** 
 149:SynaptiX_FDK/lib/tinyusb/src/tusb.c **** void tusb_int_handler(uint8_t rhport, bool in_isr) {
 150:SynaptiX_FDK/lib/tinyusb/src/tusb.c ****   TU_VERIFY(rhport < TUP_USBIP_CONTROLLER_NUM,);
 151:SynaptiX_FDK/lib/tinyusb/src/tusb.c **** 
 152:SynaptiX_FDK/lib/tinyusb/src/tusb.c ****   #if CFG_TUD_ENABLED
 153:SynaptiX_FDK/lib/tinyusb/src/tusb.c ****   if (_tusb_rhport_role[rhport] == TUSB_ROLE_DEVICE) {
 154:SynaptiX_FDK/lib/tinyusb/src/tusb.c ****     (void) in_isr;
 155:SynaptiX_FDK/lib/tinyusb/src/tusb.c ****     dcd_int_handler(rhport);
 156:SynaptiX_FDK/lib/tinyusb/src/tusb.c ****   }
 157:SynaptiX_FDK/lib/tinyusb/src/tusb.c ****   #endif
 158:SynaptiX_FDK/lib/tinyusb/src/tusb.c **** 
 159:SynaptiX_FDK/lib/tinyusb/src/tusb.c ****   #if CFG_TUH_ENABLED
 160:SynaptiX_FDK/lib/tinyusb/src/tusb.c ****   if (_tusb_rhport_role[rhport] == TUSB_ROLE_HOST) {
 161:SynaptiX_FDK/lib/tinyusb/src/tusb.c ****     hcd_int_handler(rhport, in_isr);
 162:SynaptiX_FDK/lib/tinyusb/src/tusb.c ****   }
 163:SynaptiX_FDK/lib/tinyusb/src/tusb.c ****   #endif
 164:SynaptiX_FDK/lib/tinyusb/src/tusb.c **** }
 165:SynaptiX_FDK/lib/tinyusb/src/tusb.c **** 
 166:SynaptiX_FDK/lib/tinyusb/src/tusb.c **** bool tusb_deinit(uint8_t rhport) {
 167:SynaptiX_FDK/lib/tinyusb/src/tusb.c ****   TU_VERIFY(rhport < TUP_USBIP_CONTROLLER_NUM);
 168:SynaptiX_FDK/lib/tinyusb/src/tusb.c ****   bool ret = false;
 169:SynaptiX_FDK/lib/tinyusb/src/tusb.c **** 
 170:SynaptiX_FDK/lib/tinyusb/src/tusb.c ****   #if CFG_TUD_ENABLED
 171:SynaptiX_FDK/lib/tinyusb/src/tusb.c ****   if (_tusb_rhport_role[rhport] == TUSB_ROLE_DEVICE) {
 172:SynaptiX_FDK/lib/tinyusb/src/tusb.c ****     TU_ASSERT(tud_deinit(rhport));
 173:SynaptiX_FDK/lib/tinyusb/src/tusb.c ****     _tusb_rhport_role[rhport] = TUSB_ROLE_INVALID;
 174:SynaptiX_FDK/lib/tinyusb/src/tusb.c ****     ret = true;
 175:SynaptiX_FDK/lib/tinyusb/src/tusb.c ****   }
 176:SynaptiX_FDK/lib/tinyusb/src/tusb.c ****   #endif
 177:SynaptiX_FDK/lib/tinyusb/src/tusb.c **** 
 178:SynaptiX_FDK/lib/tinyusb/src/tusb.c ****   #if CFG_TUH_ENABLED
 179:SynaptiX_FDK/lib/tinyusb/src/tusb.c ****   if (_tusb_rhport_role[rhport] == TUSB_ROLE_HOST) {
 180:SynaptiX_FDK/lib/tinyusb/src/tusb.c ****     TU_ASSERT(tuh_deinit(rhport));
 181:SynaptiX_FDK/lib/tinyusb/src/tusb.c ****     _tusb_rhport_role[rhport] = TUSB_ROLE_INVALID;
 182:SynaptiX_FDK/lib/tinyusb/src/tusb.c ****     ret = true;
 183:SynaptiX_FDK/lib/tinyusb/src/tusb.c ****   }
 184:SynaptiX_FDK/lib/tinyusb/src/tusb.c ****   #endif
 185:SynaptiX_FDK/lib/tinyusb/src/tusb.c **** 
 186:SynaptiX_FDK/lib/tinyusb/src/tusb.c ****   return ret;
 187:SynaptiX_FDK/lib/tinyusb/src/tusb.c **** }
 188:SynaptiX_FDK/lib/tinyusb/src/tusb.c **** 
 189:SynaptiX_FDK/lib/tinyusb/src/tusb.c **** //--------------------------------------------------------------------+
 190:SynaptiX_FDK/lib/tinyusb/src/tusb.c **** // Descriptor helper
 191:SynaptiX_FDK/lib/tinyusb/src/tusb.c **** //--------------------------------------------------------------------+
 192:SynaptiX_FDK/lib/tinyusb/src/tusb.c **** 
 193:SynaptiX_FDK/lib/tinyusb/src/tusb.c **** uint8_t const* tu_desc_find(uint8_t const* desc, uint8_t const* end, uint8_t byte1) {
 194:SynaptiX_FDK/lib/tinyusb/src/tusb.c ****   while (desc + 1 < end) {
 195:SynaptiX_FDK/lib/tinyusb/src/tusb.c ****     if (desc[1] == byte1) {
 196:SynaptiX_FDK/lib/tinyusb/src/tusb.c ****       return desc;
 197:SynaptiX_FDK/lib/tinyusb/src/tusb.c ****     }
 198:SynaptiX_FDK/lib/tinyusb/src/tusb.c ****     desc += desc[DESC_OFFSET_LEN];
 199:SynaptiX_FDK/lib/tinyusb/src/tusb.c ****   }
 200:SynaptiX_FDK/lib/tinyusb/src/tusb.c ****   return NULL;
ARM GAS  C:\Users\LENOVO\AppData\Local\Temp\ccUTPkkl.s 			page 5


 201:SynaptiX_FDK/lib/tinyusb/src/tusb.c **** }
 202:SynaptiX_FDK/lib/tinyusb/src/tusb.c **** 
 203:SynaptiX_FDK/lib/tinyusb/src/tusb.c **** uint8_t const* tu_desc_find2(uint8_t const* desc, uint8_t const* end, uint8_t byte1, uint8_t byte2)
 204:SynaptiX_FDK/lib/tinyusb/src/tusb.c ****   while (desc + 2 < end) {
 205:SynaptiX_FDK/lib/tinyusb/src/tusb.c ****     if (desc[1] == byte1 && desc[2] == byte2) {
 206:SynaptiX_FDK/lib/tinyusb/src/tusb.c ****       return desc;
 207:SynaptiX_FDK/lib/tinyusb/src/tusb.c ****     }
 208:SynaptiX_FDK/lib/tinyusb/src/tusb.c ****     desc += desc[DESC_OFFSET_LEN];
 209:SynaptiX_FDK/lib/tinyusb/src/tusb.c ****   }
 210:SynaptiX_FDK/lib/tinyusb/src/tusb.c ****   return NULL;
 211:SynaptiX_FDK/lib/tinyusb/src/tusb.c **** }
 212:SynaptiX_FDK/lib/tinyusb/src/tusb.c **** 
 213:SynaptiX_FDK/lib/tinyusb/src/tusb.c **** uint8_t const* tu_desc_find3(uint8_t const* desc, uint8_t const* end, uint8_t byte1, uint8_t byte2,
 214:SynaptiX_FDK/lib/tinyusb/src/tusb.c ****   while (desc + 3 < end) {
 215:SynaptiX_FDK/lib/tinyusb/src/tusb.c ****     if (desc[1] == byte1 && desc[2] == byte2 && desc[3] == byte3) {
 216:SynaptiX_FDK/lib/tinyusb/src/tusb.c ****       return desc;
 217:SynaptiX_FDK/lib/tinyusb/src/tusb.c ****     }
 218:SynaptiX_FDK/lib/tinyusb/src/tusb.c ****     desc += desc[DESC_OFFSET_LEN];
 219:SynaptiX_FDK/lib/tinyusb/src/tusb.c ****   }
 220:SynaptiX_FDK/lib/tinyusb/src/tusb.c ****   return NULL;
 221:SynaptiX_FDK/lib/tinyusb/src/tusb.c **** }
 222:SynaptiX_FDK/lib/tinyusb/src/tusb.c **** 
 223:SynaptiX_FDK/lib/tinyusb/src/tusb.c **** //--------------------------------------------------------------------+
 224:SynaptiX_FDK/lib/tinyusb/src/tusb.c **** // Endpoint Helper for both Host and Device stack
 225:SynaptiX_FDK/lib/tinyusb/src/tusb.c **** //--------------------------------------------------------------------+
 226:SynaptiX_FDK/lib/tinyusb/src/tusb.c **** 
 227:SynaptiX_FDK/lib/tinyusb/src/tusb.c **** bool tu_edpt_claim(tu_edpt_state_t* ep_state, osal_mutex_t mutex) {
 228:SynaptiX_FDK/lib/tinyusb/src/tusb.c ****   (void) mutex;
 229:SynaptiX_FDK/lib/tinyusb/src/tusb.c **** 
 230:SynaptiX_FDK/lib/tinyusb/src/tusb.c ****   // pre-check to help reducing mutex lock
 231:SynaptiX_FDK/lib/tinyusb/src/tusb.c ****   TU_VERIFY(ep_state->busy == 0);
 232:SynaptiX_FDK/lib/tinyusb/src/tusb.c ****   TU_VERIFY(ep_state->claimed == 0);
 233:SynaptiX_FDK/lib/tinyusb/src/tusb.c ****   (void) osal_mutex_lock(mutex, OSAL_TIMEOUT_WAIT_FOREVER);
 234:SynaptiX_FDK/lib/tinyusb/src/tusb.c **** 
 235:SynaptiX_FDK/lib/tinyusb/src/tusb.c ****   // can only claim the endpoint if it is not busy and not claimed yet.
 236:SynaptiX_FDK/lib/tinyusb/src/tusb.c ****   bool const available = (ep_state->busy == 0) && (ep_state->claimed == 0);
 237:SynaptiX_FDK/lib/tinyusb/src/tusb.c ****   if (available) {
 238:SynaptiX_FDK/lib/tinyusb/src/tusb.c ****     ep_state->claimed = 1;
 239:SynaptiX_FDK/lib/tinyusb/src/tusb.c ****   }
 240:SynaptiX_FDK/lib/tinyusb/src/tusb.c **** 
 241:SynaptiX_FDK/lib/tinyusb/src/tusb.c ****   (void) osal_mutex_unlock(mutex);
 242:SynaptiX_FDK/lib/tinyusb/src/tusb.c ****   return available;
 243:SynaptiX_FDK/lib/tinyusb/src/tusb.c **** }
 244:SynaptiX_FDK/lib/tinyusb/src/tusb.c **** 
 245:SynaptiX_FDK/lib/tinyusb/src/tusb.c **** bool tu_edpt_release(tu_edpt_state_t* ep_state, osal_mutex_t mutex) {
 246:SynaptiX_FDK/lib/tinyusb/src/tusb.c ****   (void) mutex;
 247:SynaptiX_FDK/lib/tinyusb/src/tusb.c ****   (void) osal_mutex_lock(mutex, OSAL_TIMEOUT_WAIT_FOREVER);
 248:SynaptiX_FDK/lib/tinyusb/src/tusb.c **** 
 249:SynaptiX_FDK/lib/tinyusb/src/tusb.c ****   // can only release the endpoint if it is claimed and not busy
 250:SynaptiX_FDK/lib/tinyusb/src/tusb.c ****   bool const ret = (ep_state->claimed == 1) && (ep_state->busy == 0);
 251:SynaptiX_FDK/lib/tinyusb/src/tusb.c ****   if (ret) {
 252:SynaptiX_FDK/lib/tinyusb/src/tusb.c ****     ep_state->claimed = 0;
 253:SynaptiX_FDK/lib/tinyusb/src/tusb.c ****   }
 254:SynaptiX_FDK/lib/tinyusb/src/tusb.c **** 
 255:SynaptiX_FDK/lib/tinyusb/src/tusb.c ****   (void) osal_mutex_unlock(mutex);
 256:SynaptiX_FDK/lib/tinyusb/src/tusb.c ****   return ret;
 257:SynaptiX_FDK/lib/tinyusb/src/tusb.c **** }
ARM GAS  C:\Users\LENOVO\AppData\Local\Temp\ccUTPkkl.s 			page 6


 258:SynaptiX_FDK/lib/tinyusb/src/tusb.c **** 
 259:SynaptiX_FDK/lib/tinyusb/src/tusb.c **** #if CFG_TUSB_DEBUG
 260:SynaptiX_FDK/lib/tinyusb/src/tusb.c **** bool tu_edpt_validate(const tusb_desc_endpoint_t *desc_ep, tusb_speed_t speed) {
 261:SynaptiX_FDK/lib/tinyusb/src/tusb.c ****   const uint16_t max_packet_size = tu_edpt_packet_size(desc_ep);
 262:SynaptiX_FDK/lib/tinyusb/src/tusb.c ****   TU_LOG2("  Open EP %02X with Size = %u\r\n", desc_ep->bEndpointAddress, max_packet_size);
 263:SynaptiX_FDK/lib/tinyusb/src/tusb.c ****   TU_ASSERT(max_packet_size > 0);
 264:SynaptiX_FDK/lib/tinyusb/src/tusb.c **** 
 265:SynaptiX_FDK/lib/tinyusb/src/tusb.c ****   switch (desc_ep->bmAttributes.xfer) {
 266:SynaptiX_FDK/lib/tinyusb/src/tusb.c ****     case TUSB_XFER_ISOCHRONOUS: {
 267:SynaptiX_FDK/lib/tinyusb/src/tusb.c ****       const uint16_t spec_size = (speed == TUSB_SPEED_HIGH ? 1024 : 1023);
 268:SynaptiX_FDK/lib/tinyusb/src/tusb.c ****       TU_ASSERT(max_packet_size <= spec_size);
 269:SynaptiX_FDK/lib/tinyusb/src/tusb.c ****       break;
 270:SynaptiX_FDK/lib/tinyusb/src/tusb.c ****     }
 271:SynaptiX_FDK/lib/tinyusb/src/tusb.c **** 
 272:SynaptiX_FDK/lib/tinyusb/src/tusb.c ****     case TUSB_XFER_BULK:
 273:SynaptiX_FDK/lib/tinyusb/src/tusb.c ****       if (speed == TUSB_SPEED_HIGH) {
 274:SynaptiX_FDK/lib/tinyusb/src/tusb.c ****         // Bulk highspeed must be EXACTLY 512
 275:SynaptiX_FDK/lib/tinyusb/src/tusb.c ****         TU_ASSERT(max_packet_size == 512);
 276:SynaptiX_FDK/lib/tinyusb/src/tusb.c ****       } else {
 277:SynaptiX_FDK/lib/tinyusb/src/tusb.c ****         // Bulk fullspeed can only be 8, 16, 32, 64
 278:SynaptiX_FDK/lib/tinyusb/src/tusb.c ****         TU_ASSERT(max_packet_size == 8 || max_packet_size == 16 || max_packet_size == 32 || max_pac
 279:SynaptiX_FDK/lib/tinyusb/src/tusb.c ****       }
 280:SynaptiX_FDK/lib/tinyusb/src/tusb.c ****       break;
 281:SynaptiX_FDK/lib/tinyusb/src/tusb.c **** 
 282:SynaptiX_FDK/lib/tinyusb/src/tusb.c ****     case TUSB_XFER_INTERRUPT: {
 283:SynaptiX_FDK/lib/tinyusb/src/tusb.c ****       const uint16_t spec_size = (speed == TUSB_SPEED_HIGH ? 1024 : 64);
 284:SynaptiX_FDK/lib/tinyusb/src/tusb.c ****       TU_ASSERT(max_packet_size <= spec_size);
 285:SynaptiX_FDK/lib/tinyusb/src/tusb.c ****       break;
 286:SynaptiX_FDK/lib/tinyusb/src/tusb.c ****     }
 287:SynaptiX_FDK/lib/tinyusb/src/tusb.c **** 
 288:SynaptiX_FDK/lib/tinyusb/src/tusb.c ****     default:
 289:SynaptiX_FDK/lib/tinyusb/src/tusb.c ****       return false;
 290:SynaptiX_FDK/lib/tinyusb/src/tusb.c ****   }
 291:SynaptiX_FDK/lib/tinyusb/src/tusb.c **** 
 292:SynaptiX_FDK/lib/tinyusb/src/tusb.c ****   return true;
 293:SynaptiX_FDK/lib/tinyusb/src/tusb.c **** }
 294:SynaptiX_FDK/lib/tinyusb/src/tusb.c **** #endif
 295:SynaptiX_FDK/lib/tinyusb/src/tusb.c **** 
 296:SynaptiX_FDK/lib/tinyusb/src/tusb.c **** bool tu_bind_driver_to_ep_itf(uint8_t driver_id, uint8_t ep2drv[][2], uint8_t itf2drv[], uint8_t it
 297:SynaptiX_FDK/lib/tinyusb/src/tusb.c ****                               const uint8_t *p_desc, uint16_t desc_len) {
 298:SynaptiX_FDK/lib/tinyusb/src/tusb.c ****   const uint8_t *desc_end = p_desc + desc_len;
 299:SynaptiX_FDK/lib/tinyusb/src/tusb.c ****   while (tu_desc_in_bounds(p_desc, desc_end)) {
 300:SynaptiX_FDK/lib/tinyusb/src/tusb.c ****     const uint8_t desc_type = tu_desc_type(p_desc);
 301:SynaptiX_FDK/lib/tinyusb/src/tusb.c **** 
 302:SynaptiX_FDK/lib/tinyusb/src/tusb.c ****     if (desc_type == TUSB_DESC_ENDPOINT) {
 303:SynaptiX_FDK/lib/tinyusb/src/tusb.c ****       const uint8_t ep_addr  = ((const tusb_desc_endpoint_t *)p_desc)->bEndpointAddress;
 304:SynaptiX_FDK/lib/tinyusb/src/tusb.c ****       const uint8_t ep_num   = tu_edpt_number(ep_addr);
 305:SynaptiX_FDK/lib/tinyusb/src/tusb.c ****       const uint8_t ep_dir   = tu_edpt_dir(ep_addr);
 306:SynaptiX_FDK/lib/tinyusb/src/tusb.c ****       ep2drv[ep_num][ep_dir] = driver_id;
 307:SynaptiX_FDK/lib/tinyusb/src/tusb.c ****     } else if (desc_type == TUSB_DESC_INTERFACE) {
 308:SynaptiX_FDK/lib/tinyusb/src/tusb.c ****       const tusb_desc_interface_t *desc_itf = (const tusb_desc_interface_t *)p_desc;
 309:SynaptiX_FDK/lib/tinyusb/src/tusb.c ****       if (desc_itf->bAlternateSetting == 0) {
 310:SynaptiX_FDK/lib/tinyusb/src/tusb.c ****         TU_ASSERT(desc_itf->bInterfaceNumber < itf_max);
 311:SynaptiX_FDK/lib/tinyusb/src/tusb.c ****         itf2drv[desc_itf->bInterfaceNumber] = driver_id;
 312:SynaptiX_FDK/lib/tinyusb/src/tusb.c ****       }
 313:SynaptiX_FDK/lib/tinyusb/src/tusb.c ****     }
 314:SynaptiX_FDK/lib/tinyusb/src/tusb.c **** 
ARM GAS  C:\Users\LENOVO\AppData\Local\Temp\ccUTPkkl.s 			page 7


 315:SynaptiX_FDK/lib/tinyusb/src/tusb.c ****     p_desc = tu_desc_next(p_desc);
 316:SynaptiX_FDK/lib/tinyusb/src/tusb.c ****   }
 317:SynaptiX_FDK/lib/tinyusb/src/tusb.c ****   return true;
 318:SynaptiX_FDK/lib/tinyusb/src/tusb.c **** }
 319:SynaptiX_FDK/lib/tinyusb/src/tusb.c **** 
 320:SynaptiX_FDK/lib/tinyusb/src/tusb.c **** //--------------------------------------------------------------------+
 321:SynaptiX_FDK/lib/tinyusb/src/tusb.c **** // Endpoint Stream Helper for both Host and Device stack
 322:SynaptiX_FDK/lib/tinyusb/src/tusb.c **** //--------------------------------------------------------------------+
 323:SynaptiX_FDK/lib/tinyusb/src/tusb.c **** 
 324:SynaptiX_FDK/lib/tinyusb/src/tusb.c **** bool tu_edpt_stream_init(tu_edpt_stream_t *s, bool is_host, bool is_tx, bool overwritable, void *ff
 325:SynaptiX_FDK/lib/tinyusb/src/tusb.c ****                          uint16_t ff_bufsize, uint8_t *ep_buf) {
 326:SynaptiX_FDK/lib/tinyusb/src/tusb.c ****   (void) is_tx;
 327:SynaptiX_FDK/lib/tinyusb/src/tusb.c **** 
 328:SynaptiX_FDK/lib/tinyusb/src/tusb.c ****   if (ff_buf == NULL || ff_bufsize == 0) {
 329:SynaptiX_FDK/lib/tinyusb/src/tusb.c ****     return false;
 330:SynaptiX_FDK/lib/tinyusb/src/tusb.c ****   }
 331:SynaptiX_FDK/lib/tinyusb/src/tusb.c **** 
 332:SynaptiX_FDK/lib/tinyusb/src/tusb.c ****   s->is_host = is_host;
 333:SynaptiX_FDK/lib/tinyusb/src/tusb.c ****   tu_fifo_config(&s->ff, ff_buf, ff_bufsize, overwritable);
 334:SynaptiX_FDK/lib/tinyusb/src/tusb.c **** 
 335:SynaptiX_FDK/lib/tinyusb/src/tusb.c ****   #if OSAL_MUTEX_REQUIRED
 336:SynaptiX_FDK/lib/tinyusb/src/tusb.c ****   if (ff_buf != NULL && ff_bufsize > 0) {
 337:SynaptiX_FDK/lib/tinyusb/src/tusb.c ****     osal_mutex_t new_mutex = osal_mutex_create(&s->ff_mutexdef);
 338:SynaptiX_FDK/lib/tinyusb/src/tusb.c ****     tu_fifo_config_mutex(&s->ff, is_tx ? new_mutex : NULL, is_tx ? NULL : new_mutex);
 339:SynaptiX_FDK/lib/tinyusb/src/tusb.c ****   }
 340:SynaptiX_FDK/lib/tinyusb/src/tusb.c ****   #endif
 341:SynaptiX_FDK/lib/tinyusb/src/tusb.c **** 
 342:SynaptiX_FDK/lib/tinyusb/src/tusb.c ****   s->ep_buf = ep_buf;
 343:SynaptiX_FDK/lib/tinyusb/src/tusb.c **** 
 344:SynaptiX_FDK/lib/tinyusb/src/tusb.c ****   return true;
 345:SynaptiX_FDK/lib/tinyusb/src/tusb.c **** }
 346:SynaptiX_FDK/lib/tinyusb/src/tusb.c **** 
 347:SynaptiX_FDK/lib/tinyusb/src/tusb.c **** static bool stream_claim(tu_edpt_stream_t *s) {
  30              		.loc 1 347 47 view -0
  31              		.cfi_startproc
  32              		@ args = 0, pretend = 0, frame = 0
  33              		@ frame_needed = 0, uses_anonymous_args = 0
 348:SynaptiX_FDK/lib/tinyusb/src/tusb.c ****   TU_VERIFY(s->ep_addr != 0); // must be opened
  34              		.loc 1 348 3 view .LVU1
  35              		.loc 1 348 3 view .LVU2
  36 0000 8178     		ldrb	r1, [r0, #2]	@ zero_extendqisi2
  37 0002 41B1     		cbz	r1, .L3
 347:SynaptiX_FDK/lib/tinyusb/src/tusb.c ****   TU_VERIFY(s->ep_addr != 0); // must be opened
  38              		.loc 1 347 47 is_stmt 0 view .LVU3
  39 0004 08B5     		push	{r3, lr}
  40              	.LCFI0:
  41              		.cfi_def_cfa_offset 8
  42              		.cfi_offset 3, -8
  43              		.cfi_offset 14, -4
  44              		.loc 1 348 3 is_stmt 1 discriminator 2 view .LVU4
 349:SynaptiX_FDK/lib/tinyusb/src/tusb.c ****   if (s->is_host) {
  45              		.loc 1 349 3 view .LVU5
  46              		.loc 1 349 8 is_stmt 0 view .LVU6
  47 0006 4378     		ldrb	r3, [r0, #1]	@ zero_extendqisi2
  48              		.loc 1 349 6 view .LVU7
  49 0008 0BB1     		cbz	r3, .L9
 350:SynaptiX_FDK/lib/tinyusb/src/tusb.c ****     #if CFG_TUH_ENABLED
ARM GAS  C:\Users\LENOVO\AppData\Local\Temp\ccUTPkkl.s 			page 8


 351:SynaptiX_FDK/lib/tinyusb/src/tusb.c ****     return usbh_edpt_claim(s->hwid, s->ep_addr);
 352:SynaptiX_FDK/lib/tinyusb/src/tusb.c ****   #endif
 353:SynaptiX_FDK/lib/tinyusb/src/tusb.c ****   } else {
 354:SynaptiX_FDK/lib/tinyusb/src/tusb.c ****     #if CFG_TUD_ENABLED
 355:SynaptiX_FDK/lib/tinyusb/src/tusb.c ****     return usbd_edpt_claim(s->hwid, s->ep_addr);
 356:SynaptiX_FDK/lib/tinyusb/src/tusb.c ****   #endif
 357:SynaptiX_FDK/lib/tinyusb/src/tusb.c ****   }
 358:SynaptiX_FDK/lib/tinyusb/src/tusb.c ****   return false;
  50              		.loc 1 358 10 view .LVU8
  51 000a 0020     		movs	r0, #0
  52              	.LVL1:
  53              	.L2:
 359:SynaptiX_FDK/lib/tinyusb/src/tusb.c **** }
  54              		.loc 1 359 1 view .LVU9
  55 000c 08BD     		pop	{r3, pc}
  56              	.LVL2:
  57              	.L9:
 355:SynaptiX_FDK/lib/tinyusb/src/tusb.c ****   #endif
  58              		.loc 1 355 5 is_stmt 1 view .LVU10
 355:SynaptiX_FDK/lib/tinyusb/src/tusb.c ****   #endif
  59              		.loc 1 355 12 is_stmt 0 view .LVU11
  60 000e 0078     		ldrb	r0, [r0]	@ zero_extendqisi2
  61              	.LVL3:
 355:SynaptiX_FDK/lib/tinyusb/src/tusb.c ****   #endif
  62              		.loc 1 355 12 view .LVU12
  63 0010 FFF7FEFF 		bl	usbd_edpt_claim
  64              	.LVL4:
  65 0014 FAE7     		b	.L2
  66              	.LVL5:
  67              	.L3:
  68              	.LCFI1:
  69              		.cfi_def_cfa_offset 0
  70              		.cfi_restore 3
  71              		.cfi_restore 14
 348:SynaptiX_FDK/lib/tinyusb/src/tusb.c ****   if (s->is_host) {
  72              		.loc 1 348 3 discriminator 1 view .LVU13
  73 0016 0020     		movs	r0, #0
  74              	.LVL6:
  75              		.loc 1 359 1 view .LVU14
  76 0018 7047     		bx	lr
  77              		.cfi_endproc
  78              	.LFE664:
  80              		.section	.text.stream_xfer,"ax",%progbits
  81              		.align	1
  82              		.syntax unified
  83              		.thumb
  84              		.thumb_func
  86              	stream_xfer:
  87              	.LVL7:
  88              	.LFB665:
 360:SynaptiX_FDK/lib/tinyusb/src/tusb.c **** 
 361:SynaptiX_FDK/lib/tinyusb/src/tusb.c **** static bool stream_xfer(tu_edpt_stream_t *s, uint16_t count) {
  89              		.loc 1 361 62 is_stmt 1 view -0
  90              		.cfi_startproc
  91              		@ args = 0, pretend = 0, frame = 0
  92              		@ frame_needed = 0, uses_anonymous_args = 0
 362:SynaptiX_FDK/lib/tinyusb/src/tusb.c ****   if (s->is_host) {
ARM GAS  C:\Users\LENOVO\AppData\Local\Temp\ccUTPkkl.s 			page 9


  93              		.loc 1 362 3 view .LVU16
  94              		.loc 1 362 8 is_stmt 0 view .LVU17
  95 0000 4278     		ldrb	r2, [r0, #1]	@ zero_extendqisi2
  96              		.loc 1 362 6 view .LVU18
  97 0002 C2B9     		cbnz	r2, .L14
 361:SynaptiX_FDK/lib/tinyusb/src/tusb.c ****   if (s->is_host) {
  98              		.loc 1 361 62 view .LVU19
  99 0004 10B5     		push	{r4, lr}
 100              	.LCFI2:
 101              		.cfi_def_cfa_offset 8
 102              		.cfi_offset 4, -8
 103              		.cfi_offset 14, -4
 104 0006 82B0     		sub	sp, sp, #8
 105              	.LCFI3:
 106              		.cfi_def_cfa_offset 16
 107 0008 8446     		mov	ip, r0
 108 000a 0B46     		mov	r3, r1
 363:SynaptiX_FDK/lib/tinyusb/src/tusb.c ****     #if CFG_TUH_ENABLED
 364:SynaptiX_FDK/lib/tinyusb/src/tusb.c ****     return usbh_edpt_xfer(s->hwid, s->ep_addr, count ? s->ep_buf : NULL, count);
 365:SynaptiX_FDK/lib/tinyusb/src/tusb.c ****   #endif
 366:SynaptiX_FDK/lib/tinyusb/src/tusb.c ****   } else {
 367:SynaptiX_FDK/lib/tinyusb/src/tusb.c ****     #if CFG_TUD_ENABLED
 368:SynaptiX_FDK/lib/tinyusb/src/tusb.c ****     if (s->ep_buf == NULL) {
 109              		.loc 1 368 5 is_stmt 1 view .LVU20
 110              		.loc 1 368 10 is_stmt 0 view .LVU21
 111 000c 8268     		ldr	r2, [r0, #8]
 112              		.loc 1 368 8 view .LVU22
 113 000e 52B1     		cbz	r2, .L19
 369:SynaptiX_FDK/lib/tinyusb/src/tusb.c ****       return usbd_edpt_xfer_fifo(s->hwid, s->ep_addr, &s->ff, count, false);
 370:SynaptiX_FDK/lib/tinyusb/src/tusb.c ****     } else {
 371:SynaptiX_FDK/lib/tinyusb/src/tusb.c ****       return usbd_edpt_xfer(s->hwid, s->ep_addr, count ? s->ep_buf : NULL, count, false);
 114              		.loc 1 371 7 is_stmt 1 view .LVU23
 115              		.loc 1 371 14 is_stmt 0 view .LVU24
 116 0010 0078     		ldrb	r0, [r0]	@ zero_extendqisi2
 117              	.LVL8:
 118              		.loc 1 371 14 view .LVU25
 119 0012 9CF80210 		ldrb	r1, [ip, #2]	@ zero_extendqisi2
 120              	.LVL9:
 121              		.loc 1 371 14 view .LVU26
 122 0016 03B9     		cbnz	r3, .L13
 123              		.loc 1 371 14 discriminator 2 view .LVU27
 124 0018 0022     		movs	r2, #0
 125              	.L13:
 126              		.loc 1 371 14 discriminator 4 view .LVU28
 127 001a 0024     		movs	r4, #0
 128 001c 0094     		str	r4, [sp]
 129 001e FFF7FEFF 		bl	usbd_edpt_xfer
 130              	.LVL10:
 131              	.L11:
 372:SynaptiX_FDK/lib/tinyusb/src/tusb.c ****     }
 373:SynaptiX_FDK/lib/tinyusb/src/tusb.c ****   #endif
 374:SynaptiX_FDK/lib/tinyusb/src/tusb.c ****   }
 375:SynaptiX_FDK/lib/tinyusb/src/tusb.c ****   return false;
 376:SynaptiX_FDK/lib/tinyusb/src/tusb.c **** }
 132              		.loc 1 376 1 view .LVU29
 133 0022 02B0     		add	sp, sp, #8
 134              	.LCFI4:
ARM GAS  C:\Users\LENOVO\AppData\Local\Temp\ccUTPkkl.s 			page 10


 135              		.cfi_remember_state
 136              		.cfi_def_cfa_offset 8
 137              		@ sp needed
 138 0024 10BD     		pop	{r4, pc}
 139              	.LVL11:
 140              	.L19:
 141              	.LCFI5:
 142              		.cfi_restore_state
 369:SynaptiX_FDK/lib/tinyusb/src/tusb.c ****       return usbd_edpt_xfer_fifo(s->hwid, s->ep_addr, &s->ff, count, false);
 143              		.loc 1 369 7 is_stmt 1 view .LVU30
 369:SynaptiX_FDK/lib/tinyusb/src/tusb.c ****       return usbd_edpt_xfer_fifo(s->hwid, s->ep_addr, &s->ff, count, false);
 144              		.loc 1 369 14 is_stmt 0 view .LVU31
 145 0026 0092     		str	r2, [sp]
 146 0028 00F10C02 		add	r2, r0, #12
 147 002c 8178     		ldrb	r1, [r0, #2]	@ zero_extendqisi2
 148              	.LVL12:
 369:SynaptiX_FDK/lib/tinyusb/src/tusb.c ****       return usbd_edpt_xfer_fifo(s->hwid, s->ep_addr, &s->ff, count, false);
 149              		.loc 1 369 14 view .LVU32
 150 002e 0078     		ldrb	r0, [r0]	@ zero_extendqisi2
 151              	.LVL13:
 369:SynaptiX_FDK/lib/tinyusb/src/tusb.c ****       return usbd_edpt_xfer_fifo(s->hwid, s->ep_addr, &s->ff, count, false);
 152              		.loc 1 369 14 view .LVU33
 153 0030 FFF7FEFF 		bl	usbd_edpt_xfer_fifo
 154              	.LVL14:
 369:SynaptiX_FDK/lib/tinyusb/src/tusb.c ****       return usbd_edpt_xfer_fifo(s->hwid, s->ep_addr, &s->ff, count, false);
 155              		.loc 1 369 14 view .LVU34
 156 0034 F5E7     		b	.L11
 157              	.LVL15:
 158              	.L14:
 159              	.LCFI6:
 160              		.cfi_def_cfa_offset 0
 161              		.cfi_restore 4
 162              		.cfi_restore 14
 375:SynaptiX_FDK/lib/tinyusb/src/tusb.c **** }
 163              		.loc 1 375 10 view .LVU35
 164 0036 0020     		movs	r0, #0
 165              	.LVL16:
 166              		.loc 1 376 1 view .LVU36
 167 0038 7047     		bx	lr
 168              		.cfi_endproc
 169              	.LFE665:
 171              		.section	.text.stream_release,"ax",%progbits
 172              		.align	1
 173              		.syntax unified
 174              		.thumb
 175              		.thumb_func
 177              	stream_release:
 178              	.LVL17:
 179              	.LFB666:
 377:SynaptiX_FDK/lib/tinyusb/src/tusb.c **** 
 378:SynaptiX_FDK/lib/tinyusb/src/tusb.c **** static bool stream_release(tu_edpt_stream_t *s) {
 180              		.loc 1 378 49 is_stmt 1 view -0
 181              		.cfi_startproc
 182              		@ args = 0, pretend = 0, frame = 0
 183              		@ frame_needed = 0, uses_anonymous_args = 0
 184              		.loc 1 378 49 is_stmt 0 view .LVU38
 185 0000 08B5     		push	{r3, lr}
ARM GAS  C:\Users\LENOVO\AppData\Local\Temp\ccUTPkkl.s 			page 11


 186              	.LCFI7:
 187              		.cfi_def_cfa_offset 8
 188              		.cfi_offset 3, -8
 189              		.cfi_offset 14, -4
 379:SynaptiX_FDK/lib/tinyusb/src/tusb.c ****   if (s->is_host) {
 190              		.loc 1 379 3 is_stmt 1 view .LVU39
 191              		.loc 1 379 8 is_stmt 0 view .LVU40
 192 0002 4378     		ldrb	r3, [r0, #1]	@ zero_extendqisi2
 193              		.loc 1 379 6 view .LVU41
 194 0004 0BB1     		cbz	r3, .L24
 380:SynaptiX_FDK/lib/tinyusb/src/tusb.c ****     #if CFG_TUH_ENABLED
 381:SynaptiX_FDK/lib/tinyusb/src/tusb.c ****     return usbh_edpt_release(s->hwid, s->ep_addr);
 382:SynaptiX_FDK/lib/tinyusb/src/tusb.c ****   #endif
 383:SynaptiX_FDK/lib/tinyusb/src/tusb.c ****   } else {
 384:SynaptiX_FDK/lib/tinyusb/src/tusb.c ****     #if CFG_TUD_ENABLED
 385:SynaptiX_FDK/lib/tinyusb/src/tusb.c ****     return usbd_edpt_release(s->hwid, s->ep_addr);
 386:SynaptiX_FDK/lib/tinyusb/src/tusb.c ****   #endif
 387:SynaptiX_FDK/lib/tinyusb/src/tusb.c ****   }
 388:SynaptiX_FDK/lib/tinyusb/src/tusb.c ****   return false;
 195              		.loc 1 388 10 view .LVU42
 196 0006 0020     		movs	r0, #0
 197              	.LVL18:
 198              	.L21:
 389:SynaptiX_FDK/lib/tinyusb/src/tusb.c **** }
 199              		.loc 1 389 1 view .LVU43
 200 0008 08BD     		pop	{r3, pc}
 201              	.LVL19:
 202              	.L24:
 385:SynaptiX_FDK/lib/tinyusb/src/tusb.c ****   #endif
 203              		.loc 1 385 5 is_stmt 1 view .LVU44
 385:SynaptiX_FDK/lib/tinyusb/src/tusb.c ****   #endif
 204              		.loc 1 385 12 is_stmt 0 view .LVU45
 205 000a 8178     		ldrb	r1, [r0, #2]	@ zero_extendqisi2
 206 000c 0078     		ldrb	r0, [r0]	@ zero_extendqisi2
 207              	.LVL20:
 385:SynaptiX_FDK/lib/tinyusb/src/tusb.c ****   #endif
 208              		.loc 1 385 12 view .LVU46
 209 000e FFF7FEFF 		bl	usbd_edpt_release
 210              	.LVL21:
 211 0012 F9E7     		b	.L21
 212              		.cfi_endproc
 213              	.LFE666:
 215              		.section	.text.tusb_time_delay_ms_api,"ax",%progbits
 216              		.align	1
 217              		.weak	tusb_time_delay_ms_api
 218              		.syntax unified
 219              		.thumb
 220              		.thumb_func
 222              	tusb_time_delay_ms_api:
 223              	.LVL22:
 224              	.LFB650:
  66:SynaptiX_FDK/lib/tinyusb/src/tusb.c ****   // delay using millis()
 225              		.loc 1 66 55 is_stmt 1 view -0
 226              		.cfi_startproc
 227              		@ args = 0, pretend = 0, frame = 0
 228              		@ frame_needed = 0, uses_anonymous_args = 0
  66:SynaptiX_FDK/lib/tinyusb/src/tusb.c ****   // delay using millis()
ARM GAS  C:\Users\LENOVO\AppData\Local\Temp\ccUTPkkl.s 			page 12


 229              		.loc 1 66 55 is_stmt 0 view .LVU48
 230 0000 38B5     		push	{r3, r4, r5, lr}
 231              	.LCFI8:
 232              		.cfi_def_cfa_offset 16
 233              		.cfi_offset 3, -16
 234              		.cfi_offset 4, -12
 235              		.cfi_offset 5, -8
 236              		.cfi_offset 14, -4
 237 0002 0546     		mov	r5, r0
  68:SynaptiX_FDK/lib/tinyusb/src/tusb.c ****   while ((tusb_time_millis_api() - time_ms) < ms) {}
 238              		.loc 1 68 3 is_stmt 1 view .LVU49
  68:SynaptiX_FDK/lib/tinyusb/src/tusb.c ****   while ((tusb_time_millis_api() - time_ms) < ms) {}
 239              		.loc 1 68 28 is_stmt 0 view .LVU50
 240 0004 FFF7FEFF 		bl	tusb_time_millis_api
 241              	.LVL23:
  68:SynaptiX_FDK/lib/tinyusb/src/tusb.c ****   while ((tusb_time_millis_api() - time_ms) < ms) {}
 242              		.loc 1 68 28 view .LVU51
 243 0008 0446     		mov	r4, r0
 244              	.LVL24:
  69:SynaptiX_FDK/lib/tinyusb/src/tusb.c **** }
 245              		.loc 1 69 3 is_stmt 1 view .LVU52
 246              	.L26:
  69:SynaptiX_FDK/lib/tinyusb/src/tusb.c **** }
 247              		.loc 1 69 52 discriminator 1 view .LVU53
  69:SynaptiX_FDK/lib/tinyusb/src/tusb.c **** }
 248              		.loc 1 69 45 discriminator 1 view .LVU54
  69:SynaptiX_FDK/lib/tinyusb/src/tusb.c **** }
 249              		.loc 1 69 11 is_stmt 0 discriminator 1 view .LVU55
 250 000a FFF7FEFF 		bl	tusb_time_millis_api
 251              	.LVL25:
  69:SynaptiX_FDK/lib/tinyusb/src/tusb.c **** }
 252              		.loc 1 69 34 discriminator 1 view .LVU56
 253 000e 001B     		subs	r0, r0, r4
  69:SynaptiX_FDK/lib/tinyusb/src/tusb.c **** }
 254              		.loc 1 69 45 discriminator 1 view .LVU57
 255 0010 A842     		cmp	r0, r5
 256 0012 FAD3     		bcc	.L26
  70:SynaptiX_FDK/lib/tinyusb/src/tusb.c **** #endif
 257              		.loc 1 70 1 view .LVU58
 258 0014 38BD     		pop	{r3, r4, r5, pc}
  70:SynaptiX_FDK/lib/tinyusb/src/tusb.c **** #endif
 259              		.loc 1 70 1 view .LVU59
 260              		.cfi_endproc
 261              	.LFE650:
 263              		.section	.text.tusb_app_virt_to_phys,"ax",%progbits
 264              		.align	1
 265              		.weak	tusb_app_virt_to_phys
 266              		.syntax unified
 267              		.thumb
 268              		.thumb_func
 270              	tusb_app_virt_to_phys:
 271              	.LVL26:
 272              	.LFB651:
  73:SynaptiX_FDK/lib/tinyusb/src/tusb.c ****   return virt_addr;
 273              		.loc 1 73 59 is_stmt 1 view -0
 274              		.cfi_startproc
 275              		@ args = 0, pretend = 0, frame = 0
ARM GAS  C:\Users\LENOVO\AppData\Local\Temp\ccUTPkkl.s 			page 13


 276              		@ frame_needed = 0, uses_anonymous_args = 0
 277              		@ link register save eliminated.
  74:SynaptiX_FDK/lib/tinyusb/src/tusb.c **** }
 278              		.loc 1 74 3 view .LVU61
  75:SynaptiX_FDK/lib/tinyusb/src/tusb.c **** 
 279              		.loc 1 75 1 is_stmt 0 view .LVU62
 280 0000 7047     		bx	lr
 281              		.cfi_endproc
 282              	.LFE651:
 284              		.section	.text.tusb_app_phys_to_virt,"ax",%progbits
 285              		.align	1
 286              		.weak	tusb_app_phys_to_virt
 287              		.syntax unified
 288              		.thumb
 289              		.thumb_func
 291              	tusb_app_phys_to_virt:
 292              	.LVL27:
 293              	.LFB652:
  77:SynaptiX_FDK/lib/tinyusb/src/tusb.c ****   return phys_addr;
 294              		.loc 1 77 59 is_stmt 1 view -0
 295              		.cfi_startproc
 296              		@ args = 0, pretend = 0, frame = 0
 297              		@ frame_needed = 0, uses_anonymous_args = 0
 298              		@ link register save eliminated.
  78:SynaptiX_FDK/lib/tinyusb/src/tusb.c **** }
 299              		.loc 1 78 3 view .LVU64
  79:SynaptiX_FDK/lib/tinyusb/src/tusb.c **** 
 300              		.loc 1 79 1 is_stmt 0 view .LVU65
 301 0000 7047     		bx	lr
 302              		.cfi_endproc
 303              	.LFE652:
 305              		.section	.text.tusb_rhport_init,"ax",%progbits
 306              		.align	1
 307              		.global	tusb_rhport_init
 308              		.syntax unified
 309              		.thumb
 310              		.thumb_func
 312              	tusb_rhport_init:
 313              	.LVL28:
 314              	.LFB653:
  84:SynaptiX_FDK/lib/tinyusb/src/tusb.c ****   //  backward compatible called with tusb_init(void)
 315              		.loc 1 84 74 is_stmt 1 view -0
 316              		.cfi_startproc
 317              		@ args = 0, pretend = 0, frame = 8
 318              		@ frame_needed = 0, uses_anonymous_args = 0
  84:SynaptiX_FDK/lib/tinyusb/src/tusb.c ****   //  backward compatible called with tusb_init(void)
 319              		.loc 1 84 74 is_stmt 0 view .LVU67
 320 0000 00B5     		push	{lr}
 321              	.LCFI9:
 322              		.cfi_def_cfa_offset 4
 323              		.cfi_offset 14, -4
 324 0002 83B0     		sub	sp, sp, #12
 325              	.LCFI10:
 326              		.cfi_def_cfa_offset 16
  87:SynaptiX_FDK/lib/tinyusb/src/tusb.c ****     #if CFG_TUD_ENABLED && defined(TUD_OPT_RHPORT)
 327              		.loc 1 87 3 is_stmt 1 view .LVU68
  87:SynaptiX_FDK/lib/tinyusb/src/tusb.c ****     #if CFG_TUD_ENABLED && defined(TUD_OPT_RHPORT)
ARM GAS  C:\Users\LENOVO\AppData\Local\Temp\ccUTPkkl.s 			page 14


 328              		.loc 1 87 6 is_stmt 0 view .LVU69
 329 0004 51B1     		cbz	r1, .L42
 330 0006 0A46     		mov	r2, r1
 113:SynaptiX_FDK/lib/tinyusb/src/tusb.c ****   _tusb_rhport_role[rhport] = rh_init->role;
 331              		.loc 1 113 3 is_stmt 1 view .LVU70
 113:SynaptiX_FDK/lib/tinyusb/src/tusb.c ****   _tusb_rhport_role[rhport] = rh_init->role;
 332              		.loc 1 113 3 view .LVU71
 333 0008 0128     		cmp	r0, #1
 334 000a 1ED8     		bhi	.L36
 113:SynaptiX_FDK/lib/tinyusb/src/tusb.c ****   _tusb_rhport_role[rhport] = rh_init->role;
 335              		.loc 1 113 3 is_stmt 0 discriminator 2 view .LVU72
 336 000c 0B78     		ldrb	r3, [r1]	@ zero_extendqisi2
 337 000e E3B1     		cbz	r3, .L36
 113:SynaptiX_FDK/lib/tinyusb/src/tusb.c ****   _tusb_rhport_role[rhport] = rh_init->role;
 338              		.loc 1 113 3 is_stmt 1 discriminator 4 view .LVU73
 114:SynaptiX_FDK/lib/tinyusb/src/tusb.c **** 
 339              		.loc 1 114 3 view .LVU74
 114:SynaptiX_FDK/lib/tinyusb/src/tusb.c **** 
 340              		.loc 1 114 29 is_stmt 0 view .LVU75
 341 0010 1B49     		ldr	r1, .L44
 342              	.LVL29:
 114:SynaptiX_FDK/lib/tinyusb/src/tusb.c **** 
 343              		.loc 1 114 29 view .LVU76
 344 0012 0B54     		strb	r3, [r1, r0]
 117:SynaptiX_FDK/lib/tinyusb/src/tusb.c ****     TU_ASSERT(tud_rhport_init(rhport, rh_init));
 345              		.loc 1 117 3 is_stmt 1 view .LVU77
 117:SynaptiX_FDK/lib/tinyusb/src/tusb.c ****     TU_ASSERT(tud_rhport_init(rhport, rh_init));
 346              		.loc 1 117 6 is_stmt 0 view .LVU78
 347 0014 012B     		cmp	r3, #1
 348 0016 24D0     		beq	.L43
 128:SynaptiX_FDK/lib/tinyusb/src/tusb.c **** }
 349              		.loc 1 128 10 view .LVU79
 350 0018 0120     		movs	r0, #1
 351              	.LVL30:
 128:SynaptiX_FDK/lib/tinyusb/src/tusb.c **** }
 352              		.loc 1 128 10 view .LVU80
 353 001a 1FE0     		b	.L35
 354              	.LVL31:
 355              	.L42:
 356              	.LBB82:
  90:SynaptiX_FDK/lib/tinyusb/src/tusb.c ****       .role = TUSB_ROLE_DEVICE,
 357              		.loc 1 90 5 is_stmt 1 view .LVU81
  90:SynaptiX_FDK/lib/tinyusb/src/tusb.c ****       .role = TUSB_ROLE_DEVICE,
 358              		.loc 1 90 30 is_stmt 0 view .LVU82
 359 001c 0123     		movs	r3, #1
 360 001e 8DF80430 		strb	r3, [sp, #4]
 361 0022 0020     		movs	r0, #0
 362              	.LVL32:
  90:SynaptiX_FDK/lib/tinyusb/src/tusb.c ****       .role = TUSB_ROLE_DEVICE,
 363              		.loc 1 90 30 view .LVU83
 364 0024 8DF80500 		strb	r0, [sp, #5]
  94:SynaptiX_FDK/lib/tinyusb/src/tusb.c ****     _tusb_rhport_role[TUD_OPT_RHPORT] = TUSB_ROLE_DEVICE;
 365              		.loc 1 94 5 is_stmt 1 view .LVU84
  94:SynaptiX_FDK/lib/tinyusb/src/tusb.c ****     _tusb_rhport_role[TUD_OPT_RHPORT] = TUSB_ROLE_DEVICE;
 366              		.loc 1 94 5 view .LVU85
 367 0028 01A9     		add	r1, sp, #4
 368              	.LVL33:
ARM GAS  C:\Users\LENOVO\AppData\Local\Temp\ccUTPkkl.s 			page 15


  94:SynaptiX_FDK/lib/tinyusb/src/tusb.c ****     _tusb_rhport_role[TUD_OPT_RHPORT] = TUSB_ROLE_DEVICE;
 369              		.loc 1 94 5 is_stmt 0 view .LVU86
 370 002a FFF7FEFF 		bl	tud_rhport_init
 371              	.LVL34:
  94:SynaptiX_FDK/lib/tinyusb/src/tusb.c ****     _tusb_rhport_role[TUD_OPT_RHPORT] = TUSB_ROLE_DEVICE;
 372              		.loc 1 94 5 discriminator 1 view .LVU87
 373 002e 40B9     		cbnz	r0, .L32
  94:SynaptiX_FDK/lib/tinyusb/src/tusb.c ****     _tusb_rhport_role[TUD_OPT_RHPORT] = TUSB_ROLE_DEVICE;
 374              		.loc 1 94 5 is_stmt 1 discriminator 1 view .LVU88
  94:SynaptiX_FDK/lib/tinyusb/src/tusb.c ****     _tusb_rhport_role[TUD_OPT_RHPORT] = TUSB_ROLE_DEVICE;
 375              		.loc 1 94 5 discriminator 1 view .LVU89
  94:SynaptiX_FDK/lib/tinyusb/src/tusb.c ****     _tusb_rhport_role[TUD_OPT_RHPORT] = TUSB_ROLE_DEVICE;
 376              		.loc 1 94 5 discriminator 1 view .LVU90
  94:SynaptiX_FDK/lib/tinyusb/src/tusb.c ****     _tusb_rhport_role[TUD_OPT_RHPORT] = TUSB_ROLE_DEVICE;
 377              		.loc 1 94 5 discriminator 1 view .LVU91
 378              	.LBB83:
  94:SynaptiX_FDK/lib/tinyusb/src/tusb.c ****     _tusb_rhport_role[TUD_OPT_RHPORT] = TUSB_ROLE_DEVICE;
 379              		.loc 1 94 5 discriminator 1 view .LVU92
 380              	.LVL35:
  94:SynaptiX_FDK/lib/tinyusb/src/tusb.c ****     _tusb_rhport_role[TUD_OPT_RHPORT] = TUSB_ROLE_DEVICE;
 381              		.loc 1 94 5 discriminator 1 view .LVU93
 382 0030 4FF0E023 		mov	r3, #-536813568
 383 0034 D3F8F03D 		ldr	r3, [r3, #3568]
 384 0038 13F0010F 		tst	r3, #1
 385 003c 0ED0     		beq	.L35
  94:SynaptiX_FDK/lib/tinyusb/src/tusb.c ****     _tusb_rhport_role[TUD_OPT_RHPORT] = TUSB_ROLE_DEVICE;
 386              		.loc 1 94 5 discriminator 3 view .LVU94
 387              		.syntax unified
 388              	@ 94 "SynaptiX_FDK/lib/tinyusb/src/tusb.c" 1
 389 003e 00BE     		BKPT #0
 390              	
 391              	@ 0 "" 2
 392              		.thumb
 393              		.syntax unified
 394              	.LBE83:
  94:SynaptiX_FDK/lib/tinyusb/src/tusb.c ****     _tusb_rhport_role[TUD_OPT_RHPORT] = TUSB_ROLE_DEVICE;
 395              		.loc 1 94 5 discriminator 5 view .LVU95
  94:SynaptiX_FDK/lib/tinyusb/src/tusb.c ****     _tusb_rhport_role[TUD_OPT_RHPORT] = TUSB_ROLE_DEVICE;
 396              		.loc 1 94 5 discriminator 5 view .LVU96
  94:SynaptiX_FDK/lib/tinyusb/src/tusb.c ****     _tusb_rhport_role[TUD_OPT_RHPORT] = TUSB_ROLE_DEVICE;
 397              		.loc 1 94 5 is_stmt 0 view .LVU97
 398 0040 0CE0     		b	.L35
 399              	.LVL36:
 400              	.L32:
  94:SynaptiX_FDK/lib/tinyusb/src/tusb.c ****     _tusb_rhport_role[TUD_OPT_RHPORT] = TUSB_ROLE_DEVICE;
 401              		.loc 1 94 5 is_stmt 1 discriminator 2 view .LVU98
  95:SynaptiX_FDK/lib/tinyusb/src/tusb.c ****     #endif
 402              		.loc 1 95 5 view .LVU99
  95:SynaptiX_FDK/lib/tinyusb/src/tusb.c ****     #endif
 403              		.loc 1 95 39 is_stmt 0 view .LVU100
 404 0042 0F4B     		ldr	r3, .L44
 405 0044 0122     		movs	r2, #1
 406 0046 1A70     		strb	r2, [r3]
 108:SynaptiX_FDK/lib/tinyusb/src/tusb.c ****   }
 407              		.loc 1 108 5 is_stmt 1 view .LVU101
 108:SynaptiX_FDK/lib/tinyusb/src/tusb.c ****   }
 408              		.loc 1 108 12 is_stmt 0 view .LVU102
ARM GAS  C:\Users\LENOVO\AppData\Local\Temp\ccUTPkkl.s 			page 16


 409 0048 08E0     		b	.L35
 410              	.LVL37:
 411              	.L36:
 108:SynaptiX_FDK/lib/tinyusb/src/tusb.c ****   }
 412              		.loc 1 108 12 view .LVU103
 413              	.LBE82:
 113:SynaptiX_FDK/lib/tinyusb/src/tusb.c ****   _tusb_rhport_role[rhport] = rh_init->role;
 414              		.loc 1 113 3 is_stmt 1 discriminator 3 view .LVU104
 113:SynaptiX_FDK/lib/tinyusb/src/tusb.c ****   _tusb_rhport_role[rhport] = rh_init->role;
 415              		.loc 1 113 3 discriminator 3 view .LVU105
 113:SynaptiX_FDK/lib/tinyusb/src/tusb.c ****   _tusb_rhport_role[rhport] = rh_init->role;
 416              		.loc 1 113 3 discriminator 3 view .LVU106
 113:SynaptiX_FDK/lib/tinyusb/src/tusb.c ****   _tusb_rhport_role[rhport] = rh_init->role;
 417              		.loc 1 113 3 discriminator 3 view .LVU107
 418              	.LBB84:
 113:SynaptiX_FDK/lib/tinyusb/src/tusb.c ****   _tusb_rhport_role[rhport] = rh_init->role;
 419              		.loc 1 113 3 discriminator 3 view .LVU108
 113:SynaptiX_FDK/lib/tinyusb/src/tusb.c ****   _tusb_rhport_role[rhport] = rh_init->role;
 420              		.loc 1 113 3 discriminator 3 view .LVU109
 421 004a 4FF0E023 		mov	r3, #-536813568
 422 004e D3F8F03D 		ldr	r3, [r3, #3568]
 423 0052 13F0010F 		tst	r3, #1
 424 0056 00D0     		beq	.L38
 113:SynaptiX_FDK/lib/tinyusb/src/tusb.c ****   _tusb_rhport_role[rhport] = rh_init->role;
 425              		.loc 1 113 3 discriminator 5 view .LVU110
 426              		.syntax unified
 427              	@ 113 "SynaptiX_FDK/lib/tinyusb/src/tusb.c" 1
 428 0058 00BE     		BKPT #0
 429              	
 430              	@ 0 "" 2
 431              		.thumb
 432              		.syntax unified
 433              	.L38:
 434              	.LBE84:
 113:SynaptiX_FDK/lib/tinyusb/src/tusb.c ****   _tusb_rhport_role[rhport] = rh_init->role;
 435              		.loc 1 113 3 discriminator 7 view .LVU111
 113:SynaptiX_FDK/lib/tinyusb/src/tusb.c ****   _tusb_rhport_role[rhport] = rh_init->role;
 436              		.loc 1 113 3 discriminator 7 view .LVU112
 437 005a 0020     		movs	r0, #0
 438              	.LVL38:
 439              	.L35:
 129:SynaptiX_FDK/lib/tinyusb/src/tusb.c **** 
 440              		.loc 1 129 1 is_stmt 0 view .LVU113
 441 005c 03B0     		add	sp, sp, #12
 442              	.LCFI11:
 443              		.cfi_remember_state
 444              		.cfi_def_cfa_offset 4
 445              		@ sp needed
 446 005e 5DF804FB 		ldr	pc, [sp], #4
 447              	.LVL39:
 448              	.L43:
 449              	.LCFI12:
 450              		.cfi_restore_state
 118:SynaptiX_FDK/lib/tinyusb/src/tusb.c ****   }
 451              		.loc 1 118 5 is_stmt 1 view .LVU114
 118:SynaptiX_FDK/lib/tinyusb/src/tusb.c ****   }
 452              		.loc 1 118 5 view .LVU115
ARM GAS  C:\Users\LENOVO\AppData\Local\Temp\ccUTPkkl.s 			page 17


 453 0062 1146     		mov	r1, r2
 454 0064 FFF7FEFF 		bl	tud_rhport_init
 455              	.LVL40:
 118:SynaptiX_FDK/lib/tinyusb/src/tusb.c ****   }
 456              		.loc 1 118 5 is_stmt 0 discriminator 1 view .LVU116
 457 0068 0028     		cmp	r0, #0
 458 006a F7D1     		bne	.L35
 118:SynaptiX_FDK/lib/tinyusb/src/tusb.c ****   }
 459              		.loc 1 118 5 is_stmt 1 discriminator 1 view .LVU117
 118:SynaptiX_FDK/lib/tinyusb/src/tusb.c ****   }
 460              		.loc 1 118 5 discriminator 1 view .LVU118
 118:SynaptiX_FDK/lib/tinyusb/src/tusb.c ****   }
 461              		.loc 1 118 5 discriminator 1 view .LVU119
 118:SynaptiX_FDK/lib/tinyusb/src/tusb.c ****   }
 462              		.loc 1 118 5 discriminator 1 view .LVU120
 463              	.LBB85:
 118:SynaptiX_FDK/lib/tinyusb/src/tusb.c ****   }
 464              		.loc 1 118 5 discriminator 1 view .LVU121
 465              	.LVL41:
 118:SynaptiX_FDK/lib/tinyusb/src/tusb.c ****   }
 466              		.loc 1 118 5 discriminator 1 view .LVU122
 467 006c 4FF0E023 		mov	r3, #-536813568
 468 0070 D3F8F03D 		ldr	r3, [r3, #3568]
 469 0074 13F0010F 		tst	r3, #1
 470 0078 F0D0     		beq	.L35
 118:SynaptiX_FDK/lib/tinyusb/src/tusb.c ****   }
 471              		.loc 1 118 5 discriminator 3 view .LVU123
 472              		.syntax unified
 473              	@ 118 "SynaptiX_FDK/lib/tinyusb/src/tusb.c" 1
 474 007a 00BE     		BKPT #0
 475              	
 476              	@ 0 "" 2
 477              		.thumb
 478              		.syntax unified
 479              	.LBE85:
 118:SynaptiX_FDK/lib/tinyusb/src/tusb.c ****   }
 480              		.loc 1 118 5 discriminator 5 view .LVU124
 118:SynaptiX_FDK/lib/tinyusb/src/tusb.c ****   }
 481              		.loc 1 118 5 discriminator 5 view .LVU125
 118:SynaptiX_FDK/lib/tinyusb/src/tusb.c ****   }
 482              		.loc 1 118 5 is_stmt 0 view .LVU126
 483 007c EEE7     		b	.L35
 484              	.L45:
 485 007e 00BF     		.align	2
 486              	.L44:
 487 0080 00000000 		.word	_tusb_rhport_role
 488              		.cfi_endproc
 489              	.LFE653:
 491              		.section	.text.tusb_inited,"ax",%progbits
 492              		.align	1
 493              		.global	tusb_inited
 494              		.syntax unified
 495              		.thumb
 496              		.thumb_func
 498              	tusb_inited:
 499              	.LFB654:
 131:SynaptiX_FDK/lib/tinyusb/src/tusb.c ****   bool ret = false;
ARM GAS  C:\Users\LENOVO\AppData\Local\Temp\ccUTPkkl.s 			page 18


 500              		.loc 1 131 24 is_stmt 1 view -0
 501              		.cfi_startproc
 502              		@ args = 0, pretend = 0, frame = 0
 503              		@ frame_needed = 0, uses_anonymous_args = 0
 504 0000 08B5     		push	{r3, lr}
 505              	.LCFI13:
 506              		.cfi_def_cfa_offset 8
 507              		.cfi_offset 3, -8
 508              		.cfi_offset 14, -4
 132:SynaptiX_FDK/lib/tinyusb/src/tusb.c **** 
 509              		.loc 1 132 3 view .LVU128
 510              	.LVL42:
 135:SynaptiX_FDK/lib/tinyusb/src/tusb.c ****     ret = true;
 511              		.loc 1 135 3 view .LVU129
 135:SynaptiX_FDK/lib/tinyusb/src/tusb.c ****     ret = true;
 512              		.loc 1 135 7 is_stmt 0 view .LVU130
 513 0002 FFF7FEFF 		bl	tud_inited
 514              	.LVL43:
 146:SynaptiX_FDK/lib/tinyusb/src/tusb.c **** }
 515              		.loc 1 146 3 is_stmt 1 view .LVU131
 147:SynaptiX_FDK/lib/tinyusb/src/tusb.c **** 
 516              		.loc 1 147 1 is_stmt 0 view .LVU132
 517 0006 08BD     		pop	{r3, pc}
 518              		.cfi_endproc
 519              	.LFE654:
 521              		.section	.text.tusb_int_handler,"ax",%progbits
 522              		.align	1
 523              		.global	tusb_int_handler
 524              		.syntax unified
 525              		.thumb
 526              		.thumb_func
 528              	tusb_int_handler:
 529              	.LVL44:
 530              	.LFB655:
 149:SynaptiX_FDK/lib/tinyusb/src/tusb.c ****   TU_VERIFY(rhport < TUP_USBIP_CONTROLLER_NUM,);
 531              		.loc 1 149 52 is_stmt 1 view -0
 532              		.cfi_startproc
 533              		@ args = 0, pretend = 0, frame = 0
 534              		@ frame_needed = 0, uses_anonymous_args = 0
 150:SynaptiX_FDK/lib/tinyusb/src/tusb.c **** 
 535              		.loc 1 150 3 view .LVU134
 150:SynaptiX_FDK/lib/tinyusb/src/tusb.c **** 
 536              		.loc 1 150 3 view .LVU135
 537 0000 0128     		cmp	r0, #1
 538 0002 08D8     		bhi	.L51
 149:SynaptiX_FDK/lib/tinyusb/src/tusb.c ****   TU_VERIFY(rhport < TUP_USBIP_CONTROLLER_NUM,);
 539              		.loc 1 149 52 is_stmt 0 view .LVU136
 540 0004 08B5     		push	{r3, lr}
 541              	.LCFI14:
 542              		.cfi_def_cfa_offset 8
 543              		.cfi_offset 3, -8
 544              		.cfi_offset 14, -4
 150:SynaptiX_FDK/lib/tinyusb/src/tusb.c **** 
 545              		.loc 1 150 3 is_stmt 1 discriminator 2 view .LVU137
 153:SynaptiX_FDK/lib/tinyusb/src/tusb.c ****     (void) in_isr;
 546              		.loc 1 153 3 view .LVU138
 153:SynaptiX_FDK/lib/tinyusb/src/tusb.c ****     (void) in_isr;
ARM GAS  C:\Users\LENOVO\AppData\Local\Temp\ccUTPkkl.s 			page 19


 547              		.loc 1 153 24 is_stmt 0 view .LVU139
 548 0006 044B     		ldr	r3, .L55
 549 0008 1B5C     		ldrb	r3, [r3, r0]	@ zero_extendqisi2
 153:SynaptiX_FDK/lib/tinyusb/src/tusb.c ****     (void) in_isr;
 550              		.loc 1 153 6 view .LVU140
 551 000a 012B     		cmp	r3, #1
 552 000c 00D0     		beq	.L54
 553              	.LVL45:
 554              	.L48:
 164:SynaptiX_FDK/lib/tinyusb/src/tusb.c **** 
 555              		.loc 1 164 1 view .LVU141
 556 000e 08BD     		pop	{r3, pc}
 557              	.LVL46:
 558              	.L54:
 154:SynaptiX_FDK/lib/tinyusb/src/tusb.c ****     dcd_int_handler(rhport);
 559              		.loc 1 154 5 is_stmt 1 view .LVU142
 155:SynaptiX_FDK/lib/tinyusb/src/tusb.c ****   }
 560              		.loc 1 155 5 view .LVU143
 561 0010 FFF7FEFF 		bl	dcd_int_handler
 562              	.LVL47:
 155:SynaptiX_FDK/lib/tinyusb/src/tusb.c ****   }
 563              		.loc 1 155 5 is_stmt 0 view .LVU144
 564 0014 FBE7     		b	.L48
 565              	.LVL48:
 566              	.L51:
 567              	.LCFI15:
 568              		.cfi_def_cfa_offset 0
 569              		.cfi_restore 3
 570              		.cfi_restore 14
 155:SynaptiX_FDK/lib/tinyusb/src/tusb.c ****   }
 571              		.loc 1 155 5 view .LVU145
 572 0016 7047     		bx	lr
 573              	.L56:
 574              		.align	2
 575              	.L55:
 576 0018 00000000 		.word	_tusb_rhport_role
 577              		.cfi_endproc
 578              	.LFE655:
 580              		.section	.text.tusb_deinit,"ax",%progbits
 581              		.align	1
 582              		.global	tusb_deinit
 583              		.syntax unified
 584              		.thumb
 585              		.thumb_func
 587              	tusb_deinit:
 588              	.LVL49:
 589              	.LFB656:
 166:SynaptiX_FDK/lib/tinyusb/src/tusb.c ****   TU_VERIFY(rhport < TUP_USBIP_CONTROLLER_NUM);
 590              		.loc 1 166 34 is_stmt 1 view -0
 591              		.cfi_startproc
 592              		@ args = 0, pretend = 0, frame = 0
 593              		@ frame_needed = 0, uses_anonymous_args = 0
 167:SynaptiX_FDK/lib/tinyusb/src/tusb.c ****   bool ret = false;
 594              		.loc 1 167 3 view .LVU147
 167:SynaptiX_FDK/lib/tinyusb/src/tusb.c ****   bool ret = false;
 595              		.loc 1 167 3 view .LVU148
 596 0000 0128     		cmp	r0, #1
ARM GAS  C:\Users\LENOVO\AppData\Local\Temp\ccUTPkkl.s 			page 20


 597 0002 17D8     		bhi	.L61
 166:SynaptiX_FDK/lib/tinyusb/src/tusb.c ****   TU_VERIFY(rhport < TUP_USBIP_CONTROLLER_NUM);
 598              		.loc 1 166 34 is_stmt 0 view .LVU149
 599 0004 10B5     		push	{r4, lr}
 600              	.LCFI16:
 601              		.cfi_def_cfa_offset 8
 602              		.cfi_offset 4, -8
 603              		.cfi_offset 14, -4
 604 0006 0446     		mov	r4, r0
 167:SynaptiX_FDK/lib/tinyusb/src/tusb.c ****   bool ret = false;
 605              		.loc 1 167 3 is_stmt 1 discriminator 2 view .LVU150
 168:SynaptiX_FDK/lib/tinyusb/src/tusb.c **** 
 606              		.loc 1 168 3 view .LVU151
 607              	.LVL50:
 171:SynaptiX_FDK/lib/tinyusb/src/tusb.c ****     TU_ASSERT(tud_deinit(rhport));
 608              		.loc 1 171 3 view .LVU152
 171:SynaptiX_FDK/lib/tinyusb/src/tusb.c ****     TU_ASSERT(tud_deinit(rhport));
 609              		.loc 1 171 24 is_stmt 0 view .LVU153
 610 0008 0B4B     		ldr	r3, .L69
 611 000a 1B5C     		ldrb	r3, [r3, r0]	@ zero_extendqisi2
 171:SynaptiX_FDK/lib/tinyusb/src/tusb.c ****     TU_ASSERT(tud_deinit(rhport));
 612              		.loc 1 171 6 view .LVU154
 613 000c 012B     		cmp	r3, #1
 614 000e 01D0     		beq	.L67
 168:SynaptiX_FDK/lib/tinyusb/src/tusb.c **** 
 615              		.loc 1 168 8 view .LVU155
 616 0010 0020     		movs	r0, #0
 617              	.LVL51:
 618              	.L58:
 187:SynaptiX_FDK/lib/tinyusb/src/tusb.c **** 
 619              		.loc 1 187 1 view .LVU156
 620 0012 10BD     		pop	{r4, pc}
 621              	.LVL52:
 622              	.L67:
 172:SynaptiX_FDK/lib/tinyusb/src/tusb.c ****     _tusb_rhport_role[rhport] = TUSB_ROLE_INVALID;
 623              		.loc 1 172 5 is_stmt 1 view .LVU157
 172:SynaptiX_FDK/lib/tinyusb/src/tusb.c ****     _tusb_rhport_role[rhport] = TUSB_ROLE_INVALID;
 624              		.loc 1 172 5 view .LVU158
 625 0014 FFF7FEFF 		bl	tud_deinit
 626              	.LVL53:
 172:SynaptiX_FDK/lib/tinyusb/src/tusb.c ****     _tusb_rhport_role[rhport] = TUSB_ROLE_INVALID;
 627              		.loc 1 172 5 is_stmt 0 discriminator 1 view .LVU159
 628 0018 18B1     		cbz	r0, .L68
 172:SynaptiX_FDK/lib/tinyusb/src/tusb.c ****     _tusb_rhport_role[rhport] = TUSB_ROLE_INVALID;
 629              		.loc 1 172 5 is_stmt 1 discriminator 2 view .LVU160
 173:SynaptiX_FDK/lib/tinyusb/src/tusb.c ****     ret = true;
 630              		.loc 1 173 5 view .LVU161
 173:SynaptiX_FDK/lib/tinyusb/src/tusb.c ****     ret = true;
 631              		.loc 1 173 31 is_stmt 0 view .LVU162
 632 001a 074B     		ldr	r3, .L69
 633 001c 0022     		movs	r2, #0
 634 001e 1A55     		strb	r2, [r3, r4]
 174:SynaptiX_FDK/lib/tinyusb/src/tusb.c ****   }
 635              		.loc 1 174 5 is_stmt 1 view .LVU163
 636              	.LVL54:
 174:SynaptiX_FDK/lib/tinyusb/src/tusb.c ****   }
 637              		.loc 1 174 5 is_stmt 0 view .LVU164
ARM GAS  C:\Users\LENOVO\AppData\Local\Temp\ccUTPkkl.s 			page 21


 638 0020 F7E7     		b	.L58
 639              	.LVL55:
 640              	.L68:
 172:SynaptiX_FDK/lib/tinyusb/src/tusb.c ****     _tusb_rhport_role[rhport] = TUSB_ROLE_INVALID;
 641              		.loc 1 172 5 is_stmt 1 discriminator 1 view .LVU165
 172:SynaptiX_FDK/lib/tinyusb/src/tusb.c ****     _tusb_rhport_role[rhport] = TUSB_ROLE_INVALID;
 642              		.loc 1 172 5 discriminator 1 view .LVU166
 172:SynaptiX_FDK/lib/tinyusb/src/tusb.c ****     _tusb_rhport_role[rhport] = TUSB_ROLE_INVALID;
 643              		.loc 1 172 5 discriminator 1 view .LVU167
 172:SynaptiX_FDK/lib/tinyusb/src/tusb.c ****     _tusb_rhport_role[rhport] = TUSB_ROLE_INVALID;
 644              		.loc 1 172 5 discriminator 1 view .LVU168
 645              	.LBB86:
 172:SynaptiX_FDK/lib/tinyusb/src/tusb.c ****     _tusb_rhport_role[rhport] = TUSB_ROLE_INVALID;
 646              		.loc 1 172 5 discriminator 1 view .LVU169
 172:SynaptiX_FDK/lib/tinyusb/src/tusb.c ****     _tusb_rhport_role[rhport] = TUSB_ROLE_INVALID;
 647              		.loc 1 172 5 discriminator 1 view .LVU170
 648 0022 4FF0E023 		mov	r3, #-536813568
 649 0026 D3F8F03D 		ldr	r3, [r3, #3568]
 650 002a 13F0010F 		tst	r3, #1
 651 002e F0D0     		beq	.L58
 172:SynaptiX_FDK/lib/tinyusb/src/tusb.c ****     _tusb_rhport_role[rhport] = TUSB_ROLE_INVALID;
 652              		.loc 1 172 5 discriminator 3 view .LVU171
 653              		.syntax unified
 654              	@ 172 "SynaptiX_FDK/lib/tinyusb/src/tusb.c" 1
 655 0030 00BE     		BKPT #0
 656              	
 657              	@ 0 "" 2
 658              		.thumb
 659              		.syntax unified
 660              	.LBE86:
 172:SynaptiX_FDK/lib/tinyusb/src/tusb.c ****     _tusb_rhport_role[rhport] = TUSB_ROLE_INVALID;
 661              		.loc 1 172 5 discriminator 5 view .LVU172
 172:SynaptiX_FDK/lib/tinyusb/src/tusb.c ****     _tusb_rhport_role[rhport] = TUSB_ROLE_INVALID;
 662              		.loc 1 172 5 discriminator 5 view .LVU173
 172:SynaptiX_FDK/lib/tinyusb/src/tusb.c ****     _tusb_rhport_role[rhport] = TUSB_ROLE_INVALID;
 663              		.loc 1 172 5 is_stmt 0 view .LVU174
 664 0032 EEE7     		b	.L58
 665              	.LVL56:
 666              	.L61:
 667              	.LCFI17:
 668              		.cfi_def_cfa_offset 0
 669              		.cfi_restore 4
 670              		.cfi_restore 14
 167:SynaptiX_FDK/lib/tinyusb/src/tusb.c ****   bool ret = false;
 671              		.loc 1 167 3 discriminator 1 view .LVU175
 672 0034 0020     		movs	r0, #0
 673              	.LVL57:
 187:SynaptiX_FDK/lib/tinyusb/src/tusb.c **** 
 674              		.loc 1 187 1 view .LVU176
 675 0036 7047     		bx	lr
 676              	.L70:
 677              		.align	2
 678              	.L69:
 679 0038 00000000 		.word	_tusb_rhport_role
 680              		.cfi_endproc
 681              	.LFE656:
 683              		.section	.text.tu_desc_find,"ax",%progbits
ARM GAS  C:\Users\LENOVO\AppData\Local\Temp\ccUTPkkl.s 			page 22


 684              		.align	1
 685              		.global	tu_desc_find
 686              		.syntax unified
 687              		.thumb
 688              		.thumb_func
 690              	tu_desc_find:
 691              	.LVL58:
 692              	.LFB657:
 193:SynaptiX_FDK/lib/tinyusb/src/tusb.c ****   while (desc + 1 < end) {
 693              		.loc 1 193 85 is_stmt 1 view -0
 694              		.cfi_startproc
 695              		@ args = 0, pretend = 0, frame = 0
 696              		@ frame_needed = 0, uses_anonymous_args = 0
 697              		@ link register save eliminated.
 194:SynaptiX_FDK/lib/tinyusb/src/tusb.c ****     if (desc[1] == byte1) {
 698              		.loc 1 194 3 view .LVU178
 194:SynaptiX_FDK/lib/tinyusb/src/tusb.c ****     if (desc[1] == byte1) {
 699              		.loc 1 194 9 is_stmt 0 view .LVU179
 700 0000 01E0     		b	.L72
 701              	.L77:
 198:SynaptiX_FDK/lib/tinyusb/src/tusb.c ****   }
 702              		.loc 1 198 5 is_stmt 1 view .LVU180
 198:SynaptiX_FDK/lib/tinyusb/src/tusb.c ****   }
 703              		.loc 1 198 17 is_stmt 0 view .LVU181
 704 0002 0378     		ldrb	r3, [r0]	@ zero_extendqisi2
 198:SynaptiX_FDK/lib/tinyusb/src/tusb.c ****   }
 705              		.loc 1 198 10 view .LVU182
 706 0004 1844     		add	r0, r0, r3
 707              	.LVL59:
 708              	.L72:
 194:SynaptiX_FDK/lib/tinyusb/src/tusb.c ****     if (desc[1] == byte1) {
 709              		.loc 1 194 19 is_stmt 1 view .LVU183
 194:SynaptiX_FDK/lib/tinyusb/src/tusb.c ****     if (desc[1] == byte1) {
 710              		.loc 1 194 15 is_stmt 0 view .LVU184
 711 0006 431C     		adds	r3, r0, #1
 194:SynaptiX_FDK/lib/tinyusb/src/tusb.c ****     if (desc[1] == byte1) {
 712              		.loc 1 194 19 view .LVU185
 713 0008 8B42     		cmp	r3, r1
 714 000a 03D2     		bcs	.L76
 195:SynaptiX_FDK/lib/tinyusb/src/tusb.c ****       return desc;
 715              		.loc 1 195 5 is_stmt 1 view .LVU186
 195:SynaptiX_FDK/lib/tinyusb/src/tusb.c ****       return desc;
 716              		.loc 1 195 13 is_stmt 0 view .LVU187
 717 000c 4378     		ldrb	r3, [r0, #1]	@ zero_extendqisi2
 195:SynaptiX_FDK/lib/tinyusb/src/tusb.c ****       return desc;
 718              		.loc 1 195 8 view .LVU188
 719 000e 9342     		cmp	r3, r2
 720 0010 F7D1     		bne	.L77
 721 0012 00E0     		b	.L71
 722              	.L76:
 200:SynaptiX_FDK/lib/tinyusb/src/tusb.c **** }
 723              		.loc 1 200 10 view .LVU189
 724 0014 0020     		movs	r0, #0
 725              	.LVL60:
 726              	.L71:
 201:SynaptiX_FDK/lib/tinyusb/src/tusb.c **** 
 727              		.loc 1 201 1 view .LVU190
ARM GAS  C:\Users\LENOVO\AppData\Local\Temp\ccUTPkkl.s 			page 23


 728 0016 7047     		bx	lr
 729              		.cfi_endproc
 730              	.LFE657:
 732              		.section	.text.tu_desc_find2,"ax",%progbits
 733              		.align	1
 734              		.global	tu_desc_find2
 735              		.syntax unified
 736              		.thumb
 737              		.thumb_func
 739              	tu_desc_find2:
 740              	.LVL61:
 741              	.LFB658:
 203:SynaptiX_FDK/lib/tinyusb/src/tusb.c ****   while (desc + 2 < end) {
 742              		.loc 1 203 101 is_stmt 1 view -0
 743              		.cfi_startproc
 744              		@ args = 0, pretend = 0, frame = 0
 745              		@ frame_needed = 0, uses_anonymous_args = 0
 746              		@ link register save eliminated.
 204:SynaptiX_FDK/lib/tinyusb/src/tusb.c ****     if (desc[1] == byte1 && desc[2] == byte2) {
 747              		.loc 1 204 3 view .LVU192
 204:SynaptiX_FDK/lib/tinyusb/src/tusb.c ****     if (desc[1] == byte1 && desc[2] == byte2) {
 748              		.loc 1 204 9 is_stmt 0 view .LVU193
 749 0000 02E0     		b	.L79
 750              	.L80:
 208:SynaptiX_FDK/lib/tinyusb/src/tusb.c ****   }
 751              		.loc 1 208 5 is_stmt 1 view .LVU194
 208:SynaptiX_FDK/lib/tinyusb/src/tusb.c ****   }
 752              		.loc 1 208 17 is_stmt 0 view .LVU195
 753 0002 90F800C0 		ldrb	ip, [r0]	@ zero_extendqisi2
 208:SynaptiX_FDK/lib/tinyusb/src/tusb.c ****   }
 754              		.loc 1 208 10 view .LVU196
 755 0006 6044     		add	r0, r0, ip
 756              	.LVL62:
 757              	.L79:
 204:SynaptiX_FDK/lib/tinyusb/src/tusb.c ****     if (desc[1] == byte1 && desc[2] == byte2) {
 758              		.loc 1 204 19 is_stmt 1 view .LVU197
 204:SynaptiX_FDK/lib/tinyusb/src/tusb.c ****     if (desc[1] == byte1 && desc[2] == byte2) {
 759              		.loc 1 204 15 is_stmt 0 view .LVU198
 760 0008 00F1020C 		add	ip, r0, #2
 204:SynaptiX_FDK/lib/tinyusb/src/tusb.c ****     if (desc[1] == byte1 && desc[2] == byte2) {
 761              		.loc 1 204 19 view .LVU199
 762 000c 8C45     		cmp	ip, r1
 763 000e 08D2     		bcs	.L84
 205:SynaptiX_FDK/lib/tinyusb/src/tusb.c ****       return desc;
 764              		.loc 1 205 5 is_stmt 1 view .LVU200
 205:SynaptiX_FDK/lib/tinyusb/src/tusb.c ****       return desc;
 765              		.loc 1 205 13 is_stmt 0 view .LVU201
 766 0010 90F801C0 		ldrb	ip, [r0, #1]	@ zero_extendqisi2
 205:SynaptiX_FDK/lib/tinyusb/src/tusb.c ****       return desc;
 767              		.loc 1 205 8 view .LVU202
 768 0014 9445     		cmp	ip, r2
 769 0016 F4D1     		bne	.L80
 205:SynaptiX_FDK/lib/tinyusb/src/tusb.c ****       return desc;
 770              		.loc 1 205 33 discriminator 1 view .LVU203
 771 0018 90F802C0 		ldrb	ip, [r0, #2]	@ zero_extendqisi2
 205:SynaptiX_FDK/lib/tinyusb/src/tusb.c ****       return desc;
 772              		.loc 1 205 26 discriminator 1 view .LVU204
ARM GAS  C:\Users\LENOVO\AppData\Local\Temp\ccUTPkkl.s 			page 24


 773 001c 9C45     		cmp	ip, r3
 774 001e F0D1     		bne	.L80
 775 0020 00E0     		b	.L78
 776              	.L84:
 210:SynaptiX_FDK/lib/tinyusb/src/tusb.c **** }
 777              		.loc 1 210 10 view .LVU205
 778 0022 0020     		movs	r0, #0
 779              	.LVL63:
 780              	.L78:
 211:SynaptiX_FDK/lib/tinyusb/src/tusb.c **** 
 781              		.loc 1 211 1 view .LVU206
 782 0024 7047     		bx	lr
 783              		.cfi_endproc
 784              	.LFE658:
 786              		.section	.text.tu_desc_find3,"ax",%progbits
 787              		.align	1
 788              		.global	tu_desc_find3
 789              		.syntax unified
 790              		.thumb
 791              		.thumb_func
 793              	tu_desc_find3:
 794              	.LVL64:
 795              	.LFB659:
 213:SynaptiX_FDK/lib/tinyusb/src/tusb.c ****   while (desc + 3 < end) {
 796              		.loc 1 213 116 is_stmt 1 view -0
 797              		.cfi_startproc
 798              		@ args = 4, pretend = 0, frame = 0
 799              		@ frame_needed = 0, uses_anonymous_args = 0
 213:SynaptiX_FDK/lib/tinyusb/src/tusb.c ****   while (desc + 3 < end) {
 800              		.loc 1 213 116 is_stmt 0 view .LVU208
 801 0000 00B5     		push	{lr}
 802              	.LCFI18:
 803              		.cfi_def_cfa_offset 4
 804              		.cfi_offset 14, -4
 805 0002 9DF804E0 		ldrb	lr, [sp, #4]	@ zero_extendqisi2
 214:SynaptiX_FDK/lib/tinyusb/src/tusb.c ****     if (desc[1] == byte1 && desc[2] == byte2 && desc[3] == byte3) {
 806              		.loc 1 214 3 is_stmt 1 view .LVU209
 214:SynaptiX_FDK/lib/tinyusb/src/tusb.c ****     if (desc[1] == byte1 && desc[2] == byte2 && desc[3] == byte3) {
 807              		.loc 1 214 9 is_stmt 0 view .LVU210
 808 0006 02E0     		b	.L86
 809              	.L87:
 218:SynaptiX_FDK/lib/tinyusb/src/tusb.c ****   }
 810              		.loc 1 218 5 is_stmt 1 view .LVU211
 218:SynaptiX_FDK/lib/tinyusb/src/tusb.c ****   }
 811              		.loc 1 218 17 is_stmt 0 view .LVU212
 812 0008 90F800C0 		ldrb	ip, [r0]	@ zero_extendqisi2
 218:SynaptiX_FDK/lib/tinyusb/src/tusb.c ****   }
 813              		.loc 1 218 10 view .LVU213
 814 000c 6044     		add	r0, r0, ip
 815              	.LVL65:
 816              	.L86:
 214:SynaptiX_FDK/lib/tinyusb/src/tusb.c ****     if (desc[1] == byte1 && desc[2] == byte2 && desc[3] == byte3) {
 817              		.loc 1 214 19 is_stmt 1 view .LVU214
 214:SynaptiX_FDK/lib/tinyusb/src/tusb.c ****     if (desc[1] == byte1 && desc[2] == byte2 && desc[3] == byte3) {
 818              		.loc 1 214 15 is_stmt 0 view .LVU215
 819 000e 00F1030C 		add	ip, r0, #3
 214:SynaptiX_FDK/lib/tinyusb/src/tusb.c ****     if (desc[1] == byte1 && desc[2] == byte2 && desc[3] == byte3) {
ARM GAS  C:\Users\LENOVO\AppData\Local\Temp\ccUTPkkl.s 			page 25


 820              		.loc 1 214 19 view .LVU216
 821 0012 8C45     		cmp	ip, r1
 822 0014 0CD2     		bcs	.L92
 215:SynaptiX_FDK/lib/tinyusb/src/tusb.c ****       return desc;
 823              		.loc 1 215 5 is_stmt 1 view .LVU217
 215:SynaptiX_FDK/lib/tinyusb/src/tusb.c ****       return desc;
 824              		.loc 1 215 13 is_stmt 0 view .LVU218
 825 0016 90F801C0 		ldrb	ip, [r0, #1]	@ zero_extendqisi2
 215:SynaptiX_FDK/lib/tinyusb/src/tusb.c ****       return desc;
 826              		.loc 1 215 8 view .LVU219
 827 001a 9445     		cmp	ip, r2
 828 001c F4D1     		bne	.L87
 215:SynaptiX_FDK/lib/tinyusb/src/tusb.c ****       return desc;
 829              		.loc 1 215 33 discriminator 1 view .LVU220
 830 001e 90F802C0 		ldrb	ip, [r0, #2]	@ zero_extendqisi2
 215:SynaptiX_FDK/lib/tinyusb/src/tusb.c ****       return desc;
 831              		.loc 1 215 26 discriminator 1 view .LVU221
 832 0022 9C45     		cmp	ip, r3
 833 0024 F0D1     		bne	.L87
 215:SynaptiX_FDK/lib/tinyusb/src/tusb.c ****       return desc;
 834              		.loc 1 215 53 discriminator 2 view .LVU222
 835 0026 90F803C0 		ldrb	ip, [r0, #3]	@ zero_extendqisi2
 215:SynaptiX_FDK/lib/tinyusb/src/tusb.c ****       return desc;
 836              		.loc 1 215 46 discriminator 2 view .LVU223
 837 002a F445     		cmp	ip, lr
 838 002c ECD1     		bne	.L87
 839 002e 00E0     		b	.L85
 840              	.L92:
 220:SynaptiX_FDK/lib/tinyusb/src/tusb.c **** }
 841              		.loc 1 220 10 view .LVU224
 842 0030 0020     		movs	r0, #0
 843              	.LVL66:
 844              	.L85:
 221:SynaptiX_FDK/lib/tinyusb/src/tusb.c **** 
 845              		.loc 1 221 1 view .LVU225
 846 0032 5DF804FB 		ldr	pc, [sp], #4
 221:SynaptiX_FDK/lib/tinyusb/src/tusb.c **** 
 847              		.loc 1 221 1 view .LVU226
 848              		.cfi_endproc
 849              	.LFE659:
 851              		.section	.text.tu_edpt_claim,"ax",%progbits
 852              		.align	1
 853              		.global	tu_edpt_claim
 854              		.syntax unified
 855              		.thumb
 856              		.thumb_func
 858              	tu_edpt_claim:
 859              	.LVL67:
 860              	.LFB660:
 227:SynaptiX_FDK/lib/tinyusb/src/tusb.c ****   (void) mutex;
 861              		.loc 1 227 67 is_stmt 1 view -0
 862              		.cfi_startproc
 863              		@ args = 0, pretend = 0, frame = 0
 864              		@ frame_needed = 0, uses_anonymous_args = 0
 865              		@ link register save eliminated.
 227:SynaptiX_FDK/lib/tinyusb/src/tusb.c ****   (void) mutex;
 866              		.loc 1 227 67 is_stmt 0 view .LVU228
ARM GAS  C:\Users\LENOVO\AppData\Local\Temp\ccUTPkkl.s 			page 26


 867 0000 0246     		mov	r2, r0
 228:SynaptiX_FDK/lib/tinyusb/src/tusb.c **** 
 868              		.loc 1 228 3 is_stmt 1 view .LVU229
 231:SynaptiX_FDK/lib/tinyusb/src/tusb.c ****   TU_VERIFY(ep_state->claimed == 0);
 869              		.loc 1 231 3 view .LVU230
 231:SynaptiX_FDK/lib/tinyusb/src/tusb.c ****   TU_VERIFY(ep_state->claimed == 0);
 870              		.loc 1 231 3 view .LVU231
 871 0002 0378     		ldrb	r3, [r0]	@ zero_extendqisi2
 872 0004 13F00100 		ands	r0, r3, #1
 873              	.LVL68:
 231:SynaptiX_FDK/lib/tinyusb/src/tusb.c ****   TU_VERIFY(ep_state->claimed == 0);
 874              		.loc 1 231 3 is_stmt 0 view .LVU232
 875 0008 13D1     		bne	.L95
 231:SynaptiX_FDK/lib/tinyusb/src/tusb.c ****   TU_VERIFY(ep_state->claimed == 0);
 876              		.loc 1 231 3 is_stmt 1 discriminator 2 view .LVU233
 232:SynaptiX_FDK/lib/tinyusb/src/tusb.c ****   (void) osal_mutex_lock(mutex, OSAL_TIMEOUT_WAIT_FOREVER);
 877              		.loc 1 232 3 view .LVU234
 232:SynaptiX_FDK/lib/tinyusb/src/tusb.c ****   (void) osal_mutex_lock(mutex, OSAL_TIMEOUT_WAIT_FOREVER);
 878              		.loc 1 232 3 view .LVU235
 879 000a 1378     		ldrb	r3, [r2]	@ zero_extendqisi2
 880 000c C3F38001 		ubfx	r1, r3, #2, #1
 881              	.LVL69:
 232:SynaptiX_FDK/lib/tinyusb/src/tusb.c ****   (void) osal_mutex_lock(mutex, OSAL_TIMEOUT_WAIT_FOREVER);
 882              		.loc 1 232 3 is_stmt 0 view .LVU236
 883 0010 13F0040F 		tst	r3, #4
 884 0014 10D1     		bne	.L94
 232:SynaptiX_FDK/lib/tinyusb/src/tusb.c ****   (void) osal_mutex_lock(mutex, OSAL_TIMEOUT_WAIT_FOREVER);
 885              		.loc 1 232 3 is_stmt 1 discriminator 2 view .LVU237
 233:SynaptiX_FDK/lib/tinyusb/src/tusb.c **** 
 886              		.loc 1 233 3 view .LVU238
 236:SynaptiX_FDK/lib/tinyusb/src/tusb.c ****   if (available) {
 887              		.loc 1 236 3 view .LVU239
 236:SynaptiX_FDK/lib/tinyusb/src/tusb.c ****   if (available) {
 888              		.loc 1 236 35 is_stmt 0 view .LVU240
 889 0016 1378     		ldrb	r3, [r2]	@ zero_extendqisi2
 236:SynaptiX_FDK/lib/tinyusb/src/tusb.c ****   if (available) {
 890              		.loc 1 236 48 view .LVU241
 891 0018 13F00100 		ands	r0, r3, #1
 892 001c 0BD1     		bne	.L96
 236:SynaptiX_FDK/lib/tinyusb/src/tusb.c ****   if (available) {
 893              		.loc 1 236 60 discriminator 1 view .LVU242
 894 001e 1378     		ldrb	r3, [r2]	@ zero_extendqisi2
 236:SynaptiX_FDK/lib/tinyusb/src/tusb.c ****   if (available) {
 895              		.loc 1 236 48 discriminator 1 view .LVU243
 896 0020 13F0040F 		tst	r3, #4
 897 0024 08D1     		bne	.L94
 898              	.LVL70:
 237:SynaptiX_FDK/lib/tinyusb/src/tusb.c ****     ep_state->claimed = 1;
 899              		.loc 1 237 3 is_stmt 1 view .LVU244
 238:SynaptiX_FDK/lib/tinyusb/src/tusb.c ****   }
 900              		.loc 1 238 5 view .LVU245
 238:SynaptiX_FDK/lib/tinyusb/src/tusb.c ****   }
 901              		.loc 1 238 23 is_stmt 0 view .LVU246
 902 0026 1378     		ldrb	r3, [r2]	@ zero_extendqisi2
 903 0028 43F00403 		orr	r3, r3, #4
 904 002c 1370     		strb	r3, [r2]
 236:SynaptiX_FDK/lib/tinyusb/src/tusb.c ****   if (available) {
ARM GAS  C:\Users\LENOVO\AppData\Local\Temp\ccUTPkkl.s 			page 27


 905              		.loc 1 236 14 discriminator 6 view .LVU247
 906 002e 0120     		movs	r0, #1
 907 0030 7047     		bx	lr
 908              	.LVL71:
 909              	.L95:
 231:SynaptiX_FDK/lib/tinyusb/src/tusb.c ****   TU_VERIFY(ep_state->claimed == 0);
 910              		.loc 1 231 3 discriminator 1 view .LVU248
 911 0032 0020     		movs	r0, #0
 912 0034 7047     		bx	lr
 913              	.LVL72:
 914              	.L96:
 236:SynaptiX_FDK/lib/tinyusb/src/tusb.c ****   if (available) {
 915              		.loc 1 236 14 discriminator 6 view .LVU249
 916 0036 0846     		mov	r0, r1
 917              	.L94:
 243:SynaptiX_FDK/lib/tinyusb/src/tusb.c **** 
 918              		.loc 1 243 1 view .LVU250
 919 0038 7047     		bx	lr
 920              		.cfi_endproc
 921              	.LFE660:
 923              		.section	.text.tu_edpt_release,"ax",%progbits
 924              		.align	1
 925              		.global	tu_edpt_release
 926              		.syntax unified
 927              		.thumb
 928              		.thumb_func
 930              	tu_edpt_release:
 931              	.LVL73:
 932              	.LFB661:
 245:SynaptiX_FDK/lib/tinyusb/src/tusb.c ****   (void) mutex;
 933              		.loc 1 245 69 is_stmt 1 view -0
 934              		.cfi_startproc
 935              		@ args = 0, pretend = 0, frame = 0
 936              		@ frame_needed = 0, uses_anonymous_args = 0
 937              		@ link register save eliminated.
 245:SynaptiX_FDK/lib/tinyusb/src/tusb.c ****   (void) mutex;
 938              		.loc 1 245 69 is_stmt 0 view .LVU252
 939 0000 0346     		mov	r3, r0
 246:SynaptiX_FDK/lib/tinyusb/src/tusb.c ****   (void) osal_mutex_lock(mutex, OSAL_TIMEOUT_WAIT_FOREVER);
 940              		.loc 1 246 3 is_stmt 1 view .LVU253
 247:SynaptiX_FDK/lib/tinyusb/src/tusb.c **** 
 941              		.loc 1 247 3 view .LVU254
 250:SynaptiX_FDK/lib/tinyusb/src/tusb.c ****   if (ret) {
 942              		.loc 1 250 3 view .LVU255
 250:SynaptiX_FDK/lib/tinyusb/src/tusb.c ****   if (ret) {
 943              		.loc 1 250 29 is_stmt 0 view .LVU256
 944 0002 0278     		ldrb	r2, [r0]	@ zero_extendqisi2
 945 0004 C2F38000 		ubfx	r0, r2, #2, #1
 946              	.LVL74:
 250:SynaptiX_FDK/lib/tinyusb/src/tusb.c ****   if (ret) {
 947              		.loc 1 250 45 view .LVU257
 948 0008 12F0040F 		tst	r2, #4
 949 000c 00D1     		bne	.L100
 950              	.L98:
 255:SynaptiX_FDK/lib/tinyusb/src/tusb.c ****   return ret;
 951              		.loc 1 255 3 is_stmt 1 view .LVU258
 256:SynaptiX_FDK/lib/tinyusb/src/tusb.c **** }
ARM GAS  C:\Users\LENOVO\AppData\Local\Temp\ccUTPkkl.s 			page 28


 952              		.loc 1 256 3 view .LVU259
 257:SynaptiX_FDK/lib/tinyusb/src/tusb.c **** 
 953              		.loc 1 257 1 is_stmt 0 view .LVU260
 954 000e 7047     		bx	lr
 955              	.L100:
 250:SynaptiX_FDK/lib/tinyusb/src/tusb.c ****   if (ret) {
 956              		.loc 1 250 57 discriminator 1 view .LVU261
 957 0010 1A78     		ldrb	r2, [r3]	@ zero_extendqisi2
 250:SynaptiX_FDK/lib/tinyusb/src/tusb.c ****   if (ret) {
 958              		.loc 1 250 45 discriminator 1 view .LVU262
 959 0012 12F0010F 		tst	r2, #1
 960 0016 04D1     		bne	.L99
 961              	.LVL75:
 251:SynaptiX_FDK/lib/tinyusb/src/tusb.c ****     ep_state->claimed = 0;
 962              		.loc 1 251 3 is_stmt 1 view .LVU263
 252:SynaptiX_FDK/lib/tinyusb/src/tusb.c ****   }
 963              		.loc 1 252 5 view .LVU264
 252:SynaptiX_FDK/lib/tinyusb/src/tusb.c ****   }
 964              		.loc 1 252 23 is_stmt 0 view .LVU265
 965 0018 1A78     		ldrb	r2, [r3]	@ zero_extendqisi2
 966 001a 22F00402 		bic	r2, r2, #4
 967 001e 1A70     		strb	r2, [r3]
 968 0020 7047     		bx	lr
 969              	.LVL76:
 970              	.L99:
 250:SynaptiX_FDK/lib/tinyusb/src/tusb.c ****   if (ret) {
 971              		.loc 1 250 14 discriminator 6 view .LVU266
 972 0022 0020     		movs	r0, #0
 973 0024 F3E7     		b	.L98
 974              		.cfi_endproc
 975              	.LFE661:
 977              		.section	.text.tu_bind_driver_to_ep_itf,"ax",%progbits
 978              		.align	1
 979              		.global	tu_bind_driver_to_ep_itf
 980              		.syntax unified
 981              		.thumb
 982              		.thumb_func
 984              	tu_bind_driver_to_ep_itf:
 985              	.LVL77:
 986              	.LFB662:
 297:SynaptiX_FDK/lib/tinyusb/src/tusb.c ****   const uint8_t *desc_end = p_desc + desc_len;
 987              		.loc 1 297 73 is_stmt 1 view -0
 988              		.cfi_startproc
 989              		@ args = 8, pretend = 0, frame = 0
 990              		@ frame_needed = 0, uses_anonymous_args = 0
 297:SynaptiX_FDK/lib/tinyusb/src/tusb.c ****   const uint8_t *desc_end = p_desc + desc_len;
 991              		.loc 1 297 73 is_stmt 0 view .LVU268
 992 0000 30B5     		push	{r4, r5, lr}
 993              	.LCFI19:
 994              		.cfi_def_cfa_offset 12
 995              		.cfi_offset 4, -12
 996              		.cfi_offset 5, -8
 997              		.cfi_offset 14, -4
 998 0002 039C     		ldr	r4, [sp, #12]
 298:SynaptiX_FDK/lib/tinyusb/src/tusb.c ****   while (tu_desc_in_bounds(p_desc, desc_end)) {
 999              		.loc 1 298 3 is_stmt 1 view .LVU269
 298:SynaptiX_FDK/lib/tinyusb/src/tusb.c ****   while (tu_desc_in_bounds(p_desc, desc_end)) {
ARM GAS  C:\Users\LENOVO\AppData\Local\Temp\ccUTPkkl.s 			page 29


 1000              		.loc 1 298 18 is_stmt 0 view .LVU270
 1001 0004 BDF810C0 		ldrh	ip, [sp, #16]
 1002 0008 A444     		add	ip, ip, r4
 1003              	.LVL78:
 299:SynaptiX_FDK/lib/tinyusb/src/tusb.c ****     const uint8_t desc_type = tu_desc_type(p_desc);
 1004              		.loc 1 299 3 is_stmt 1 view .LVU271
 1005              	.L102:
 299:SynaptiX_FDK/lib/tinyusb/src/tusb.c ****     const uint8_t desc_type = tu_desc_type(p_desc);
 1006              		.loc 1 299 10 view .LVU272
 1007              	.LBB87:
 1008              	.LBI87:
 1009              		.file 2 "SynaptiX_FDK/lib/tinyusb/src/common/tusb_common.h"
   1:SynaptiX_FDK/lib/tinyusb/src/common/tusb_common.h **** /*
   2:SynaptiX_FDK/lib/tinyusb/src/common/tusb_common.h ****  * The MIT License (MIT)
   3:SynaptiX_FDK/lib/tinyusb/src/common/tusb_common.h ****  *
   4:SynaptiX_FDK/lib/tinyusb/src/common/tusb_common.h ****  * Copyright (c) 2019 Ha Thach (tinyusb.org)
   5:SynaptiX_FDK/lib/tinyusb/src/common/tusb_common.h ****  *
   6:SynaptiX_FDK/lib/tinyusb/src/common/tusb_common.h ****  * Permission is hereby granted, free of charge, to any person obtaining a copy
   7:SynaptiX_FDK/lib/tinyusb/src/common/tusb_common.h ****  * of this software and associated documentation files (the "Software"), to deal
   8:SynaptiX_FDK/lib/tinyusb/src/common/tusb_common.h ****  * in the Software without restriction, including without limitation the rights
   9:SynaptiX_FDK/lib/tinyusb/src/common/tusb_common.h ****  * to use, copy, modify, merge, publish, distribute, sublicense, and/or sell
  10:SynaptiX_FDK/lib/tinyusb/src/common/tusb_common.h ****  * copies of the Software, and to permit persons to whom the Software is
  11:SynaptiX_FDK/lib/tinyusb/src/common/tusb_common.h ****  * furnished to do so, subject to the following conditions:
  12:SynaptiX_FDK/lib/tinyusb/src/common/tusb_common.h ****  *
  13:SynaptiX_FDK/lib/tinyusb/src/common/tusb_common.h ****  * The above copyright notice and this permission notice shall be included in
  14:SynaptiX_FDK/lib/tinyusb/src/common/tusb_common.h ****  * all copies or substantial portions of the Software.
  15:SynaptiX_FDK/lib/tinyusb/src/common/tusb_common.h ****  *
  16:SynaptiX_FDK/lib/tinyusb/src/common/tusb_common.h ****  * THE SOFTWARE IS PROVIDED "AS IS", WITHOUT WARRANTY OF ANY KIND, EXPRESS OR
  17:SynaptiX_FDK/lib/tinyusb/src/common/tusb_common.h ****  * IMPLIED, INCLUDING BUT NOT LIMITED TO THE WARRANTIES OF MERCHANTABILITY,
  18:SynaptiX_FDK/lib/tinyusb/src/common/tusb_common.h ****  * FITNESS FOR A PARTICULAR PURPOSE AND NONINFRINGEMENT. IN NO EVENT SHALL THE
  19:SynaptiX_FDK/lib/tinyusb/src/common/tusb_common.h ****  * AUTHORS OR COPYRIGHT HOLDERS BE LIABLE FOR ANY CLAIM, DAMAGES OR OTHER
  20:SynaptiX_FDK/lib/tinyusb/src/common/tusb_common.h ****  * LIABILITY, WHETHER IN AN ACTION OF CONTRACT, TORT OR OTHERWISE, ARISING FROM,
  21:SynaptiX_FDK/lib/tinyusb/src/common/tusb_common.h ****  * OUT OF OR IN CONNECTION WITH THE SOFTWARE OR THE USE OR OTHER DEALINGS IN
  22:SynaptiX_FDK/lib/tinyusb/src/common/tusb_common.h ****  * THE SOFTWARE.
  23:SynaptiX_FDK/lib/tinyusb/src/common/tusb_common.h ****  *
  24:SynaptiX_FDK/lib/tinyusb/src/common/tusb_common.h ****  * This file is part of the TinyUSB stack.
  25:SynaptiX_FDK/lib/tinyusb/src/common/tusb_common.h ****  */
  26:SynaptiX_FDK/lib/tinyusb/src/common/tusb_common.h **** 
  27:SynaptiX_FDK/lib/tinyusb/src/common/tusb_common.h **** #ifndef TUSB_COMMON_H_
  28:SynaptiX_FDK/lib/tinyusb/src/common/tusb_common.h **** #define TUSB_COMMON_H_
  29:SynaptiX_FDK/lib/tinyusb/src/common/tusb_common.h **** 
  30:SynaptiX_FDK/lib/tinyusb/src/common/tusb_common.h **** #ifdef __cplusplus
  31:SynaptiX_FDK/lib/tinyusb/src/common/tusb_common.h ****  extern "C" {
  32:SynaptiX_FDK/lib/tinyusb/src/common/tusb_common.h **** #endif
  33:SynaptiX_FDK/lib/tinyusb/src/common/tusb_common.h **** 
  34:SynaptiX_FDK/lib/tinyusb/src/common/tusb_common.h **** //--------------------------------------------------------------------+
  35:SynaptiX_FDK/lib/tinyusb/src/common/tusb_common.h **** // Macros Helper
  36:SynaptiX_FDK/lib/tinyusb/src/common/tusb_common.h **** //--------------------------------------------------------------------+
  37:SynaptiX_FDK/lib/tinyusb/src/common/tusb_common.h **** #define TU_ARRAY_SIZE(_arr)           ( sizeof(_arr) / sizeof(_arr[0]) )
  38:SynaptiX_FDK/lib/tinyusb/src/common/tusb_common.h **** #define TU_FIELD_SIZE(_type, _field)  (sizeof(((_type *)0)->_field))
  39:SynaptiX_FDK/lib/tinyusb/src/common/tusb_common.h **** #define TU_MIN(_x, _y)                ( ( (_x) < (_y) ) ? (_x) : (_y) )
  40:SynaptiX_FDK/lib/tinyusb/src/common/tusb_common.h **** #define TU_MAX(_x, _y)                ( ( (_x) > (_y) ) ? (_x) : (_y) )
  41:SynaptiX_FDK/lib/tinyusb/src/common/tusb_common.h **** #define TU_DIV_CEIL(n, d)             (((n) + (d) - 1) / (d))
  42:SynaptiX_FDK/lib/tinyusb/src/common/tusb_common.h **** #define TU_DIV_ROUND_NEAREST(v, d)    (((v) + (d)/2) / (d) ) // round to nearest integer
  43:SynaptiX_FDK/lib/tinyusb/src/common/tusb_common.h **** 
  44:SynaptiX_FDK/lib/tinyusb/src/common/tusb_common.h **** #define TU_U16(_high, _low)           ((uint16_t) ((((uint16_t) (_high)) << 8) | ((uint16_t) (_low)
  45:SynaptiX_FDK/lib/tinyusb/src/common/tusb_common.h **** #define TU_U16_HIGH(_u16)             ((uint8_t) (((uint16_t) (_u16) >> 8) & 0x00ffu))
ARM GAS  C:\Users\LENOVO\AppData\Local\Temp\ccUTPkkl.s 			page 30


  46:SynaptiX_FDK/lib/tinyusb/src/common/tusb_common.h **** #define TU_U16_LOW(_u16)              ((uint8_t) ((uint16_t) (_u16) & 0x00ffu))
  47:SynaptiX_FDK/lib/tinyusb/src/common/tusb_common.h **** #define U16_TO_U8S_BE(_u16)           TU_U16_HIGH(_u16), TU_U16_LOW(_u16)
  48:SynaptiX_FDK/lib/tinyusb/src/common/tusb_common.h **** #define U16_TO_U8S_LE(_u16)           TU_U16_LOW(_u16), TU_U16_HIGH(_u16)
  49:SynaptiX_FDK/lib/tinyusb/src/common/tusb_common.h **** 
  50:SynaptiX_FDK/lib/tinyusb/src/common/tusb_common.h **** #define TU_U24(_high, _mid, _low)     ((uint32_t) ((((uint32_t) (_high)) << 16) | (((uint32_t) (_mi
  51:SynaptiX_FDK/lib/tinyusb/src/common/tusb_common.h **** #define TU_U24_HIGH(_u24)             ((uint8_t) (((uint32_t) (_u24) >> 16) & 0x0000ffu))
  52:SynaptiX_FDK/lib/tinyusb/src/common/tusb_common.h **** #define TU_U24_MID(_u24)              ((uint8_t) (((uint32_t) (_u24) >>  8) & 0x0000ffu))
  53:SynaptiX_FDK/lib/tinyusb/src/common/tusb_common.h **** #define TU_U24_LOW(_u24)              ((uint8_t) ((uint32_t) (_u24) & 0x0000ffu))
  54:SynaptiX_FDK/lib/tinyusb/src/common/tusb_common.h **** #define U24_TO_U8S_BE(_u24)           TU_U24_HIGH(_u24), TU_U24_MID(_u24), TU_U24_LOW(_u24)
  55:SynaptiX_FDK/lib/tinyusb/src/common/tusb_common.h **** #define U24_TO_U8S_LE(_u24)           TU_U24_LOW(_u24), TU_U24_MID(_u24), TU_U24_HIGH(_u24)
  56:SynaptiX_FDK/lib/tinyusb/src/common/tusb_common.h **** 
  57:SynaptiX_FDK/lib/tinyusb/src/common/tusb_common.h **** #define TU_U32_BYTE3(_u32)            ((uint8_t) ((((uint32_t) _u32) >> 24) & 0x000000ff)) // MSB
  58:SynaptiX_FDK/lib/tinyusb/src/common/tusb_common.h **** #define TU_U32_BYTE2(_u32)            ((uint8_t) ((((uint32_t) _u32) >> 16) & 0x000000ff))
  59:SynaptiX_FDK/lib/tinyusb/src/common/tusb_common.h **** #define TU_U32_BYTE1(_u32)            ((uint8_t) ((((uint32_t) _u32) >>  8) & 0x000000ff))
  60:SynaptiX_FDK/lib/tinyusb/src/common/tusb_common.h **** #define TU_U32_BYTE0(_u32)            ((uint8_t) (((uint32_t)  _u32)        & 0x000000ff)) // LSB
  61:SynaptiX_FDK/lib/tinyusb/src/common/tusb_common.h **** 
  62:SynaptiX_FDK/lib/tinyusb/src/common/tusb_common.h **** #define U32_TO_U8S_BE(_u32)           TU_U32_BYTE3(_u32), TU_U32_BYTE2(_u32), TU_U32_BYTE1(_u32), T
  63:SynaptiX_FDK/lib/tinyusb/src/common/tusb_common.h **** #define U32_TO_U8S_LE(_u32)           TU_U32_BYTE0(_u32), TU_U32_BYTE1(_u32), TU_U32_BYTE2(_u32), T
  64:SynaptiX_FDK/lib/tinyusb/src/common/tusb_common.h **** 
  65:SynaptiX_FDK/lib/tinyusb/src/common/tusb_common.h **** #define TU_BIT(n)                     (1UL << (n))
  66:SynaptiX_FDK/lib/tinyusb/src/common/tusb_common.h **** 
  67:SynaptiX_FDK/lib/tinyusb/src/common/tusb_common.h **** // Generate a mask with bit from high (31) to low (0) set, e.g TU_GENMASK(3, 0) = 0b1111
  68:SynaptiX_FDK/lib/tinyusb/src/common/tusb_common.h **** #define TU_GENMASK(h, l)              ( (UINT32_MAX << (l)) & (UINT32_MAX >> (31 - (h))) )
  69:SynaptiX_FDK/lib/tinyusb/src/common/tusb_common.h **** 
  70:SynaptiX_FDK/lib/tinyusb/src/common/tusb_common.h **** //--------------------------------------------------------------------+
  71:SynaptiX_FDK/lib/tinyusb/src/common/tusb_common.h **** // Includes
  72:SynaptiX_FDK/lib/tinyusb/src/common/tusb_common.h **** //--------------------------------------------------------------------+
  73:SynaptiX_FDK/lib/tinyusb/src/common/tusb_common.h **** 
  74:SynaptiX_FDK/lib/tinyusb/src/common/tusb_common.h **** // Standard Headers
  75:SynaptiX_FDK/lib/tinyusb/src/common/tusb_common.h **** #include <stdbool.h>
  76:SynaptiX_FDK/lib/tinyusb/src/common/tusb_common.h **** #include <stdint.h>
  77:SynaptiX_FDK/lib/tinyusb/src/common/tusb_common.h **** #include <inttypes.h>
  78:SynaptiX_FDK/lib/tinyusb/src/common/tusb_common.h **** #include <stddef.h>
  79:SynaptiX_FDK/lib/tinyusb/src/common/tusb_common.h **** #include <string.h>
  80:SynaptiX_FDK/lib/tinyusb/src/common/tusb_common.h **** 
  81:SynaptiX_FDK/lib/tinyusb/src/common/tusb_common.h **** // Tinyusb Common Headers
  82:SynaptiX_FDK/lib/tinyusb/src/common/tusb_common.h **** #include "tusb_option.h"
  83:SynaptiX_FDK/lib/tinyusb/src/common/tusb_common.h **** #include "tusb_compiler.h"
  84:SynaptiX_FDK/lib/tinyusb/src/common/tusb_common.h **** #include "tusb_verify.h"
  85:SynaptiX_FDK/lib/tinyusb/src/common/tusb_common.h **** #include "tusb_types.h"
  86:SynaptiX_FDK/lib/tinyusb/src/common/tusb_common.h **** #include "tusb_debug.h"
  87:SynaptiX_FDK/lib/tinyusb/src/common/tusb_common.h **** 
  88:SynaptiX_FDK/lib/tinyusb/src/common/tusb_common.h **** //--------------------------------------------------------------------+
  89:SynaptiX_FDK/lib/tinyusb/src/common/tusb_common.h **** // API implemented by application if needed
  90:SynaptiX_FDK/lib/tinyusb/src/common/tusb_common.h **** // TODO move to a more obvious place/file
  91:SynaptiX_FDK/lib/tinyusb/src/common/tusb_common.h **** //--------------------------------------------------------------------+
  92:SynaptiX_FDK/lib/tinyusb/src/common/tusb_common.h **** 
  93:SynaptiX_FDK/lib/tinyusb/src/common/tusb_common.h **** // Get current milliseconds, required by some port/configuration without RTOS
  94:SynaptiX_FDK/lib/tinyusb/src/common/tusb_common.h **** extern uint32_t tusb_time_millis_api(void);
  95:SynaptiX_FDK/lib/tinyusb/src/common/tusb_common.h **** 
  96:SynaptiX_FDK/lib/tinyusb/src/common/tusb_common.h **** // Delay in milliseconds, use tusb_time_millis_api() by default. required by some port/configuratio
  97:SynaptiX_FDK/lib/tinyusb/src/common/tusb_common.h **** extern void tusb_time_delay_ms_api(uint32_t ms);
  98:SynaptiX_FDK/lib/tinyusb/src/common/tusb_common.h **** 
  99:SynaptiX_FDK/lib/tinyusb/src/common/tusb_common.h **** // flush data cache
 100:SynaptiX_FDK/lib/tinyusb/src/common/tusb_common.h **** extern void tusb_app_dcache_flush(uintptr_t addr, uint32_t data_size);
 101:SynaptiX_FDK/lib/tinyusb/src/common/tusb_common.h **** 
 102:SynaptiX_FDK/lib/tinyusb/src/common/tusb_common.h **** // invalidate data cache
ARM GAS  C:\Users\LENOVO\AppData\Local\Temp\ccUTPkkl.s 			page 31


 103:SynaptiX_FDK/lib/tinyusb/src/common/tusb_common.h **** extern void tusb_app_dcache_invalidate(uintptr_t addr, uint32_t data_size);
 104:SynaptiX_FDK/lib/tinyusb/src/common/tusb_common.h **** 
 105:SynaptiX_FDK/lib/tinyusb/src/common/tusb_common.h **** // Optional physical <-> virtual address translation
 106:SynaptiX_FDK/lib/tinyusb/src/common/tusb_common.h **** extern void* tusb_app_virt_to_phys(void *virt_addr);
 107:SynaptiX_FDK/lib/tinyusb/src/common/tusb_common.h **** extern void* tusb_app_phys_to_virt(void *phys_addr);
 108:SynaptiX_FDK/lib/tinyusb/src/common/tusb_common.h **** 
 109:SynaptiX_FDK/lib/tinyusb/src/common/tusb_common.h **** //--------------------------------------------------------------------+
 110:SynaptiX_FDK/lib/tinyusb/src/common/tusb_common.h **** // Internal Inline Functions
 111:SynaptiX_FDK/lib/tinyusb/src/common/tusb_common.h **** //--------------------------------------------------------------------+
 112:SynaptiX_FDK/lib/tinyusb/src/common/tusb_common.h **** 
 113:SynaptiX_FDK/lib/tinyusb/src/common/tusb_common.h **** //------------- Mem -------------//
 114:SynaptiX_FDK/lib/tinyusb/src/common/tusb_common.h **** #define tu_memclr(buffer, size)  (void) memset((buffer), 0, (size))
 115:SynaptiX_FDK/lib/tinyusb/src/common/tusb_common.h **** #define tu_varclr(_var)          tu_memclr(_var, sizeof(*(_var)))
 116:SynaptiX_FDK/lib/tinyusb/src/common/tusb_common.h **** 
 117:SynaptiX_FDK/lib/tinyusb/src/common/tusb_common.h **** // This is a backport of memset_s from c11
 118:SynaptiX_FDK/lib/tinyusb/src/common/tusb_common.h **** TU_ATTR_ALWAYS_INLINE static inline int tu_memset_s(void *dest, size_t destsz, int ch, size_t count
 119:SynaptiX_FDK/lib/tinyusb/src/common/tusb_common.h ****   // Validate parameters
 120:SynaptiX_FDK/lib/tinyusb/src/common/tusb_common.h ****   if (dest == NULL) {
 121:SynaptiX_FDK/lib/tinyusb/src/common/tusb_common.h ****     return -1;
 122:SynaptiX_FDK/lib/tinyusb/src/common/tusb_common.h ****   }
 123:SynaptiX_FDK/lib/tinyusb/src/common/tusb_common.h **** 
 124:SynaptiX_FDK/lib/tinyusb/src/common/tusb_common.h ****   if (count == 0u) {
 125:SynaptiX_FDK/lib/tinyusb/src/common/tusb_common.h ****     return 0;
 126:SynaptiX_FDK/lib/tinyusb/src/common/tusb_common.h ****   }
 127:SynaptiX_FDK/lib/tinyusb/src/common/tusb_common.h **** 
 128:SynaptiX_FDK/lib/tinyusb/src/common/tusb_common.h ****   if (count > destsz) {
 129:SynaptiX_FDK/lib/tinyusb/src/common/tusb_common.h ****     return -1;
 130:SynaptiX_FDK/lib/tinyusb/src/common/tusb_common.h ****   }
 131:SynaptiX_FDK/lib/tinyusb/src/common/tusb_common.h **** 
 132:SynaptiX_FDK/lib/tinyusb/src/common/tusb_common.h ****   (void) memset(dest, ch, count);
 133:SynaptiX_FDK/lib/tinyusb/src/common/tusb_common.h ****   return 0;
 134:SynaptiX_FDK/lib/tinyusb/src/common/tusb_common.h **** }
 135:SynaptiX_FDK/lib/tinyusb/src/common/tusb_common.h **** 
 136:SynaptiX_FDK/lib/tinyusb/src/common/tusb_common.h **** // This is a backport of memcpy_s from c11
 137:SynaptiX_FDK/lib/tinyusb/src/common/tusb_common.h **** TU_ATTR_ALWAYS_INLINE static inline int tu_memcpy_s(void *dest, size_t destsz, const void *src, siz
 138:SynaptiX_FDK/lib/tinyusb/src/common/tusb_common.h ****   if (dest == NULL) {
 139:SynaptiX_FDK/lib/tinyusb/src/common/tusb_common.h ****     return -1;
 140:SynaptiX_FDK/lib/tinyusb/src/common/tusb_common.h ****   }
 141:SynaptiX_FDK/lib/tinyusb/src/common/tusb_common.h **** 
 142:SynaptiX_FDK/lib/tinyusb/src/common/tusb_common.h ****   if (count == 0u) {
 143:SynaptiX_FDK/lib/tinyusb/src/common/tusb_common.h ****     return 0;
 144:SynaptiX_FDK/lib/tinyusb/src/common/tusb_common.h ****   }
 145:SynaptiX_FDK/lib/tinyusb/src/common/tusb_common.h **** 
 146:SynaptiX_FDK/lib/tinyusb/src/common/tusb_common.h ****   if (src == NULL) {
 147:SynaptiX_FDK/lib/tinyusb/src/common/tusb_common.h ****     return -1;
 148:SynaptiX_FDK/lib/tinyusb/src/common/tusb_common.h ****   }
 149:SynaptiX_FDK/lib/tinyusb/src/common/tusb_common.h **** 
 150:SynaptiX_FDK/lib/tinyusb/src/common/tusb_common.h ****   if (count > destsz) {
 151:SynaptiX_FDK/lib/tinyusb/src/common/tusb_common.h ****     return -1;
 152:SynaptiX_FDK/lib/tinyusb/src/common/tusb_common.h ****   }
 153:SynaptiX_FDK/lib/tinyusb/src/common/tusb_common.h **** 
 154:SynaptiX_FDK/lib/tinyusb/src/common/tusb_common.h ****   (void) memcpy(dest, src, count);
 155:SynaptiX_FDK/lib/tinyusb/src/common/tusb_common.h ****   return 0;
 156:SynaptiX_FDK/lib/tinyusb/src/common/tusb_common.h **** }
 157:SynaptiX_FDK/lib/tinyusb/src/common/tusb_common.h **** 
 158:SynaptiX_FDK/lib/tinyusb/src/common/tusb_common.h **** TU_ATTR_ALWAYS_INLINE static inline bool tu_mem_is_zero(const void *buffer, size_t size) {
 159:SynaptiX_FDK/lib/tinyusb/src/common/tusb_common.h ****   const uint8_t* buf8 = (const uint8_t*) buffer;
ARM GAS  C:\Users\LENOVO\AppData\Local\Temp\ccUTPkkl.s 			page 32


 160:SynaptiX_FDK/lib/tinyusb/src/common/tusb_common.h ****   for (size_t i = 0; i < size; i++) {
 161:SynaptiX_FDK/lib/tinyusb/src/common/tusb_common.h ****     if (buf8[i] != 0) { return false; }
 162:SynaptiX_FDK/lib/tinyusb/src/common/tusb_common.h ****   }
 163:SynaptiX_FDK/lib/tinyusb/src/common/tusb_common.h ****   return true;
 164:SynaptiX_FDK/lib/tinyusb/src/common/tusb_common.h **** }
 165:SynaptiX_FDK/lib/tinyusb/src/common/tusb_common.h **** 
 166:SynaptiX_FDK/lib/tinyusb/src/common/tusb_common.h **** TU_ATTR_ALWAYS_INLINE static inline bool tu_mem_is_ff(const void *buffer, size_t size) {
 167:SynaptiX_FDK/lib/tinyusb/src/common/tusb_common.h ****   const uint8_t* buf8 = (const uint8_t*) buffer;
 168:SynaptiX_FDK/lib/tinyusb/src/common/tusb_common.h ****   for (size_t i = 0; i < size; i++) {
 169:SynaptiX_FDK/lib/tinyusb/src/common/tusb_common.h ****     if (buf8[i] != 0xff) { return false; }
 170:SynaptiX_FDK/lib/tinyusb/src/common/tusb_common.h ****   }
 171:SynaptiX_FDK/lib/tinyusb/src/common/tusb_common.h ****   return true;
 172:SynaptiX_FDK/lib/tinyusb/src/common/tusb_common.h **** }
 173:SynaptiX_FDK/lib/tinyusb/src/common/tusb_common.h **** 
 174:SynaptiX_FDK/lib/tinyusb/src/common/tusb_common.h **** 
 175:SynaptiX_FDK/lib/tinyusb/src/common/tusb_common.h **** //------------- Bytes -------------//
 176:SynaptiX_FDK/lib/tinyusb/src/common/tusb_common.h **** TU_ATTR_ALWAYS_INLINE static inline uint32_t tu_u32(uint8_t b3, uint8_t b2, uint8_t b1, uint8_t b0)
 177:SynaptiX_FDK/lib/tinyusb/src/common/tusb_common.h ****   return (((uint32_t)b3) << 24) | (((uint32_t)b2) << 16) | (((uint32_t)b1) << 8) | b0;
 178:SynaptiX_FDK/lib/tinyusb/src/common/tusb_common.h **** }
 179:SynaptiX_FDK/lib/tinyusb/src/common/tusb_common.h **** 
 180:SynaptiX_FDK/lib/tinyusb/src/common/tusb_common.h **** TU_ATTR_ALWAYS_INLINE static inline uint32_t tu_u32_from_u16(uint16_t high, uint16_t low) {
 181:SynaptiX_FDK/lib/tinyusb/src/common/tusb_common.h ****   return (((uint32_t)high) << 16) | low;
 182:SynaptiX_FDK/lib/tinyusb/src/common/tusb_common.h **** }
 183:SynaptiX_FDK/lib/tinyusb/src/common/tusb_common.h **** 
 184:SynaptiX_FDK/lib/tinyusb/src/common/tusb_common.h **** TU_ATTR_ALWAYS_INLINE static inline uint16_t tu_u16(uint8_t high, uint8_t low) {
 185:SynaptiX_FDK/lib/tinyusb/src/common/tusb_common.h ****   return (uint16_t)((((uint16_t)high) << 8) | low);
 186:SynaptiX_FDK/lib/tinyusb/src/common/tusb_common.h **** }
 187:SynaptiX_FDK/lib/tinyusb/src/common/tusb_common.h **** 
 188:SynaptiX_FDK/lib/tinyusb/src/common/tusb_common.h **** TU_ATTR_ALWAYS_INLINE static inline uint8_t tu_u32_byte3(uint32_t ui32) { return TU_U32_BYTE3(ui32)
 189:SynaptiX_FDK/lib/tinyusb/src/common/tusb_common.h **** TU_ATTR_ALWAYS_INLINE static inline uint8_t tu_u32_byte2(uint32_t ui32) { return TU_U32_BYTE2(ui32)
 190:SynaptiX_FDK/lib/tinyusb/src/common/tusb_common.h **** TU_ATTR_ALWAYS_INLINE static inline uint8_t tu_u32_byte1(uint32_t ui32) { return TU_U32_BYTE1(ui32)
 191:SynaptiX_FDK/lib/tinyusb/src/common/tusb_common.h **** TU_ATTR_ALWAYS_INLINE static inline uint8_t tu_u32_byte0(uint32_t ui32) { return TU_U32_BYTE0(ui32)
 192:SynaptiX_FDK/lib/tinyusb/src/common/tusb_common.h **** 
 193:SynaptiX_FDK/lib/tinyusb/src/common/tusb_common.h **** TU_ATTR_ALWAYS_INLINE static inline uint16_t tu_u32_high16(uint32_t ui32) { return (uint16_t) (ui32
 194:SynaptiX_FDK/lib/tinyusb/src/common/tusb_common.h **** TU_ATTR_ALWAYS_INLINE static inline uint16_t tu_u32_low16 (uint32_t ui32) { return (uint16_t) (ui32
 195:SynaptiX_FDK/lib/tinyusb/src/common/tusb_common.h **** 
 196:SynaptiX_FDK/lib/tinyusb/src/common/tusb_common.h **** TU_ATTR_ALWAYS_INLINE static inline uint8_t tu_u16_high(uint16_t ui16) { return TU_U16_HIGH(ui16); 
 197:SynaptiX_FDK/lib/tinyusb/src/common/tusb_common.h **** TU_ATTR_ALWAYS_INLINE static inline uint8_t tu_u16_low (uint16_t ui16) { return TU_U16_LOW(ui16); }
 198:SynaptiX_FDK/lib/tinyusb/src/common/tusb_common.h **** 
 199:SynaptiX_FDK/lib/tinyusb/src/common/tusb_common.h **** //------------- Bits -------------//
 200:SynaptiX_FDK/lib/tinyusb/src/common/tusb_common.h **** TU_ATTR_ALWAYS_INLINE static inline uint32_t tu_bit_set  (uint32_t value, uint8_t pos) { return val
 201:SynaptiX_FDK/lib/tinyusb/src/common/tusb_common.h **** TU_ATTR_ALWAYS_INLINE static inline uint32_t tu_bit_clear(uint32_t value, uint8_t pos) { return val
 202:SynaptiX_FDK/lib/tinyusb/src/common/tusb_common.h **** TU_ATTR_ALWAYS_INLINE static inline bool     tu_bit_test (uint32_t value, uint8_t pos) { return (va
 203:SynaptiX_FDK/lib/tinyusb/src/common/tusb_common.h **** 
 204:SynaptiX_FDK/lib/tinyusb/src/common/tusb_common.h **** //------------- Min -------------//
 205:SynaptiX_FDK/lib/tinyusb/src/common/tusb_common.h **** TU_ATTR_ALWAYS_INLINE static inline uint8_t  tu_min8  (uint8_t  x, uint8_t y ) { return (x < y) ? x
 206:SynaptiX_FDK/lib/tinyusb/src/common/tusb_common.h **** TU_ATTR_ALWAYS_INLINE static inline uint16_t tu_min16 (uint16_t x, uint16_t y) { return (x < y) ? x
 207:SynaptiX_FDK/lib/tinyusb/src/common/tusb_common.h **** TU_ATTR_ALWAYS_INLINE static inline uint32_t tu_min32 (uint32_t x, uint32_t y) { return (x < y) ? x
 208:SynaptiX_FDK/lib/tinyusb/src/common/tusb_common.h **** 
 209:SynaptiX_FDK/lib/tinyusb/src/common/tusb_common.h **** //------------- Max -------------//
 210:SynaptiX_FDK/lib/tinyusb/src/common/tusb_common.h **** TU_ATTR_ALWAYS_INLINE static inline uint8_t  tu_max8  (uint8_t  x, uint8_t y ) { return (x > y) ? x
 211:SynaptiX_FDK/lib/tinyusb/src/common/tusb_common.h **** TU_ATTR_ALWAYS_INLINE static inline uint16_t tu_max16 (uint16_t x, uint16_t y) { return (x > y) ? x
 212:SynaptiX_FDK/lib/tinyusb/src/common/tusb_common.h **** TU_ATTR_ALWAYS_INLINE static inline uint32_t tu_max32 (uint32_t x, uint32_t y) { return (x > y) ? x
 213:SynaptiX_FDK/lib/tinyusb/src/common/tusb_common.h **** 
 214:SynaptiX_FDK/lib/tinyusb/src/common/tusb_common.h **** //------------- Align -------------//
 215:SynaptiX_FDK/lib/tinyusb/src/common/tusb_common.h **** TU_ATTR_ALWAYS_INLINE static inline uint32_t tu_align(uint32_t value, uint32_t alignment) {
 216:SynaptiX_FDK/lib/tinyusb/src/common/tusb_common.h ****   return value & ((uint32_t) ~(alignment-1));
ARM GAS  C:\Users\LENOVO\AppData\Local\Temp\ccUTPkkl.s 			page 33


 217:SynaptiX_FDK/lib/tinyusb/src/common/tusb_common.h **** }
 218:SynaptiX_FDK/lib/tinyusb/src/common/tusb_common.h **** 
 219:SynaptiX_FDK/lib/tinyusb/src/common/tusb_common.h **** TU_ATTR_ALWAYS_INLINE static inline uint32_t tu_align4  (uint32_t value) { return (value & 0xFFFFFF
 220:SynaptiX_FDK/lib/tinyusb/src/common/tusb_common.h **** TU_ATTR_ALWAYS_INLINE static inline uint32_t tu_align8  (uint32_t value) { return (value & 0xFFFFFF
 221:SynaptiX_FDK/lib/tinyusb/src/common/tusb_common.h **** TU_ATTR_ALWAYS_INLINE static inline uint32_t tu_align16 (uint32_t value) { return (value & 0xFFFFFF
 222:SynaptiX_FDK/lib/tinyusb/src/common/tusb_common.h **** TU_ATTR_ALWAYS_INLINE static inline uint32_t tu_align32 (uint32_t value) { return (value & 0xFFFFFF
 223:SynaptiX_FDK/lib/tinyusb/src/common/tusb_common.h **** TU_ATTR_ALWAYS_INLINE static inline uint32_t tu_align4k (uint32_t value) { return (value & 0xFFFFF0
 224:SynaptiX_FDK/lib/tinyusb/src/common/tusb_common.h **** TU_ATTR_ALWAYS_INLINE static inline uint32_t tu_offset4k(uint32_t value) { return (value & 0xFFFUL)
 225:SynaptiX_FDK/lib/tinyusb/src/common/tusb_common.h **** 
 226:SynaptiX_FDK/lib/tinyusb/src/common/tusb_common.h **** TU_ATTR_ALWAYS_INLINE static inline bool tu_is_aligned32(uint32_t value) { return (value & 0x1FUL) 
 227:SynaptiX_FDK/lib/tinyusb/src/common/tusb_common.h **** TU_ATTR_ALWAYS_INLINE static inline bool tu_is_aligned64(uint64_t value) { return (value & 0x3FUL) 
 228:SynaptiX_FDK/lib/tinyusb/src/common/tusb_common.h **** 
 229:SynaptiX_FDK/lib/tinyusb/src/common/tusb_common.h **** //------------- Mathematics -------------//
 230:SynaptiX_FDK/lib/tinyusb/src/common/tusb_common.h **** TU_ATTR_ALWAYS_INLINE static inline uint32_t tu_div_ceil(uint32_t v, uint32_t d) { return TU_DIV_CE
 231:SynaptiX_FDK/lib/tinyusb/src/common/tusb_common.h **** TU_ATTR_ALWAYS_INLINE static inline uint32_t tu_div_round_nearest(uint32_t v, uint32_t d) { return 
 232:SynaptiX_FDK/lib/tinyusb/src/common/tusb_common.h **** 
 233:SynaptiX_FDK/lib/tinyusb/src/common/tusb_common.h **** TU_ATTR_ALWAYS_INLINE static inline uint32_t tu_round_up(uint32_t v, uint32_t f) { return tu_div_ce
 234:SynaptiX_FDK/lib/tinyusb/src/common/tusb_common.h **** 
 235:SynaptiX_FDK/lib/tinyusb/src/common/tusb_common.h **** // log2 of a value is its MSB's position
 236:SynaptiX_FDK/lib/tinyusb/src/common/tusb_common.h **** // TODO use clz TODO remove
 237:SynaptiX_FDK/lib/tinyusb/src/common/tusb_common.h **** TU_ATTR_ALWAYS_INLINE static inline uint8_t tu_log2(uint32_t value) {
 238:SynaptiX_FDK/lib/tinyusb/src/common/tusb_common.h ****   uint8_t result = 0;
 239:SynaptiX_FDK/lib/tinyusb/src/common/tusb_common.h ****   while ((value >>= 1u) != 0u) {
 240:SynaptiX_FDK/lib/tinyusb/src/common/tusb_common.h ****     result++;
 241:SynaptiX_FDK/lib/tinyusb/src/common/tusb_common.h ****   }
 242:SynaptiX_FDK/lib/tinyusb/src/common/tusb_common.h ****   return result;
 243:SynaptiX_FDK/lib/tinyusb/src/common/tusb_common.h **** }
 244:SynaptiX_FDK/lib/tinyusb/src/common/tusb_common.h **** 
 245:SynaptiX_FDK/lib/tinyusb/src/common/tusb_common.h **** //static inline uint8_t tu_log2(uint32_t value)
 246:SynaptiX_FDK/lib/tinyusb/src/common/tusb_common.h **** //{
 247:SynaptiX_FDK/lib/tinyusb/src/common/tusb_common.h **** //   return sizeof(uint32_t) * CHAR_BIT - __builtin_clz(x) - 1;
 248:SynaptiX_FDK/lib/tinyusb/src/common/tusb_common.h **** //}
 249:SynaptiX_FDK/lib/tinyusb/src/common/tusb_common.h **** 
 250:SynaptiX_FDK/lib/tinyusb/src/common/tusb_common.h **** TU_ATTR_ALWAYS_INLINE static inline bool tu_is_power_of_two(uint32_t value) {
 251:SynaptiX_FDK/lib/tinyusb/src/common/tusb_common.h ****    return (value != 0) && ((value & (value - 1)) == 0);
 252:SynaptiX_FDK/lib/tinyusb/src/common/tusb_common.h **** }
 253:SynaptiX_FDK/lib/tinyusb/src/common/tusb_common.h **** 
 254:SynaptiX_FDK/lib/tinyusb/src/common/tusb_common.h **** //------------- Unaligned Access -------------//
 255:SynaptiX_FDK/lib/tinyusb/src/common/tusb_common.h **** #if TUP_ARCH_STRICT_ALIGN
 256:SynaptiX_FDK/lib/tinyusb/src/common/tusb_common.h **** 
 257:SynaptiX_FDK/lib/tinyusb/src/common/tusb_common.h **** // Rely on compiler to generate correct code for unaligned access
 258:SynaptiX_FDK/lib/tinyusb/src/common/tusb_common.h **** typedef struct { uint16_t val; } TU_ATTR_PACKED tu_unaligned_uint16_t;
 259:SynaptiX_FDK/lib/tinyusb/src/common/tusb_common.h **** typedef struct { uint32_t val; } TU_ATTR_PACKED tu_unaligned_uint32_t;
 260:SynaptiX_FDK/lib/tinyusb/src/common/tusb_common.h **** 
 261:SynaptiX_FDK/lib/tinyusb/src/common/tusb_common.h **** TU_ATTR_ALWAYS_INLINE static inline uint32_t tu_unaligned_read32(const void *mem) {
 262:SynaptiX_FDK/lib/tinyusb/src/common/tusb_common.h ****   tu_unaligned_uint32_t const *ua32 = (tu_unaligned_uint32_t const *) mem;
 263:SynaptiX_FDK/lib/tinyusb/src/common/tusb_common.h ****   return ua32->val;
 264:SynaptiX_FDK/lib/tinyusb/src/common/tusb_common.h **** }
 265:SynaptiX_FDK/lib/tinyusb/src/common/tusb_common.h **** 
 266:SynaptiX_FDK/lib/tinyusb/src/common/tusb_common.h **** TU_ATTR_ALWAYS_INLINE static inline void tu_unaligned_write32(void *mem, uint32_t value) {
 267:SynaptiX_FDK/lib/tinyusb/src/common/tusb_common.h ****   tu_unaligned_uint32_t *ua32 = (tu_unaligned_uint32_t *) mem;
 268:SynaptiX_FDK/lib/tinyusb/src/common/tusb_common.h ****   ua32->val = value;
 269:SynaptiX_FDK/lib/tinyusb/src/common/tusb_common.h **** }
 270:SynaptiX_FDK/lib/tinyusb/src/common/tusb_common.h **** 
 271:SynaptiX_FDK/lib/tinyusb/src/common/tusb_common.h **** TU_ATTR_ALWAYS_INLINE static inline uint16_t tu_unaligned_read16(const void *mem) {
 272:SynaptiX_FDK/lib/tinyusb/src/common/tusb_common.h ****   tu_unaligned_uint16_t const *ua16 = (tu_unaligned_uint16_t const *) mem;
 273:SynaptiX_FDK/lib/tinyusb/src/common/tusb_common.h ****   return ua16->val;
ARM GAS  C:\Users\LENOVO\AppData\Local\Temp\ccUTPkkl.s 			page 34


 274:SynaptiX_FDK/lib/tinyusb/src/common/tusb_common.h **** }
 275:SynaptiX_FDK/lib/tinyusb/src/common/tusb_common.h **** 
 276:SynaptiX_FDK/lib/tinyusb/src/common/tusb_common.h **** TU_ATTR_ALWAYS_INLINE static inline void tu_unaligned_write16(void *mem, uint16_t value) {
 277:SynaptiX_FDK/lib/tinyusb/src/common/tusb_common.h ****   tu_unaligned_uint16_t *ua16 = (tu_unaligned_uint16_t *) mem;
 278:SynaptiX_FDK/lib/tinyusb/src/common/tusb_common.h ****   ua16->val = value;
 279:SynaptiX_FDK/lib/tinyusb/src/common/tusb_common.h **** }
 280:SynaptiX_FDK/lib/tinyusb/src/common/tusb_common.h **** 
 281:SynaptiX_FDK/lib/tinyusb/src/common/tusb_common.h **** #elif TUP_MCU_STRICT_ALIGN
 282:SynaptiX_FDK/lib/tinyusb/src/common/tusb_common.h **** 
 283:SynaptiX_FDK/lib/tinyusb/src/common/tusb_common.h **** // MCU such as LPC_IP3511 Highspeed cannot access unaligned memory on USB_RAM although it is ARM M4
 284:SynaptiX_FDK/lib/tinyusb/src/common/tusb_common.h **** // We have to manually pick up bytes since tu_unaligned_uint32_t will still generate unaligned code
 285:SynaptiX_FDK/lib/tinyusb/src/common/tusb_common.h **** // NOTE: volatile cast to memory to prevent compiler to optimize and generate unaligned code
 286:SynaptiX_FDK/lib/tinyusb/src/common/tusb_common.h **** // TODO Big Endian may need minor changes
 287:SynaptiX_FDK/lib/tinyusb/src/common/tusb_common.h **** TU_ATTR_ALWAYS_INLINE static inline uint32_t tu_unaligned_read32(const void* mem) {
 288:SynaptiX_FDK/lib/tinyusb/src/common/tusb_common.h ****   volatile uint8_t const* buf8 = (uint8_t const*) mem;
 289:SynaptiX_FDK/lib/tinyusb/src/common/tusb_common.h ****   return tu_u32(buf8[3], buf8[2], buf8[1], buf8[0]);
 290:SynaptiX_FDK/lib/tinyusb/src/common/tusb_common.h **** }
 291:SynaptiX_FDK/lib/tinyusb/src/common/tusb_common.h **** 
 292:SynaptiX_FDK/lib/tinyusb/src/common/tusb_common.h **** TU_ATTR_ALWAYS_INLINE static inline void tu_unaligned_write32(void* mem, uint32_t value) {
 293:SynaptiX_FDK/lib/tinyusb/src/common/tusb_common.h ****   volatile uint8_t* buf8 = (uint8_t*) mem;
 294:SynaptiX_FDK/lib/tinyusb/src/common/tusb_common.h ****   buf8[0] = tu_u32_byte0(value);
 295:SynaptiX_FDK/lib/tinyusb/src/common/tusb_common.h ****   buf8[1] = tu_u32_byte1(value);
 296:SynaptiX_FDK/lib/tinyusb/src/common/tusb_common.h ****   buf8[2] = tu_u32_byte2(value);
 297:SynaptiX_FDK/lib/tinyusb/src/common/tusb_common.h ****   buf8[3] = tu_u32_byte3(value);
 298:SynaptiX_FDK/lib/tinyusb/src/common/tusb_common.h **** }
 299:SynaptiX_FDK/lib/tinyusb/src/common/tusb_common.h **** 
 300:SynaptiX_FDK/lib/tinyusb/src/common/tusb_common.h **** TU_ATTR_ALWAYS_INLINE static inline uint16_t tu_unaligned_read16(const void* mem) {
 301:SynaptiX_FDK/lib/tinyusb/src/common/tusb_common.h ****   volatile uint8_t const* buf8 = (uint8_t const*) mem;
 302:SynaptiX_FDK/lib/tinyusb/src/common/tusb_common.h ****   return tu_u16(buf8[1], buf8[0]);
 303:SynaptiX_FDK/lib/tinyusb/src/common/tusb_common.h **** }
 304:SynaptiX_FDK/lib/tinyusb/src/common/tusb_common.h **** 
 305:SynaptiX_FDK/lib/tinyusb/src/common/tusb_common.h **** TU_ATTR_ALWAYS_INLINE static inline void tu_unaligned_write16(void* mem, uint16_t value) {
 306:SynaptiX_FDK/lib/tinyusb/src/common/tusb_common.h ****   volatile uint8_t* buf8 = (uint8_t*) mem;
 307:SynaptiX_FDK/lib/tinyusb/src/common/tusb_common.h ****   buf8[0] = tu_u16_low(value);
 308:SynaptiX_FDK/lib/tinyusb/src/common/tusb_common.h ****   buf8[1] = tu_u16_high(value);
 309:SynaptiX_FDK/lib/tinyusb/src/common/tusb_common.h **** }
 310:SynaptiX_FDK/lib/tinyusb/src/common/tusb_common.h **** 
 311:SynaptiX_FDK/lib/tinyusb/src/common/tusb_common.h **** #else
 312:SynaptiX_FDK/lib/tinyusb/src/common/tusb_common.h **** 
 313:SynaptiX_FDK/lib/tinyusb/src/common/tusb_common.h **** // MCU that could access unaligned memory natively
 314:SynaptiX_FDK/lib/tinyusb/src/common/tusb_common.h **** TU_ATTR_ALWAYS_INLINE static inline uint32_t tu_unaligned_read32(const void *mem) {
 315:SynaptiX_FDK/lib/tinyusb/src/common/tusb_common.h ****   return *((uint32_t const *) mem);
 316:SynaptiX_FDK/lib/tinyusb/src/common/tusb_common.h **** }
 317:SynaptiX_FDK/lib/tinyusb/src/common/tusb_common.h **** 
 318:SynaptiX_FDK/lib/tinyusb/src/common/tusb_common.h **** TU_ATTR_ALWAYS_INLINE static inline uint16_t tu_unaligned_read16(const void *mem) {
 319:SynaptiX_FDK/lib/tinyusb/src/common/tusb_common.h ****   return *((uint16_t const *) mem);
 320:SynaptiX_FDK/lib/tinyusb/src/common/tusb_common.h **** }
 321:SynaptiX_FDK/lib/tinyusb/src/common/tusb_common.h **** 
 322:SynaptiX_FDK/lib/tinyusb/src/common/tusb_common.h **** TU_ATTR_ALWAYS_INLINE static inline void tu_unaligned_write32(void *mem, uint32_t value) {
 323:SynaptiX_FDK/lib/tinyusb/src/common/tusb_common.h ****   *((uint32_t *) mem) = value;
 324:SynaptiX_FDK/lib/tinyusb/src/common/tusb_common.h **** }
 325:SynaptiX_FDK/lib/tinyusb/src/common/tusb_common.h **** 
 326:SynaptiX_FDK/lib/tinyusb/src/common/tusb_common.h **** TU_ATTR_ALWAYS_INLINE static inline void tu_unaligned_write16(void *mem, uint16_t value) {
 327:SynaptiX_FDK/lib/tinyusb/src/common/tusb_common.h ****   *((uint16_t *) mem) = value;
 328:SynaptiX_FDK/lib/tinyusb/src/common/tusb_common.h **** }
 329:SynaptiX_FDK/lib/tinyusb/src/common/tusb_common.h **** 
 330:SynaptiX_FDK/lib/tinyusb/src/common/tusb_common.h **** #endif
ARM GAS  C:\Users\LENOVO\AppData\Local\Temp\ccUTPkkl.s 			page 35


 331:SynaptiX_FDK/lib/tinyusb/src/common/tusb_common.h **** 
 332:SynaptiX_FDK/lib/tinyusb/src/common/tusb_common.h **** // scatter read 4 bytes from two buffers (LE). Parameter are not checked
 333:SynaptiX_FDK/lib/tinyusb/src/common/tusb_common.h **** TU_ATTR_ALWAYS_INLINE static inline uint32_t tu_scatter_read32(const uint8_t *buf1, uint8_t len1, c
 334:SynaptiX_FDK/lib/tinyusb/src/common/tusb_common.h ****                                                                uint8_t len2) {
 335:SynaptiX_FDK/lib/tinyusb/src/common/tusb_common.h ****   uint32_t result = 0;
 336:SynaptiX_FDK/lib/tinyusb/src/common/tusb_common.h ****   uint8_t  shift  = 0;
 337:SynaptiX_FDK/lib/tinyusb/src/common/tusb_common.h **** 
 338:SynaptiX_FDK/lib/tinyusb/src/common/tusb_common.h ****   for (uint8_t i = 0; i < len1; ++i) {
 339:SynaptiX_FDK/lib/tinyusb/src/common/tusb_common.h ****     result |= ((uint32_t)buf1[i]) << shift;
 340:SynaptiX_FDK/lib/tinyusb/src/common/tusb_common.h ****     shift += 8;
 341:SynaptiX_FDK/lib/tinyusb/src/common/tusb_common.h ****   }
 342:SynaptiX_FDK/lib/tinyusb/src/common/tusb_common.h **** 
 343:SynaptiX_FDK/lib/tinyusb/src/common/tusb_common.h ****   for (uint8_t i = 0; i < len2; ++i) {
 344:SynaptiX_FDK/lib/tinyusb/src/common/tusb_common.h ****     result |= ((uint32_t)buf2[i]) << shift;
 345:SynaptiX_FDK/lib/tinyusb/src/common/tusb_common.h ****     shift += 8;
 346:SynaptiX_FDK/lib/tinyusb/src/common/tusb_common.h ****   }
 347:SynaptiX_FDK/lib/tinyusb/src/common/tusb_common.h **** 
 348:SynaptiX_FDK/lib/tinyusb/src/common/tusb_common.h ****   return result;
 349:SynaptiX_FDK/lib/tinyusb/src/common/tusb_common.h **** }
 350:SynaptiX_FDK/lib/tinyusb/src/common/tusb_common.h **** 
 351:SynaptiX_FDK/lib/tinyusb/src/common/tusb_common.h **** // scatter write 4 bytes (LE) to two buffers. Parameter are not checked
 352:SynaptiX_FDK/lib/tinyusb/src/common/tusb_common.h **** TU_ATTR_ALWAYS_INLINE static inline void tu_scatter_write32(uint32_t value, uint8_t *buf1, uint8_t 
 353:SynaptiX_FDK/lib/tinyusb/src/common/tusb_common.h ****                                                             uint8_t *buf2, uint8_t len2) {
 354:SynaptiX_FDK/lib/tinyusb/src/common/tusb_common.h ****   for (uint8_t i = 0; i < len1; ++i) {
 355:SynaptiX_FDK/lib/tinyusb/src/common/tusb_common.h ****     buf1[i] = (uint8_t)(value & 0xFF);
 356:SynaptiX_FDK/lib/tinyusb/src/common/tusb_common.h ****     value >>= 8;
 357:SynaptiX_FDK/lib/tinyusb/src/common/tusb_common.h ****   }
 358:SynaptiX_FDK/lib/tinyusb/src/common/tusb_common.h **** 
 359:SynaptiX_FDK/lib/tinyusb/src/common/tusb_common.h ****   for (uint8_t i = 0; i < len2; ++i) {
 360:SynaptiX_FDK/lib/tinyusb/src/common/tusb_common.h ****     buf2[i] = (uint8_t)(value & 0xFF);
 361:SynaptiX_FDK/lib/tinyusb/src/common/tusb_common.h ****     value >>= 8;
 362:SynaptiX_FDK/lib/tinyusb/src/common/tusb_common.h ****   }
 363:SynaptiX_FDK/lib/tinyusb/src/common/tusb_common.h **** }
 364:SynaptiX_FDK/lib/tinyusb/src/common/tusb_common.h **** 
 365:SynaptiX_FDK/lib/tinyusb/src/common/tusb_common.h **** //--------------------------------------------------------------------+
 366:SynaptiX_FDK/lib/tinyusb/src/common/tusb_common.h **** // Descriptor helper
 367:SynaptiX_FDK/lib/tinyusb/src/common/tusb_common.h **** //--------------------------------------------------------------------+
 368:SynaptiX_FDK/lib/tinyusb/src/common/tusb_common.h **** 
 369:SynaptiX_FDK/lib/tinyusb/src/common/tusb_common.h **** // return next descriptor
 370:SynaptiX_FDK/lib/tinyusb/src/common/tusb_common.h **** TU_ATTR_ALWAYS_INLINE static inline uint8_t const * tu_desc_next(void const* desc) {
 371:SynaptiX_FDK/lib/tinyusb/src/common/tusb_common.h ****   uint8_t const* desc8 = (uint8_t const*) desc;
 372:SynaptiX_FDK/lib/tinyusb/src/common/tusb_common.h ****   return desc8 + desc8[DESC_OFFSET_LEN];
 373:SynaptiX_FDK/lib/tinyusb/src/common/tusb_common.h **** }
 374:SynaptiX_FDK/lib/tinyusb/src/common/tusb_common.h **** 
 375:SynaptiX_FDK/lib/tinyusb/src/common/tusb_common.h **** // get descriptor length
 376:SynaptiX_FDK/lib/tinyusb/src/common/tusb_common.h **** TU_ATTR_ALWAYS_INLINE static inline uint8_t tu_desc_len(void const* desc) {
 377:SynaptiX_FDK/lib/tinyusb/src/common/tusb_common.h ****   return ((uint8_t const*) desc)[DESC_OFFSET_LEN];
 378:SynaptiX_FDK/lib/tinyusb/src/common/tusb_common.h **** }
 379:SynaptiX_FDK/lib/tinyusb/src/common/tusb_common.h **** 
 380:SynaptiX_FDK/lib/tinyusb/src/common/tusb_common.h **** // get descriptor type
 381:SynaptiX_FDK/lib/tinyusb/src/common/tusb_common.h **** TU_ATTR_ALWAYS_INLINE static inline uint8_t tu_desc_type(void const* desc) {
 382:SynaptiX_FDK/lib/tinyusb/src/common/tusb_common.h ****   return ((uint8_t const*) desc)[DESC_OFFSET_TYPE];
 383:SynaptiX_FDK/lib/tinyusb/src/common/tusb_common.h **** }
 384:SynaptiX_FDK/lib/tinyusb/src/common/tusb_common.h **** 
 385:SynaptiX_FDK/lib/tinyusb/src/common/tusb_common.h **** // get descriptor subtype
 386:SynaptiX_FDK/lib/tinyusb/src/common/tusb_common.h **** TU_ATTR_ALWAYS_INLINE static inline uint8_t tu_desc_subtype(void const* desc) {
 387:SynaptiX_FDK/lib/tinyusb/src/common/tusb_common.h ****   return ((uint8_t const*) desc)[DESC_OFFSET_SUBTYPE];
ARM GAS  C:\Users\LENOVO\AppData\Local\Temp\ccUTPkkl.s 			page 36


 388:SynaptiX_FDK/lib/tinyusb/src/common/tusb_common.h **** }
 389:SynaptiX_FDK/lib/tinyusb/src/common/tusb_common.h **** 
 390:SynaptiX_FDK/lib/tinyusb/src/common/tusb_common.h **** TU_ATTR_ALWAYS_INLINE static inline bool tu_desc_in_bounds(const uint8_t *p_desc, const uint8_t *de
 1010              		.loc 2 390 42 view .LVU273
 1011              	.LBB88:
 391:SynaptiX_FDK/lib/tinyusb/src/common/tusb_common.h ****   return p_desc < desc_end && tu_desc_next(p_desc) <= desc_end;
 1012              		.loc 2 391 3 view .LVU274
 1013              		.loc 2 391 28 is_stmt 0 view .LVU275
 1014 000a 6445     		cmp	r4, ip
 1015 000c 2DD2     		bcs	.L109
 1016              	.LVL79:
 1017              	.LBB89:
 1018              	.LBI89:
 370:SynaptiX_FDK/lib/tinyusb/src/common/tusb_common.h ****   uint8_t const* desc8 = (uint8_t const*) desc;
 1019              		.loc 2 370 53 is_stmt 1 view .LVU276
 1020              	.LBB90:
 371:SynaptiX_FDK/lib/tinyusb/src/common/tusb_common.h ****   return desc8 + desc8[DESC_OFFSET_LEN];
 1021              		.loc 2 371 3 view .LVU277
 372:SynaptiX_FDK/lib/tinyusb/src/common/tusb_common.h **** }
 1022              		.loc 2 372 3 view .LVU278
 372:SynaptiX_FDK/lib/tinyusb/src/common/tusb_common.h **** }
 1023              		.loc 2 372 23 is_stmt 0 view .LVU279
 1024 000e 94F800E0 		ldrb	lr, [r4]	@ zero_extendqisi2
 372:SynaptiX_FDK/lib/tinyusb/src/common/tusb_common.h **** }
 1025              		.loc 2 372 16 view .LVU280
 1026 0012 A644     		add	lr, lr, r4
 1027              	.LVL80:
 372:SynaptiX_FDK/lib/tinyusb/src/common/tusb_common.h **** }
 1028              		.loc 2 372 16 view .LVU281
 1029              	.LBE90:
 1030              	.LBE89:
 1031              		.loc 2 391 28 discriminator 1 view .LVU282
 1032 0014 F445     		cmp	ip, lr
 1033 0016 2AD3     		bcc	.L110
 1034              	.LVL81:
 1035              		.loc 2 391 28 discriminator 1 view .LVU283
 1036              	.LBE88:
 1037              	.LBE87:
 1038              	.LBB91:
 300:SynaptiX_FDK/lib/tinyusb/src/tusb.c **** 
 1039              		.loc 1 300 5 is_stmt 1 view .LVU284
 1040              	.LBB92:
 1041              	.LBI92:
 381:SynaptiX_FDK/lib/tinyusb/src/common/tusb_common.h ****   return ((uint8_t const*) desc)[DESC_OFFSET_TYPE];
 1042              		.loc 2 381 45 view .LVU285
 1043              	.LBB93:
 382:SynaptiX_FDK/lib/tinyusb/src/common/tusb_common.h **** }
 1044              		.loc 2 382 3 view .LVU286
 382:SynaptiX_FDK/lib/tinyusb/src/common/tusb_common.h **** }
 1045              		.loc 2 382 33 is_stmt 0 view .LVU287
 1046 0018 94F801E0 		ldrb	lr, [r4, #1]	@ zero_extendqisi2
 1047              	.LVL82:
 382:SynaptiX_FDK/lib/tinyusb/src/common/tusb_common.h **** }
 1048              		.loc 2 382 33 view .LVU288
 1049              	.LBE93:
 1050              	.LBE92:
 302:SynaptiX_FDK/lib/tinyusb/src/tusb.c ****       const uint8_t ep_addr  = ((const tusb_desc_endpoint_t *)p_desc)->bEndpointAddress;
ARM GAS  C:\Users\LENOVO\AppData\Local\Temp\ccUTPkkl.s 			page 37


 1051              		.loc 1 302 5 is_stmt 1 view .LVU289
 302:SynaptiX_FDK/lib/tinyusb/src/tusb.c ****       const uint8_t ep_addr  = ((const tusb_desc_endpoint_t *)p_desc)->bEndpointAddress;
 1052              		.loc 1 302 8 is_stmt 0 view .LVU290
 1053 001c BEF1050F 		cmp	lr, #5
 1054 0020 06D0     		beq	.L113
 307:SynaptiX_FDK/lib/tinyusb/src/tusb.c ****       const tusb_desc_interface_t *desc_itf = (const tusb_desc_interface_t *)p_desc;
 1055              		.loc 1 307 12 is_stmt 1 view .LVU291
 307:SynaptiX_FDK/lib/tinyusb/src/tusb.c ****       const tusb_desc_interface_t *desc_itf = (const tusb_desc_interface_t *)p_desc;
 1056              		.loc 1 307 15 is_stmt 0 view .LVU292
 1057 0022 BEF1040F 		cmp	lr, #4
 1058 0026 0ED0     		beq	.L114
 1059              	.LVL83:
 1060              	.L103:
 315:SynaptiX_FDK/lib/tinyusb/src/tusb.c ****   }
 1061              		.loc 1 315 5 is_stmt 1 view .LVU293
 1062              	.LBB94:
 1063              	.LBI94:
 370:SynaptiX_FDK/lib/tinyusb/src/common/tusb_common.h ****   uint8_t const* desc8 = (uint8_t const*) desc;
 1064              		.loc 2 370 53 view .LVU294
 1065              	.LBB95:
 371:SynaptiX_FDK/lib/tinyusb/src/common/tusb_common.h ****   return desc8 + desc8[DESC_OFFSET_LEN];
 1066              		.loc 2 371 3 view .LVU295
 372:SynaptiX_FDK/lib/tinyusb/src/common/tusb_common.h **** }
 1067              		.loc 2 372 3 view .LVU296
 372:SynaptiX_FDK/lib/tinyusb/src/common/tusb_common.h **** }
 1068              		.loc 2 372 23 is_stmt 0 view .LVU297
 1069 0028 94F800E0 		ldrb	lr, [r4]	@ zero_extendqisi2
 372:SynaptiX_FDK/lib/tinyusb/src/common/tusb_common.h **** }
 1070              		.loc 2 372 16 view .LVU298
 1071 002c 7444     		add	r4, r4, lr
 1072              	.LVL84:
 372:SynaptiX_FDK/lib/tinyusb/src/common/tusb_common.h **** }
 1073              		.loc 2 372 16 view .LVU299
 1074 002e ECE7     		b	.L102
 1075              	.LVL85:
 1076              	.L113:
 372:SynaptiX_FDK/lib/tinyusb/src/common/tusb_common.h **** }
 1077              		.loc 2 372 16 view .LVU300
 1078              	.LBE95:
 1079              	.LBE94:
 1080              	.LBB96:
 303:SynaptiX_FDK/lib/tinyusb/src/tusb.c ****       const uint8_t ep_num   = tu_edpt_number(ep_addr);
 1081              		.loc 1 303 7 is_stmt 1 view .LVU301
 303:SynaptiX_FDK/lib/tinyusb/src/tusb.c ****       const uint8_t ep_num   = tu_edpt_number(ep_addr);
 1082              		.loc 1 303 21 is_stmt 0 view .LVU302
 1083 0030 94F802E0 		ldrb	lr, [r4, #2]	@ zero_extendqisi2
 1084              	.LVL86:
 304:SynaptiX_FDK/lib/tinyusb/src/tusb.c ****       const uint8_t ep_dir   = tu_edpt_dir(ep_addr);
 1085              		.loc 1 304 7 is_stmt 1 view .LVU303
 1086              	.LBB97:
 1087              	.LBI97:
 1088              		.file 3 "SynaptiX_FDK/lib/tinyusb/src/common/tusb_types.h"
   1:SynaptiX_FDK/lib/tinyusb/src/common/tusb_types.h **** /*
   2:SynaptiX_FDK/lib/tinyusb/src/common/tusb_types.h ****  * The MIT License (MIT)
   3:SynaptiX_FDK/lib/tinyusb/src/common/tusb_types.h ****  *
   4:SynaptiX_FDK/lib/tinyusb/src/common/tusb_types.h ****  * Copyright (c) 2019 Ha Thach (tinyusb.org)
   5:SynaptiX_FDK/lib/tinyusb/src/common/tusb_types.h ****  *
ARM GAS  C:\Users\LENOVO\AppData\Local\Temp\ccUTPkkl.s 			page 38


   6:SynaptiX_FDK/lib/tinyusb/src/common/tusb_types.h ****  * Permission is hereby granted, free of charge, to any person obtaining a copy
   7:SynaptiX_FDK/lib/tinyusb/src/common/tusb_types.h ****  * of this software and associated documentation files (the "Software"), to deal
   8:SynaptiX_FDK/lib/tinyusb/src/common/tusb_types.h ****  * in the Software without restriction, including without limitation the rights
   9:SynaptiX_FDK/lib/tinyusb/src/common/tusb_types.h ****  * to use, copy, modify, merge, publish, distribute, sublicense, and/or sell
  10:SynaptiX_FDK/lib/tinyusb/src/common/tusb_types.h ****  * copies of the Software, and to permit persons to whom the Software is
  11:SynaptiX_FDK/lib/tinyusb/src/common/tusb_types.h ****  * furnished to do so, subject to the following conditions:
  12:SynaptiX_FDK/lib/tinyusb/src/common/tusb_types.h ****  *
  13:SynaptiX_FDK/lib/tinyusb/src/common/tusb_types.h ****  * The above copyright notice and this permission notice shall be included in
  14:SynaptiX_FDK/lib/tinyusb/src/common/tusb_types.h ****  * all copies or substantial portions of the Software.
  15:SynaptiX_FDK/lib/tinyusb/src/common/tusb_types.h ****  *
  16:SynaptiX_FDK/lib/tinyusb/src/common/tusb_types.h ****  * THE SOFTWARE IS PROVIDED "AS IS", WITHOUT WARRANTY OF ANY KIND, EXPRESS OR
  17:SynaptiX_FDK/lib/tinyusb/src/common/tusb_types.h ****  * IMPLIED, INCLUDING BUT NOT LIMITED TO THE WARRANTIES OF MERCHANTABILITY,
  18:SynaptiX_FDK/lib/tinyusb/src/common/tusb_types.h ****  * FITNESS FOR A PARTICULAR PURPOSE AND NONINFRINGEMENT. IN NO EVENT SHALL THE
  19:SynaptiX_FDK/lib/tinyusb/src/common/tusb_types.h ****  * AUTHORS OR COPYRIGHT HOLDERS BE LIABLE FOR ANY CLAIM, DAMAGES OR OTHER
  20:SynaptiX_FDK/lib/tinyusb/src/common/tusb_types.h ****  * LIABILITY, WHETHER IN AN ACTION OF CONTRACT, TORT OR OTHERWISE, ARISING FROM,
  21:SynaptiX_FDK/lib/tinyusb/src/common/tusb_types.h ****  * OUT OF OR IN CONNECTION WITH THE SOFTWARE OR THE USE OR OTHER DEALINGS IN
  22:SynaptiX_FDK/lib/tinyusb/src/common/tusb_types.h ****  * THE SOFTWARE.
  23:SynaptiX_FDK/lib/tinyusb/src/common/tusb_types.h ****  *
  24:SynaptiX_FDK/lib/tinyusb/src/common/tusb_types.h ****  * This file is part of the TinyUSB stack.
  25:SynaptiX_FDK/lib/tinyusb/src/common/tusb_types.h ****  */
  26:SynaptiX_FDK/lib/tinyusb/src/common/tusb_types.h **** 
  27:SynaptiX_FDK/lib/tinyusb/src/common/tusb_types.h **** #ifndef TUSB_TYPES_H_
  28:SynaptiX_FDK/lib/tinyusb/src/common/tusb_types.h **** #define TUSB_TYPES_H_
  29:SynaptiX_FDK/lib/tinyusb/src/common/tusb_types.h **** 
  30:SynaptiX_FDK/lib/tinyusb/src/common/tusb_types.h **** #include <stdbool.h>
  31:SynaptiX_FDK/lib/tinyusb/src/common/tusb_types.h **** #include <stdint.h>
  32:SynaptiX_FDK/lib/tinyusb/src/common/tusb_types.h **** #include "tusb_compiler.h"
  33:SynaptiX_FDK/lib/tinyusb/src/common/tusb_types.h **** 
  34:SynaptiX_FDK/lib/tinyusb/src/common/tusb_types.h **** #ifdef __cplusplus
  35:SynaptiX_FDK/lib/tinyusb/src/common/tusb_types.h ****  extern "C" {
  36:SynaptiX_FDK/lib/tinyusb/src/common/tusb_types.h **** #endif
  37:SynaptiX_FDK/lib/tinyusb/src/common/tusb_types.h **** 
  38:SynaptiX_FDK/lib/tinyusb/src/common/tusb_types.h **** //------------- Device DCache declaration -------------//
  39:SynaptiX_FDK/lib/tinyusb/src/common/tusb_types.h **** #define TUD_EPBUF_DCACHE_SIZE(_size) (CFG_TUD_MEM_DCACHE_ENABLE ? \
  40:SynaptiX_FDK/lib/tinyusb/src/common/tusb_types.h ****   (TU_DIV_CEIL(_size, CFG_TUD_MEM_DCACHE_LINE_SIZE) * CFG_TUD_MEM_DCACHE_LINE_SIZE) : (_size))
  41:SynaptiX_FDK/lib/tinyusb/src/common/tusb_types.h **** 
  42:SynaptiX_FDK/lib/tinyusb/src/common/tusb_types.h **** // Declare an endpoint buffer with uint8_t[size]
  43:SynaptiX_FDK/lib/tinyusb/src/common/tusb_types.h **** #define TUD_EPBUF_DEF(_name, _size) \
  44:SynaptiX_FDK/lib/tinyusb/src/common/tusb_types.h ****   union { \
  45:SynaptiX_FDK/lib/tinyusb/src/common/tusb_types.h ****     CFG_TUD_MEM_ALIGN uint8_t _name[_size]; \
  46:SynaptiX_FDK/lib/tinyusb/src/common/tusb_types.h ****     TU_ATTR_ALIGNED(CFG_TUD_MEM_DCACHE_ENABLE ? CFG_TUD_MEM_DCACHE_LINE_SIZE : 1) uint8_t _name##_d
  47:SynaptiX_FDK/lib/tinyusb/src/common/tusb_types.h ****   }
  48:SynaptiX_FDK/lib/tinyusb/src/common/tusb_types.h **** 
  49:SynaptiX_FDK/lib/tinyusb/src/common/tusb_types.h **** // Declare an endpoint buffer with a type
  50:SynaptiX_FDK/lib/tinyusb/src/common/tusb_types.h **** #define TUD_EPBUF_TYPE_DEF(_type, _name) \
  51:SynaptiX_FDK/lib/tinyusb/src/common/tusb_types.h ****   union { \
  52:SynaptiX_FDK/lib/tinyusb/src/common/tusb_types.h ****     CFG_TUD_MEM_ALIGN _type _name; \
  53:SynaptiX_FDK/lib/tinyusb/src/common/tusb_types.h ****     TU_ATTR_ALIGNED(CFG_TUD_MEM_DCACHE_ENABLE ? CFG_TUD_MEM_DCACHE_LINE_SIZE : 1) uint8_t _name##_d
  54:SynaptiX_FDK/lib/tinyusb/src/common/tusb_types.h ****   }
  55:SynaptiX_FDK/lib/tinyusb/src/common/tusb_types.h **** 
  56:SynaptiX_FDK/lib/tinyusb/src/common/tusb_types.h **** //------------- Host DCache declaration -------------//
  57:SynaptiX_FDK/lib/tinyusb/src/common/tusb_types.h **** #define TUH_EPBUF_DCACHE_SIZE(_size) (CFG_TUH_MEM_DCACHE_ENABLE ? \
  58:SynaptiX_FDK/lib/tinyusb/src/common/tusb_types.h ****   (TU_DIV_CEIL(_size, CFG_TUH_MEM_DCACHE_LINE_SIZE) * CFG_TUH_MEM_DCACHE_LINE_SIZE) : (_size))
  59:SynaptiX_FDK/lib/tinyusb/src/common/tusb_types.h **** 
  60:SynaptiX_FDK/lib/tinyusb/src/common/tusb_types.h **** // Declare an endpoint buffer with uint8_t[size]
  61:SynaptiX_FDK/lib/tinyusb/src/common/tusb_types.h **** #define TUH_EPBUF_DEF(_name, _size) \
  62:SynaptiX_FDK/lib/tinyusb/src/common/tusb_types.h ****   union { \
ARM GAS  C:\Users\LENOVO\AppData\Local\Temp\ccUTPkkl.s 			page 39


  63:SynaptiX_FDK/lib/tinyusb/src/common/tusb_types.h ****     CFG_TUH_MEM_ALIGN uint8_t _name[_size]; \
  64:SynaptiX_FDK/lib/tinyusb/src/common/tusb_types.h ****     TU_ATTR_ALIGNED(CFG_TUH_MEM_DCACHE_ENABLE ? CFG_TUH_MEM_DCACHE_LINE_SIZE : 1) uint8_t _name##_d
  65:SynaptiX_FDK/lib/tinyusb/src/common/tusb_types.h ****   }
  66:SynaptiX_FDK/lib/tinyusb/src/common/tusb_types.h **** 
  67:SynaptiX_FDK/lib/tinyusb/src/common/tusb_types.h **** // Declare an endpoint buffer with a type
  68:SynaptiX_FDK/lib/tinyusb/src/common/tusb_types.h **** #define TUH_EPBUF_TYPE_DEF(_type, _name) \
  69:SynaptiX_FDK/lib/tinyusb/src/common/tusb_types.h ****   union { \
  70:SynaptiX_FDK/lib/tinyusb/src/common/tusb_types.h ****     CFG_TUH_MEM_ALIGN _type _name; \
  71:SynaptiX_FDK/lib/tinyusb/src/common/tusb_types.h ****     TU_ATTR_ALIGNED(CFG_TUH_MEM_DCACHE_ENABLE ? CFG_TUH_MEM_DCACHE_LINE_SIZE : 1) uint8_t _name##_d
  72:SynaptiX_FDK/lib/tinyusb/src/common/tusb_types.h ****   }
  73:SynaptiX_FDK/lib/tinyusb/src/common/tusb_types.h **** 
  74:SynaptiX_FDK/lib/tinyusb/src/common/tusb_types.h **** 
  75:SynaptiX_FDK/lib/tinyusb/src/common/tusb_types.h **** /*------------------------------------------------------------------*/
  76:SynaptiX_FDK/lib/tinyusb/src/common/tusb_types.h **** /* CONSTANTS
  77:SynaptiX_FDK/lib/tinyusb/src/common/tusb_types.h ****  *------------------------------------------------------------------*/
  78:SynaptiX_FDK/lib/tinyusb/src/common/tusb_types.h **** 
  79:SynaptiX_FDK/lib/tinyusb/src/common/tusb_types.h **** typedef enum {
  80:SynaptiX_FDK/lib/tinyusb/src/common/tusb_types.h ****   TUSB_ROLE_INVALID = 0u,
  81:SynaptiX_FDK/lib/tinyusb/src/common/tusb_types.h ****   TUSB_ROLE_DEVICE  = 0x1,
  82:SynaptiX_FDK/lib/tinyusb/src/common/tusb_types.h ****   TUSB_ROLE_HOST    = 0x2,
  83:SynaptiX_FDK/lib/tinyusb/src/common/tusb_types.h **** } tusb_role_t;
  84:SynaptiX_FDK/lib/tinyusb/src/common/tusb_types.h **** 
  85:SynaptiX_FDK/lib/tinyusb/src/common/tusb_types.h **** /// defined base on EHCI specs value for Endpoint Speed
  86:SynaptiX_FDK/lib/tinyusb/src/common/tusb_types.h **** typedef enum {
  87:SynaptiX_FDK/lib/tinyusb/src/common/tusb_types.h ****   TUSB_SPEED_FULL = 0,
  88:SynaptiX_FDK/lib/tinyusb/src/common/tusb_types.h ****   TUSB_SPEED_LOW  = 1,
  89:SynaptiX_FDK/lib/tinyusb/src/common/tusb_types.h ****   TUSB_SPEED_HIGH = 2,
  90:SynaptiX_FDK/lib/tinyusb/src/common/tusb_types.h ****   TUSB_SPEED_AUTO = 0xaa,
  91:SynaptiX_FDK/lib/tinyusb/src/common/tusb_types.h ****   TUSB_SPEED_INVALID = 0xff,
  92:SynaptiX_FDK/lib/tinyusb/src/common/tusb_types.h **** } tusb_speed_t;
  93:SynaptiX_FDK/lib/tinyusb/src/common/tusb_types.h **** 
  94:SynaptiX_FDK/lib/tinyusb/src/common/tusb_types.h **** /// defined base on USB Specs Endpoint's bmAttributes
  95:SynaptiX_FDK/lib/tinyusb/src/common/tusb_types.h **** typedef enum {
  96:SynaptiX_FDK/lib/tinyusb/src/common/tusb_types.h ****   TUSB_XFER_CONTROL     = 0,
  97:SynaptiX_FDK/lib/tinyusb/src/common/tusb_types.h ****   TUSB_XFER_ISOCHRONOUS = 1,
  98:SynaptiX_FDK/lib/tinyusb/src/common/tusb_types.h ****   TUSB_XFER_BULK        = 2,
  99:SynaptiX_FDK/lib/tinyusb/src/common/tusb_types.h ****   TUSB_XFER_INTERRUPT   = 3
 100:SynaptiX_FDK/lib/tinyusb/src/common/tusb_types.h **** } tusb_xfer_type_t;
 101:SynaptiX_FDK/lib/tinyusb/src/common/tusb_types.h **** 
 102:SynaptiX_FDK/lib/tinyusb/src/common/tusb_types.h **** typedef enum {
 103:SynaptiX_FDK/lib/tinyusb/src/common/tusb_types.h ****   TUSB_DIR_OUT = 0,
 104:SynaptiX_FDK/lib/tinyusb/src/common/tusb_types.h ****   TUSB_DIR_IN  = 1,
 105:SynaptiX_FDK/lib/tinyusb/src/common/tusb_types.h **** 
 106:SynaptiX_FDK/lib/tinyusb/src/common/tusb_types.h ****   TUSB_EPNUM_MASK = 0x0F,
 107:SynaptiX_FDK/lib/tinyusb/src/common/tusb_types.h ****   TUSB_DIR_IN_MASK = 0x80
 108:SynaptiX_FDK/lib/tinyusb/src/common/tusb_types.h **** } tusb_dir_t;
 109:SynaptiX_FDK/lib/tinyusb/src/common/tusb_types.h **** 
 110:SynaptiX_FDK/lib/tinyusb/src/common/tusb_types.h **** enum {
 111:SynaptiX_FDK/lib/tinyusb/src/common/tusb_types.h ****   TUSB_EPSIZE_BULK_FS = 64,
 112:SynaptiX_FDK/lib/tinyusb/src/common/tusb_types.h ****   TUSB_EPSIZE_BULK_HS = 512,
 113:SynaptiX_FDK/lib/tinyusb/src/common/tusb_types.h **** 
 114:SynaptiX_FDK/lib/tinyusb/src/common/tusb_types.h ****   TUSB_EPSIZE_ISO_FS_MAX = 1023,
 115:SynaptiX_FDK/lib/tinyusb/src/common/tusb_types.h ****   TUSB_EPSIZE_ISO_HS_MAX = 1024,
 116:SynaptiX_FDK/lib/tinyusb/src/common/tusb_types.h **** };
 117:SynaptiX_FDK/lib/tinyusb/src/common/tusb_types.h **** 
 118:SynaptiX_FDK/lib/tinyusb/src/common/tusb_types.h **** // Endpoint Bulk size depending on host/device max speed
 119:SynaptiX_FDK/lib/tinyusb/src/common/tusb_types.h **** #define TUD_EPSIZE_BULK_MAX   (TUD_OPT_HIGH_SPEED ? 512 : 64)
ARM GAS  C:\Users\LENOVO\AppData\Local\Temp\ccUTPkkl.s 			page 40


 120:SynaptiX_FDK/lib/tinyusb/src/common/tusb_types.h **** #define TUH_EPSIZE_BULK_MAX   (TUH_OPT_HIGH_SPEED ? 512 : 64)
 121:SynaptiX_FDK/lib/tinyusb/src/common/tusb_types.h **** 
 122:SynaptiX_FDK/lib/tinyusb/src/common/tusb_types.h **** /// Isochronous Endpoint Attributes
 123:SynaptiX_FDK/lib/tinyusb/src/common/tusb_types.h **** typedef enum {
 124:SynaptiX_FDK/lib/tinyusb/src/common/tusb_types.h ****   TUSB_ISO_EP_ATT_NO_SYNC         = 0x00,
 125:SynaptiX_FDK/lib/tinyusb/src/common/tusb_types.h ****   TUSB_ISO_EP_ATT_ASYNCHRONOUS    = 0x04,
 126:SynaptiX_FDK/lib/tinyusb/src/common/tusb_types.h ****   TUSB_ISO_EP_ATT_ADAPTIVE        = 0x08,
 127:SynaptiX_FDK/lib/tinyusb/src/common/tusb_types.h ****   TUSB_ISO_EP_ATT_SYNCHRONOUS     = 0x0C,
 128:SynaptiX_FDK/lib/tinyusb/src/common/tusb_types.h ****   TUSB_ISO_EP_ATT_DATA            = 0x00, ///< Data End Point
 129:SynaptiX_FDK/lib/tinyusb/src/common/tusb_types.h ****   TUSB_ISO_EP_ATT_EXPLICIT_FB     = 0x10, ///< Feedback End Point
 130:SynaptiX_FDK/lib/tinyusb/src/common/tusb_types.h ****   TUSB_ISO_EP_ATT_IMPLICIT_FB     = 0x20, ///< Data endpoint that also serves as an implicit feedba
 131:SynaptiX_FDK/lib/tinyusb/src/common/tusb_types.h **** } tusb_iso_ep_attribute_t;
 132:SynaptiX_FDK/lib/tinyusb/src/common/tusb_types.h **** 
 133:SynaptiX_FDK/lib/tinyusb/src/common/tusb_types.h **** /// USB Descriptor Types
 134:SynaptiX_FDK/lib/tinyusb/src/common/tusb_types.h **** typedef enum {
 135:SynaptiX_FDK/lib/tinyusb/src/common/tusb_types.h ****   TUSB_DESC_DEVICE                = 0x01,
 136:SynaptiX_FDK/lib/tinyusb/src/common/tusb_types.h ****   TUSB_DESC_CONFIGURATION         = 0x02,
 137:SynaptiX_FDK/lib/tinyusb/src/common/tusb_types.h ****   TUSB_DESC_STRING                = 0x03,
 138:SynaptiX_FDK/lib/tinyusb/src/common/tusb_types.h ****   TUSB_DESC_INTERFACE             = 0x04,
 139:SynaptiX_FDK/lib/tinyusb/src/common/tusb_types.h ****   TUSB_DESC_ENDPOINT              = 0x05,
 140:SynaptiX_FDK/lib/tinyusb/src/common/tusb_types.h ****   TUSB_DESC_DEVICE_QUALIFIER      = 0x06,
 141:SynaptiX_FDK/lib/tinyusb/src/common/tusb_types.h ****   TUSB_DESC_OTHER_SPEED_CONFIG    = 0x07,
 142:SynaptiX_FDK/lib/tinyusb/src/common/tusb_types.h ****   TUSB_DESC_INTERFACE_POWER       = 0x08,
 143:SynaptiX_FDK/lib/tinyusb/src/common/tusb_types.h ****   TUSB_DESC_OTG                   = 0x09,
 144:SynaptiX_FDK/lib/tinyusb/src/common/tusb_types.h ****   TUSB_DESC_DEBUG                 = 0x0A,
 145:SynaptiX_FDK/lib/tinyusb/src/common/tusb_types.h ****   TUSB_DESC_INTERFACE_ASSOCIATION = 0x0B,
 146:SynaptiX_FDK/lib/tinyusb/src/common/tusb_types.h **** 
 147:SynaptiX_FDK/lib/tinyusb/src/common/tusb_types.h ****   TUSB_DESC_BOS                   = 0x0F,
 148:SynaptiX_FDK/lib/tinyusb/src/common/tusb_types.h ****   TUSB_DESC_DEVICE_CAPABILITY     = 0x10,
 149:SynaptiX_FDK/lib/tinyusb/src/common/tusb_types.h **** 
 150:SynaptiX_FDK/lib/tinyusb/src/common/tusb_types.h ****   TUSB_DESC_FUNCTIONAL            = 0x21,
 151:SynaptiX_FDK/lib/tinyusb/src/common/tusb_types.h **** 
 152:SynaptiX_FDK/lib/tinyusb/src/common/tusb_types.h ****   // Class Specific Descriptor
 153:SynaptiX_FDK/lib/tinyusb/src/common/tusb_types.h ****   TUSB_DESC_CS_DEVICE             = 0x21,
 154:SynaptiX_FDK/lib/tinyusb/src/common/tusb_types.h ****   TUSB_DESC_CS_CONFIGURATION      = 0x22,
 155:SynaptiX_FDK/lib/tinyusb/src/common/tusb_types.h ****   TUSB_DESC_CS_STRING             = 0x23,
 156:SynaptiX_FDK/lib/tinyusb/src/common/tusb_types.h ****   TUSB_DESC_CS_INTERFACE          = 0x24,
 157:SynaptiX_FDK/lib/tinyusb/src/common/tusb_types.h ****   TUSB_DESC_CS_ENDPOINT           = 0x25,
 158:SynaptiX_FDK/lib/tinyusb/src/common/tusb_types.h **** 
 159:SynaptiX_FDK/lib/tinyusb/src/common/tusb_types.h ****   TUSB_DESC_SUPERSPEED_ENDPOINT_COMPANION     = 0x30,
 160:SynaptiX_FDK/lib/tinyusb/src/common/tusb_types.h ****   TUSB_DESC_SUPERSPEED_ISO_ENDPOINT_COMPANION = 0x31
 161:SynaptiX_FDK/lib/tinyusb/src/common/tusb_types.h **** } tusb_desc_type_t;
 162:SynaptiX_FDK/lib/tinyusb/src/common/tusb_types.h **** 
 163:SynaptiX_FDK/lib/tinyusb/src/common/tusb_types.h **** typedef enum {
 164:SynaptiX_FDK/lib/tinyusb/src/common/tusb_types.h ****   TUSB_REQ_GET_STATUS        = 0  ,
 165:SynaptiX_FDK/lib/tinyusb/src/common/tusb_types.h ****   TUSB_REQ_CLEAR_FEATURE     = 1  ,
 166:SynaptiX_FDK/lib/tinyusb/src/common/tusb_types.h ****   TUSB_REQ_RESERVED          = 2  ,
 167:SynaptiX_FDK/lib/tinyusb/src/common/tusb_types.h ****   TUSB_REQ_SET_FEATURE       = 3  ,
 168:SynaptiX_FDK/lib/tinyusb/src/common/tusb_types.h ****   TUSB_REQ_RESERVED2         = 4  ,
 169:SynaptiX_FDK/lib/tinyusb/src/common/tusb_types.h ****   TUSB_REQ_SET_ADDRESS       = 5  ,
 170:SynaptiX_FDK/lib/tinyusb/src/common/tusb_types.h ****   TUSB_REQ_GET_DESCRIPTOR    = 6  ,
 171:SynaptiX_FDK/lib/tinyusb/src/common/tusb_types.h ****   TUSB_REQ_SET_DESCRIPTOR    = 7  ,
 172:SynaptiX_FDK/lib/tinyusb/src/common/tusb_types.h ****   TUSB_REQ_GET_CONFIGURATION = 8  ,
 173:SynaptiX_FDK/lib/tinyusb/src/common/tusb_types.h ****   TUSB_REQ_SET_CONFIGURATION = 9  ,
 174:SynaptiX_FDK/lib/tinyusb/src/common/tusb_types.h ****   TUSB_REQ_GET_INTERFACE     = 10 ,
 175:SynaptiX_FDK/lib/tinyusb/src/common/tusb_types.h ****   TUSB_REQ_SET_INTERFACE     = 11 ,
 176:SynaptiX_FDK/lib/tinyusb/src/common/tusb_types.h ****   TUSB_REQ_SYNCH_FRAME       = 12
ARM GAS  C:\Users\LENOVO\AppData\Local\Temp\ccUTPkkl.s 			page 41


 177:SynaptiX_FDK/lib/tinyusb/src/common/tusb_types.h **** } tusb_request_code_t;
 178:SynaptiX_FDK/lib/tinyusb/src/common/tusb_types.h **** 
 179:SynaptiX_FDK/lib/tinyusb/src/common/tusb_types.h **** typedef enum {
 180:SynaptiX_FDK/lib/tinyusb/src/common/tusb_types.h ****   TUSB_REQ_FEATURE_EDPT_HALT     = 0,
 181:SynaptiX_FDK/lib/tinyusb/src/common/tusb_types.h ****   TUSB_REQ_FEATURE_REMOTE_WAKEUP = 1,
 182:SynaptiX_FDK/lib/tinyusb/src/common/tusb_types.h ****   TUSB_REQ_FEATURE_TEST_MODE     = 2
 183:SynaptiX_FDK/lib/tinyusb/src/common/tusb_types.h **** } tusb_request_feature_selector_t;
 184:SynaptiX_FDK/lib/tinyusb/src/common/tusb_types.h **** 
 185:SynaptiX_FDK/lib/tinyusb/src/common/tusb_types.h **** typedef enum {
 186:SynaptiX_FDK/lib/tinyusb/src/common/tusb_types.h ****   TUSB_REQ_TYPE_STANDARD = 0u,
 187:SynaptiX_FDK/lib/tinyusb/src/common/tusb_types.h ****   TUSB_REQ_TYPE_CLASS,
 188:SynaptiX_FDK/lib/tinyusb/src/common/tusb_types.h ****   TUSB_REQ_TYPE_VENDOR,
 189:SynaptiX_FDK/lib/tinyusb/src/common/tusb_types.h ****   TUSB_REQ_TYPE_INVALID
 190:SynaptiX_FDK/lib/tinyusb/src/common/tusb_types.h **** } tusb_request_type_t;
 191:SynaptiX_FDK/lib/tinyusb/src/common/tusb_types.h **** 
 192:SynaptiX_FDK/lib/tinyusb/src/common/tusb_types.h **** typedef enum {
 193:SynaptiX_FDK/lib/tinyusb/src/common/tusb_types.h ****   TUSB_REQ_RCPT_DEVICE =0,
 194:SynaptiX_FDK/lib/tinyusb/src/common/tusb_types.h ****   TUSB_REQ_RCPT_INTERFACE,
 195:SynaptiX_FDK/lib/tinyusb/src/common/tusb_types.h ****   TUSB_REQ_RCPT_ENDPOINT,
 196:SynaptiX_FDK/lib/tinyusb/src/common/tusb_types.h ****   TUSB_REQ_RCPT_OTHER
 197:SynaptiX_FDK/lib/tinyusb/src/common/tusb_types.h **** } tusb_request_recipient_t;
 198:SynaptiX_FDK/lib/tinyusb/src/common/tusb_types.h **** 
 199:SynaptiX_FDK/lib/tinyusb/src/common/tusb_types.h **** // https://www.usb.org/defined-class-codes
 200:SynaptiX_FDK/lib/tinyusb/src/common/tusb_types.h **** typedef enum {
 201:SynaptiX_FDK/lib/tinyusb/src/common/tusb_types.h ****   TUSB_CLASS_UNSPECIFIED          = 0    ,
 202:SynaptiX_FDK/lib/tinyusb/src/common/tusb_types.h ****   TUSB_CLASS_AUDIO                = 1    ,
 203:SynaptiX_FDK/lib/tinyusb/src/common/tusb_types.h ****   TUSB_CLASS_CDC                  = 2    ,
 204:SynaptiX_FDK/lib/tinyusb/src/common/tusb_types.h ****   TUSB_CLASS_HID                  = 3    ,
 205:SynaptiX_FDK/lib/tinyusb/src/common/tusb_types.h ****   TUSB_CLASS_RESERVED_4           = 4    ,
 206:SynaptiX_FDK/lib/tinyusb/src/common/tusb_types.h ****   TUSB_CLASS_PHYSICAL             = 5    ,
 207:SynaptiX_FDK/lib/tinyusb/src/common/tusb_types.h ****   TUSB_CLASS_IMAGE                = 6    ,
 208:SynaptiX_FDK/lib/tinyusb/src/common/tusb_types.h ****   TUSB_CLASS_PRINTER              = 7    ,
 209:SynaptiX_FDK/lib/tinyusb/src/common/tusb_types.h ****   TUSB_CLASS_MSC                  = 8    ,
 210:SynaptiX_FDK/lib/tinyusb/src/common/tusb_types.h ****   TUSB_CLASS_HUB                  = 9    ,
 211:SynaptiX_FDK/lib/tinyusb/src/common/tusb_types.h ****   TUSB_CLASS_CDC_DATA             = 10   ,
 212:SynaptiX_FDK/lib/tinyusb/src/common/tusb_types.h ****   TUSB_CLASS_SMART_CARD           = 11   ,
 213:SynaptiX_FDK/lib/tinyusb/src/common/tusb_types.h ****   TUSB_CLASS_RESERVED_12          = 12   ,
 214:SynaptiX_FDK/lib/tinyusb/src/common/tusb_types.h ****   TUSB_CLASS_CONTENT_SECURITY     = 13   ,
 215:SynaptiX_FDK/lib/tinyusb/src/common/tusb_types.h ****   TUSB_CLASS_VIDEO                = 14   ,
 216:SynaptiX_FDK/lib/tinyusb/src/common/tusb_types.h ****   TUSB_CLASS_PERSONAL_HEALTHCARE  = 15   ,
 217:SynaptiX_FDK/lib/tinyusb/src/common/tusb_types.h ****   TUSB_CLASS_AUDIO_VIDEO          = 16   ,
 218:SynaptiX_FDK/lib/tinyusb/src/common/tusb_types.h **** 
 219:SynaptiX_FDK/lib/tinyusb/src/common/tusb_types.h ****   TUSB_CLASS_DIAGNOSTIC           = 0xDC ,
 220:SynaptiX_FDK/lib/tinyusb/src/common/tusb_types.h ****   TUSB_CLASS_WIRELESS_CONTROLLER  = 0xE0 ,
 221:SynaptiX_FDK/lib/tinyusb/src/common/tusb_types.h ****   TUSB_CLASS_MISC                 = 0xEF ,
 222:SynaptiX_FDK/lib/tinyusb/src/common/tusb_types.h ****   TUSB_CLASS_APPLICATION_SPECIFIC = 0xFE ,
 223:SynaptiX_FDK/lib/tinyusb/src/common/tusb_types.h ****   TUSB_CLASS_VENDOR_SPECIFIC      = 0xFF
 224:SynaptiX_FDK/lib/tinyusb/src/common/tusb_types.h **** } tusb_class_code_t;
 225:SynaptiX_FDK/lib/tinyusb/src/common/tusb_types.h **** 
 226:SynaptiX_FDK/lib/tinyusb/src/common/tusb_types.h **** typedef enum
 227:SynaptiX_FDK/lib/tinyusb/src/common/tusb_types.h **** {
 228:SynaptiX_FDK/lib/tinyusb/src/common/tusb_types.h ****   MISC_SUBCLASS_COMMON = 2
 229:SynaptiX_FDK/lib/tinyusb/src/common/tusb_types.h **** }misc_subclass_type_t;
 230:SynaptiX_FDK/lib/tinyusb/src/common/tusb_types.h **** 
 231:SynaptiX_FDK/lib/tinyusb/src/common/tusb_types.h **** typedef enum {
 232:SynaptiX_FDK/lib/tinyusb/src/common/tusb_types.h ****   MISC_PROTOCOL_IAD = 1
 233:SynaptiX_FDK/lib/tinyusb/src/common/tusb_types.h **** } misc_protocol_type_t;
ARM GAS  C:\Users\LENOVO\AppData\Local\Temp\ccUTPkkl.s 			page 42


 234:SynaptiX_FDK/lib/tinyusb/src/common/tusb_types.h **** 
 235:SynaptiX_FDK/lib/tinyusb/src/common/tusb_types.h **** typedef enum {
 236:SynaptiX_FDK/lib/tinyusb/src/common/tusb_types.h ****   APP_SUBCLASS_USBTMC = 0x03,
 237:SynaptiX_FDK/lib/tinyusb/src/common/tusb_types.h ****   APP_SUBCLASS_DFU_RUNTIME = 0x01
 238:SynaptiX_FDK/lib/tinyusb/src/common/tusb_types.h **** } app_subclass_type_t;
 239:SynaptiX_FDK/lib/tinyusb/src/common/tusb_types.h **** 
 240:SynaptiX_FDK/lib/tinyusb/src/common/tusb_types.h **** typedef enum {
 241:SynaptiX_FDK/lib/tinyusb/src/common/tusb_types.h ****   DEVICE_CAPABILITY_WIRELESS_USB               = 0x01,
 242:SynaptiX_FDK/lib/tinyusb/src/common/tusb_types.h ****   DEVICE_CAPABILITY_USB20_EXTENSION            = 0x02,
 243:SynaptiX_FDK/lib/tinyusb/src/common/tusb_types.h ****   DEVICE_CAPABILITY_SUPERSPEED_USB             = 0x03,
 244:SynaptiX_FDK/lib/tinyusb/src/common/tusb_types.h ****   DEVICE_CAPABILITY_CONTAINER_id               = 0x04,
 245:SynaptiX_FDK/lib/tinyusb/src/common/tusb_types.h ****   DEVICE_CAPABILITY_PLATFORM                   = 0x05,
 246:SynaptiX_FDK/lib/tinyusb/src/common/tusb_types.h ****   DEVICE_CAPABILITY_POWER_DELIVERY             = 0x06,
 247:SynaptiX_FDK/lib/tinyusb/src/common/tusb_types.h ****   DEVICE_CAPABILITY_BATTERY_INFO               = 0x07,
 248:SynaptiX_FDK/lib/tinyusb/src/common/tusb_types.h ****   DEVICE_CAPABILITY_PD_CONSUMER_PORT           = 0x08,
 249:SynaptiX_FDK/lib/tinyusb/src/common/tusb_types.h ****   DEVICE_CAPABILITY_PD_PROVIDER_PORT           = 0x09,
 250:SynaptiX_FDK/lib/tinyusb/src/common/tusb_types.h ****   DEVICE_CAPABILITY_SUPERSPEED_PLUS            = 0x0A,
 251:SynaptiX_FDK/lib/tinyusb/src/common/tusb_types.h ****   DEVICE_CAPABILITY_PRECESION_TIME_MEASUREMENT = 0x0B,
 252:SynaptiX_FDK/lib/tinyusb/src/common/tusb_types.h ****   DEVICE_CAPABILITY_WIRELESS_USB_EXT           = 0x0C,
 253:SynaptiX_FDK/lib/tinyusb/src/common/tusb_types.h ****   DEVICE_CAPABILITY_BILLBOARD                  = 0x0D,
 254:SynaptiX_FDK/lib/tinyusb/src/common/tusb_types.h ****   DEVICE_CAPABILITY_AUTHENTICATION             = 0x0E,
 255:SynaptiX_FDK/lib/tinyusb/src/common/tusb_types.h ****   DEVICE_CAPABILITY_BILLBOARD_EX               = 0x0F,
 256:SynaptiX_FDK/lib/tinyusb/src/common/tusb_types.h ****   DEVICE_CAPABILITY_CONFIGURATION_SUMMARY      = 0x10
 257:SynaptiX_FDK/lib/tinyusb/src/common/tusb_types.h **** } device_capability_type_t;
 258:SynaptiX_FDK/lib/tinyusb/src/common/tusb_types.h **** 
 259:SynaptiX_FDK/lib/tinyusb/src/common/tusb_types.h **** enum {
 260:SynaptiX_FDK/lib/tinyusb/src/common/tusb_types.h ****   TUSB_DESC_CONFIG_ATT_REMOTE_WAKEUP = 1 << 5,
 261:SynaptiX_FDK/lib/tinyusb/src/common/tusb_types.h ****   TUSB_DESC_CONFIG_ATT_SELF_POWERED  = 1 << 6,
 262:SynaptiX_FDK/lib/tinyusb/src/common/tusb_types.h **** };
 263:SynaptiX_FDK/lib/tinyusb/src/common/tusb_types.h **** 
 264:SynaptiX_FDK/lib/tinyusb/src/common/tusb_types.h **** #define TUSB_DESC_CONFIG_POWER_MA(x)  ((x)/2)
 265:SynaptiX_FDK/lib/tinyusb/src/common/tusb_types.h **** 
 266:SynaptiX_FDK/lib/tinyusb/src/common/tusb_types.h **** // USB 2.0 Spec Table 9-7: Test Mode Selectors
 267:SynaptiX_FDK/lib/tinyusb/src/common/tusb_types.h **** typedef enum {
 268:SynaptiX_FDK/lib/tinyusb/src/common/tusb_types.h ****   TUSB_FEATURE_TEST_J = 1,
 269:SynaptiX_FDK/lib/tinyusb/src/common/tusb_types.h ****   TUSB_FEATURE_TEST_K = 2,
 270:SynaptiX_FDK/lib/tinyusb/src/common/tusb_types.h ****   TUSB_FEATURE_TEST_SE0_NAK = 3,
 271:SynaptiX_FDK/lib/tinyusb/src/common/tusb_types.h ****   TUSB_FEATURE_TEST_PACKET = 4,
 272:SynaptiX_FDK/lib/tinyusb/src/common/tusb_types.h ****   TUSB_FEATURE_TEST_FORCE_ENABLE = 5,
 273:SynaptiX_FDK/lib/tinyusb/src/common/tusb_types.h **** } tusb_feature_test_mode_t;
 274:SynaptiX_FDK/lib/tinyusb/src/common/tusb_types.h **** 
 275:SynaptiX_FDK/lib/tinyusb/src/common/tusb_types.h **** //--------------------------------------------------------------------+
 276:SynaptiX_FDK/lib/tinyusb/src/common/tusb_types.h **** //
 277:SynaptiX_FDK/lib/tinyusb/src/common/tusb_types.h **** //--------------------------------------------------------------------+
 278:SynaptiX_FDK/lib/tinyusb/src/common/tusb_types.h **** typedef enum {
 279:SynaptiX_FDK/lib/tinyusb/src/common/tusb_types.h ****   XFER_RESULT_SUCCESS = 0,
 280:SynaptiX_FDK/lib/tinyusb/src/common/tusb_types.h ****   XFER_RESULT_FAILED,
 281:SynaptiX_FDK/lib/tinyusb/src/common/tusb_types.h ****   XFER_RESULT_STALLED,
 282:SynaptiX_FDK/lib/tinyusb/src/common/tusb_types.h ****   XFER_RESULT_TIMEOUT,
 283:SynaptiX_FDK/lib/tinyusb/src/common/tusb_types.h ****   XFER_RESULT_INVALID
 284:SynaptiX_FDK/lib/tinyusb/src/common/tusb_types.h **** } xfer_result_t;
 285:SynaptiX_FDK/lib/tinyusb/src/common/tusb_types.h **** 
 286:SynaptiX_FDK/lib/tinyusb/src/common/tusb_types.h **** #define tusb_xfer_result_t xfer_result_t
 287:SynaptiX_FDK/lib/tinyusb/src/common/tusb_types.h **** 
 288:SynaptiX_FDK/lib/tinyusb/src/common/tusb_types.h **** // TODO remove
 289:SynaptiX_FDK/lib/tinyusb/src/common/tusb_types.h **** enum {
 290:SynaptiX_FDK/lib/tinyusb/src/common/tusb_types.h ****   DESC_OFFSET_LEN  = 0,
ARM GAS  C:\Users\LENOVO\AppData\Local\Temp\ccUTPkkl.s 			page 43


 291:SynaptiX_FDK/lib/tinyusb/src/common/tusb_types.h ****   DESC_OFFSET_TYPE = 1,
 292:SynaptiX_FDK/lib/tinyusb/src/common/tusb_types.h ****   DESC_OFFSET_SUBTYPE = 2
 293:SynaptiX_FDK/lib/tinyusb/src/common/tusb_types.h **** };
 294:SynaptiX_FDK/lib/tinyusb/src/common/tusb_types.h **** 
 295:SynaptiX_FDK/lib/tinyusb/src/common/tusb_types.h **** enum {
 296:SynaptiX_FDK/lib/tinyusb/src/common/tusb_types.h ****   INTERFACE_INVALID_NUMBER = 0xff
 297:SynaptiX_FDK/lib/tinyusb/src/common/tusb_types.h **** };
 298:SynaptiX_FDK/lib/tinyusb/src/common/tusb_types.h **** 
 299:SynaptiX_FDK/lib/tinyusb/src/common/tusb_types.h **** typedef enum {
 300:SynaptiX_FDK/lib/tinyusb/src/common/tusb_types.h ****   MS_OS_20_SET_HEADER_DESCRIPTOR       = 0x00,
 301:SynaptiX_FDK/lib/tinyusb/src/common/tusb_types.h ****   MS_OS_20_SUBSET_HEADER_CONFIGURATION = 0x01,
 302:SynaptiX_FDK/lib/tinyusb/src/common/tusb_types.h ****   MS_OS_20_SUBSET_HEADER_FUNCTION      = 0x02,
 303:SynaptiX_FDK/lib/tinyusb/src/common/tusb_types.h ****   MS_OS_20_FEATURE_COMPATBLE_ID        = 0x03,
 304:SynaptiX_FDK/lib/tinyusb/src/common/tusb_types.h ****   MS_OS_20_FEATURE_REG_PROPERTY        = 0x04,
 305:SynaptiX_FDK/lib/tinyusb/src/common/tusb_types.h ****   MS_OS_20_FEATURE_MIN_RESUME_TIME     = 0x05,
 306:SynaptiX_FDK/lib/tinyusb/src/common/tusb_types.h ****   MS_OS_20_FEATURE_MODEL_ID            = 0x06,
 307:SynaptiX_FDK/lib/tinyusb/src/common/tusb_types.h ****   MS_OS_20_FEATURE_CCGP_DEVICE         = 0x07,
 308:SynaptiX_FDK/lib/tinyusb/src/common/tusb_types.h ****   MS_OS_20_FEATURE_VENDOR_REVISION     = 0x08
 309:SynaptiX_FDK/lib/tinyusb/src/common/tusb_types.h **** } microsoft_os_20_type_t;
 310:SynaptiX_FDK/lib/tinyusb/src/common/tusb_types.h **** 
 311:SynaptiX_FDK/lib/tinyusb/src/common/tusb_types.h **** enum {
 312:SynaptiX_FDK/lib/tinyusb/src/common/tusb_types.h ****   CONTROL_STAGE_IDLE = 0,
 313:SynaptiX_FDK/lib/tinyusb/src/common/tusb_types.h ****   CONTROL_STAGE_SETUP, // 1
 314:SynaptiX_FDK/lib/tinyusb/src/common/tusb_types.h ****   CONTROL_STAGE_DATA,  // 2
 315:SynaptiX_FDK/lib/tinyusb/src/common/tusb_types.h ****   CONTROL_STAGE_ACK    // 3
 316:SynaptiX_FDK/lib/tinyusb/src/common/tusb_types.h **** };
 317:SynaptiX_FDK/lib/tinyusb/src/common/tusb_types.h **** 
 318:SynaptiX_FDK/lib/tinyusb/src/common/tusb_types.h **** enum {
 319:SynaptiX_FDK/lib/tinyusb/src/common/tusb_types.h ****   TUSB_INDEX_INVALID_8 = 0xFF
 320:SynaptiX_FDK/lib/tinyusb/src/common/tusb_types.h **** };
 321:SynaptiX_FDK/lib/tinyusb/src/common/tusb_types.h **** 
 322:SynaptiX_FDK/lib/tinyusb/src/common/tusb_types.h **** //--------------------------------------------------------------------+
 323:SynaptiX_FDK/lib/tinyusb/src/common/tusb_types.h **** //
 324:SynaptiX_FDK/lib/tinyusb/src/common/tusb_types.h **** //--------------------------------------------------------------------+
 325:SynaptiX_FDK/lib/tinyusb/src/common/tusb_types.h **** typedef struct {
 326:SynaptiX_FDK/lib/tinyusb/src/common/tusb_types.h ****   tusb_role_t role;
 327:SynaptiX_FDK/lib/tinyusb/src/common/tusb_types.h ****   tusb_speed_t speed;
 328:SynaptiX_FDK/lib/tinyusb/src/common/tusb_types.h **** } tusb_rhport_init_t;
 329:SynaptiX_FDK/lib/tinyusb/src/common/tusb_types.h **** 
 330:SynaptiX_FDK/lib/tinyusb/src/common/tusb_types.h **** typedef struct {
 331:SynaptiX_FDK/lib/tinyusb/src/common/tusb_types.h ****   uint16_t len;
 332:SynaptiX_FDK/lib/tinyusb/src/common/tusb_types.h ****   uint8_t *buffer;
 333:SynaptiX_FDK/lib/tinyusb/src/common/tusb_types.h **** } tusb_buffer_t;
 334:SynaptiX_FDK/lib/tinyusb/src/common/tusb_types.h **** 
 335:SynaptiX_FDK/lib/tinyusb/src/common/tusb_types.h **** //--------------------------------------------------------------------+
 336:SynaptiX_FDK/lib/tinyusb/src/common/tusb_types.h **** // USB Descriptors
 337:SynaptiX_FDK/lib/tinyusb/src/common/tusb_types.h **** //--------------------------------------------------------------------+
 338:SynaptiX_FDK/lib/tinyusb/src/common/tusb_types.h **** 
 339:SynaptiX_FDK/lib/tinyusb/src/common/tusb_types.h **** // Start of all packed definitions for compiler without per-type packed
 340:SynaptiX_FDK/lib/tinyusb/src/common/tusb_types.h **** TU_ATTR_PACKED_BEGIN
 341:SynaptiX_FDK/lib/tinyusb/src/common/tusb_types.h **** TU_ATTR_BIT_FIELD_ORDER_BEGIN
 342:SynaptiX_FDK/lib/tinyusb/src/common/tusb_types.h **** 
 343:SynaptiX_FDK/lib/tinyusb/src/common/tusb_types.h **** /// USB Device Descriptor
 344:SynaptiX_FDK/lib/tinyusb/src/common/tusb_types.h **** typedef struct TU_ATTR_PACKED {
 345:SynaptiX_FDK/lib/tinyusb/src/common/tusb_types.h ****   uint8_t  bLength            ; ///< Size of this descriptor in bytes.
 346:SynaptiX_FDK/lib/tinyusb/src/common/tusb_types.h ****   uint8_t  bDescriptorType    ; ///< DEVICE Descriptor Type.
 347:SynaptiX_FDK/lib/tinyusb/src/common/tusb_types.h ****   uint16_t bcdUSB             ; ///< BUSB Specification Release Number in Binary-Coded Decimal (i.e
ARM GAS  C:\Users\LENOVO\AppData\Local\Temp\ccUTPkkl.s 			page 44


 348:SynaptiX_FDK/lib/tinyusb/src/common/tusb_types.h ****   uint8_t  bDeviceClass       ; ///< Class code (assigned by the USB-IF).
 349:SynaptiX_FDK/lib/tinyusb/src/common/tusb_types.h ****   uint8_t  bDeviceSubClass    ; ///< Subclass code (assigned by the USB-IF).
 350:SynaptiX_FDK/lib/tinyusb/src/common/tusb_types.h ****   uint8_t  bDeviceProtocol    ; ///< Protocol code (assigned by the USB-IF).
 351:SynaptiX_FDK/lib/tinyusb/src/common/tusb_types.h ****   uint8_t  bMaxPacketSize0    ; ///< Maximum packet size for endpoint zero (only 8, 16, 32, or 64 a
 352:SynaptiX_FDK/lib/tinyusb/src/common/tusb_types.h ****   uint16_t idVendor           ; ///< Vendor ID (assigned by the USB-IF).
 353:SynaptiX_FDK/lib/tinyusb/src/common/tusb_types.h ****   uint16_t idProduct          ; ///< Product ID (assigned by the manufacturer).
 354:SynaptiX_FDK/lib/tinyusb/src/common/tusb_types.h ****   uint16_t bcdDevice          ; ///< Device release number in binary-coded decimal.
 355:SynaptiX_FDK/lib/tinyusb/src/common/tusb_types.h ****   uint8_t  iManufacturer      ; ///< Index of string descriptor describing manufacturer.
 356:SynaptiX_FDK/lib/tinyusb/src/common/tusb_types.h ****   uint8_t  iProduct           ; ///< Index of string descriptor describing product.
 357:SynaptiX_FDK/lib/tinyusb/src/common/tusb_types.h ****   uint8_t  iSerialNumber      ; ///< Index of string descriptor describing the device's serial numb
 358:SynaptiX_FDK/lib/tinyusb/src/common/tusb_types.h ****   uint8_t  bNumConfigurations ; ///< Number of possible configurations.
 359:SynaptiX_FDK/lib/tinyusb/src/common/tusb_types.h **** } tusb_desc_device_t;
 360:SynaptiX_FDK/lib/tinyusb/src/common/tusb_types.h **** 
 361:SynaptiX_FDK/lib/tinyusb/src/common/tusb_types.h **** TU_VERIFY_STATIC( sizeof(tusb_desc_device_t) == 18u, "size is not correct");
 362:SynaptiX_FDK/lib/tinyusb/src/common/tusb_types.h **** 
 363:SynaptiX_FDK/lib/tinyusb/src/common/tusb_types.h **** // USB Binary Device Object Store (BOS) Descriptor
 364:SynaptiX_FDK/lib/tinyusb/src/common/tusb_types.h **** typedef struct TU_ATTR_PACKED {
 365:SynaptiX_FDK/lib/tinyusb/src/common/tusb_types.h ****   uint8_t  bLength         ; ///< Size of this descriptor in bytes
 366:SynaptiX_FDK/lib/tinyusb/src/common/tusb_types.h ****   uint8_t  bDescriptorType ; ///< CONFIGURATION Descriptor Type
 367:SynaptiX_FDK/lib/tinyusb/src/common/tusb_types.h ****   uint16_t wTotalLength    ; ///< Total length of data returned for this descriptor
 368:SynaptiX_FDK/lib/tinyusb/src/common/tusb_types.h ****   uint8_t  bNumDeviceCaps  ; ///< Number of device capability descriptors in the BOS
 369:SynaptiX_FDK/lib/tinyusb/src/common/tusb_types.h **** } tusb_desc_bos_t;
 370:SynaptiX_FDK/lib/tinyusb/src/common/tusb_types.h **** 
 371:SynaptiX_FDK/lib/tinyusb/src/common/tusb_types.h **** TU_VERIFY_STATIC( sizeof(tusb_desc_bos_t) == 5u, "size is not correct");
 372:SynaptiX_FDK/lib/tinyusb/src/common/tusb_types.h **** 
 373:SynaptiX_FDK/lib/tinyusb/src/common/tusb_types.h **** /// USB Configuration Descriptor
 374:SynaptiX_FDK/lib/tinyusb/src/common/tusb_types.h **** typedef struct TU_ATTR_PACKED {
 375:SynaptiX_FDK/lib/tinyusb/src/common/tusb_types.h ****   uint8_t  bLength             ; ///< Size of this descriptor in bytes
 376:SynaptiX_FDK/lib/tinyusb/src/common/tusb_types.h ****   uint8_t  bDescriptorType     ; ///< CONFIGURATION Descriptor Type
 377:SynaptiX_FDK/lib/tinyusb/src/common/tusb_types.h ****   uint16_t wTotalLength        ; ///< Total length of data returned for this configuration. Include
 378:SynaptiX_FDK/lib/tinyusb/src/common/tusb_types.h **** 
 379:SynaptiX_FDK/lib/tinyusb/src/common/tusb_types.h ****   uint8_t  bNumInterfaces      ; ///< Number of interfaces supported by this configuration
 380:SynaptiX_FDK/lib/tinyusb/src/common/tusb_types.h ****   uint8_t  bConfigurationValue ; ///< Value to use as an argument to the SetConfiguration() request
 381:SynaptiX_FDK/lib/tinyusb/src/common/tusb_types.h ****   uint8_t  iConfiguration      ; ///< Index of string descriptor describing this configuration
 382:SynaptiX_FDK/lib/tinyusb/src/common/tusb_types.h ****   uint8_t  bmAttributes        ; ///< Configuration characteristics \n D7: Reserved (set to one)\n 
 383:SynaptiX_FDK/lib/tinyusb/src/common/tusb_types.h ****   uint8_t  bMaxPower           ; ///< Maximum power consumption of the USB device from the bus in t
 384:SynaptiX_FDK/lib/tinyusb/src/common/tusb_types.h **** } tusb_desc_configuration_t;
 385:SynaptiX_FDK/lib/tinyusb/src/common/tusb_types.h **** 
 386:SynaptiX_FDK/lib/tinyusb/src/common/tusb_types.h **** TU_VERIFY_STATIC( sizeof(tusb_desc_configuration_t) == 9u, "size is not correct");
 387:SynaptiX_FDK/lib/tinyusb/src/common/tusb_types.h **** 
 388:SynaptiX_FDK/lib/tinyusb/src/common/tusb_types.h **** /// USB Interface Descriptor
 389:SynaptiX_FDK/lib/tinyusb/src/common/tusb_types.h **** typedef struct TU_ATTR_PACKED {
 390:SynaptiX_FDK/lib/tinyusb/src/common/tusb_types.h ****   uint8_t  bLength            ; ///< Size of this descriptor in bytes
 391:SynaptiX_FDK/lib/tinyusb/src/common/tusb_types.h ****   uint8_t  bDescriptorType    ; ///< INTERFACE Descriptor Type
 392:SynaptiX_FDK/lib/tinyusb/src/common/tusb_types.h **** 
 393:SynaptiX_FDK/lib/tinyusb/src/common/tusb_types.h ****   uint8_t  bInterfaceNumber   ; ///< Number of this interface. Zero-based value identifying the ind
 394:SynaptiX_FDK/lib/tinyusb/src/common/tusb_types.h ****   uint8_t  bAlternateSetting  ; ///< Value used to select this alternate setting for the interface 
 395:SynaptiX_FDK/lib/tinyusb/src/common/tusb_types.h ****   uint8_t  bNumEndpoints      ; ///< Number of endpoints used by this interface (excluding endpoint
 396:SynaptiX_FDK/lib/tinyusb/src/common/tusb_types.h ****   uint8_t  bInterfaceClass    ; ///< Class code (assigned by the USB-IF). \li A value of zero is re
 397:SynaptiX_FDK/lib/tinyusb/src/common/tusb_types.h ****   uint8_t  bInterfaceSubClass ; ///< Subclass code (assigned by the USB-IF). \n These codes are qua
 398:SynaptiX_FDK/lib/tinyusb/src/common/tusb_types.h ****   uint8_t  bInterfaceProtocol ; ///< Protocol code (assigned by the USB). \n These codes are qualif
 399:SynaptiX_FDK/lib/tinyusb/src/common/tusb_types.h ****   uint8_t  iInterface         ; ///< Index of string descriptor describing this interface
 400:SynaptiX_FDK/lib/tinyusb/src/common/tusb_types.h **** } tusb_desc_interface_t;
 401:SynaptiX_FDK/lib/tinyusb/src/common/tusb_types.h **** 
 402:SynaptiX_FDK/lib/tinyusb/src/common/tusb_types.h **** TU_VERIFY_STATIC( sizeof(tusb_desc_interface_t) == 9u, "size is not correct");
 403:SynaptiX_FDK/lib/tinyusb/src/common/tusb_types.h **** 
 404:SynaptiX_FDK/lib/tinyusb/src/common/tusb_types.h **** /// USB Endpoint Descriptor
ARM GAS  C:\Users\LENOVO\AppData\Local\Temp\ccUTPkkl.s 			page 45


 405:SynaptiX_FDK/lib/tinyusb/src/common/tusb_types.h **** typedef struct TU_ATTR_PACKED {
 406:SynaptiX_FDK/lib/tinyusb/src/common/tusb_types.h ****   uint8_t  bLength          ; // Size of this descriptor in bytes
 407:SynaptiX_FDK/lib/tinyusb/src/common/tusb_types.h ****   uint8_t  bDescriptorType  ; // ENDPOINT Descriptor Type
 408:SynaptiX_FDK/lib/tinyusb/src/common/tusb_types.h **** 
 409:SynaptiX_FDK/lib/tinyusb/src/common/tusb_types.h ****   uint8_t  bEndpointAddress ; // The address of the endpoint
 410:SynaptiX_FDK/lib/tinyusb/src/common/tusb_types.h **** 
 411:SynaptiX_FDK/lib/tinyusb/src/common/tusb_types.h ****   struct TU_ATTR_PACKED {
 412:SynaptiX_FDK/lib/tinyusb/src/common/tusb_types.h ****     uint8_t xfer  : 2;        // Control, ISO, Bulk, Interrupt
 413:SynaptiX_FDK/lib/tinyusb/src/common/tusb_types.h ****     uint8_t sync  : 2;        // None, Asynchronous, Adaptive, Synchronous
 414:SynaptiX_FDK/lib/tinyusb/src/common/tusb_types.h ****     uint8_t usage : 2;        // Data, Feedback, Implicit feedback
 415:SynaptiX_FDK/lib/tinyusb/src/common/tusb_types.h ****     uint8_t       : 2;
 416:SynaptiX_FDK/lib/tinyusb/src/common/tusb_types.h ****   } bmAttributes;
 417:SynaptiX_FDK/lib/tinyusb/src/common/tusb_types.h **** 
 418:SynaptiX_FDK/lib/tinyusb/src/common/tusb_types.h ****   uint16_t wMaxPacketSize   ; // Bit 10..0 : max packet size, bit 12..11 additional transaction per
 419:SynaptiX_FDK/lib/tinyusb/src/common/tusb_types.h ****   uint8_t  bInterval        ; // Polling interval, in frames or microframes depending on the operat
 420:SynaptiX_FDK/lib/tinyusb/src/common/tusb_types.h **** } tusb_desc_endpoint_t;
 421:SynaptiX_FDK/lib/tinyusb/src/common/tusb_types.h **** 
 422:SynaptiX_FDK/lib/tinyusb/src/common/tusb_types.h **** TU_VERIFY_STATIC( sizeof(tusb_desc_endpoint_t) == 7u, "size is not correct");
 423:SynaptiX_FDK/lib/tinyusb/src/common/tusb_types.h **** 
 424:SynaptiX_FDK/lib/tinyusb/src/common/tusb_types.h **** /// USB Other Speed Configuration Descriptor
 425:SynaptiX_FDK/lib/tinyusb/src/common/tusb_types.h **** typedef struct TU_ATTR_PACKED {
 426:SynaptiX_FDK/lib/tinyusb/src/common/tusb_types.h ****   uint8_t  bLength             ; ///< Size of descriptor
 427:SynaptiX_FDK/lib/tinyusb/src/common/tusb_types.h ****   uint8_t  bDescriptorType     ; ///< Other_speed_Configuration Type
 428:SynaptiX_FDK/lib/tinyusb/src/common/tusb_types.h ****   uint16_t wTotalLength        ; ///< Total length of data returned
 429:SynaptiX_FDK/lib/tinyusb/src/common/tusb_types.h **** 
 430:SynaptiX_FDK/lib/tinyusb/src/common/tusb_types.h ****   uint8_t  bNumInterfaces      ; ///< Number of interfaces supported by this speed configuration
 431:SynaptiX_FDK/lib/tinyusb/src/common/tusb_types.h ****   uint8_t  bConfigurationValue ; ///< Value to use to select configuration
 432:SynaptiX_FDK/lib/tinyusb/src/common/tusb_types.h ****   uint8_t  iConfiguration      ; ///< Index of string descriptor
 433:SynaptiX_FDK/lib/tinyusb/src/common/tusb_types.h ****   uint8_t  bmAttributes        ; ///< Same as Configuration descriptor
 434:SynaptiX_FDK/lib/tinyusb/src/common/tusb_types.h ****   uint8_t  bMaxPower           ; ///< Same as Configuration descriptor
 435:SynaptiX_FDK/lib/tinyusb/src/common/tusb_types.h **** } tusb_desc_other_speed_t;
 436:SynaptiX_FDK/lib/tinyusb/src/common/tusb_types.h **** 
 437:SynaptiX_FDK/lib/tinyusb/src/common/tusb_types.h **** /// USB Device Qualifier Descriptor
 438:SynaptiX_FDK/lib/tinyusb/src/common/tusb_types.h **** typedef struct TU_ATTR_PACKED {
 439:SynaptiX_FDK/lib/tinyusb/src/common/tusb_types.h ****   uint8_t  bLength            ; ///< Size of descriptor
 440:SynaptiX_FDK/lib/tinyusb/src/common/tusb_types.h ****   uint8_t  bDescriptorType    ; ///< Device Qualifier Type
 441:SynaptiX_FDK/lib/tinyusb/src/common/tusb_types.h ****   uint16_t bcdUSB             ; ///< USB specification version number (e.g., 0200H for V2.00)
 442:SynaptiX_FDK/lib/tinyusb/src/common/tusb_types.h **** 
 443:SynaptiX_FDK/lib/tinyusb/src/common/tusb_types.h ****   uint8_t  bDeviceClass       ; ///< Class Code
 444:SynaptiX_FDK/lib/tinyusb/src/common/tusb_types.h ****   uint8_t  bDeviceSubClass    ; ///< SubClass Code
 445:SynaptiX_FDK/lib/tinyusb/src/common/tusb_types.h ****   uint8_t  bDeviceProtocol    ; ///< Protocol Code
 446:SynaptiX_FDK/lib/tinyusb/src/common/tusb_types.h **** 
 447:SynaptiX_FDK/lib/tinyusb/src/common/tusb_types.h ****   uint8_t  bMaxPacketSize0    ; ///< Maximum packet size for other speed
 448:SynaptiX_FDK/lib/tinyusb/src/common/tusb_types.h ****   uint8_t  bNumConfigurations ; ///< Number of Other-speed Configurations
 449:SynaptiX_FDK/lib/tinyusb/src/common/tusb_types.h ****   uint8_t  bReserved          ; ///< Reserved for future use, must be zero
 450:SynaptiX_FDK/lib/tinyusb/src/common/tusb_types.h **** } tusb_desc_device_qualifier_t;
 451:SynaptiX_FDK/lib/tinyusb/src/common/tusb_types.h **** 
 452:SynaptiX_FDK/lib/tinyusb/src/common/tusb_types.h **** TU_VERIFY_STATIC( sizeof(tusb_desc_device_qualifier_t) == 10u, "size is not correct");
 453:SynaptiX_FDK/lib/tinyusb/src/common/tusb_types.h **** 
 454:SynaptiX_FDK/lib/tinyusb/src/common/tusb_types.h **** /// USB Interface Association Descriptor (IAD ECN)
 455:SynaptiX_FDK/lib/tinyusb/src/common/tusb_types.h **** typedef struct TU_ATTR_PACKED {
 456:SynaptiX_FDK/lib/tinyusb/src/common/tusb_types.h ****   uint8_t bLength           ; ///< Size of descriptor
 457:SynaptiX_FDK/lib/tinyusb/src/common/tusb_types.h ****   uint8_t bDescriptorType   ; ///< Other_speed_Configuration Type
 458:SynaptiX_FDK/lib/tinyusb/src/common/tusb_types.h **** 
 459:SynaptiX_FDK/lib/tinyusb/src/common/tusb_types.h ****   uint8_t bFirstInterface   ; ///< Index of the first associated interface.
 460:SynaptiX_FDK/lib/tinyusb/src/common/tusb_types.h ****   uint8_t bInterfaceCount   ; ///< Total number of associated interfaces.
 461:SynaptiX_FDK/lib/tinyusb/src/common/tusb_types.h **** 
ARM GAS  C:\Users\LENOVO\AppData\Local\Temp\ccUTPkkl.s 			page 46


 462:SynaptiX_FDK/lib/tinyusb/src/common/tusb_types.h ****   uint8_t bFunctionClass    ; ///< Interface class ID.
 463:SynaptiX_FDK/lib/tinyusb/src/common/tusb_types.h ****   uint8_t bFunctionSubClass ; ///< Interface subclass ID.
 464:SynaptiX_FDK/lib/tinyusb/src/common/tusb_types.h ****   uint8_t bFunctionProtocol ; ///< Interface protocol ID.
 465:SynaptiX_FDK/lib/tinyusb/src/common/tusb_types.h **** 
 466:SynaptiX_FDK/lib/tinyusb/src/common/tusb_types.h ****   uint8_t iFunction         ; ///< Index of the string descriptor describing the interface associat
 467:SynaptiX_FDK/lib/tinyusb/src/common/tusb_types.h **** } tusb_desc_interface_assoc_t;
 468:SynaptiX_FDK/lib/tinyusb/src/common/tusb_types.h **** 
 469:SynaptiX_FDK/lib/tinyusb/src/common/tusb_types.h **** TU_VERIFY_STATIC( sizeof(tusb_desc_interface_assoc_t) == 8u, "size is not correct");
 470:SynaptiX_FDK/lib/tinyusb/src/common/tusb_types.h **** 
 471:SynaptiX_FDK/lib/tinyusb/src/common/tusb_types.h **** // USB String Descriptor
 472:SynaptiX_FDK/lib/tinyusb/src/common/tusb_types.h **** typedef struct TU_ATTR_PACKED {
 473:SynaptiX_FDK/lib/tinyusb/src/common/tusb_types.h ****   uint8_t  bLength         ; ///< Size of this descriptor in bytes
 474:SynaptiX_FDK/lib/tinyusb/src/common/tusb_types.h ****   uint8_t  bDescriptorType ; ///< Descriptor Type
 475:SynaptiX_FDK/lib/tinyusb/src/common/tusb_types.h ****   uint16_t utf16le[];
 476:SynaptiX_FDK/lib/tinyusb/src/common/tusb_types.h **** } tusb_desc_string_t;
 477:SynaptiX_FDK/lib/tinyusb/src/common/tusb_types.h **** 
 478:SynaptiX_FDK/lib/tinyusb/src/common/tusb_types.h **** // USB Binary Device Object Store (BOS)
 479:SynaptiX_FDK/lib/tinyusb/src/common/tusb_types.h **** typedef struct TU_ATTR_PACKED {
 480:SynaptiX_FDK/lib/tinyusb/src/common/tusb_types.h ****   uint8_t bLength;
 481:SynaptiX_FDK/lib/tinyusb/src/common/tusb_types.h ****   uint8_t bDescriptorType ;
 482:SynaptiX_FDK/lib/tinyusb/src/common/tusb_types.h ****   uint8_t bDevCapabilityType;
 483:SynaptiX_FDK/lib/tinyusb/src/common/tusb_types.h ****   uint8_t bReserved;
 484:SynaptiX_FDK/lib/tinyusb/src/common/tusb_types.h ****   uint8_t PlatformCapabilityUUID[16];
 485:SynaptiX_FDK/lib/tinyusb/src/common/tusb_types.h ****   uint8_t CapabilityData[];
 486:SynaptiX_FDK/lib/tinyusb/src/common/tusb_types.h **** } tusb_desc_bos_platform_t;
 487:SynaptiX_FDK/lib/tinyusb/src/common/tusb_types.h **** 
 488:SynaptiX_FDK/lib/tinyusb/src/common/tusb_types.h **** // USB WebUSB URL Descriptor
 489:SynaptiX_FDK/lib/tinyusb/src/common/tusb_types.h **** typedef struct TU_ATTR_PACKED {
 490:SynaptiX_FDK/lib/tinyusb/src/common/tusb_types.h ****   uint8_t bLength;
 491:SynaptiX_FDK/lib/tinyusb/src/common/tusb_types.h ****   uint8_t bDescriptorType;
 492:SynaptiX_FDK/lib/tinyusb/src/common/tusb_types.h ****   uint8_t bScheme;
 493:SynaptiX_FDK/lib/tinyusb/src/common/tusb_types.h ****   char    url[];
 494:SynaptiX_FDK/lib/tinyusb/src/common/tusb_types.h **** } tusb_desc_webusb_url_t;
 495:SynaptiX_FDK/lib/tinyusb/src/common/tusb_types.h **** 
 496:SynaptiX_FDK/lib/tinyusb/src/common/tusb_types.h **** // DFU Functional Descriptor
 497:SynaptiX_FDK/lib/tinyusb/src/common/tusb_types.h **** typedef struct TU_ATTR_PACKED {
 498:SynaptiX_FDK/lib/tinyusb/src/common/tusb_types.h ****   uint8_t  bLength;
 499:SynaptiX_FDK/lib/tinyusb/src/common/tusb_types.h ****   uint8_t  bDescriptorType;
 500:SynaptiX_FDK/lib/tinyusb/src/common/tusb_types.h **** 
 501:SynaptiX_FDK/lib/tinyusb/src/common/tusb_types.h ****   union {
 502:SynaptiX_FDK/lib/tinyusb/src/common/tusb_types.h ****     struct TU_ATTR_PACKED {
 503:SynaptiX_FDK/lib/tinyusb/src/common/tusb_types.h ****       uint8_t bitCanDnload             : 1;
 504:SynaptiX_FDK/lib/tinyusb/src/common/tusb_types.h ****       uint8_t bitCanUpload             : 1;
 505:SynaptiX_FDK/lib/tinyusb/src/common/tusb_types.h ****       uint8_t bitManifestationTolerant : 1;
 506:SynaptiX_FDK/lib/tinyusb/src/common/tusb_types.h ****       uint8_t bitWillDetach            : 1;
 507:SynaptiX_FDK/lib/tinyusb/src/common/tusb_types.h ****       uint8_t reserved                 : 4;
 508:SynaptiX_FDK/lib/tinyusb/src/common/tusb_types.h ****     } bmAttributes;
 509:SynaptiX_FDK/lib/tinyusb/src/common/tusb_types.h **** 
 510:SynaptiX_FDK/lib/tinyusb/src/common/tusb_types.h ****     uint8_t bAttributes;
 511:SynaptiX_FDK/lib/tinyusb/src/common/tusb_types.h ****   };
 512:SynaptiX_FDK/lib/tinyusb/src/common/tusb_types.h **** 
 513:SynaptiX_FDK/lib/tinyusb/src/common/tusb_types.h ****   uint16_t wDetachTimeOut;
 514:SynaptiX_FDK/lib/tinyusb/src/common/tusb_types.h ****   uint16_t wTransferSize;
 515:SynaptiX_FDK/lib/tinyusb/src/common/tusb_types.h ****   uint16_t bcdDFUVersion;
 516:SynaptiX_FDK/lib/tinyusb/src/common/tusb_types.h **** } tusb_desc_dfu_functional_t;
 517:SynaptiX_FDK/lib/tinyusb/src/common/tusb_types.h **** 
 518:SynaptiX_FDK/lib/tinyusb/src/common/tusb_types.h **** //--------------------------------------------------------------------+
ARM GAS  C:\Users\LENOVO\AppData\Local\Temp\ccUTPkkl.s 			page 47


 519:SynaptiX_FDK/lib/tinyusb/src/common/tusb_types.h **** //
 520:SynaptiX_FDK/lib/tinyusb/src/common/tusb_types.h **** //--------------------------------------------------------------------+
 521:SynaptiX_FDK/lib/tinyusb/src/common/tusb_types.h **** 
 522:SynaptiX_FDK/lib/tinyusb/src/common/tusb_types.h **** typedef struct TU_ATTR_PACKED {
 523:SynaptiX_FDK/lib/tinyusb/src/common/tusb_types.h ****   union {
 524:SynaptiX_FDK/lib/tinyusb/src/common/tusb_types.h ****     struct TU_ATTR_PACKED {
 525:SynaptiX_FDK/lib/tinyusb/src/common/tusb_types.h ****       uint8_t recipient :  5; ///< Recipient type tusb_request_recipient_t.
 526:SynaptiX_FDK/lib/tinyusb/src/common/tusb_types.h ****       uint8_t type      :  2; ///< Request type tusb_request_type_t.
 527:SynaptiX_FDK/lib/tinyusb/src/common/tusb_types.h ****       uint8_t direction :  1; ///< Direction type. tusb_dir_t
 528:SynaptiX_FDK/lib/tinyusb/src/common/tusb_types.h ****     } bmRequestType_bit;
 529:SynaptiX_FDK/lib/tinyusb/src/common/tusb_types.h **** 
 530:SynaptiX_FDK/lib/tinyusb/src/common/tusb_types.h ****     uint8_t bmRequestType;
 531:SynaptiX_FDK/lib/tinyusb/src/common/tusb_types.h ****   };
 532:SynaptiX_FDK/lib/tinyusb/src/common/tusb_types.h **** 
 533:SynaptiX_FDK/lib/tinyusb/src/common/tusb_types.h ****   uint8_t  bRequest;
 534:SynaptiX_FDK/lib/tinyusb/src/common/tusb_types.h ****   uint16_t wValue;
 535:SynaptiX_FDK/lib/tinyusb/src/common/tusb_types.h ****   uint16_t wIndex;
 536:SynaptiX_FDK/lib/tinyusb/src/common/tusb_types.h ****   uint16_t wLength;
 537:SynaptiX_FDK/lib/tinyusb/src/common/tusb_types.h **** } tusb_control_request_t;
 538:SynaptiX_FDK/lib/tinyusb/src/common/tusb_types.h **** 
 539:SynaptiX_FDK/lib/tinyusb/src/common/tusb_types.h **** TU_VERIFY_STATIC( sizeof(tusb_control_request_t) == 8u, "size is not correct");
 540:SynaptiX_FDK/lib/tinyusb/src/common/tusb_types.h **** 
 541:SynaptiX_FDK/lib/tinyusb/src/common/tusb_types.h **** TU_ATTR_PACKED_END  // End of all packed definitions
 542:SynaptiX_FDK/lib/tinyusb/src/common/tusb_types.h **** TU_ATTR_BIT_FIELD_ORDER_END
 543:SynaptiX_FDK/lib/tinyusb/src/common/tusb_types.h **** 
 544:SynaptiX_FDK/lib/tinyusb/src/common/tusb_types.h **** //--------------------------------------------------------------------+
 545:SynaptiX_FDK/lib/tinyusb/src/common/tusb_types.h **** // Endpoint helper
 546:SynaptiX_FDK/lib/tinyusb/src/common/tusb_types.h **** //--------------------------------------------------------------------+
 547:SynaptiX_FDK/lib/tinyusb/src/common/tusb_types.h **** 
 548:SynaptiX_FDK/lib/tinyusb/src/common/tusb_types.h **** // Get direction from Endpoint address
 549:SynaptiX_FDK/lib/tinyusb/src/common/tusb_types.h **** TU_ATTR_ALWAYS_INLINE static inline tusb_dir_t tu_edpt_dir(uint8_t addr) {
 550:SynaptiX_FDK/lib/tinyusb/src/common/tusb_types.h ****   return (addr & TUSB_DIR_IN_MASK) ? TUSB_DIR_IN : TUSB_DIR_OUT;
 551:SynaptiX_FDK/lib/tinyusb/src/common/tusb_types.h **** }
 552:SynaptiX_FDK/lib/tinyusb/src/common/tusb_types.h **** 
 553:SynaptiX_FDK/lib/tinyusb/src/common/tusb_types.h **** // Get Endpoint number from address
 554:SynaptiX_FDK/lib/tinyusb/src/common/tusb_types.h **** TU_ATTR_ALWAYS_INLINE static inline uint8_t tu_edpt_number(uint8_t addr) {
 1089              		.loc 3 554 45 view .LVU304
 1090              	.LBB98:
 555:SynaptiX_FDK/lib/tinyusb/src/common/tusb_types.h ****   return (uint8_t) (addr & TUSB_EPNUM_MASK);
 1091              		.loc 3 555 3 view .LVU305
 1092              		.loc 3 555 10 is_stmt 0 view .LVU306
 1093 0034 0EF00F05 		and	r5, lr, #15
 1094              	.LVL87:
 1095              		.loc 3 555 10 view .LVU307
 1096              	.LBE98:
 1097              	.LBE97:
 305:SynaptiX_FDK/lib/tinyusb/src/tusb.c ****       ep2drv[ep_num][ep_dir] = driver_id;
 1098              		.loc 1 305 7 is_stmt 1 view .LVU308
 1099              	.LBB99:
 1100              	.LBI99:
 549:SynaptiX_FDK/lib/tinyusb/src/common/tusb_types.h ****   return (addr & TUSB_DIR_IN_MASK) ? TUSB_DIR_IN : TUSB_DIR_OUT;
 1101              		.loc 3 549 48 view .LVU309
 1102              	.LBB100:
 550:SynaptiX_FDK/lib/tinyusb/src/common/tusb_types.h **** }
 1103              		.loc 3 550 3 view .LVU310
 550:SynaptiX_FDK/lib/tinyusb/src/common/tusb_types.h **** }
 1104              		.loc 3 550 50 is_stmt 0 view .LVU311
ARM GAS  C:\Users\LENOVO\AppData\Local\Temp\ccUTPkkl.s 			page 48


 1105 0038 4FEADE1E 		lsr	lr, lr, #7
 1106              	.LVL88:
 550:SynaptiX_FDK/lib/tinyusb/src/common/tusb_types.h **** }
 1107              		.loc 3 550 50 view .LVU312
 1108              	.LBE100:
 1109              	.LBE99:
 306:SynaptiX_FDK/lib/tinyusb/src/tusb.c ****     } else if (desc_type == TUSB_DESC_INTERFACE) {
 1110              		.loc 1 306 7 is_stmt 1 view .LVU313
 306:SynaptiX_FDK/lib/tinyusb/src/tusb.c ****     } else if (desc_type == TUSB_DESC_INTERFACE) {
 1111              		.loc 1 306 13 is_stmt 0 view .LVU314
 1112 003c 01EB4505 		add	r5, r1, r5, lsl #1
 1113              	.LVL89:
 306:SynaptiX_FDK/lib/tinyusb/src/tusb.c ****     } else if (desc_type == TUSB_DESC_INTERFACE) {
 1114              		.loc 1 306 30 view .LVU315
 1115 0040 05F80E00 		strb	r0, [r5, lr]
 1116              	.LVL90:
 306:SynaptiX_FDK/lib/tinyusb/src/tusb.c ****     } else if (desc_type == TUSB_DESC_INTERFACE) {
 1117              		.loc 1 306 30 view .LVU316
 1118              	.LBE96:
 1119 0044 F0E7     		b	.L103
 1120              	.LVL91:
 1121              	.L114:
 1122              	.LBB101:
 308:SynaptiX_FDK/lib/tinyusb/src/tusb.c ****       if (desc_itf->bAlternateSetting == 0) {
 1123              		.loc 1 308 7 is_stmt 1 view .LVU317
 309:SynaptiX_FDK/lib/tinyusb/src/tusb.c ****         TU_ASSERT(desc_itf->bInterfaceNumber < itf_max);
 1124              		.loc 1 309 7 view .LVU318
 309:SynaptiX_FDK/lib/tinyusb/src/tusb.c ****         TU_ASSERT(desc_itf->bInterfaceNumber < itf_max);
 1125              		.loc 1 309 19 is_stmt 0 view .LVU319
 1126 0046 E578     		ldrb	r5, [r4, #3]	@ zero_extendqisi2
 309:SynaptiX_FDK/lib/tinyusb/src/tusb.c ****         TU_ASSERT(desc_itf->bInterfaceNumber < itf_max);
 1127              		.loc 1 309 10 view .LVU320
 1128 0048 002D     		cmp	r5, #0
 1129 004a EDD1     		bne	.L103
 310:SynaptiX_FDK/lib/tinyusb/src/tusb.c ****         itf2drv[desc_itf->bInterfaceNumber] = driver_id;
 1130              		.loc 1 310 9 is_stmt 1 view .LVU321
 310:SynaptiX_FDK/lib/tinyusb/src/tusb.c ****         itf2drv[desc_itf->bInterfaceNumber] = driver_id;
 1131              		.loc 1 310 9 view .LVU322
 1132 004c A578     		ldrb	r5, [r4, #2]	@ zero_extendqisi2
 1133 004e 9D42     		cmp	r5, r3
 1134 0050 01D2     		bcs	.L115
 310:SynaptiX_FDK/lib/tinyusb/src/tusb.c ****         itf2drv[desc_itf->bInterfaceNumber] = driver_id;
 1135              		.loc 1 310 9 discriminator 2 view .LVU323
 311:SynaptiX_FDK/lib/tinyusb/src/tusb.c ****       }
 1136              		.loc 1 311 9 view .LVU324
 311:SynaptiX_FDK/lib/tinyusb/src/tusb.c ****       }
 1137              		.loc 1 311 45 is_stmt 0 view .LVU325
 1138 0052 5055     		strb	r0, [r2, r5]
 1139 0054 E8E7     		b	.L103
 1140              	.L115:
 310:SynaptiX_FDK/lib/tinyusb/src/tusb.c ****         itf2drv[desc_itf->bInterfaceNumber] = driver_id;
 1141              		.loc 1 310 9 is_stmt 1 discriminator 1 view .LVU326
 310:SynaptiX_FDK/lib/tinyusb/src/tusb.c ****         itf2drv[desc_itf->bInterfaceNumber] = driver_id;
 1142              		.loc 1 310 9 discriminator 1 view .LVU327
 310:SynaptiX_FDK/lib/tinyusb/src/tusb.c ****         itf2drv[desc_itf->bInterfaceNumber] = driver_id;
 1143              		.loc 1 310 9 discriminator 1 view .LVU328
 310:SynaptiX_FDK/lib/tinyusb/src/tusb.c ****         itf2drv[desc_itf->bInterfaceNumber] = driver_id;
ARM GAS  C:\Users\LENOVO\AppData\Local\Temp\ccUTPkkl.s 			page 49


 1144              		.loc 1 310 9 discriminator 1 view .LVU329
 1145              	.LBB102:
 310:SynaptiX_FDK/lib/tinyusb/src/tusb.c ****         itf2drv[desc_itf->bInterfaceNumber] = driver_id;
 1146              		.loc 1 310 9 discriminator 1 view .LVU330
 1147              	.LVL92:
 310:SynaptiX_FDK/lib/tinyusb/src/tusb.c ****         itf2drv[desc_itf->bInterfaceNumber] = driver_id;
 1148              		.loc 1 310 9 discriminator 1 view .LVU331
 1149 0056 4FF0E023 		mov	r3, #-536813568
 1150              	.LVL93:
 310:SynaptiX_FDK/lib/tinyusb/src/tusb.c ****         itf2drv[desc_itf->bInterfaceNumber] = driver_id;
 1151              		.loc 1 310 9 is_stmt 0 discriminator 1 view .LVU332
 1152 005a D3F8F03D 		ldr	r3, [r3, #3568]
 1153 005e 13F0010F 		tst	r3, #1
 1154 0062 00D0     		beq	.L105
 310:SynaptiX_FDK/lib/tinyusb/src/tusb.c ****         itf2drv[desc_itf->bInterfaceNumber] = driver_id;
 1155              		.loc 1 310 9 is_stmt 1 discriminator 3 view .LVU333
 1156              		.syntax unified
 1157              	@ 310 "SynaptiX_FDK/lib/tinyusb/src/tusb.c" 1
 1158 0064 00BE     		BKPT #0
 1159              	
 1160              	@ 0 "" 2
 1161              		.thumb
 1162              		.syntax unified
 1163              	.L105:
 310:SynaptiX_FDK/lib/tinyusb/src/tusb.c ****         itf2drv[desc_itf->bInterfaceNumber] = driver_id;
 1164              		.loc 1 310 9 is_stmt 0 discriminator 3 view .LVU334
 1165              	.LBE102:
 310:SynaptiX_FDK/lib/tinyusb/src/tusb.c ****         itf2drv[desc_itf->bInterfaceNumber] = driver_id;
 1166              		.loc 1 310 9 is_stmt 1 discriminator 5 view .LVU335
 310:SynaptiX_FDK/lib/tinyusb/src/tusb.c ****         itf2drv[desc_itf->bInterfaceNumber] = driver_id;
 1167              		.loc 1 310 9 discriminator 5 view .LVU336
 1168 0066 0020     		movs	r0, #0
 1169              	.LVL94:
 310:SynaptiX_FDK/lib/tinyusb/src/tusb.c ****         itf2drv[desc_itf->bInterfaceNumber] = driver_id;
 1170              		.loc 1 310 9 is_stmt 0 view .LVU337
 1171 0068 00E0     		b	.L106
 1172              	.LVL95:
 1173              	.L109:
 310:SynaptiX_FDK/lib/tinyusb/src/tusb.c ****         itf2drv[desc_itf->bInterfaceNumber] = driver_id;
 1174              		.loc 1 310 9 view .LVU338
 1175              	.LBE101:
 1176              	.LBE91:
 317:SynaptiX_FDK/lib/tinyusb/src/tusb.c **** }
 1177              		.loc 1 317 10 view .LVU339
 1178 006a 0120     		movs	r0, #1
 1179              	.LVL96:
 1180              	.L106:
 318:SynaptiX_FDK/lib/tinyusb/src/tusb.c **** 
 1181              		.loc 1 318 1 view .LVU340
 1182 006c 30BD     		pop	{r4, r5, pc}
 1183              	.LVL97:
 1184              	.L110:
 317:SynaptiX_FDK/lib/tinyusb/src/tusb.c **** }
 1185              		.loc 1 317 10 view .LVU341
 1186 006e 0120     		movs	r0, #1
 1187              	.LVL98:
 317:SynaptiX_FDK/lib/tinyusb/src/tusb.c **** }
ARM GAS  C:\Users\LENOVO\AppData\Local\Temp\ccUTPkkl.s 			page 50


 1188              		.loc 1 317 10 view .LVU342
 1189 0070 FCE7     		b	.L106
 1190              		.cfi_endproc
 1191              	.LFE662:
 1193              		.section	.text.tu_edpt_stream_init,"ax",%progbits
 1194              		.align	1
 1195              		.global	tu_edpt_stream_init
 1196              		.syntax unified
 1197              		.thumb
 1198              		.thumb_func
 1200              	tu_edpt_stream_init:
 1201              	.LVL99:
 1202              	.LFB663:
 325:SynaptiX_FDK/lib/tinyusb/src/tusb.c ****   (void) is_tx;
 1203              		.loc 1 325 64 is_stmt 1 view -0
 1204              		.cfi_startproc
 1205              		@ args = 12, pretend = 0, frame = 0
 1206              		@ frame_needed = 0, uses_anonymous_args = 0
 325:SynaptiX_FDK/lib/tinyusb/src/tusb.c ****   (void) is_tx;
 1207              		.loc 1 325 64 is_stmt 0 view .LVU344
 1208 0000 10B5     		push	{r4, lr}
 1209              	.LCFI20:
 1210              		.cfi_def_cfa_offset 8
 1211              		.cfi_offset 4, -8
 1212              		.cfi_offset 14, -4
 1213 0002 0446     		mov	r4, r0
 1214 0004 0298     		ldr	r0, [sp, #8]
 1215              	.LVL100:
 325:SynaptiX_FDK/lib/tinyusb/src/tusb.c ****   (void) is_tx;
 1216              		.loc 1 325 64 view .LVU345
 1217 0006 BDF80C20 		ldrh	r2, [sp, #12]
 1218              	.LVL101:
 326:SynaptiX_FDK/lib/tinyusb/src/tusb.c **** 
 1219              		.loc 1 326 3 is_stmt 1 view .LVU346
 328:SynaptiX_FDK/lib/tinyusb/src/tusb.c ****     return false;
 1220              		.loc 1 328 3 view .LVU347
 328:SynaptiX_FDK/lib/tinyusb/src/tusb.c ****     return false;
 1221              		.loc 1 328 6 is_stmt 0 view .LVU348
 1222 000a 60B1     		cbz	r0, .L118
 328:SynaptiX_FDK/lib/tinyusb/src/tusb.c ****     return false;
 1223              		.loc 1 328 22 discriminator 1 view .LVU349
 1224 000c 0AB9     		cbnz	r2, .L121
 329:SynaptiX_FDK/lib/tinyusb/src/tusb.c ****   }
 1225              		.loc 1 329 12 view .LVU350
 1226 000e 0020     		movs	r0, #0
 1227              	.LVL102:
 1228              	.L117:
 345:SynaptiX_FDK/lib/tinyusb/src/tusb.c **** 
 1229              		.loc 1 345 1 view .LVU351
 1230 0010 10BD     		pop	{r4, pc}
 1231              	.LVL103:
 1232              	.L121:
 332:SynaptiX_FDK/lib/tinyusb/src/tusb.c ****   tu_fifo_config(&s->ff, ff_buf, ff_bufsize, overwritable);
 1233              		.loc 1 332 3 is_stmt 1 view .LVU352
 332:SynaptiX_FDK/lib/tinyusb/src/tusb.c ****   tu_fifo_config(&s->ff, ff_buf, ff_bufsize, overwritable);
 1234              		.loc 1 332 14 is_stmt 0 view .LVU353
 1235 0012 6170     		strb	r1, [r4, #1]
ARM GAS  C:\Users\LENOVO\AppData\Local\Temp\ccUTPkkl.s 			page 51


 333:SynaptiX_FDK/lib/tinyusb/src/tusb.c **** 
 1236              		.loc 1 333 3 is_stmt 1 view .LVU354
 1237 0014 0146     		mov	r1, r0
 1238              	.LVL104:
 333:SynaptiX_FDK/lib/tinyusb/src/tusb.c **** 
 1239              		.loc 1 333 3 is_stmt 0 view .LVU355
 1240 0016 04F10C00 		add	r0, r4, #12
 1241 001a FFF7FEFF 		bl	tu_fifo_config
 1242              	.LVL105:
 342:SynaptiX_FDK/lib/tinyusb/src/tusb.c **** 
 1243              		.loc 1 342 3 is_stmt 1 view .LVU356
 342:SynaptiX_FDK/lib/tinyusb/src/tusb.c **** 
 1244              		.loc 1 342 13 is_stmt 0 view .LVU357
 1245 001e 049B     		ldr	r3, [sp, #16]
 1246 0020 A360     		str	r3, [r4, #8]
 344:SynaptiX_FDK/lib/tinyusb/src/tusb.c **** }
 1247              		.loc 1 344 3 is_stmt 1 view .LVU358
 344:SynaptiX_FDK/lib/tinyusb/src/tusb.c **** }
 1248              		.loc 1 344 10 is_stmt 0 view .LVU359
 1249 0022 0120     		movs	r0, #1
 1250 0024 F4E7     		b	.L117
 1251              	.LVL106:
 1252              	.L118:
 329:SynaptiX_FDK/lib/tinyusb/src/tusb.c ****   }
 1253              		.loc 1 329 12 view .LVU360
 1254 0026 0020     		movs	r0, #0
 1255 0028 F2E7     		b	.L117
 1256              		.cfi_endproc
 1257              	.LFE663:
 1259              		.section	.text.tu_edpt_stream_write_zlp_if_needed,"ax",%progbits
 1260              		.align	1
 1261              		.global	tu_edpt_stream_write_zlp_if_needed
 1262              		.syntax unified
 1263              		.thumb
 1264              		.thumb_func
 1266              	tu_edpt_stream_write_zlp_if_needed:
 1267              	.LVL107:
 1268              	.LFB667:
 390:SynaptiX_FDK/lib/tinyusb/src/tusb.c **** 
 391:SynaptiX_FDK/lib/tinyusb/src/tusb.c **** //--------------------------------------------------------------------+
 392:SynaptiX_FDK/lib/tinyusb/src/tusb.c **** // Stream Write
 393:SynaptiX_FDK/lib/tinyusb/src/tusb.c **** //--------------------------------------------------------------------+
 394:SynaptiX_FDK/lib/tinyusb/src/tusb.c **** bool tu_edpt_stream_write_zlp_if_needed(tu_edpt_stream_t *s, uint32_t last_xferred_bytes) {
 1269              		.loc 1 394 91 is_stmt 1 view -0
 1270              		.cfi_startproc
 1271              		@ args = 0, pretend = 0, frame = 0
 1272              		@ frame_needed = 0, uses_anonymous_args = 0
 395:SynaptiX_FDK/lib/tinyusb/src/tusb.c ****   // ZLP condition: no pending data, last transferred bytes is multiple of packet size
 396:SynaptiX_FDK/lib/tinyusb/src/tusb.c ****   TU_VERIFY(tu_fifo_empty(&s->ff) && last_xferred_bytes > 0 && (0 == (last_xferred_bytes & (s->mps 
 1273              		.loc 1 396 3 view .LVU362
 1274              		.loc 1 396 3 view .LVU363
 1275              	.LBB103:
 1276              	.LBI103:
 1277              		.file 4 "SynaptiX_FDK/lib/tinyusb/src/common/tusb_fifo.h"
   1:SynaptiX_FDK/lib/tinyusb/src/common/tusb_fifo.h **** /*
   2:SynaptiX_FDK/lib/tinyusb/src/common/tusb_fifo.h ****  * The MIT License (MIT)
   3:SynaptiX_FDK/lib/tinyusb/src/common/tusb_fifo.h ****  *
ARM GAS  C:\Users\LENOVO\AppData\Local\Temp\ccUTPkkl.s 			page 52


   4:SynaptiX_FDK/lib/tinyusb/src/common/tusb_fifo.h ****  * Copyright (c) 2019 Ha Thach (tinyusb.org)
   5:SynaptiX_FDK/lib/tinyusb/src/common/tusb_fifo.h ****  * Copyright (c) 2020 Reinhard Panhuber - rework to unmasked pointers
   6:SynaptiX_FDK/lib/tinyusb/src/common/tusb_fifo.h ****  *
   7:SynaptiX_FDK/lib/tinyusb/src/common/tusb_fifo.h ****  * Permission is hereby granted, free of charge, to any person obtaining a copy
   8:SynaptiX_FDK/lib/tinyusb/src/common/tusb_fifo.h ****  * of this software and associated documentation files (the "Software"), to deal
   9:SynaptiX_FDK/lib/tinyusb/src/common/tusb_fifo.h ****  * in the Software without restriction, including without limitation the rights
  10:SynaptiX_FDK/lib/tinyusb/src/common/tusb_fifo.h ****  * to use, copy, modify, merge, publish, distribute, sublicense, and/or sell
  11:SynaptiX_FDK/lib/tinyusb/src/common/tusb_fifo.h ****  * copies of the Software, and to permit persons to whom the Software is
  12:SynaptiX_FDK/lib/tinyusb/src/common/tusb_fifo.h ****  * furnished to do so, subject to the following conditions:
  13:SynaptiX_FDK/lib/tinyusb/src/common/tusb_fifo.h ****  *
  14:SynaptiX_FDK/lib/tinyusb/src/common/tusb_fifo.h ****  * The above copyright notice and this permission notice shall be included in
  15:SynaptiX_FDK/lib/tinyusb/src/common/tusb_fifo.h ****  * all copies or substantial portions of the Software.
  16:SynaptiX_FDK/lib/tinyusb/src/common/tusb_fifo.h ****  *
  17:SynaptiX_FDK/lib/tinyusb/src/common/tusb_fifo.h ****  * THE SOFTWARE IS PROVIDED "AS IS", WITHOUT WARRANTY OF ANY KIND, EXPRESS OR
  18:SynaptiX_FDK/lib/tinyusb/src/common/tusb_fifo.h ****  * IMPLIED, INCLUDING BUT NOT LIMITED TO THE WARRANTIES OF MERCHANTABILITY,
  19:SynaptiX_FDK/lib/tinyusb/src/common/tusb_fifo.h ****  * FITNESS FOR A PARTICULAR PURPOSE AND NONINFRINGEMENT. IN NO EVENT SHALL THE
  20:SynaptiX_FDK/lib/tinyusb/src/common/tusb_fifo.h ****  * AUTHORS OR COPYRIGHT HOLDERS BE LIABLE FOR ANY CLAIM, DAMAGES OR OTHER
  21:SynaptiX_FDK/lib/tinyusb/src/common/tusb_fifo.h ****  * LIABILITY, WHETHER IN AN ACTION OF CONTRACT, TORT OR OTHERWISE, ARISING FROM,
  22:SynaptiX_FDK/lib/tinyusb/src/common/tusb_fifo.h ****  * OUT OF OR IN CONNECTION WITH THE SOFTWARE OR THE USE OR OTHER DEALINGS IN
  23:SynaptiX_FDK/lib/tinyusb/src/common/tusb_fifo.h ****  * THE SOFTWARE.
  24:SynaptiX_FDK/lib/tinyusb/src/common/tusb_fifo.h ****  *
  25:SynaptiX_FDK/lib/tinyusb/src/common/tusb_fifo.h ****  * This file is part of the TinyUSB stack.
  26:SynaptiX_FDK/lib/tinyusb/src/common/tusb_fifo.h ****  */
  27:SynaptiX_FDK/lib/tinyusb/src/common/tusb_fifo.h **** 
  28:SynaptiX_FDK/lib/tinyusb/src/common/tusb_fifo.h **** #ifndef TUSB_FIFO_H_
  29:SynaptiX_FDK/lib/tinyusb/src/common/tusb_fifo.h **** #define TUSB_FIFO_H_
  30:SynaptiX_FDK/lib/tinyusb/src/common/tusb_fifo.h **** 
  31:SynaptiX_FDK/lib/tinyusb/src/common/tusb_fifo.h **** #ifdef __cplusplus
  32:SynaptiX_FDK/lib/tinyusb/src/common/tusb_fifo.h **** extern "C" {
  33:SynaptiX_FDK/lib/tinyusb/src/common/tusb_fifo.h **** #endif
  34:SynaptiX_FDK/lib/tinyusb/src/common/tusb_fifo.h **** 
  35:SynaptiX_FDK/lib/tinyusb/src/common/tusb_fifo.h **** #include "common/tusb_common.h"
  36:SynaptiX_FDK/lib/tinyusb/src/common/tusb_fifo.h **** #include "osal/osal.h"
  37:SynaptiX_FDK/lib/tinyusb/src/common/tusb_fifo.h **** 
  38:SynaptiX_FDK/lib/tinyusb/src/common/tusb_fifo.h **** //--------------------------------------------------------------------+
  39:SynaptiX_FDK/lib/tinyusb/src/common/tusb_fifo.h **** // Configuration
  40:SynaptiX_FDK/lib/tinyusb/src/common/tusb_fifo.h **** //--------------------------------------------------------------------+
  41:SynaptiX_FDK/lib/tinyusb/src/common/tusb_fifo.h **** // mutex is only needed for RTOS. For OS None, we don't get preempted
  42:SynaptiX_FDK/lib/tinyusb/src/common/tusb_fifo.h **** #define CFG_FIFO_MUTEX      OSAL_MUTEX_REQUIRED
  43:SynaptiX_FDK/lib/tinyusb/src/common/tusb_fifo.h **** 
  44:SynaptiX_FDK/lib/tinyusb/src/common/tusb_fifo.h **** #define CFG_TUSB_FIFO_HWFIFO_API (CFG_TUD_EDPT_DEDICATED_HWFIFO || CFG_TUH_EDPT_DEDICATED_HWFIFO)
  45:SynaptiX_FDK/lib/tinyusb/src/common/tusb_fifo.h **** 
  46:SynaptiX_FDK/lib/tinyusb/src/common/tusb_fifo.h **** #ifndef CFG_TUSB_FIFO_HWFIFO_DATA_STRIDE
  47:SynaptiX_FDK/lib/tinyusb/src/common/tusb_fifo.h ****   #define CFG_TUSB_FIFO_HWFIFO_DATA_STRIDE 0
  48:SynaptiX_FDK/lib/tinyusb/src/common/tusb_fifo.h **** #endif
  49:SynaptiX_FDK/lib/tinyusb/src/common/tusb_fifo.h **** 
  50:SynaptiX_FDK/lib/tinyusb/src/common/tusb_fifo.h **** #ifndef CFG_TUSB_FIFO_HWFIFO_ADDR_STRIDE
  51:SynaptiX_FDK/lib/tinyusb/src/common/tusb_fifo.h ****   #define CFG_TUSB_FIFO_HWFIFO_ADDR_STRIDE 0
  52:SynaptiX_FDK/lib/tinyusb/src/common/tusb_fifo.h **** #endif
  53:SynaptiX_FDK/lib/tinyusb/src/common/tusb_fifo.h **** 
  54:SynaptiX_FDK/lib/tinyusb/src/common/tusb_fifo.h **** // Due to the use of unmasked pointers, this FIFO does not suffer from losing
  55:SynaptiX_FDK/lib/tinyusb/src/common/tusb_fifo.h **** // one item slice. Furthermore, write and read operations are completely
  56:SynaptiX_FDK/lib/tinyusb/src/common/tusb_fifo.h **** // decoupled as write and read functions do not modify a common state. Henceforth,
  57:SynaptiX_FDK/lib/tinyusb/src/common/tusb_fifo.h **** // writing or reading from the FIFO within an ISR is safe as long as no other
  58:SynaptiX_FDK/lib/tinyusb/src/common/tusb_fifo.h **** // process (thread or ISR) interferes.
  59:SynaptiX_FDK/lib/tinyusb/src/common/tusb_fifo.h **** // Also, this FIFO is ready to be used in combination with a DMA as the write and
  60:SynaptiX_FDK/lib/tinyusb/src/common/tusb_fifo.h **** // read pointers can be updated from within a DMA ISR. Overflows are detectable
ARM GAS  C:\Users\LENOVO\AppData\Local\Temp\ccUTPkkl.s 			page 53


  61:SynaptiX_FDK/lib/tinyusb/src/common/tusb_fifo.h **** // within a certain number (see tu_fifo_overflow()).
  62:SynaptiX_FDK/lib/tinyusb/src/common/tusb_fifo.h **** 
  63:SynaptiX_FDK/lib/tinyusb/src/common/tusb_fifo.h **** /* Write/Read "pointer" is in the range of: 0 .. depth - 1, and is used to get the fifo data.
  64:SynaptiX_FDK/lib/tinyusb/src/common/tusb_fifo.h ****  * Write/Read "index" is always in the range of: 0 .. 2*depth-1
  65:SynaptiX_FDK/lib/tinyusb/src/common/tusb_fifo.h ****  *
  66:SynaptiX_FDK/lib/tinyusb/src/common/tusb_fifo.h ****  * The extra window allow us to determine the fifo state of empty or full with only 2 indices
  67:SynaptiX_FDK/lib/tinyusb/src/common/tusb_fifo.h ****  * Following are examples with depth = 3
  68:SynaptiX_FDK/lib/tinyusb/src/common/tusb_fifo.h ****  *
  69:SynaptiX_FDK/lib/tinyusb/src/common/tusb_fifo.h ****  * - empty: W = R
  70:SynaptiX_FDK/lib/tinyusb/src/common/tusb_fifo.h ****  *                |
  71:SynaptiX_FDK/lib/tinyusb/src/common/tusb_fifo.h ****  *    -------------------------
  72:SynaptiX_FDK/lib/tinyusb/src/common/tusb_fifo.h ****  *    | 0 | RW| 2 | 3 | 4 | 5 |
  73:SynaptiX_FDK/lib/tinyusb/src/common/tusb_fifo.h ****  *
  74:SynaptiX_FDK/lib/tinyusb/src/common/tusb_fifo.h ****  * - full 1: W > R
  75:SynaptiX_FDK/lib/tinyusb/src/common/tusb_fifo.h ****  *                |
  76:SynaptiX_FDK/lib/tinyusb/src/common/tusb_fifo.h ****  *    -------------------------
  77:SynaptiX_FDK/lib/tinyusb/src/common/tusb_fifo.h ****  *    | 0 | R | 2 | 3 | W | 5 |
  78:SynaptiX_FDK/lib/tinyusb/src/common/tusb_fifo.h ****  *
  79:SynaptiX_FDK/lib/tinyusb/src/common/tusb_fifo.h ****  * - full 2: W < R
  80:SynaptiX_FDK/lib/tinyusb/src/common/tusb_fifo.h ****  *                |
  81:SynaptiX_FDK/lib/tinyusb/src/common/tusb_fifo.h ****  *    -------------------------
  82:SynaptiX_FDK/lib/tinyusb/src/common/tusb_fifo.h ****  *    | 0 | 1 | W | 3 | 4 | R |
  83:SynaptiX_FDK/lib/tinyusb/src/common/tusb_fifo.h ****  *
  84:SynaptiX_FDK/lib/tinyusb/src/common/tusb_fifo.h ****  * - Number of items in the fifo can be determined in either cases:
  85:SynaptiX_FDK/lib/tinyusb/src/common/tusb_fifo.h ****  *    - case W >= R: Count = W - R
  86:SynaptiX_FDK/lib/tinyusb/src/common/tusb_fifo.h ****  *    - case W <  R: Count = 2*depth - (R - W)
  87:SynaptiX_FDK/lib/tinyusb/src/common/tusb_fifo.h ****  *
  88:SynaptiX_FDK/lib/tinyusb/src/common/tusb_fifo.h ****  * In non-overwritable mode, computed Count (in above 2 cases) is at most equal to depth.
  89:SynaptiX_FDK/lib/tinyusb/src/common/tusb_fifo.h ****  * However, in over-writable mode, write index can be repeatedly increased and count can be
  90:SynaptiX_FDK/lib/tinyusb/src/common/tusb_fifo.h ****  * temporarily larger than depth (overflowed condition) e.g
  91:SynaptiX_FDK/lib/tinyusb/src/common/tusb_fifo.h ****  *
  92:SynaptiX_FDK/lib/tinyusb/src/common/tusb_fifo.h ****  *  - Overflowed 1: write(3), write(1)
  93:SynaptiX_FDK/lib/tinyusb/src/common/tusb_fifo.h ****  *    In this case we will adjust Read index when read()/peek() is called so that count = depth.
  94:SynaptiX_FDK/lib/tinyusb/src/common/tusb_fifo.h ****  *                  |
  95:SynaptiX_FDK/lib/tinyusb/src/common/tusb_fifo.h ****  *      -------------------------
  96:SynaptiX_FDK/lib/tinyusb/src/common/tusb_fifo.h ****  *      | R | 1 | 2 | 3 | W | 5 |
  97:SynaptiX_FDK/lib/tinyusb/src/common/tusb_fifo.h ****  *
  98:SynaptiX_FDK/lib/tinyusb/src/common/tusb_fifo.h ****  *  - Double Overflowed i.e index is out of allowed range [0,2*depth)
  99:SynaptiX_FDK/lib/tinyusb/src/common/tusb_fifo.h ****  *    This occurs when we continue to write after 1st overflowed to 2nd overflowed. e.g:
 100:SynaptiX_FDK/lib/tinyusb/src/common/tusb_fifo.h ****  *      write(3), write(1), write(2)
 101:SynaptiX_FDK/lib/tinyusb/src/common/tusb_fifo.h ****  *    This must be prevented since it will cause unrecoverable state, in above example
 102:SynaptiX_FDK/lib/tinyusb/src/common/tusb_fifo.h ****  *    if not handled the fifo will be empty instead of continue-to-be full. Since we must not modif
 103:SynaptiX_FDK/lib/tinyusb/src/common/tusb_fifo.h ****  *    read index in write() function, which cause race condition. We will re-position write index s
 104:SynaptiX_FDK/lib/tinyusb/src/common/tusb_fifo.h ****  *    after data is written it is a full fifo i.e W = depth - R
 105:SynaptiX_FDK/lib/tinyusb/src/common/tusb_fifo.h ****  *
 106:SynaptiX_FDK/lib/tinyusb/src/common/tusb_fifo.h ****  *      re-position W = 1 before write(2)
 107:SynaptiX_FDK/lib/tinyusb/src/common/tusb_fifo.h ****  *      Note: we should also move data from mem[3] to read index as well, but deliberately skipped 
 108:SynaptiX_FDK/lib/tinyusb/src/common/tusb_fifo.h ****  *      since it is an expensive operation !!!
 109:SynaptiX_FDK/lib/tinyusb/src/common/tusb_fifo.h ****  *                  |
 110:SynaptiX_FDK/lib/tinyusb/src/common/tusb_fifo.h ****  *      -------------------------
 111:SynaptiX_FDK/lib/tinyusb/src/common/tusb_fifo.h ****  *      | R | W | 2 | 3 | 4 | 5 |
 112:SynaptiX_FDK/lib/tinyusb/src/common/tusb_fifo.h ****  *
 113:SynaptiX_FDK/lib/tinyusb/src/common/tusb_fifo.h ****  *      perform write(2), result is still a full fifo.
 114:SynaptiX_FDK/lib/tinyusb/src/common/tusb_fifo.h ****  *
 115:SynaptiX_FDK/lib/tinyusb/src/common/tusb_fifo.h ****  *                  |
 116:SynaptiX_FDK/lib/tinyusb/src/common/tusb_fifo.h ****  *      -------------------------
 117:SynaptiX_FDK/lib/tinyusb/src/common/tusb_fifo.h ****  *      | R | 1 | 2 | W | 4 | 5 |
ARM GAS  C:\Users\LENOVO\AppData\Local\Temp\ccUTPkkl.s 			page 54


 118:SynaptiX_FDK/lib/tinyusb/src/common/tusb_fifo.h ****  */
 119:SynaptiX_FDK/lib/tinyusb/src/common/tusb_fifo.h **** typedef struct {
 120:SynaptiX_FDK/lib/tinyusb/src/common/tusb_fifo.h ****   uint8_t *buffer;              // buffer pointer
 121:SynaptiX_FDK/lib/tinyusb/src/common/tusb_fifo.h ****   uint16_t depth;               // max items
 122:SynaptiX_FDK/lib/tinyusb/src/common/tusb_fifo.h ****   bool     overwritable;        // overwritable when full
 123:SynaptiX_FDK/lib/tinyusb/src/common/tusb_fifo.h ****   // 1 byte padding here
 124:SynaptiX_FDK/lib/tinyusb/src/common/tusb_fifo.h **** 
 125:SynaptiX_FDK/lib/tinyusb/src/common/tusb_fifo.h ****   volatile uint16_t wr_idx;     // write index
 126:SynaptiX_FDK/lib/tinyusb/src/common/tusb_fifo.h ****   volatile uint16_t rd_idx;     // read index
 127:SynaptiX_FDK/lib/tinyusb/src/common/tusb_fifo.h **** 
 128:SynaptiX_FDK/lib/tinyusb/src/common/tusb_fifo.h **** #if OSAL_MUTEX_REQUIRED
 129:SynaptiX_FDK/lib/tinyusb/src/common/tusb_fifo.h ****   osal_mutex_t mutex_wr;
 130:SynaptiX_FDK/lib/tinyusb/src/common/tusb_fifo.h ****   osal_mutex_t mutex_rd;
 131:SynaptiX_FDK/lib/tinyusb/src/common/tusb_fifo.h **** #endif
 132:SynaptiX_FDK/lib/tinyusb/src/common/tusb_fifo.h **** } tu_fifo_t;
 133:SynaptiX_FDK/lib/tinyusb/src/common/tusb_fifo.h **** 
 134:SynaptiX_FDK/lib/tinyusb/src/common/tusb_fifo.h **** typedef struct {
 135:SynaptiX_FDK/lib/tinyusb/src/common/tusb_fifo.h ****   struct {
 136:SynaptiX_FDK/lib/tinyusb/src/common/tusb_fifo.h ****     uint16_t len; // length
 137:SynaptiX_FDK/lib/tinyusb/src/common/tusb_fifo.h ****     uint8_t *ptr; // buffer pointer
 138:SynaptiX_FDK/lib/tinyusb/src/common/tusb_fifo.h ****   } linear, wrapped;
 139:SynaptiX_FDK/lib/tinyusb/src/common/tusb_fifo.h **** } tu_fifo_buffer_info_t;
 140:SynaptiX_FDK/lib/tinyusb/src/common/tusb_fifo.h **** 
 141:SynaptiX_FDK/lib/tinyusb/src/common/tusb_fifo.h **** // Access mode for hardware fifo read/write
 142:SynaptiX_FDK/lib/tinyusb/src/common/tusb_fifo.h **** typedef struct {
 143:SynaptiX_FDK/lib/tinyusb/src/common/tusb_fifo.h ****   uint8_t   data_stride;
 144:SynaptiX_FDK/lib/tinyusb/src/common/tusb_fifo.h ****   uintptr_t param;
 145:SynaptiX_FDK/lib/tinyusb/src/common/tusb_fifo.h **** } tu_hwfifo_access_t;
 146:SynaptiX_FDK/lib/tinyusb/src/common/tusb_fifo.h **** 
 147:SynaptiX_FDK/lib/tinyusb/src/common/tusb_fifo.h **** #define TU_FIFO_INIT(_buffer, _depth, _overwritable) \
 148:SynaptiX_FDK/lib/tinyusb/src/common/tusb_fifo.h ****   {                                                  \
 149:SynaptiX_FDK/lib/tinyusb/src/common/tusb_fifo.h ****     .buffer       = _buffer,                         \
 150:SynaptiX_FDK/lib/tinyusb/src/common/tusb_fifo.h ****     .depth        = _depth,                          \
 151:SynaptiX_FDK/lib/tinyusb/src/common/tusb_fifo.h ****     .overwritable = _overwritable,                   \
 152:SynaptiX_FDK/lib/tinyusb/src/common/tusb_fifo.h ****   }
 153:SynaptiX_FDK/lib/tinyusb/src/common/tusb_fifo.h **** 
 154:SynaptiX_FDK/lib/tinyusb/src/common/tusb_fifo.h **** #define TU_FIFO_DEF(_name, _depth, _overwritable)                    \
 155:SynaptiX_FDK/lib/tinyusb/src/common/tusb_fifo.h ****   uint8_t   _name##_buf[_depth];                                     \
 156:SynaptiX_FDK/lib/tinyusb/src/common/tusb_fifo.h ****   tu_fifo_t _name = TU_FIFO_INIT(_name##_buf, _depth, _overwritable)
 157:SynaptiX_FDK/lib/tinyusb/src/common/tusb_fifo.h **** 
 158:SynaptiX_FDK/lib/tinyusb/src/common/tusb_fifo.h **** // Moving data from tusb_fifo <-> USB hardware FIFOs e.g. STM32s need to use a special stride mode 
 159:SynaptiX_FDK/lib/tinyusb/src/common/tusb_fifo.h **** // data in 2/4 byte chunks from/to a fixed address (USB FIFO register) instead of incrementing the 
 160:SynaptiX_FDK/lib/tinyusb/src/common/tusb_fifo.h **** // read/write access_mode with stride_mode = true. The STRIDE DATA and ADDR stride must be configur
 161:SynaptiX_FDK/lib/tinyusb/src/common/tusb_fifo.h **** // CFG_TUSB_FIFO_HWFIFO_DATA_STRIDE and CFG_TUSB_FIFO_HWFIFO_ADDR_STRIDE
 162:SynaptiX_FDK/lib/tinyusb/src/common/tusb_fifo.h **** 
 163:SynaptiX_FDK/lib/tinyusb/src/common/tusb_fifo.h **** //--------------------------------------------------------------------+
 164:SynaptiX_FDK/lib/tinyusb/src/common/tusb_fifo.h **** // Setup API
 165:SynaptiX_FDK/lib/tinyusb/src/common/tusb_fifo.h **** //--------------------------------------------------------------------+
 166:SynaptiX_FDK/lib/tinyusb/src/common/tusb_fifo.h **** bool tu_fifo_config(tu_fifo_t *f, void *buffer, uint16_t depth, bool overwritable);
 167:SynaptiX_FDK/lib/tinyusb/src/common/tusb_fifo.h **** void tu_fifo_set_overwritable(tu_fifo_t *f, bool overwritable);
 168:SynaptiX_FDK/lib/tinyusb/src/common/tusb_fifo.h **** void tu_fifo_clear(tu_fifo_t *f);
 169:SynaptiX_FDK/lib/tinyusb/src/common/tusb_fifo.h **** 
 170:SynaptiX_FDK/lib/tinyusb/src/common/tusb_fifo.h **** #if OSAL_MUTEX_REQUIRED
 171:SynaptiX_FDK/lib/tinyusb/src/common/tusb_fifo.h **** TU_ATTR_ALWAYS_INLINE static inline
 172:SynaptiX_FDK/lib/tinyusb/src/common/tusb_fifo.h **** void tu_fifo_config_mutex(tu_fifo_t *f, osal_mutex_t wr_mutex, osal_mutex_t rd_mutex) {
 173:SynaptiX_FDK/lib/tinyusb/src/common/tusb_fifo.h ****   f->mutex_wr = wr_mutex;
 174:SynaptiX_FDK/lib/tinyusb/src/common/tusb_fifo.h ****   f->mutex_rd = rd_mutex;
ARM GAS  C:\Users\LENOVO\AppData\Local\Temp\ccUTPkkl.s 			page 55


 175:SynaptiX_FDK/lib/tinyusb/src/common/tusb_fifo.h **** }
 176:SynaptiX_FDK/lib/tinyusb/src/common/tusb_fifo.h **** #else
 177:SynaptiX_FDK/lib/tinyusb/src/common/tusb_fifo.h **** #define tu_fifo_config_mutex(_f, _wr_mutex, _rd_mutex)
 178:SynaptiX_FDK/lib/tinyusb/src/common/tusb_fifo.h **** #endif
 179:SynaptiX_FDK/lib/tinyusb/src/common/tusb_fifo.h **** 
 180:SynaptiX_FDK/lib/tinyusb/src/common/tusb_fifo.h **** //--------------------------------------------------------------------+
 181:SynaptiX_FDK/lib/tinyusb/src/common/tusb_fifo.h **** // Index API
 182:SynaptiX_FDK/lib/tinyusb/src/common/tusb_fifo.h **** //--------------------------------------------------------------------+
 183:SynaptiX_FDK/lib/tinyusb/src/common/tusb_fifo.h **** void tu_fifo_correct_read_pointer(tu_fifo_t *f);
 184:SynaptiX_FDK/lib/tinyusb/src/common/tusb_fifo.h **** 
 185:SynaptiX_FDK/lib/tinyusb/src/common/tusb_fifo.h **** // Pointer modifications intended to be used in combinations with DMAs.
 186:SynaptiX_FDK/lib/tinyusb/src/common/tusb_fifo.h **** // USE WITH CARE - NO SAFETY CHECKS CONDUCTED HERE! NOT MUTEX PROTECTED!
 187:SynaptiX_FDK/lib/tinyusb/src/common/tusb_fifo.h **** void tu_fifo_advance_write_pointer(tu_fifo_t *f, uint16_t n);
 188:SynaptiX_FDK/lib/tinyusb/src/common/tusb_fifo.h **** void tu_fifo_advance_read_pointer(tu_fifo_t *f, uint16_t n);
 189:SynaptiX_FDK/lib/tinyusb/src/common/tusb_fifo.h **** 
 190:SynaptiX_FDK/lib/tinyusb/src/common/tusb_fifo.h **** // If you want to read/write from/to the FIFO by use of a DMA, you may need to conduct two copies
 191:SynaptiX_FDK/lib/tinyusb/src/common/tusb_fifo.h **** // to handle a possible wrapping part. These functions deliver a pointer to start
 192:SynaptiX_FDK/lib/tinyusb/src/common/tusb_fifo.h **** // reading/writing from/to and a valid linear length along which no wrap occurs.
 193:SynaptiX_FDK/lib/tinyusb/src/common/tusb_fifo.h **** void tu_fifo_get_read_info(tu_fifo_t *f, tu_fifo_buffer_info_t *info);
 194:SynaptiX_FDK/lib/tinyusb/src/common/tusb_fifo.h **** void tu_fifo_get_write_info(tu_fifo_t *f, tu_fifo_buffer_info_t *info);
 195:SynaptiX_FDK/lib/tinyusb/src/common/tusb_fifo.h **** 
 196:SynaptiX_FDK/lib/tinyusb/src/common/tusb_fifo.h **** //--------------------------------------------------------------------+
 197:SynaptiX_FDK/lib/tinyusb/src/common/tusb_fifo.h **** // Peek API
 198:SynaptiX_FDK/lib/tinyusb/src/common/tusb_fifo.h **** // peek() will correct/re-index read pointer in case of an overflowed fifo to form a full fifo
 199:SynaptiX_FDK/lib/tinyusb/src/common/tusb_fifo.h **** //--------------------------------------------------------------------+
 200:SynaptiX_FDK/lib/tinyusb/src/common/tusb_fifo.h **** uint16_t tu_fifo_peek_n_access_mode(tu_fifo_t *f, void *p_buffer, uint16_t n, uint16_t wr_idx, uint
 201:SynaptiX_FDK/lib/tinyusb/src/common/tusb_fifo.h ****                                     const tu_hwfifo_access_t *access_mode);
 202:SynaptiX_FDK/lib/tinyusb/src/common/tusb_fifo.h **** bool     tu_fifo_peek(tu_fifo_t *f, void *p_buffer);
 203:SynaptiX_FDK/lib/tinyusb/src/common/tusb_fifo.h **** uint16_t tu_fifo_peek_n(tu_fifo_t *f, void *p_buffer, uint16_t n);
 204:SynaptiX_FDK/lib/tinyusb/src/common/tusb_fifo.h **** 
 205:SynaptiX_FDK/lib/tinyusb/src/common/tusb_fifo.h **** //--------------------------------------------------------------------+
 206:SynaptiX_FDK/lib/tinyusb/src/common/tusb_fifo.h **** // Read API
 207:SynaptiX_FDK/lib/tinyusb/src/common/tusb_fifo.h **** // peek() + advance read index
 208:SynaptiX_FDK/lib/tinyusb/src/common/tusb_fifo.h **** //--------------------------------------------------------------------+
 209:SynaptiX_FDK/lib/tinyusb/src/common/tusb_fifo.h **** uint16_t tu_fifo_read_n_access_mode(tu_fifo_t *f, void *buffer, uint16_t n, const tu_hwfifo_access_
 210:SynaptiX_FDK/lib/tinyusb/src/common/tusb_fifo.h **** bool     tu_fifo_read(tu_fifo_t *f, void *buffer);
 211:SynaptiX_FDK/lib/tinyusb/src/common/tusb_fifo.h **** TU_ATTR_ALWAYS_INLINE static inline uint16_t tu_fifo_read_n(tu_fifo_t *f, void *buffer, uint16_t n)
 212:SynaptiX_FDK/lib/tinyusb/src/common/tusb_fifo.h ****   return tu_fifo_read_n_access_mode(f, buffer, n, NULL);
 213:SynaptiX_FDK/lib/tinyusb/src/common/tusb_fifo.h **** }
 214:SynaptiX_FDK/lib/tinyusb/src/common/tusb_fifo.h **** 
 215:SynaptiX_FDK/lib/tinyusb/src/common/tusb_fifo.h **** // discard first n items from fifo i.e advance read pointer by n with mutex
 216:SynaptiX_FDK/lib/tinyusb/src/common/tusb_fifo.h **** // return number of discarded items
 217:SynaptiX_FDK/lib/tinyusb/src/common/tusb_fifo.h **** uint16_t tu_fifo_discard_n(tu_fifo_t *f, uint16_t n);
 218:SynaptiX_FDK/lib/tinyusb/src/common/tusb_fifo.h **** 
 219:SynaptiX_FDK/lib/tinyusb/src/common/tusb_fifo.h **** //--------------------------------------------------------------------+
 220:SynaptiX_FDK/lib/tinyusb/src/common/tusb_fifo.h **** // Write API
 221:SynaptiX_FDK/lib/tinyusb/src/common/tusb_fifo.h **** //--------------------------------------------------------------------+
 222:SynaptiX_FDK/lib/tinyusb/src/common/tusb_fifo.h **** uint16_t tu_fifo_write_n_access_mode(tu_fifo_t *f, const void *data, uint16_t n, const tu_hwfifo_ac
 223:SynaptiX_FDK/lib/tinyusb/src/common/tusb_fifo.h **** bool     tu_fifo_write(tu_fifo_t *f, const void *data);
 224:SynaptiX_FDK/lib/tinyusb/src/common/tusb_fifo.h **** TU_ATTR_ALWAYS_INLINE static inline uint16_t tu_fifo_write_n(tu_fifo_t *f, const void *data, uint16
 225:SynaptiX_FDK/lib/tinyusb/src/common/tusb_fifo.h ****   return tu_fifo_write_n_access_mode(f, data, n, NULL);
 226:SynaptiX_FDK/lib/tinyusb/src/common/tusb_fifo.h **** }
 227:SynaptiX_FDK/lib/tinyusb/src/common/tusb_fifo.h **** 
 228:SynaptiX_FDK/lib/tinyusb/src/common/tusb_fifo.h **** //--------------------------------------------------------------------+
 229:SynaptiX_FDK/lib/tinyusb/src/common/tusb_fifo.h **** // Hardware FIFO API
 230:SynaptiX_FDK/lib/tinyusb/src/common/tusb_fifo.h **** // Special hardware FIFO/Buffer to hold USB data, usually requires certain access method these can 
 231:SynaptiX_FDK/lib/tinyusb/src/common/tusb_fifo.h **** // CFG_TUSB_FIFO_HWFIFO_DATA_STRIDE (data width) and CFG_TUSB_FIFO_HWFIFO_ADDR_STRIDE (address incr
ARM GAS  C:\Users\LENOVO\AppData\Local\Temp\ccUTPkkl.s 			page 56


 232:SynaptiX_FDK/lib/tinyusb/src/common/tusb_fifo.h **** // Note: these usually has opposite direction (read/write) to/from our software FIFO  (tu_fifo_t)
 233:SynaptiX_FDK/lib/tinyusb/src/common/tusb_fifo.h **** //--------------------------------------------------------------------+
 234:SynaptiX_FDK/lib/tinyusb/src/common/tusb_fifo.h **** TU_ATTR_ALWAYS_INLINE static inline uint16_t tu_hwfifo_write_from_fifo(volatile void *hwfifo, tu_fi
 235:SynaptiX_FDK/lib/tinyusb/src/common/tusb_fifo.h ****                                                                        const tu_hwfifo_access_t *ac
 236:SynaptiX_FDK/lib/tinyusb/src/common/tusb_fifo.h ****   const tu_hwfifo_access_t default_access = {.data_stride = CFG_TUSB_FIFO_HWFIFO_DATA_STRIDE, .para
 237:SynaptiX_FDK/lib/tinyusb/src/common/tusb_fifo.h ****   return tu_fifo_read_n_access_mode(f, (void *)(uintptr_t)hwfifo, n,
 238:SynaptiX_FDK/lib/tinyusb/src/common/tusb_fifo.h ****                                     (access_mode != NULL) ? access_mode : &default_access);
 239:SynaptiX_FDK/lib/tinyusb/src/common/tusb_fifo.h **** }
 240:SynaptiX_FDK/lib/tinyusb/src/common/tusb_fifo.h **** 
 241:SynaptiX_FDK/lib/tinyusb/src/common/tusb_fifo.h **** TU_ATTR_ALWAYS_INLINE static inline uint16_t tu_hwfifo_read_to_fifo(const volatile void *hwfifo, tu
 242:SynaptiX_FDK/lib/tinyusb/src/common/tusb_fifo.h ****                                                                     uint16_t n, const tu_hwfifo_acc
 243:SynaptiX_FDK/lib/tinyusb/src/common/tusb_fifo.h ****   const tu_hwfifo_access_t default_access = {.data_stride = CFG_TUSB_FIFO_HWFIFO_DATA_STRIDE, .para
 244:SynaptiX_FDK/lib/tinyusb/src/common/tusb_fifo.h ****   return tu_fifo_write_n_access_mode(f, (const void *)(uintptr_t)hwfifo, n,
 245:SynaptiX_FDK/lib/tinyusb/src/common/tusb_fifo.h ****                                      (access_mode != NULL) ? access_mode : &default_access);
 246:SynaptiX_FDK/lib/tinyusb/src/common/tusb_fifo.h **** }
 247:SynaptiX_FDK/lib/tinyusb/src/common/tusb_fifo.h **** 
 248:SynaptiX_FDK/lib/tinyusb/src/common/tusb_fifo.h **** #if CFG_TUSB_FIFO_HWFIFO_API
 249:SynaptiX_FDK/lib/tinyusb/src/common/tusb_fifo.h **** // read from hwfifo to buffer
 250:SynaptiX_FDK/lib/tinyusb/src/common/tusb_fifo.h **** void tu_hwfifo_read(const volatile void *hwfifo, uint8_t *dest, uint16_t len, const tu_hwfifo_acces
 251:SynaptiX_FDK/lib/tinyusb/src/common/tusb_fifo.h **** 
 252:SynaptiX_FDK/lib/tinyusb/src/common/tusb_fifo.h **** // write to hwfifo from buffer with access mode
 253:SynaptiX_FDK/lib/tinyusb/src/common/tusb_fifo.h **** void tu_hwfifo_write(volatile void *hwfifo, const uint8_t *src, uint16_t len, const tu_hwfifo_acces
 254:SynaptiX_FDK/lib/tinyusb/src/common/tusb_fifo.h **** 
 255:SynaptiX_FDK/lib/tinyusb/src/common/tusb_fifo.h **** #endif
 256:SynaptiX_FDK/lib/tinyusb/src/common/tusb_fifo.h **** 
 257:SynaptiX_FDK/lib/tinyusb/src/common/tusb_fifo.h **** //--------------------------------------------------------------------+
 258:SynaptiX_FDK/lib/tinyusb/src/common/tusb_fifo.h **** // Internal Helper Local
 259:SynaptiX_FDK/lib/tinyusb/src/common/tusb_fifo.h **** // work on local copies of read/write indices in order to only access them once for re-entrancy
 260:SynaptiX_FDK/lib/tinyusb/src/common/tusb_fifo.h **** //--------------------------------------------------------------------+
 261:SynaptiX_FDK/lib/tinyusb/src/common/tusb_fifo.h **** // return overflowable count (index difference), which can be used to determine both fifo count and
 262:SynaptiX_FDK/lib/tinyusb/src/common/tusb_fifo.h **** TU_ATTR_ALWAYS_INLINE static inline uint16_t tu_ff_overflow_count(uint16_t depth, uint16_t wr_idx, 
 263:SynaptiX_FDK/lib/tinyusb/src/common/tusb_fifo.h ****   const int32_t diff = (int32_t)wr_idx - (int32_t)rd_idx;
 264:SynaptiX_FDK/lib/tinyusb/src/common/tusb_fifo.h ****   if (diff >= 0) {
 265:SynaptiX_FDK/lib/tinyusb/src/common/tusb_fifo.h ****     return (uint16_t)diff;
 266:SynaptiX_FDK/lib/tinyusb/src/common/tusb_fifo.h ****   } else {
 267:SynaptiX_FDK/lib/tinyusb/src/common/tusb_fifo.h ****     return (uint16_t)(2 * depth + diff);
 268:SynaptiX_FDK/lib/tinyusb/src/common/tusb_fifo.h ****   }
 269:SynaptiX_FDK/lib/tinyusb/src/common/tusb_fifo.h **** }
 270:SynaptiX_FDK/lib/tinyusb/src/common/tusb_fifo.h **** 
 271:SynaptiX_FDK/lib/tinyusb/src/common/tusb_fifo.h **** // return remaining slot in fifo
 272:SynaptiX_FDK/lib/tinyusb/src/common/tusb_fifo.h **** TU_ATTR_ALWAYS_INLINE static inline uint16_t tu_ff_remaining_local(uint16_t depth, uint16_t wr_idx,
 273:SynaptiX_FDK/lib/tinyusb/src/common/tusb_fifo.h ****   const uint16_t ovf_count = tu_ff_overflow_count(depth, wr_idx, rd_idx);
 274:SynaptiX_FDK/lib/tinyusb/src/common/tusb_fifo.h ****   return (depth > ovf_count) ? (depth - ovf_count) : 0;
 275:SynaptiX_FDK/lib/tinyusb/src/common/tusb_fifo.h **** }
 276:SynaptiX_FDK/lib/tinyusb/src/common/tusb_fifo.h **** 
 277:SynaptiX_FDK/lib/tinyusb/src/common/tusb_fifo.h **** //--------------------------------------------------------------------+
 278:SynaptiX_FDK/lib/tinyusb/src/common/tusb_fifo.h **** // State API
 279:SynaptiX_FDK/lib/tinyusb/src/common/tusb_fifo.h **** // Following functions are reentrant since they only access read/write indices once, therefore can 
 280:SynaptiX_FDK/lib/tinyusb/src/common/tusb_fifo.h **** // ISRs context without the need of mutexes
 281:SynaptiX_FDK/lib/tinyusb/src/common/tusb_fifo.h **** //--------------------------------------------------------------------+
 282:SynaptiX_FDK/lib/tinyusb/src/common/tusb_fifo.h **** TU_ATTR_ALWAYS_INLINE static inline uint16_t tu_fifo_depth(const tu_fifo_t *f) {
 283:SynaptiX_FDK/lib/tinyusb/src/common/tusb_fifo.h ****   return f->depth;
 284:SynaptiX_FDK/lib/tinyusb/src/common/tusb_fifo.h **** }
 285:SynaptiX_FDK/lib/tinyusb/src/common/tusb_fifo.h **** 
 286:SynaptiX_FDK/lib/tinyusb/src/common/tusb_fifo.h **** TU_ATTR_ALWAYS_INLINE static inline bool tu_fifo_empty(const tu_fifo_t *f) {
 1278              		.loc 4 286 42 view .LVU364
 1279              	.LBB104:
ARM GAS  C:\Users\LENOVO\AppData\Local\Temp\ccUTPkkl.s 			page 57


 287:SynaptiX_FDK/lib/tinyusb/src/common/tusb_fifo.h ****   const uint16_t wr_idx = f->wr_idx;
 1280              		.loc 4 287 3 view .LVU365
 1281              		.loc 4 287 18 is_stmt 0 view .LVU366
 1282 0000 828A     		ldrh	r2, [r0, #20]
 1283 0002 92B2     		uxth	r2, r2
 1284              	.LVL108:
 288:SynaptiX_FDK/lib/tinyusb/src/common/tusb_fifo.h ****   const uint16_t rd_idx = f->rd_idx;
 1285              		.loc 4 288 3 is_stmt 1 view .LVU367
 1286              		.loc 4 288 18 is_stmt 0 view .LVU368
 1287 0004 C38A     		ldrh	r3, [r0, #22]
 1288 0006 9BB2     		uxth	r3, r3
 1289              	.LVL109:
 289:SynaptiX_FDK/lib/tinyusb/src/common/tusb_fifo.h ****   return wr_idx == rd_idx;
 1290              		.loc 4 289 3 is_stmt 1 view .LVU369
 1291              		.loc 4 289 3 is_stmt 0 view .LVU370
 1292              	.LBE104:
 1293              	.LBE103:
 1294              		.loc 1 396 3 discriminator 1 view .LVU371
 1295 0008 9A42     		cmp	r2, r3
 1296 000a 19D1     		bne	.L125
 394:SynaptiX_FDK/lib/tinyusb/src/tusb.c ****   // ZLP condition: no pending data, last transferred bytes is multiple of packet size
 1297              		.loc 1 394 91 view .LVU372
 1298 000c 10B5     		push	{r4, lr}
 1299              	.LCFI21:
 1300              		.cfi_def_cfa_offset 8
 1301              		.cfi_offset 4, -8
 1302              		.cfi_offset 14, -4
 1303 000e 0446     		mov	r4, r0
 1304              		.loc 1 396 3 discriminator 2 view .LVU373
 1305 0010 C1B1     		cbz	r1, .L126
 1306              		.loc 1 396 3 discriminator 4 view .LVU374
 1307 0012 8388     		ldrh	r3, [r0, #4]
 1308 0014 013B     		subs	r3, r3, #1
 1309 0016 0B42     		tst	r3, r1
 1310 0018 01D0     		beq	.L132
 1311              		.loc 1 396 3 discriminator 5 view .LVU375
 1312 001a 0020     		movs	r0, #0
 1313              	.LVL110:
 1314              		.loc 1 396 3 discriminator 5 view .LVU376
 1315 001c 13E0     		b	.L123
 1316              	.LVL111:
 1317              	.L132:
 1318              		.loc 1 396 3 is_stmt 1 discriminator 6 view .LVU377
 397:SynaptiX_FDK/lib/tinyusb/src/tusb.c ****   TU_VERIFY(stream_claim(s));
 1319              		.loc 1 397 3 view .LVU378
 1320              		.loc 1 397 3 view .LVU379
 1321 001e FFF7FEFF 		bl	stream_claim
 1322              	.LVL112:
 1323              		.loc 1 397 3 is_stmt 0 discriminator 1 view .LVU380
 1324 0022 80B1     		cbz	r0, .L123
 1325              		.loc 1 397 3 is_stmt 1 discriminator 2 view .LVU381
 398:SynaptiX_FDK/lib/tinyusb/src/tusb.c ****   TU_ASSERT(stream_xfer(s, 0));
 1326              		.loc 1 398 3 view .LVU382
 1327              		.loc 1 398 3 view .LVU383
 1328 0024 0021     		movs	r1, #0
 1329 0026 2046     		mov	r0, r4
 1330 0028 FFF7FEFF 		bl	stream_xfer
ARM GAS  C:\Users\LENOVO\AppData\Local\Temp\ccUTPkkl.s 			page 58


 1331              	.LVL113:
 1332              		.loc 1 398 3 is_stmt 0 discriminator 1 view .LVU384
 1333 002c 58B9     		cbnz	r0, .L123
 1334              		.loc 1 398 3 is_stmt 1 discriminator 1 view .LVU385
 1335              		.loc 1 398 3 discriminator 1 view .LVU386
 1336              		.loc 1 398 3 discriminator 1 view .LVU387
 1337              		.loc 1 398 3 discriminator 1 view .LVU388
 1338              	.LBB105:
 1339              		.loc 1 398 3 discriminator 1 view .LVU389
 1340              	.LVL114:
 1341              		.loc 1 398 3 discriminator 1 view .LVU390
 1342 002e 4FF0E023 		mov	r3, #-536813568
 1343 0032 D3F8F03D 		ldr	r3, [r3, #3568]
 1344 0036 13F0010F 		tst	r3, #1
 1345 003a 04D0     		beq	.L123
 1346              		.loc 1 398 3 discriminator 3 view .LVU391
 1347              		.syntax unified
 1348              	@ 398 "SynaptiX_FDK/lib/tinyusb/src/tusb.c" 1
 1349 003c 00BE     		BKPT #0
 1350              	
 1351              	@ 0 "" 2
 1352              		.thumb
 1353              		.syntax unified
 1354              	.LBE105:
 1355              		.loc 1 398 3 discriminator 5 view .LVU392
 1356              		.loc 1 398 3 discriminator 5 view .LVU393
 1357              		.loc 1 398 3 is_stmt 0 view .LVU394
 1358 003e 02E0     		b	.L123
 1359              	.LVL115:
 1360              	.L125:
 1361              	.LCFI22:
 1362              		.cfi_def_cfa_offset 0
 1363              		.cfi_restore 4
 1364              		.cfi_restore 14
 396:SynaptiX_FDK/lib/tinyusb/src/tusb.c ****   TU_VERIFY(stream_claim(s));
 1365              		.loc 1 396 3 discriminator 5 view .LVU395
 1366 0040 0020     		movs	r0, #0
 1367              	.LVL116:
 399:SynaptiX_FDK/lib/tinyusb/src/tusb.c ****   return true;
 400:SynaptiX_FDK/lib/tinyusb/src/tusb.c **** }
 1368              		.loc 1 400 1 view .LVU396
 1369 0042 7047     		bx	lr
 1370              	.LVL117:
 1371              	.L126:
 1372              	.LCFI23:
 1373              		.cfi_def_cfa_offset 8
 1374              		.cfi_offset 4, -8
 1375              		.cfi_offset 14, -4
 396:SynaptiX_FDK/lib/tinyusb/src/tusb.c ****   TU_VERIFY(stream_claim(s));
 1376              		.loc 1 396 3 discriminator 5 view .LVU397
 1377 0044 0020     		movs	r0, #0
 1378              	.LVL118:
 1379              	.L123:
 1380              		.loc 1 400 1 view .LVU398
 1381 0046 10BD     		pop	{r4, pc}
 1382              		.loc 1 400 1 view .LVU399
 1383              		.cfi_endproc
ARM GAS  C:\Users\LENOVO\AppData\Local\Temp\ccUTPkkl.s 			page 59


 1384              	.LFE667:
 1386              		.section	.text.tu_edpt_stream_write_xfer,"ax",%progbits
 1387              		.align	1
 1388              		.global	tu_edpt_stream_write_xfer
 1389              		.syntax unified
 1390              		.thumb
 1391              		.thumb_func
 1393              	tu_edpt_stream_write_xfer:
 1394              	.LVL119:
 1395              	.LFB668:
 401:SynaptiX_FDK/lib/tinyusb/src/tusb.c **** 
 402:SynaptiX_FDK/lib/tinyusb/src/tusb.c **** uint32_t tu_edpt_stream_write_xfer(tu_edpt_stream_t *s) {
 1396              		.loc 1 402 57 is_stmt 1 view -0
 1397              		.cfi_startproc
 1398              		@ args = 0, pretend = 0, frame = 0
 1399              		@ frame_needed = 0, uses_anonymous_args = 0
 1400              		.loc 1 402 57 is_stmt 0 view .LVU401
 1401 0000 38B5     		push	{r3, r4, r5, lr}
 1402              	.LCFI24:
 1403              		.cfi_def_cfa_offset 16
 1404              		.cfi_offset 3, -16
 1405              		.cfi_offset 4, -12
 1406              		.cfi_offset 5, -8
 1407              		.cfi_offset 14, -4
 1408 0002 0446     		mov	r4, r0
 403:SynaptiX_FDK/lib/tinyusb/src/tusb.c ****   const uint16_t ff_count = tu_fifo_count(&s->ff);
 1409              		.loc 1 403 3 is_stmt 1 view .LVU402
 1410              	.LVL120:
 1411              	.LBB106:
 1412              	.LBI106:
 290:SynaptiX_FDK/lib/tinyusb/src/common/tusb_fifo.h **** }
 291:SynaptiX_FDK/lib/tinyusb/src/common/tusb_fifo.h **** 
 292:SynaptiX_FDK/lib/tinyusb/src/common/tusb_fifo.h **** // return number of items in fifo, capped to fifo's depth
 293:SynaptiX_FDK/lib/tinyusb/src/common/tusb_fifo.h **** TU_ATTR_ALWAYS_INLINE static inline uint16_t tu_fifo_count(const tu_fifo_t *f) {
 1413              		.loc 4 293 46 view .LVU403
 1414              	.LBB107:
 294:SynaptiX_FDK/lib/tinyusb/src/common/tusb_fifo.h ****   const uint16_t wr_idx = f->wr_idx;
 1415              		.loc 4 294 3 view .LVU404
 1416              		.loc 4 294 18 is_stmt 0 view .LVU405
 1417 0004 838A     		ldrh	r3, [r0, #20]
 1418 0006 9BB2     		uxth	r3, r3
 1419              	.LVL121:
 295:SynaptiX_FDK/lib/tinyusb/src/common/tusb_fifo.h ****   const uint16_t rd_idx = f->rd_idx;
 1420              		.loc 4 295 3 is_stmt 1 view .LVU406
 1421              		.loc 4 295 18 is_stmt 0 view .LVU407
 1422 0008 C28A     		ldrh	r2, [r0, #22]
 1423 000a 92B2     		uxth	r2, r2
 1424              	.LVL122:
 296:SynaptiX_FDK/lib/tinyusb/src/common/tusb_fifo.h ****   return tu_min16(tu_ff_overflow_count(f->depth, wr_idx, rd_idx), f->depth);
 1425              		.loc 4 296 3 is_stmt 1 view .LVU408
 1426              		.loc 4 296 41 is_stmt 0 view .LVU409
 1427 000c 018A     		ldrh	r1, [r0, #16]
 1428              	.LVL123:
 1429              	.LBB108:
 1430              	.LBI108:
 262:SynaptiX_FDK/lib/tinyusb/src/common/tusb_fifo.h ****   const int32_t diff = (int32_t)wr_idx - (int32_t)rd_idx;
 1431              		.loc 4 262 46 is_stmt 1 view .LVU410
ARM GAS  C:\Users\LENOVO\AppData\Local\Temp\ccUTPkkl.s 			page 60


 1432              	.LBB109:
 263:SynaptiX_FDK/lib/tinyusb/src/common/tusb_fifo.h ****   if (diff >= 0) {
 1433              		.loc 4 263 3 view .LVU411
 263:SynaptiX_FDK/lib/tinyusb/src/common/tusb_fifo.h ****   if (diff >= 0) {
 1434              		.loc 4 263 17 is_stmt 0 view .LVU412
 1435 000e 981A     		subs	r0, r3, r2
 1436              	.LVL124:
 264:SynaptiX_FDK/lib/tinyusb/src/common/tusb_fifo.h ****     return (uint16_t)diff;
 1437              		.loc 4 264 3 is_stmt 1 view .LVU413
 264:SynaptiX_FDK/lib/tinyusb/src/common/tusb_fifo.h ****     return (uint16_t)diff;
 1438              		.loc 4 264 6 is_stmt 0 view .LVU414
 1439 0010 0028     		cmp	r0, #0
 1440 0012 06DB     		blt	.L134
 265:SynaptiX_FDK/lib/tinyusb/src/common/tusb_fifo.h ****   } else {
 1441              		.loc 4 265 5 is_stmt 1 view .LVU415
 265:SynaptiX_FDK/lib/tinyusb/src/common/tusb_fifo.h ****   } else {
 1442              		.loc 4 265 12 is_stmt 0 view .LVU416
 1443 0014 83B2     		uxth	r3, r0
 1444              	.LVL125:
 1445              	.L135:
 265:SynaptiX_FDK/lib/tinyusb/src/common/tusb_fifo.h ****   } else {
 1446              		.loc 4 265 12 view .LVU417
 1447              	.LBE109:
 1448              	.LBE108:
 1449              	.LBB111:
 1450              	.LBI111:
 206:SynaptiX_FDK/lib/tinyusb/src/common/tusb_common.h **** TU_ATTR_ALWAYS_INLINE static inline uint32_t tu_min32 (uint32_t x, uint32_t y) { return (x < y) ? x
 1451              		.loc 2 206 46 is_stmt 1 view .LVU418
 1452              	.LBB112:
 206:SynaptiX_FDK/lib/tinyusb/src/common/tusb_common.h **** TU_ATTR_ALWAYS_INLINE static inline uint32_t tu_min32 (uint32_t x, uint32_t y) { return (x < y) ? x
 1453              		.loc 2 206 82 view .LVU419
 206:SynaptiX_FDK/lib/tinyusb/src/common/tusb_common.h **** TU_ATTR_ALWAYS_INLINE static inline uint32_t tu_min32 (uint32_t x, uint32_t y) { return (x < y) ? x
 1454              		.loc 2 206 101 is_stmt 0 view .LVU420
 1455 0016 9942     		cmp	r1, r3
 1456 0018 28BF     		it	cs
 1457 001a 1946     		movcs	r1, r3
 1458              	.LVL126:
 206:SynaptiX_FDK/lib/tinyusb/src/common/tusb_common.h **** TU_ATTR_ALWAYS_INLINE static inline uint32_t tu_min32 (uint32_t x, uint32_t y) { return (x < y) ? x
 1459              		.loc 2 206 101 view .LVU421
 1460              	.LBE112:
 1461              	.LBE111:
 1462              	.LBE107:
 1463              	.LBE106:
 404:SynaptiX_FDK/lib/tinyusb/src/tusb.c ****   TU_VERIFY(ff_count > 0, 0); // skip if no data
 1464              		.loc 1 404 3 is_stmt 1 view .LVU422
 1465              		.loc 1 404 3 view .LVU423
 1466 001c 31B9     		cbnz	r1, .L147
 1467              		.loc 1 404 3 is_stmt 0 discriminator 1 view .LVU424
 1468 001e 0020     		movs	r0, #0
 1469              	.LVL127:
 1470              	.L133:
 405:SynaptiX_FDK/lib/tinyusb/src/tusb.c ****   TU_VERIFY(stream_claim(s), 0);
 406:SynaptiX_FDK/lib/tinyusb/src/tusb.c **** 
 407:SynaptiX_FDK/lib/tinyusb/src/tusb.c ****   // Pull data from FIFO -> EP buf
 408:SynaptiX_FDK/lib/tinyusb/src/tusb.c ****   uint16_t count;
 409:SynaptiX_FDK/lib/tinyusb/src/tusb.c ****   if (s->ep_buf == NULL) {
 410:SynaptiX_FDK/lib/tinyusb/src/tusb.c ****     count = tu_fifo_count(&s->ff); // re-get count since fifo can be changed
ARM GAS  C:\Users\LENOVO\AppData\Local\Temp\ccUTPkkl.s 			page 61


 411:SynaptiX_FDK/lib/tinyusb/src/tusb.c ****   } else {
 412:SynaptiX_FDK/lib/tinyusb/src/tusb.c ****     count = tu_fifo_read_n(&s->ff, s->ep_buf, s->xfer_len);
 413:SynaptiX_FDK/lib/tinyusb/src/tusb.c ****   }
 414:SynaptiX_FDK/lib/tinyusb/src/tusb.c **** 
 415:SynaptiX_FDK/lib/tinyusb/src/tusb.c ****   if (count > 0) {
 416:SynaptiX_FDK/lib/tinyusb/src/tusb.c ****     TU_ASSERT(stream_xfer(s, count), 0);
 417:SynaptiX_FDK/lib/tinyusb/src/tusb.c ****     return count;
 418:SynaptiX_FDK/lib/tinyusb/src/tusb.c ****   } else {
 419:SynaptiX_FDK/lib/tinyusb/src/tusb.c ****     // Release endpoint since we don't make any transfer
 420:SynaptiX_FDK/lib/tinyusb/src/tusb.c ****     // Note: data is dropped if terminal is not connected
 421:SynaptiX_FDK/lib/tinyusb/src/tusb.c ****     stream_release(s);
 422:SynaptiX_FDK/lib/tinyusb/src/tusb.c ****     return 0;
 423:SynaptiX_FDK/lib/tinyusb/src/tusb.c ****   }
 424:SynaptiX_FDK/lib/tinyusb/src/tusb.c **** }
 1471              		.loc 1 424 1 view .LVU425
 1472 0020 38BD     		pop	{r3, r4, r5, pc}
 1473              	.LVL128:
 1474              	.L134:
 1475              	.LBB115:
 1476              	.LBB114:
 1477              	.LBB113:
 1478              	.LBB110:
 267:SynaptiX_FDK/lib/tinyusb/src/common/tusb_fifo.h ****   }
 1479              		.loc 4 267 5 is_stmt 1 view .LVU426
 267:SynaptiX_FDK/lib/tinyusb/src/common/tusb_fifo.h ****   }
 1480              		.loc 4 267 12 is_stmt 0 view .LVU427
 1481 0022 9B1A     		subs	r3, r3, r2
 1482              	.LVL129:
 267:SynaptiX_FDK/lib/tinyusb/src/common/tusb_fifo.h ****   }
 1483              		.loc 4 267 12 view .LVU428
 1484 0024 03EB4103 		add	r3, r3, r1, lsl #1
 1485 0028 9BB2     		uxth	r3, r3
 1486 002a F4E7     		b	.L135
 1487              	.LVL130:
 1488              	.L147:
 267:SynaptiX_FDK/lib/tinyusb/src/common/tusb_fifo.h ****   }
 1489              		.loc 4 267 12 view .LVU429
 1490              	.LBE110:
 1491              	.LBE113:
 1492              	.LBE114:
 1493              	.LBE115:
 404:SynaptiX_FDK/lib/tinyusb/src/tusb.c ****   TU_VERIFY(ff_count > 0, 0); // skip if no data
 1494              		.loc 1 404 3 is_stmt 1 discriminator 2 view .LVU430
 405:SynaptiX_FDK/lib/tinyusb/src/tusb.c ****   TU_VERIFY(stream_claim(s), 0);
 1495              		.loc 1 405 3 view .LVU431
 405:SynaptiX_FDK/lib/tinyusb/src/tusb.c ****   TU_VERIFY(stream_claim(s), 0);
 1496              		.loc 1 405 3 view .LVU432
 1497 002c 2046     		mov	r0, r4
 1498 002e FFF7FEFF 		bl	stream_claim
 1499              	.LVL131:
 405:SynaptiX_FDK/lib/tinyusb/src/tusb.c ****   TU_VERIFY(stream_claim(s), 0);
 1500              		.loc 1 405 3 is_stmt 0 discriminator 1 view .LVU433
 1501 0032 90B3     		cbz	r0, .L145
 405:SynaptiX_FDK/lib/tinyusb/src/tusb.c ****   TU_VERIFY(stream_claim(s), 0);
 1502              		.loc 1 405 3 is_stmt 1 discriminator 2 view .LVU434
 408:SynaptiX_FDK/lib/tinyusb/src/tusb.c ****   if (s->ep_buf == NULL) {
 1503              		.loc 1 408 3 view .LVU435
ARM GAS  C:\Users\LENOVO\AppData\Local\Temp\ccUTPkkl.s 			page 62


 409:SynaptiX_FDK/lib/tinyusb/src/tusb.c ****     count = tu_fifo_count(&s->ff); // re-get count since fifo can be changed
 1504              		.loc 1 409 3 view .LVU436
 409:SynaptiX_FDK/lib/tinyusb/src/tusb.c ****     count = tu_fifo_count(&s->ff); // re-get count since fifo can be changed
 1505              		.loc 1 409 8 is_stmt 0 view .LVU437
 1506 0034 A168     		ldr	r1, [r4, #8]
 409:SynaptiX_FDK/lib/tinyusb/src/tusb.c ****     count = tu_fifo_count(&s->ff); // re-get count since fifo can be changed
 1507              		.loc 1 409 6 view .LVU438
 1508 0036 B1B1     		cbz	r1, .L148
 412:SynaptiX_FDK/lib/tinyusb/src/tusb.c ****   }
 1509              		.loc 1 412 5 is_stmt 1 view .LVU439
 1510              	.LVL132:
 1511              	.LBB116:
 1512              	.LBI116:
 211:SynaptiX_FDK/lib/tinyusb/src/common/tusb_fifo.h ****   return tu_fifo_read_n_access_mode(f, buffer, n, NULL);
 1513              		.loc 4 211 46 view .LVU440
 1514              	.LBB117:
 212:SynaptiX_FDK/lib/tinyusb/src/common/tusb_fifo.h **** }
 1515              		.loc 4 212 3 view .LVU441
 212:SynaptiX_FDK/lib/tinyusb/src/common/tusb_fifo.h **** }
 1516              		.loc 4 212 10 is_stmt 0 view .LVU442
 1517 0038 0023     		movs	r3, #0
 1518 003a E288     		ldrh	r2, [r4, #6]
 1519 003c 04F10C00 		add	r0, r4, #12
 1520              	.LVL133:
 212:SynaptiX_FDK/lib/tinyusb/src/common/tusb_fifo.h **** }
 1521              		.loc 4 212 10 view .LVU443
 1522 0040 FFF7FEFF 		bl	tu_fifo_read_n_access_mode
 1523              	.LVL134:
 212:SynaptiX_FDK/lib/tinyusb/src/common/tusb_fifo.h **** }
 1524              		.loc 4 212 10 view .LVU444
 1525 0044 0546     		mov	r5, r0
 1526              	.LVL135:
 1527              	.L140:
 212:SynaptiX_FDK/lib/tinyusb/src/common/tusb_fifo.h **** }
 1528              		.loc 4 212 10 view .LVU445
 1529              	.LBE117:
 1530              	.LBE116:
 415:SynaptiX_FDK/lib/tinyusb/src/tusb.c ****     TU_ASSERT(stream_xfer(s, count), 0);
 1531              		.loc 1 415 3 is_stmt 1 view .LVU446
 415:SynaptiX_FDK/lib/tinyusb/src/tusb.c ****     TU_ASSERT(stream_xfer(s, count), 0);
 1532              		.loc 1 415 6 is_stmt 0 view .LVU447
 1533 0046 1DB3     		cbz	r5, .L141
 416:SynaptiX_FDK/lib/tinyusb/src/tusb.c ****     return count;
 1534              		.loc 1 416 5 is_stmt 1 view .LVU448
 416:SynaptiX_FDK/lib/tinyusb/src/tusb.c ****     return count;
 1535              		.loc 1 416 5 view .LVU449
 1536 0048 2946     		mov	r1, r5
 1537 004a 2046     		mov	r0, r4
 1538 004c FFF7FEFF 		bl	stream_xfer
 1539              	.LVL136:
 416:SynaptiX_FDK/lib/tinyusb/src/tusb.c ****     return count;
 1540              		.loc 1 416 5 is_stmt 0 discriminator 1 view .LVU450
 1541 0050 E0B9     		cbnz	r0, .L142
 416:SynaptiX_FDK/lib/tinyusb/src/tusb.c ****     return count;
 1542              		.loc 1 416 5 is_stmt 1 discriminator 1 view .LVU451
 416:SynaptiX_FDK/lib/tinyusb/src/tusb.c ****     return count;
 1543              		.loc 1 416 5 discriminator 1 view .LVU452
ARM GAS  C:\Users\LENOVO\AppData\Local\Temp\ccUTPkkl.s 			page 63


 416:SynaptiX_FDK/lib/tinyusb/src/tusb.c ****     return count;
 1544              		.loc 1 416 5 discriminator 1 view .LVU453
 416:SynaptiX_FDK/lib/tinyusb/src/tusb.c ****     return count;
 1545              		.loc 1 416 5 discriminator 1 view .LVU454
 1546              	.LBB118:
 416:SynaptiX_FDK/lib/tinyusb/src/tusb.c ****     return count;
 1547              		.loc 1 416 5 discriminator 1 view .LVU455
 1548              	.LVL137:
 416:SynaptiX_FDK/lib/tinyusb/src/tusb.c ****     return count;
 1549              		.loc 1 416 5 discriminator 1 view .LVU456
 1550 0052 4FF0E023 		mov	r3, #-536813568
 1551 0056 D3F8F03D 		ldr	r3, [r3, #3568]
 1552 005a 13F0010F 		tst	r3, #1
 1553 005e 00D0     		beq	.L143
 416:SynaptiX_FDK/lib/tinyusb/src/tusb.c ****     return count;
 1554              		.loc 1 416 5 discriminator 3 view .LVU457
 1555              		.syntax unified
 1556              	@ 416 "SynaptiX_FDK/lib/tinyusb/src/tusb.c" 1
 1557 0060 00BE     		BKPT #0
 1558              	
 1559              	@ 0 "" 2
 1560              		.thumb
 1561              		.syntax unified
 1562              	.L143:
 1563              	.LBE118:
 416:SynaptiX_FDK/lib/tinyusb/src/tusb.c ****     return count;
 1564              		.loc 1 416 5 discriminator 5 view .LVU458
 416:SynaptiX_FDK/lib/tinyusb/src/tusb.c ****     return count;
 1565              		.loc 1 416 5 discriminator 5 view .LVU459
 1566 0062 0020     		movs	r0, #0
 416:SynaptiX_FDK/lib/tinyusb/src/tusb.c ****     return count;
 1567              		.loc 1 416 5 is_stmt 0 view .LVU460
 1568 0064 DCE7     		b	.L133
 1569              	.LVL138:
 1570              	.L148:
 410:SynaptiX_FDK/lib/tinyusb/src/tusb.c ****   } else {
 1571              		.loc 1 410 5 is_stmt 1 view .LVU461
 1572              	.LBB119:
 1573              	.LBI119:
 293:SynaptiX_FDK/lib/tinyusb/src/common/tusb_fifo.h ****   const uint16_t wr_idx = f->wr_idx;
 1574              		.loc 4 293 46 view .LVU462
 1575              	.LBB120:
 294:SynaptiX_FDK/lib/tinyusb/src/common/tusb_fifo.h ****   const uint16_t rd_idx = f->rd_idx;
 1576              		.loc 4 294 3 view .LVU463
 294:SynaptiX_FDK/lib/tinyusb/src/common/tusb_fifo.h ****   const uint16_t rd_idx = f->rd_idx;
 1577              		.loc 4 294 18 is_stmt 0 view .LVU464
 1578 0066 A38A     		ldrh	r3, [r4, #20]
 1579 0068 9BB2     		uxth	r3, r3
 1580              	.LVL139:
 295:SynaptiX_FDK/lib/tinyusb/src/common/tusb_fifo.h ****   return tu_min16(tu_ff_overflow_count(f->depth, wr_idx, rd_idx), f->depth);
 1581              		.loc 4 295 3 is_stmt 1 view .LVU465
 295:SynaptiX_FDK/lib/tinyusb/src/common/tusb_fifo.h ****   return tu_min16(tu_ff_overflow_count(f->depth, wr_idx, rd_idx), f->depth);
 1582              		.loc 4 295 18 is_stmt 0 view .LVU466
 1583 006a E28A     		ldrh	r2, [r4, #22]
 1584 006c 92B2     		uxth	r2, r2
 1585              	.LVL140:
 1586              		.loc 4 296 3 is_stmt 1 view .LVU467
ARM GAS  C:\Users\LENOVO\AppData\Local\Temp\ccUTPkkl.s 			page 64


 1587              		.loc 4 296 41 is_stmt 0 view .LVU468
